(dp0
S'yellow'
p1
I0
sS'four'
p2
I1
sS'nunneri'
p3
I2
sS'lord'
p4
I3
sS'victoria\xe2\x80\x99'
p5
I4
sS'let\xe2\x80\x99'
p6
I5
sS'digit'
p7
I72
sS'uncl'
p8
I5921
sS'foul'
p9
I8
sS'sit\xe2\x80\x9d'
p10
I126
sS'wooden'
p11
I10
sS'voyeur'
p12
I11
sS'teachers\xe2\x80\x99'
p13
I12
sS'cassock'
p14
I13
sS'crotch'
p15
I14
sS'ahead'
p16
I2089
sS'bill'
p17
I4742
sS'rustl'
p18
I16
sS'pubic'
p19
I17
sS'second'
p20
I18
sS'sooth'
p21
I19
sS'thunder'
p22
I20
sS'thong'
p23
I2387
sS'jocular'
p24
I21
sS'decre'
p25
I22
sS'cull'
p26
I23
sS'specialist'
p27
I24
sS'avers'
p28
I25
sS'crouch'
p29
I26
sS'avert'
p30
I27
sS'birthdefect'
p31
I28
sS'here'
p32
I29
sS'herd'
p33
I30
sS'chine'
p34
I31
sS'china'
p35
I32
sS'dorm'
p36
I33
sS'shriek'
p37
I34
sS'fine\xe2\x80\x9d'
p38
I35
sS'strewn'
p39
I36
sS'militari'
p40
I37
sS'spotti'
p41
I38
sS'robin'
p42
I1230
sS'fumbl'
p43
I40
sS'golden'
p44
I41
sS'fretwork'
p45
I42
sS'brought'
p46
I43
sS'roughcut'
p47
I44
sS'remnant'
p48
I45
sS'stern'
p49
I46
sS'unit'
p50
I47
sS'geisha'
p51
I48
sS'music'
p52
I49
sS'telegraph'
p53
I50
sS'passport'
p54
I51
sS'strike'
p55
I52
sS'until'
p56
I53
sS'relax'
p57
I54
sS'relat'
p58
I55
sS'notic'
p59
I56
sS'hurt'
p60
I57
sS'glass'
p61
I58
sS'holi'
p62
I59
sS'hole'
p63
I60
sS'hold'
p64
I61
sS'unpack'
p65
I62
sS'accid'
p66
I63
sS'blade'
p67
I64
sS'locker'
p68
I65
sS'itself'
p69
I66
sS'omelett'
p70
I67
sS'wand'
p71
I68
sS'wane'
p72
I69
sS'unjust'
p73
I70
sS'household'
p74
I71
sS'swivel'
p75
I6
sS'\xe2\x80\x9ckeep'
p76
I73
sS'caution'
p77
I74
sS'want'
p78
I75
sS'artilleri'
p79
I76
sS'hog'
p80
I77
sS'hod'
p81
I78
sS'hoe'
p82
I79
sS'shuffl'
p83
I80
sS'travel'
p84
I81
sS'classifi'
p85
I82
sS'how'
p86
I83
sS'hot'
p87
I84
sS'symposium'
p88
I85
sS'perspect'
p89
I86
sS'terrycloth'
p90
I87
sS'serena\xe2\x80\x99'
p91
I1240
sS'pimpl'
p92
I89
sS'diagram'
p93
I90
sS'wrong'
p94
I91
sS'beauti'
p95
I92
sS'wornlook'
p96
I3514
sS'prodig'
p97
I94
sS'reshap'
p98
I95
sS'vicin'
p99
I96
sS'\xe2\x80\xa6but'
p100
I6275
sS'revolv'
p101
I97
sS'childhood'
p102
I5937
sS'tulip'
p103
I99
sS'winc'
p104
I100
sS'wing'
p105
I101
sS'wind'
p106
I102
sS'wine'
p107
I103
sS'blind'
p108
I2400
sS'\xe2\x80\x9clook'
p109
I105
sS'feedback'
p110
I106
sS'tired\xe2\x80\x9d'
p111
I107
sS'affect'
p112
I3518
sS'oven\xe2\x80\x94to'
p113
I109
sS'vari'
p114
I110
sS'fir'
p115
I111
sS'fit'
p116
I112
sS'fix'
p117
I113
sS'vast'
p118
I3521
sS'hidden'
p119
I115
sS'easier'
p120
I116
sS'eurydic'
p121
I117
sS'rectangl'
p122
I118
sS'\xe2\x80\x9cyou'
p123
I119
sS'rubbishi'
p124
I120
sS'around\xe2\x80\x9d'
p125
I121
sS'interrupt'
p126
I122
sS'\xe2\x80\x9cgodawful\xe2\x80\x9d'
p127
I123
sS'yourself'
p128
I2402
sS'silver'
p129
I125
sS'prize'
p130
I9
sS'blusher'
p131
I127
sS'dumpi'
p132
I128
sS'whin'
p133
I129
sS'whim'
p134
I130
sS'commune'
p135
I1246
sS'resum'
p136
I846
sS'spider'
p137
I133
sS'thelma'
p138
I134
sS'whir'
p139
I135
sS'scientist\xe2\x80\x9d'
p140
I136
sS'whip'
p141
I137
sS'smirk'
p142
I138
sS'tomorrow'
p143
I139
sS'adapt'
p144
I140
sS'size'
p145
I2410
sS'insemination\xe2\x80\x9d'
p146
I142
sS'smart'
p147
I6988
sS'nightmar'
p148
I143
sS'underfoot'
p149
I144
sS'immort'
p150
I145
sS'knit'
p151
I146
sS'silent'
p152
I2415
sS'ate'
p153
I148
sS'knobbi'
p154
I978
sS'shoes\xe2\x80\x9d'
p155
I150
sS'lighthead'
p156
I151
sS'silicon'
p157
I152
sS'brushfir'
p158
I153
sS'confus'
p159
I154
sS'brickwork'
p160
I155
sS'mingl'
p161
I156
sS'wast'
p162
I157
sS'wash'
p163
I158
sS'instruct'
p164
I159
sS'xii'
p165
I160
sS'understat'
p166
I161
sS'her\xe2\x80\x9d'
p167
I162
sS'adject'
p168
I5952
sS'master'
p169
I164
sS'xiv'
p170
I165
sS'intraven'
p171
I167
sS'bitter'
p172
I168
sS'listen'
p173
I169
sS'think\xe2\x80\x9d'
p174
I170
sS'\xe2\x80\x9ceven'
p175
I171
sS'sulphur'
p176
I172
sS'wars\xe2\x80\x9d'
p177
I173
sS'crawl'
p178
I174
sS'cheekbon'
p179
I175
sS'outlaw'
p180
I176
sS'tree'
p181
I177
sS'uncurl'
p182
I178
sS'shower'
p183
I179
sS'bearabl'
p184
I180
sS'functionari'
p185
I4771
sS'runner'
p186
I182
sS'boston'
p187
I183
sS'reassur'
p188
I184
sS'esti'
p189
I185
sS'parenthes'
p190
I4773
sS'\xe2\x80\x9caunts\xe2\x80\x9d'
p191
I187
sS'straightlac'
p192
I188
sS'shyli'
p193
I189
sS'seren'
p194
I190
sS'dozen'
p195
I191
sS'officers\xe2\x80\x9d'
p196
I192
sS'flashcamera'
p197
I193
sS'seethrough'
p198
I194
sS'uncouth'
p199
I1258
sS'rita\xe2\x80\x99'
p200
I196
sS'divan'
p201
I197
sS'hum'
p202
I5962
sS'prerog'
p203
I199
sS'paintbrush'
p204
I200
sS'canist'
p205
I201
sS'talk\xe2\x80\x9d'
p206
I4774
sS'rightsideup'
p207
I203
sS'object'
p208
I204
sS'air\xe2\x80\x9d'
p209
I205
sS'mouth'
p210
I206
sS'addict'
p211
I207
sS'letter'
p212
I208
sS'shalt'
p213
I209
sS'unpleas'
p214
I210
sS'professor'
p215
I211
sS'camp'
p216
I212
sS'hospit'
p217
I213
sS'\xe2\x80\x9clet'
p218
I214
sS'nineteenth'
p219
I215
sS'doesn\xe2\x80\x99t'
p220
I216
sS'scream'
p221
I217
sS'came'
p222
I218
sS'marvel'
p223
I219
sS'explan'
p224
I220
sS'ostentati'
p225
I221
sS'bomb'
p226
I222
sS'penanc'
p227
I223
sS'transluc'
p228
I224
sS'dicken'
p229
I225
sS'undul'
p230
I226
sS'\xe2\x80\x9chas'
p231
I227
sS'quaint'
p232
I228
sS'restaur'
p233
I229
sS'cupid'
p234
I230
sS'bush'
p235
I231
sS'busi'
p236
I232
sS'rich'
p237
I233
sS'telegram'
p238
I1260
sS'rice'
p239
I235
sS'buse'
p240
I236
sS'plate'
p241
I237
sS'lawn\xe2\x80\x94th'
p242
I238
sS'ceil'
p243
I239
sS'pocket'
p244
I240
sS'giggl'
p245
I241
sS'cushion'
p246
I242
sS'new'
p247
I3539
sS'p\xe2\x80\x9d'
p248
I244
sS'relish'
p249
I245
sS'patch'
p250
I246
sS'indigen'
p251
I247
sS'sheepish'
p252
I1670
sS'halfcolor'
p253
I248
sS'respond'
p254
I249
sS'blew'
p255
I250
sS'\xe2\x80\x9cthose'
p256
I251
sS'fair'
p257
I252
sS'bled'
p258
I254
sS'goodnight'
p259
I255
sS'result'
p260
I256
sS'respons'
p261
I257
sS'fail'
p262
I258
sS'hammer'
p263
I259
sS'best'
p264
I260
sS'dishwash'
p265
I261
sS'for\xe2\x80\x9d'
p266
I262
sS'skimpi'
p267
I263
sS'figur'
p268
I264
sS'loth'
p269
I265
sS'scorn'
p270
I266
sS'balanc'
p271
I5974
sS'middleperiod'
p272
I802
sS'men'
p273
I3544
sS'extend'
p274
I270
sS'vestment'
p275
I271
sS'souvenir'
p276
I272
sS'extens'
p277
I273
sS'extent'
p278
I274
sS'toler'
p279
I275
sS'advertis'
p280
I276
sS'roller'
p281
I277
sS'askew'
p282
I278
sS'pitv'
p283
I279
sS'piti'
p284
I280
sS'overenthusiast'
p285
I281
sS'logic'
p286
I282
sS'countri'
p287
I283
sS'seri'
p288
I5977
sS'compromis'
p289
I284
sS'assur'
p290
I285
sS'cult'
p291
I286
sS'circle\xe2\x80\x9d'
p292
I287
sS'assum'
p293
I288
sS'duplic'
p294
I289
sS'plumag'
p295
I290
sS'parley'
p296
I291
sS'chrome'
p297
I292
sS'fri'
p298
I293
sS'had\xe2\x80\xa6'
p299
I294
sS'fro'
p300
I295
sS'cue'
p301
I296
sS'much'
p302
I297
sS'stadium'
p303
I298
sS'advers'
p304
I299
sS'atwood\xe2\x80\x99'
p305
I300
sS'counterattack'
p306
I301
sS'hesit'
p307
I302
sS'life'
p308
I303
sS'distast'
p309
I304
sS'regul'
p310
I305
sS'spit'
p311
I306
sS'wish'
p312
I307
sS'lift'
p313
I308
sS'child'
p314
I309
sS'spin'
p315
I310
sS'suav'
p316
I311
sS'anymore\xe2\x80\x9d'
p317
I312
sS'chill'
p318
I313
sS'commerci'
p319
I1765
sS'calcium'
p320
I315
sS't\xe2\x80\x99s'
p321
I5985
sS'marriag'
p322
I316
sS'viii'
p323
I317
sS'four\xe2\x80\x94th'
p324
I318
sS'letdown'
p325
I319
sS'player'
p326
I320
sS'\xe2\x80\x9cput'
p327
I321
sS'harmoni'
p328
I322
sS'credit'
p329
I3552
sS'woollen'
p330
I1927
sS'rebellion'
p331
I325
sS'oranges\xe2\x80\x94and'
p332
I1941
sS'big'
p333
I327
sS'costum'
p334
I328
sS'ownership'
p335
I329
sS'supper'
p336
I330
sS'tuna'
p337
I331
sS'tune'
p338
I332
sS'nibbl'
p339
I333
sS'bewar'
p340
I335
sS'peremptori'
p341
I336
sS'technicolor'
p342
I337
sS'boyhood'
p343
I338
sS'ma\xe2\x80\x99am'
p344
I3556
sS'sleepi'
p345
I340
sS'previous'
p346
I341
sS'ham'
p347
I342
sS'easi'
p348
I343
sS'had'
p349
I344
sS'hag'
p350
I345
sS'endur'
p351
I2084
sS'falter'
p352
I347
sS'has'
p353
I348
sS'hat'
p354
I349
sS'experiment\xe2\x80\x9d'
p355
I350
sS'preserv'
p356
I351
sS'twinkl'
p357
I352
sS'birth'
p358
I353
sS'shadow'
p359
I354
sS'huh\xe2\x80\x9d'
p360
I355
sS'measur'
p361
I356
sS'specif'
p362
I357
sS'remind'
p363
I358
sS'themtoo'
p364
I359
sS'\xe2\x80\x9cdim'
p365
I360
sS'right'
p366
I361
sS'old'
p367
I362
sS'crowd'
p368
I363
sS'stealthili'
p369
I364
sS'creed'
p370
I365
sS'\xe2\x80\x9cdid'
p371
I366
sS'crown'
p372
I367
sS'point\xe2\x80\x9d'
p373
I368
sS'baroda'
p374
I369
sS'creep'
p375
I370
sS'for'
p376
I371
sS'bottom'
p377
I372
sS'fog'
p378
I373
sS'condit'
p379
I374
sS'atroc'
p380
I2052
sS'shaker'
p381
I375
sS'tell\xe2\x80\x9d'
p382
I376
sS'undifferenti'
p383
I377
sS'yoke'
p384
I378
sS'rebuk'
p385
I379
sS'slither'
p386
I380
sS'place\xe2\x80\x9d'
p387
I382
sS'recollect'
p388
I383
sS'machinegun'
p389
I4811
sS'despair'
p390
I385
sS'downstair'
p391
I386
sS'bandag'
p392
I387
sS'\xe2\x80\x9crest'
p393
I1357
sS'voiceactiv'
p394
I390
sS'sos'
p395
I391
sS'wrap'
p396
I392
sS'east'
p397
I546
sS'fabric'
p398
I394
sS'support'
p399
I395
sS'happi'
p400
I396
sS'avail'
p401
I397
sS'acknowledg'
p402
I1281
sS'call'
p403
I3561
sS'bedrock'
p404
I400
sS'offer'
p405
I401
sS'armi'
p406
I3563
sS'rerun'
p407
I403
sS'proud'
p408
I404
sS'sight'
p409
I1286
sS'wrangl'
p410
I406
sS'proven'
p411
I407
sS'exist'
p412
I408
sS'bedsheet'
p413
I409
sS'carryov'
p414
I1288
sS'floor'
p415
I411
sS'actor'
p416
I412
sS'flood'
p417
I413
sS'role'
p418
I414
sS'pictori'
p419
I415
sS'sunset'
p420
I416
sS'presum'
p421
I417
sS'smell'
p422
I418
sS'roll'
p423
I419
sS'\xe2\x80\x9cfor'
p424
I6000
sS'\xe2\x80\x9ci\xe2\x80\x99d'
p425
I421
sS'intend'
p426
I422
sS'\xe2\x80\x9ci\xe2\x80\x99m'
p427
I423
sS'\xe2\x80\x9ci\xe2\x80\x99v'
p428
I424
sS'nightbloom'
p429
I425
sS'intens'
p430
I426
sS'intent'
p431
I427
sS'warp'
p432
I3568
sS'\xe2\x80\x9canyth'
p433
I429
sS'puss'
p434
I430
sS'\xe2\x80\x9cwell'
p435
I431
sS'geometr'
p436
I432
sS'time'
p437
I433
sS'push'
p438
I434
sS'tag\xe2\x80\x9d'
p439
I435
sS'quandari'
p440
I436
sS'gown'
p441
I437
sS'chain'
p442
I438
sS'whoever'
p443
I439
sS'furtiv'
p444
I440
sS'chair'
p445
I441
sS'bewild'
p446
I442
sS'ballet'
p447
I443
sS'uneven'
p448
I444
sS'religion'
p449
I1293
sS'substitut'
p450
I446
sS'they\xe2\x80\x9d'
p451
I447
sS'crater'
p452
I448
sS'\xe2\x80\x9cmaybe\xe2\x80\x9d'
p453
I449
sS'decis'
p454
I450
sS'macho'
p455
I451
sS'oversight'
p456
I452
sS'jerk'
p457
I453
sS'mourn'
p458
I454
sS'knapsack'
p459
I455
sS'exact'
p460
I456
sS'undeni'
p461
I457
sS'tear'
p462
I458
sS'teas'
p463
I459
sS'leftov'
p464
I460
sS'disembodi'
p465
I461
sS'subway'
p466
I462
sS'team'
p467
I463
sS'cooki'
p468
I464
sS'eggcup'
p469
I465
sS'citywid'
p470
I466
sS'prevent'
p471
I467
sS'attic'
p472
I468
sS'sigh'
p473
I2835
sS'compens'
p474
I470
sS'worst\xe2\x80\x94in'
p475
I471
sS'sign'
p476
I472
sS'erotic'
p477
I473
sS'candlestick'
p478
I3577
sS'lazili'
p479
I475
sS'\xe2\x80\x9cmayb'
p480
I476
sS'melt'
p481
I477
sS'current'
p482
I478
sS'jeopardi'
p483
I479
sS'fifti'
p484
I480
sS'amalgam'
p485
I481
sS'\xe2\x80\x9ccommander\xe2\x80\x9d\xe2\x80\x94mani'
p486
I482
sS'better\xe2\x80\x9d'
p487
I483
sS'address'
p488
I484
sS'along'
p489
I485
sS'togeth'
p490
I1673
sS'brilliant'
p491
I486
sS'incrimin'
p492
I487
sS'dusti'
p493
I488
sS'ourselv'
p494
I489
sS'love'
p495
I490
sS'radish'
p496
I491
sS'prefer'
p497
I492
sS'seattl'
p498
I493
sS'fake'
p499
I494
sS'notunpleas'
p500
I495
sS'bloodi'
p501
I496
sS'turret'
p502
I497
sS'punctur'
p503
I498
sS'anvth'
p504
I499
sS'angri'
p505
I500
sS'wicked'
p506
I501
sS'fault\xe2\x80\x9d'
p507
I502
sS'afford'
p508
I503
sS'peopl'
p509
I504
sS'visual'
p510
I505
sS'have\xe2\x80\xa6'
p511
I506
sS'behalf'
p512
I507
sS'pretend'
p513
I508
sS'irreligi'
p514
I509
sS'whatev'
p515
I510
sS'washerdry'
p516
I511
sS'yourself\xe2\x80\x9d'
p517
I512
sS'most'
p518
I6616
sS'mistress\xe2\x80\x94mi'
p519
I513
sS'diminut'
p520
I514
sS'\xe2\x80\x9cclose'
p521
I515
sS'trust\xe2\x80\x9d'
p522
I1303
sS'me\xe2\x80\x94but'
p523
I517
sS'recycl'
p524
I518
sS'stole'
p525
I519
sS'shoemak'
p526
I520
sS'winter'
p527
I521
sS'savor'
p528
I522
sS'ambush'
p529
I1305
sS'chaucer'
p530
I524
sS'mildr'
p531
I525
sS'upstairs\xe2\x80\x9d'
p532
I526
sS'filthi'
p533
I527
sS'us\xe2\x80\x9d'
p534
I528
sS'laundri'
p535
I529
sS'brioch'
p536
I530
sS'date'
p537
I531
sS'such'
p538
I532
sS'suck'
p539
I533
sS'conscious'
p540
I535
sS'ideolog'
p541
I536
sS'st'
p542
I537
sS'mangl'
p543
I538
sS'so'
p544
I539
sS'mangi'
p545
I540
sS'swollen'
p546
I541
sS'tlhat'
p547
I542
sS'husband\xe2\x80\x99'
p548
I543
sS'germless'
p549
I544
sS'husband\xe2\x80\x9d'
p550
I545
sS'horrifi'
p551
I547
sS'footstep'
p552
I548
sS'\xe2\x80\x9cartifici'
p553
I549
sS'yearn'
p554
I550
sS'tore'
p555
I551
sS'avid'
p556
I552
sS'thumb'
p557
I553
sS'arrested\xe2\x80\x9d'
p558
I554
sS'torn'
p559
I555
sS'solitari'
p560
I556
sS'suspicion'
p561
I557
sS'thump'
p562
I558
sS'palpabl'
p563
I559
sS'apron'
p564
I560
sS'civilian'
p565
I561
sS'exot'
p566
I562
sS'nation'
p567
I563
sS'amulet'
p568
I564
sS'archaic\xe2\x80\x9d'
p569
I565
sS'\xe2\x80\x9canoth'
p570
I566
sS'twilight'
p571
I567
sS'plung'
p572
I568
sS'truckload'
p573
I569
sS'revers'
p574
I570
sS'cleancut'
p575
I571
sS'separ'
p576
I572
sS'quarter'
p577
I3440
sS'surreptiti'
p578
I574
sS'edifi'
p579
I575
sS'bathrob'
p580
I576
sS'\xe2\x80\x9cyour'
p581
I577
sS'tonic\xe2\x80\x9d'
p582
I578
sS'he\xe2\x80\x99'
p583
I579
sS'weakey'
p584
I580
sS'withered\xe2\x80\x94'
p585
I581
sS'apparit'
p586
I582
sS'domest'
p587
I583
sS'million'
p588
I584
sS'envelop'
p589
I585
sS'seventi'
p590
I586
sS'substanc'
p591
I3598
sS'disrespect'
p592
I588
sS'crazier'
p593
I589
sS'modest'
p594
I590
sS'recov'
p595
I591
sS'nicknam'
p596
I592
sS'neglect'
p597
I593
sS'pillowcas'
p598
I594
sS'oper'
p599
I595
sS'spoken'
p600
I596
sS'onc'
p601
I597
sS'\xe2\x80\x9cdoe'
p602
I598
sS'one'
p603
I599
sS'cloakroom'
p604
I600
sS'tarts\xe2\x80\x99'
p605
I601
sS'\xe2\x80\x9chead'
p606
I602
sS'open'
p607
I603
sS'audac'
p608
I604
sS'urin'
p609
I605
sS'\xe2\x80\x9chandmaids\xe2\x80\x9d'
p610
I606
sS'convent'
p611
I607
sS'bite'
p612
I608
sS'citi'
p613
I610
sS'shiver'
p614
I611
sS'cassett'
p615
I3679
sS'conveni'
p616
I613
sS'shawl'
p617
I614
sS'artifact'
p618
I615
sS'snatch'
p619
I616
sS'glossi'
p620
I617
sS'i\xe2\x80\x99ll'
p621
I618
sS'stammer'
p622
I619
sS'\xe2\x80\x9che\xe2\x80\x99'
p623
I6041
sS'want\xe2\x80\x9d'
p624
I621
sS'nowhav'
p625
I622
sS'nuisanc'
p626
I623
sS'russia'
p627
I624
sS'prospect'
p628
I625
sS'san'
p629
I626
sS'\xe2\x80\x9cshe\xe2\x80\x99'
p630
I627
sS'sag'
p631
I628
sS'argument'
p632
I629
sS'alley'
p633
I630
sS'sad'
p634
I631
sS'say'
p635
I632
sS'sap'
p636
I633
sS'saw'
p637
I634
sS'sat'
p638
I635
sS'\xe2\x80\x9ci\xe2\x80\x99ll'
p639
I636
sS'fertil'
p640
I637
sS'compunumb'
p641
I638
sS'wink'
p642
I639
sS'washbasin'
p643
I640
sS'knead'
p644
I641
sS'retroact'
p645
I642
sS'martha\xe2\x80\x99'
p646
I643
sS'zoo'
p647
I644
sS'note'
p648
I645
sS'pimpli'
p649
I646
sS'denomin'
p650
I647
sS'take'
p651
I648
sS'destroy'
p652
I649
sS'noth'
p653
I650
sS'knew'
p654
I651
sS'compress'
p655
I652
sS'buffet'
p656
I653
sS'butterfli'
p657
I654
sS'abus'
p658
I655
sS'crochet'
p659
I656
sS'knee'
p660
I657
sS'armrest'
p661
I658
sS'lawn'
p662
I659
sS'enamel'
p663
I660
sS'jitteri'
p664
I661
sS'drive'
p665
I662
sS'badg'
p666
I663
sS'hecom'
p667
I664
sS'squint'
p668
I665
sS'dolor'
p669
I666
sS'salt'
p670
I667
sS'sadey'
p671
I668
sS'signoff'
p672
I669
sS'\xe2\x80\x9ccia\xe2\x80\x9d'
p673
I3982
sS'fecal'
p674
I671
sS'\xe2\x80\x9ccome'
p675
I672
sS'bright'
p676
I673
sS'\xe2\x80\x9cthe'
p677
I674
sS'\xe2\x80\x9cprais'
p678
I675
sS'who\xe2\x80\x99ll'
p679
I676
sS'slot'
p680
I677
sS'slow'
p681
I678
sS'unkind'
p682
I679
sS'penalty\xe2\x80\x9d'
p683
I680
sS'transact'
p684
I681
sS'activ'
p685
I682
sS'cloak'
p686
I683
sS'monotheocraci'
p687
I684
sS'robe'
p688
I685
sS'gileadean'
p689
I686
sS'outlet'
p690
I687
sS'requir'
p691
I688
sS'letharg'
p692
I689
sS'pimp'
p693
I690
sS'borrow'
p694
I691
sS'carrion'
p695
I692
sS'priest'
p696
I693
sS'where'
p697
I694
sS'vision'
p698
I695
sS'stoppctl'
p699
I696
sS'alone\xe2\x80\x94though'
p700
I697
sS'goug'
p701
I698
sS'dormitori'
p702
I699
sS'moldi'
p703
I700
sS'televis'
p704
I701
sS'doughfac'
p705
I702
sS'bureau'
p706
I703
sS'mope'
p707
I704
sS'spars'
p708
I705
sS'palimpsest'
p709
I706
sS'document\xe2\x80\x93wa'
p710
I707
sS'screen'
p711
I708
sS'jaunti'
p712
I709
sS'supermarket'
p713
I710
sS'gentl'
p714
I3615
sS'spare'
p715
I712
sS'procreat'
p716
I713
sS'opento'
p717
I714
sS'pantaloon'
p718
I715
sS'confisc'
p719
I716
sS'demur'
p720
I717
sS'whimsic'
p721
I718
sS'mani'
p722
I719
sS'gaieti'
p723
I720
sS'unmov'
p724
I721
sS'exagger'
p725
I722
sS'twin'
p726
I723
sS'memoirs\xe2\x80\x9d'
p727
I724
sS'extinct'
p728
I725
sS'mousetrap'
p729
I726
sS'boat'
p730
I727
sS'now\xe2\x80\x9d'
p731
I728
sS'buren'
p732
I729
sS'stretch'
p733
I730
sS'west'
p734
I731
sS'breath'
p735
I732
sS'reconcili'
p736
I1334
sS'deuteronomi'
p737
I734
sS'redglov'
p738
I735
sS'detach'
p739
I6131
sS'armless'
p740
I736
sS'thousand'
p741
I737
sS'persist'
p742
I3618
sS'anticipated\xe2\x80\x9d'
p743
I1335
sS'catastroph'
p744
I740
sS'mind\xe2\x80\x99'
p745
I741
sS'doctor\xe2\x80\x99'
p746
I742
sS'bestsel'
p747
I743
sS'\xe2\x80\x9cdo'
p748
I744
sS'straighten'
p749
I745
sS'scriptur'
p750
I746
sS'peachpink'
p751
I747
sS'on\xe2\x80\x9d'
p752
I748
sS'stockpil'
p753
I749
sS'squintey'
p754
I1337
sS'penultim'
p755
I751
sS'convinc'
p756
I752
sS'anim'
p757
I3622
sS'\xe2\x80\x9cain\xe2\x80\x99t'
p758
I754
sS'\xe2\x80\x9cmost'
p759
I3623
sS'pursu'
p760
I756
sS'cafe'
p761
I757
sS'siames'
p762
I758
sS'cubicl'
p763
I759
sS'econom'
p764
I760
sS'\xe2\x80\x98t\xe2\x80\x99t'
p765
I761
sS'econow'
p766
I762
sS'dick\xe2\x80\x9d'
p767
I764
sS'tinkl'
p768
I765
sS'deft'
p769
I766
sS'wheels\xe2\x80\x9d'
p770
I767
sS'defi'
p771
I768
sS'flatheel'
p772
I769
sS'blurrili'
p773
I770
sS'open\xe2\x80\x9d'
p774
I771
sS'genit'
p775
I772
sS'grumpi'
p776
I773
sS'vacant'
p777
I774
sS'temptat'
p778
I775
sS'vacanc'
p779
I776
sS'summer'
p780
I777
sS'poach'
p781
I778
sS'rest'
p782
I779
sS'invalid'
p783
I1341
sS'laughabl'
p784
I781
sS'can\xe2\x80\x9d'
p785
I782
sS'concentr'
p786
I783
sS'indulg'
p787
I784
sS'staggers\xe2\x80\x94i'
p788
I785
sS'obliter'
p789
I786
sS'correct\xe2\x80\x94suppos'
p790
I787
sS'littl'
p791
I788
sS'instrument'
p792
I789
sS'exercis'
p793
I790
sS'bronz'
p794
I6931
sS'camisol'
p795
I791
sS'rejoic'
p796
I792
sS'around'
p797
I793
sS'dark'
p798
I794
sS'crustl'
p799
I795
sS'traffic'
p800
I796
sS'system\xe2\x80\x94and'
p801
I797
sS'world'
p802
I798
sS'dare'
p803
I799
sS'sucki'
p804
I5821
sS'stranger'
p805
I800
sS'wordless'
p806
I801
sS'inter'
p807
I803
sS'manag'
p808
I804
sS'clap'
p809
I805
sS'colonialstyl'
p810
I806
sS'\xe2\x80\x9cthey'
p811
I807
sS'prod\xe2\x80\x99'
p812
I808
sS'muscl'
p813
I809
sS'period\xe2\x80\x9d'
p814
I810
sS'lobster'
p815
I811
sS'constitut'
p816
I812
sS'coloni'
p817
I6069
sS'noon'
p818
I814
sS'exil'
p819
I4880
sS'exit'
p820
I816
sS'noos'
p821
I817
sS'caviti'
p822
I818
sS'warrant\xe2\x80\x9d'
p823
I819
sS'refer'
p824
I820
sS'power'
p825
I821
sS'ration'
p826
I822
sS'throwback'
p827
I823
sS'be\xe2\x80\x9d'
p828
I824
sS'went'
p829
I3634
sS'eyes\xe2\x80\x99l'
p830
I826
sS'stone'
p831
I828
sS'ach'
p832
I829
sS'acn'
p833
I830
sS'neighbor'
p834
I831
sS'act'
p835
I832
sS'luck'
p836
I3639
sS'longsleev'
p837
I834
sS'surviv'
p838
I835
sS'wade'
p839
I836
sS'purplish'
p840
I837
sS'sterilitycaus'
p841
I5030
sS'lightmind'
p842
I839
sS'her'
p843
I840
sS'gleam'
p844
I841
sS'hey'
p845
I842
sS'emaci'
p846
I843
sS'hee'
p847
I844
sS'franchis'
p848
I845
sS'garment'
p849
I132
sS'hem'
p850
I847
sS'hen'
p851
I848
sS'bottl'
p852
I849
sS'syphili'
p853
I850
sS'cultiv'
p854
I851
sS'bundl'
p855
I852
sS'bundi'
p856
I853
sS'\xe2\x80\x9cbut\xe2\x80\xa6\xe2\x80\x9d'
p857
I854
sS'mice'
p858
I855
sS'with'
p859
I856
sS'congratul'
p860
I857
sS'pull'
p861
I858
sS'rush'
p862
I859
sS'darken'
p863
I860
sS'dirti'
p864
I861
sS'rage'
p865
I862
sS'flirt'
p866
I864
sS'torso'
p867
I865
sS'pulp'
p868
I866
sS'puls'
p869
I867
sS'darker'
p870
I868
sS'creas'
p871
I869
sS'ab'
p872
I870
sS'ad'
p873
I871
sS'creat'
p874
I872
sS'certain'
p875
I873
sS'am'
p876
I874
sS'al'
p877
I875
sS'an'
p878
I876
sS'ap'
p879
I877
sS'tshirt'
p880
I878
sS'au'
p881
I879
sS'at'
p882
I880
sS'johnni'
p883
I881
sS'creak'
p884
I882
sS'tranquil'
p885
I883
sS'cream'
p886
I884
sS'puppi'
p887
I885
sS'quasimilitari'
p888
I5213
sS'tight'
p889
I887
sS'would\xe2\x80\x9d'
p890
I888
sS'drafti'
p891
I889
sS'genuin'
p892
I890
sS'congress'
p893
I891
sS'slant'
p894
I892
sS'fresh'
p895
I3074
sS'\xe2\x80\x9cbehind'
p896
I894
sS'slang'
p897
I895
sS'\xe2\x80\x9cwe\xe2\x80\x99ll'
p898
I896
sS'thorn'
p899
I897
sS'mask'
p900
I898
sS'though\xe2\x80\x9d'
p901
I1356
sS'tricki'
p902
I900
sS'\xe2\x80\x9cfive'
p903
I901
sS'mass'
p904
I902
sS'trickl'
p905
I903
sS'retch'
p906
I904
sS'greenstreak'
p907
I905
sS'consider'
p908
I906
sS'illustr'
p909
I907
sS'neigh'
p910
I908
sS'wageincreas'
p911
I909
sS'sct'
p912
I910
sS'tv'
p913
I911
sS'daugher'
p914
I912
sS'incap'
p915
I913
sS'to'
p916
I915
sS'tail'
p917
I916
sS'th'
p918
I917
sS'smile'
p919
I918
sS'te'
p920
I919
sS'norm'
p921
I920
sS'diari'
p922
I921
sS'absentmind'
p923
I922
sS'candid'
p924
I923
sS'strang'
p925
I924
sS'strand'
p926
I925
sS'unalt'
p927
I926
sS'duski'
p928
I927
sS'skin\xe2\x80\x99'
p929
I928
sS'destabil'
p930
I929
sS'pedant'
p931
I2525
sS'sand'
p932
I931
sS'sane'
p933
I932
sS'where\xe2\x80\x99d'
p934
I933
sS'small'
p935
I934
sS'infinitesim'
p936
I935
sS'number\xe2\x80\x99'
p937
I936
sS'past'
p938
I937
sS'pass'
p939
I938
sS'riddanc'
p940
I939
sS'deleg'
p941
I940
sS'missing\xe2\x80\x9d'
p942
I941
sS'clock'
p943
I5560
sS'section'
p944
I943
sS'full'
p945
I944
sS'hash'
p946
I945
sS'kind\xe2\x80\x9d'
p947
I946
sS'down\xe2\x80\x99'
p948
I947
sS'down\xe2\x80\x9d'
p949
I948
sS'rental\xe2\x80\x9d'
p950
I949
sS'greasi'
p951
I3656
sS'backlash'
p952
I951
sS'ecstat'
p953
I952
sS'brutal'
p954
I954
sS'food\xe2\x80\x99'
p955
I3053
sS'healthier'
p956
I956
sS'social'
p957
I957
sS'via'
p958
I958
sS'depart'
p959
I959
sS'picturesqu'
p960
I960
sS'vii'
p961
I961
sS'vim'
p962
I962
sS'regiment'
p963
I963
sS'orwellian'
p964
I964
sS'select'
p965
I965
sS'pearl'
p966
I966
sS'mori'
p967
I967
sS'morn'
p968
I968
sS'more'
p969
I969
sS'door'
p970
I970
sS'hundr'
p971
I971
sS'watching\xe2\x80\x9d'
p972
I972
sS'chuckl'
p973
I973
sS'uncov'
p974
I2532
sS'doctor\xe2\x80\x9d'
p975
I975
sS'compani'
p976
I976
sS'uncook'
p977
I977
sS'underp'
p978
I979
sS'underr'
p979
I980
sS'gravel'
p980
I981
sS'\xe2\x80\x9clot'
p981
I982
sS'patriarch'
p982
I983
sS'oller'
p983
I984
sS'learn'
p984
I985
sS'grope'
p985
I986
sS'male'
p986
I987
sS'disapprov'
p987
I988
sS'prompt'
p988
I989
sS'scan'
p989
I990
sS'challeng'
p990
I991
sS'registr'
p991
I2124
sS'accept'
p992
I993
sS'masculin'
p993
I994
sS'schoolgirl'
p994
I995
sS'scar'
p995
I996
sS'dress'
p996
I997
sS'huge'
p997
I998
sS'browni'
p998
I999
sS'untru'
p999
I1000
sS'us\xe2\x80\x94i'
p1000
I1001
sS'katharin'
p1001
I1002
sS'cling'
p1002
I1003
sS'frailroad\xe2\x80\x9d'
p1003
I1004
sS'clink'
p1004
I1005
sS'simpl'
p1005
I1006
sS'footlock'
p1006
I1007
sS'plant'
p1007
I1008
sS'soundtrack'
p1008
I1009
sS'plane'
p1009
I1010
sS'sabin'
p1010
I4899
sS'waver'
p1011
I1012
sS'somewhere\xe2\x80\x9d'
p1012
I1013
sS'wilei'
p1013
I1014
sS'flutter'
p1014
I1015
sS'circumst'
p1015
I1016
sS'ostent'
p1016
I1889
sS'been\xe2\x80\x9d'
p1017
I1018
sS'such\xe2\x80\xa6\xe2\x80\x9d'
p1018
I1019
sS'convuls'
p1019
I1020
sS'cigarett'
p1020
I1021
sS'rowdi'
p1021
I1022
sS'iti'
p1022
I3142
sS'what\xe2\x80\x99shisfac'
p1023
I1024
sS'trade'
p1024
I1025
sS'paper'
p1025
I1026
sS'eye\xe2\x80\x9d'
p1026
I1027
sS'compudoc'
p1027
I1028
sS'alll'
p1028
I1031
sS'reschedul'
p1029
I1032
sS'profile\xe2\x80\x99'
p1030
I1033
sS'plan\xe2\x80\x9d'
p1031
I1034
sS'beatitud'
p1032
I1035
sS'earthgoddess'
p1033
I1036
sS'mesmer'
p1034
I1037
sS'farewel'
p1035
I1038
sS'babyblu'
p1036
I1039
sS'recit'
p1037
I1040
sS'again\xe2\x80\x9d'
p1038
I1041
sS'authent'
p1039
I1042
sS'achiev'
p1040
I1043
sS'\xe2\x80\x9cexcus'
p1041
I1044
sS'found'
p1042
I1045
sS'deepdown'
p1043
I1046
sS'lantern'
p1044
I1047
sS'week'
p1045
I6098
sS'england'
p1046
I1049
sS'mump'
p1047
I1050
sS'eyelash'
p1048
I1051
sS'monoton'
p1049
I1052
sS'terrifi'
p1050
I1053
sS'realli'
p1051
I1054
sS'girlish'
p1052
I1055
sS'agre'
p1053
I3673
sS'o\xe2\x80\x99clock'
p1054
I1057
sS'blackr'
p1055
I1058
sS'research'
p1056
I1059
sS'bubbl'
p1057
I1060
sS'silki'
p1058
I1061
sS'smuggl'
p1059
I1062
sS'highway'
p1060
I1063
sS'qualifi'
p1061
I1064
sS'belief'
p1062
I1065
sS'risen'
p1063
I1066
sS'porcelain'
p1064
I1067
sS'campfir'
p1065
I1068
sS'believ'
p1066
I1069
sS'murmur'
p1067
I1070
sS'reproach'
p1068
I1071
sS'director'
p1069
I6103
sS'coffee\xe2\x80\x94and'
p1070
I6104
sS'one\xe2\x80\x99'
p1071
I1074
sS'one\xe2\x80\x9d'
p1072
I1075
sS'advanc'
p1073
I6383
sS'struggl'
p1074
I1076
sS'sicken'
p1075
I1077
sS'penetr'
p1076
I1078
sS'testament'
p1077
I1079
sS'clump'
p1078
I1080
sS'he\xe2\x80\x99ll'
p1079
I1081
sS'number'
p1080
I1082
sS'tangl'
p1081
I1083
sS'slipper'
p1082
I1084
sS'horribl'
p1083
I1085
sS'glitter'
p1084
I1086
sS'guess'
p1085
I1087
sS'jew'
p1086
I1089
sS'them\xe2\x80\x9d'
p1087
I1090
sS'swipe'
p1088
I1091
sS'checkpoint'
p1089
I1092
sS'saint'
p1090
I1093
sS'illeg'
p1091
I1094
sS'litani'
p1092
I1095
sS'tenderfoot'
p1093
I1096
sS'common\xe2\x80\x9d'
p1094
I1097
sS'officially\xe2\x80\x9d'
p1095
I1098
sS'consult'
p1096
I1099
sS'wingedey'
p1097
I1100
sS'grace'
p1098
I1101
sS'crosscurr'
p1099
I1102
sS'perfum'
p1100
I1103
sS'arrang'
p1101
I1104
sS'comput'
p1102
I1105
sS'beforehand'
p1103
I1106
sS'defect'
p1104
I1107
sS'pedestrian'
p1105
I1108
sS'caress'
p1106
I1109
sS'graffiti'
p1107
I1110
sS'blond'
p1108
I1111
sS'compucount'
p1109
I1112
sS'sell'
p1110
I1113
sS'bloodstain'
p1111
I1114
sS'self'
p1112
I1115
sS'also'
p1113
I1116
sS'gyn'
p1114
I3682
sS'silveri'
p1115
I1118
sS'play'
p1116
I1119
sS'blackboard'
p1117
I1120
sS'voice\xe2\x80\x94and'
p1118
I1121
sS'virus'
p1119
I1122
sS'\xe2\x80\x9cbless'
p1120
I1123
sS'ofglen'
p1121
I1124
sS'cra/i'
p1122
I3388
sS'wive'
p1123
I1125
sS'oyster'
p1124
I1126
sS'diamondstud'
p1125
I1127
sS'covet'
p1126
I1128
sS'cover'
p1127
I1129
sS'abnorm'
p1128
I1130
sS'barren'
p1129
I1131
sS'golf'
p1130
I1132
sS'thirtythre'
p1131
I1133
sS'gold'
p1132
I1134
sS'side\xe2\x80\x94ofwarren\xe2\x80\x99'
p1133
I1135
sS'midwestern'
p1134
I1136
sS'crech'
p1135
I1137
sS'session'
p1136
I1138
sS'fireplac'
p1137
I1139
sS'reput'
p1138
I1140
sS'washroom\xe2\x80\x9d'
p1139
I1141
sS'access'
p1140
I1142
sS'staircas'
p1141
I2552
sS'them\xe2\x80\x94th'
p1142
I1144
sS'condon'
p1143
I1145
sS'factor'
p1144
I1146
sS'coffee\xe2\x80\x94in'
p1145
I1147
sS'remedi'
p1146
I1148
sS'dandelion'
p1147
I1149
sS'futureeach'
p1148
I1150
sS'secular'
p1149
I1151
sS'resent'
p1150
I1152
sS'compass'
p1151
I1153
sS'\xe2\x80\x9cunder'
p1152
I3838
sS'banner'
p1153
I1154
sS'lavish'
p1154
I6124
sS'synthet'
p1155
I1156
sS'bodytight'
p1156
I7048
sS'acut'
p1157
I1157
sS'enemi'
p1158
I1158
sS'nowher'
p1159
I1159
sS'coward'
p1160
I1160
sS'sew'
p1161
I1161
sS'set'
p1162
I1162
sS'appalachian'
p1163
I1163
sS'sex'
p1164
I1164
sS'\xe2\x80\x9cwhatev'
p1165
I1165
sS'touch'
p1166
I2556
sS'see'
p1167
I1167
sS'sec'
p1168
I1168
sS'sea'
p1169
I1169
sS'bonfires\xe2\x80\xa6'
p1170
I1170
sS'led'
p1171
I1171
sS'outward'
p1172
I1172
sS'eman'
p1173
I1173
sS'project'
p1174
I1174
sS'spiritu'
p1175
I1175
sS'don\xe2\x80\x99t'
p1176
I3692
sS'somber'
p1177
I3576
sS'rite'
p1178
I1177
sS'sundress'
p1179
I1178
sS'compliment'
p1180
I3908
sS'candor'
p1181
I1180
sS'mildew'
p1182
I1181
sS'fedup'
p1183
I3694
sS'pirat'
p1184
I1183
sS'speaker\xe2\x80\x94although'
p1185
I5643
sS'pagan'
p1186
I1185
sS'stiffneck'
p1187
I1186
sS'last'
p1188
I1187
sS'insinu'
p1189
I1188
sS'thow'
p1190
I1189
sS'\xe2\x80\x9cwe\xe2\x80\x99v'
p1191
I1190
sS'whole'
p1192
I1191
sS'blaze'
p1193
I1192
sS'guns\xe2\x80\x94in'
p1194
I1193
sS'loaf'
p1195
I1194
sS'pendulum'
p1196
I1195
sS'\xe2\x80\x9cwhen'
p1197
I4629
sS'loan'
p1198
I1197
sS'\xe2\x80\x9cnow\xe2\x80\x9d'
p1199
I1198
sS'hollow'
p1200
I1199
sS'scallop'
p1201
I1200
sS'loav'
p1202
I1201
sS'it\xe2\x80\x94i'
p1203
I1202
sS'children\xe2\x80\x99'
p1204
I1203
sS'provoc'
p1205
I1204
sS'belt'
p1206
I1205
sS'devil'
p1207
I1206
sS'filth'
p1208
I1207
sS'devic'
p1209
I1208
sS'implicit'
p1210
I1209
sS'\xe2\x80\x9cpoor'
p1211
I1210
sS'wives\xe2\x80\x9d'
p1212
I1211
sS'devis'
p1213
I1213
sS'unmistak'
p1214
I1214
sS'firm'
p1215
I1215
sS'fire'
p1216
I1216
sS'hind'
p1217
I6137
sS'fund'
p1218
I1218
sS'sobrieti'
p1219
I1219
sS'educ'
p1220
I1220
sS'formless'
p1221
I1221
sS'uncertain'
p1222
I1222
sS'hostess'
p1223
I1223
sS'pig\xe2\x80\x99'
p1224
I1224
sS'straight'
p1225
I1225
sS'histor'
p1226
I1226
sS'slyli'
p1227
I1227
sS'\xe2\x80\x9cour'
p1228
I1228
sS'\xe2\x80\x9cout'
p1229
I1229
sS'squarecorn'
p1230
I39
sS'real'
p1231
I2700
sS'pound'
p1232
I1232
sS'pounc'
p1233
I1233
sS'wall\xe2\x80\x9d'
p1234
I1234
sS'chast'
p1235
I1235
sS'said\xe2\x80\x9d'
p1236
I1236
sS'crude\xe2\x80\x94minus'
p1237
I1237
sS'vanish'
p1238
I1238
sS'frown'
p1239
I2567
sS'decor'
p1240
I88
sS'it\xe2\x80\x99'
p1241
I3704
sS'obsolet'
p1242
I1242
sS'seek'
p1243
I3705
sS'funni'
p1244
I1245
sS'ashtray\xe2\x80\x99'
p1245
I131
sS'teeter'
p1246
I1247
sS'alert'
p1247
I1248
sS'stack'
p1248
I1249
sS'recent'
p1249
I1250
sS'expend'
p1250
I1251
sS'eleg'
p1251
I1252
sS'watchers\xe2\x80\x99'
p1252
I1253
sS'maker'
p1253
I1254
sS'person'
p1254
I1255
sS'expens'
p1255
I1256
sS'elev'
p1256
I1257
sS'tonight\xe2\x80\x9d'
p1257
I1259
sS'glitz'
p1258
I234
sS'expel\xe2\x80\x9d'
p1259
I1261
sS'unti'
p1260
I1262
sS'heldback'
p1261
I1263
sS'sandal'
p1262
I1264
sS'his\xe2\x80\x9d'
p1263
I1265
sS'eager'
p1264
I1266
sS'someone\xe2\x80\x99l'
p1265
I1267
sS'homeland'
p1266
I1268
sS'grillework'
p1267
I1269
sS'cordon'
p1268
I1270
sS'transpar'
p1269
I1271
sS'tentacl'
p1270
I1272
sS'formal'
p1271
I1273
sS'bruis'
p1272
I1274
sS'leisur'
p1273
I1275
sS'cleaner\xe2\x80\x99'
p1274
I1276
sS'spine'
p1275
I1277
sS'spind'
p1276
I1278
sS'chorus'
p1277
I1279
sS'encount'
p1278
I1280
sS'spring'
p1279
I398
sS'momentari'
p1280
I1282
sS'oval'
p1281
I1283
sS'\xe2\x80\x9cwhich\xe2\x80\x9d'
p1282
I1284
sS'palm'
p1283
I1285
sS'anklelength'
p1284
I405
sS'joke\xe2\x80\x9d'
p1285
I1287
sS'curious'
p1286
I410
sS'battalion'
p1287
I1289
sS'pale'
p1288
I1290
sS'semidark'
p1289
I1388
sS'shall'
p1290
I1292
sS'recognit'
p1291
I445
sS'machin'
p1292
I1294
sS'be'
p1293
I1295
sS'odor'
p1294
I1296
sS'agreement'
p1295
I1297
sS'bp'
p1296
I1298
sS'barbar'
p1297
I1299
sS'by'
p1298
I1300
sS'juvenil'
p1299
I1301
sS'materi'
p1300
I1302
sS'matern'
p1301
I516
sS'\xe2\x80\x9ctradit'
p1302
I1304
sS'pits\xe2\x80\x9d'
p1303
I523
sS'mineral\xe2\x80\x9d'
p1304
I1306
sS'repair'
p1305
I1307
sS'irrit'
p1306
I1308
sS'into'
p1307
I1309
sS'inth'
p1308
I1310
sS'irrig'
p1309
I1311
sS'volcan'
p1310
I1312
sS'occupi'
p1311
I1313
sS'sock'
p1312
I1314
sS'custom'
p1313
I1315
sS'spay'
p1314
I1316
sS'suit'
p1315
I1317
sS'junctur'
p1316
I1318
sS'instance\xe2\x80\x9d'
p1317
I1319
sS'jewish'
p1318
I1320
sS'poster'
p1319
I1321
sS'archaic'
p1320
I1322
sS'link'
p1321
I1323
sS'atom'
p1322
I1324
sS'line'
p1323
I1325
sS'jacki'
p1324
I1326
sS'cig'
p1325
I1327
sS'up'
p1326
I1328
sS'us'
p1327
I1329
sS'cis'
p1328
I1330
sS'un'
p1329
I1331
sS'sum'
p1330
I6262
sS'insignia'
p1331
I1332
sS'genial'
p1332
I1333
sS'evening\xe2\x80\x9d'
p1333
I733
sS'chao'
p1334
I739
sS'char'
p1335
I1336
sS'chat'
p1336
I750
sS'phantom'
p1337
I1338
sS'tuft'
p1338
I1339
sS'feltskirt'
p1339
I1340
sS'scrape'
p1340
I780
sS'stiffli'
p1341
I1342
sS'\xe2\x80\x9cterrific\xe2\x80\x9d'
p1342
I1343
sS'furnac'
p1343
I1344
sS'scapegoat'
p1344
I1345
sS'scrub'
p1345
I1346
sS'lydia\xe2\x80\x99'
p1346
I1347
sS'subjection\xe2\x80\x9d'
p1347
I1348
sS'ago'
p1348
I1349
sS'land'
p1349
I1350
sS'expressionless'
p1350
I863
sS'age'
p1351
I1352
sS'superimposit'
p1352
I1353
sS'i\xe2\x80\x99lay'
p1353
I893
sS'strings\xe2\x80\x9d'
p1354
I1355
sS'hello'
p1355
I899
sS'code'
p1356
I1358
sS'partial'
p1357
I1359
sS'scratch'
p1358
I1360
sS'totem'
p1359
I1361
sS'soften'
p1360
I1362
sS'landscap'
p1361
I6161
sS'effigi'
p1362
I1364
sS'gossip'
p1363
I1365
sS'procur'
p1364
I1366
sS'disguise\xe2\x80\x9d'
p1365
I1367
sS'harvest'
p1366
I1368
sS'young'
p1367
I1369
sS'send'
p1368
I1370
sS'sens'
p1369
I1371
sS'sent'
p1370
I1372
sS'boatload'
p1371
I1373
sS'garden'
p1372
I1374
sS'blooddip'
p1373
I1375
sS'schoolchild\xe2\x80\x99'
p1374
I1376
sS'sexist'
p1375
I1377
sS'disast'
p1376
I1378
sS'wipe'
p1377
I1379
sS'tri'
p1378
I1380
sS'magic'
p1379
I1381
sS'harbor'
p1380
I1382
sS'inclin'
p1381
I1383
sS'eve'
p1382
I1384
sS'fewer'
p1383
I1385
sS'anxious'
p1384
I1386
sS'race'
p1385
I1387
sS'\xe2\x80\x9cthat'
p1386
I2378
sS'marri'
p1387
I1389
sS'rack'
p1388
I1390
sS'\xe2\x80\x98seed\xe2\x80\x99'
p1389
I1391
sS'vehicl'
p1390
I1392
sS'impli'
p1391
I1393
sS'paid'
p1392
I4212
sS'natur'
p1393
I1394
sS'mishap'
p1394
I1395
sS'agreeabl'
p1395
I1396
sS'video'
p1396
I1397
sS'odd'
p1397
I1398
sS'twing'
p1398
I1399
sS'index'
p1399
I1400
sS'brighten'
p1400
I5836
sS'indec'
p1401
I1401
sS'lie\xe2\x80\x99'
p1402
I1402
sS'bird'
p1403
I1403
sS'sweati'
p1404
I1404
sS'poverti'
p1405
I1405
sS'leg'
p1406
I1406
sS'fourpost'
p1407
I1407
sS'punch'
p1408
I1408
sS'len'
p1409
I1409
sS'sceneri'
p1410
I1410
sS'les'
p1411
I1411
sS'let'
p1412
I1412
sS'fifteen'
p1413
I1413
sS'playact'
p1414
I1414
sS'\xe2\x80\x9cisn\xe2\x80\x99t'
p1415
I1415
sS'syracus'
p1416
I1416
sS'great'
p1417
I1417
sS'greas'
p1418
I1418
sS'technolog'
p1419
I1419
sS'defeat'
p1420
I1420
sS'popcorn'
p1421
I1421
sS'opinion'
p1422
I1422
sS'doglik'
p1423
I1423
sS'life\xe2\x80\x9d'
p1424
I3733
sS'happen\xe2\x80\x94bi'
p1425
I1425
sS'\xe2\x80\x9cwrite'
p1426
I1426
sS'mortifi'
p1427
I1427
sS'emot'
p1428
I1428
sS'disciplin'
p1429
I1429
sS'bust'
p1430
I1430
sS'folkd'
p1431
I3735
sS'zit'
p1432
I1432
sS'zip'
p1433
I1433
sS'doubl'
p1434
I1434
sS'next'
p1435
I1435
sS'eleven'
p1436
I1436
sS'doubt'
p1437
I1437
sS'unfathom'
p1438
I6170
sS'pencil'
p1439
I1438
sS'lugubri'
p1440
I1439
sS'sharpli'
p1441
I1440
sS'babi'
p1442
I1441
sS'others\xe2\x80\x9d'
p1443
I1442
sS'chariti'
p1444
I1443
sS'rubbish'
p1445
I1444
sS'central'
p1446
I2596
sS'bodili'
p1447
I1446
sS'reproduct'
p1448
I1447
sS'\xe2\x80\x9cyes\xe2\x80\x9d'
p1449
I1448
sS'grapevin'
p1450
I1449
sS'bereav'
p1451
I1450
sS'this'
p1452
I1451
sS'hardboil'
p1453
I1452
sS'oh'
p1454
I6175
sS'pour'
p1455
I1454
sS'bedspr'
p1456
I1455
sS'thin'
p1457
I1456
sS'drill'
p1458
I1457
sS'coffin'
p1459
I1458
sS'bent'
p1460
I1459
sS'process'
p1461
I1460
sS'lock'
p1462
I1461
sS'flouri'
p1463
I1462
sS'rode'
p1464
I1463
sS'high'
p1465
I1464
sS'slit'
p1466
I1465
sS'bend'
p1467
I1466
sS'slip'
p1468
I1467
sS'insecticid'
p1469
I1468
sS'crimin'
p1470
I1469
sS'martyr'
p1471
I1470
sS'trumpet'
p1472
I1471
sS'weaken'
p1473
I1472
sS'rummag'
p1474
I1473
sS'comedi'
p1475
I1474
sS'tableau'
p1476
I1475
sS'yellowish'
p1477
I1476
sS'inhal'
p1478
I1477
sS'halter'
p1479
I1478
sS'singular'
p1480
I1479
sS'notebook'
p1481
I1480
sS'hawk'
p1482
I1481
sS'tomato'
p1483
I1482
sS'essenti'
p1484
I1483
sS'counter'
p1485
I1485
sS'robot'
p1486
I1486
sS'element'
p1487
I1487
sS'issu'
p1488
I1488
sS'allot'
p1489
I1489
sS'allow'
p1490
I1490
sS'bariton'
p1491
I1491
sS'thigh'
p1492
I1492
sS'movi'
p1493
I1493
sS'move'
p1494
I1494
sS'\xe2\x80\x9cbut'
p1495
I1495
sS'warren'
p1496
I1496
sS'perfect'
p1497
I1497
sS'line\xe2\x80\x9d'
p1498
I1498
sS'decay'
p1499
I1499
sS'chosen'
p1500
I1500
sS'hobbi'
p1501
I1501
sS'hobbl'
p1502
I1502
sS'tale\xe2\x80\x9d'
p1503
I1503
sS'president\xe2\x80\x99'
p1504
I1504
sS'progeni'
p1505
I1505
sS'decad'
p1506
I1506
sS'therefor'
p1507
I1507
sS'babylon\xe2\x80\x9d'
p1508
I1508
sS'rustlingand'
p1509
I1509
sS'overal'
p1510
I1510
sS'earn'
p1511
I3747
sS'flawlesss'
p1512
I1351
sS'dock'
p1513
I1512
sS'snake'
p1514
I1513
sS'kiss'
p1515
I1514
sS'cage'
p1516
I1515
sS'minimalist'
p1517
I1516
sS'anyth'
p1518
I1517
sS'truth'
p1519
I1518
sS'beneath'
p1520
I1519
sS'acquir'
p1521
I3731
sS'tantal'
p1522
I1520
sS'societi'
p1523
I1521
sS'highgloss'
p1524
I1522
sS'over\xe2\x80\x9d'
p1525
I1523
sS'static'
p1526
I1524
sS'thirteen'
p1527
I1525
sS'banal'
p1528
I1526
sS'wander'
p1529
I1527
sS'swashbuckl'
p1530
I1528
sS'matrix'
p1531
I1529
sS'rejuven'
p1532
I1530
sS'lotion\xe2\x80\x9d'
p1533
I3019
sS'revuls'
p1534
I1531
sS'oblong'
p1535
I1532
sS'values\xe2\x80\x9d'
p1536
I1533
sS'shut'
p1537
I1534
sS'scroung'
p1538
I1535
sS'templ'
p1539
I1536
sS'care\xe2\x80\x9d'
p1540
I1537
sS'disintegr'
p1541
I1538
sS'tempt'
p1542
I1539
sS'thrust'
p1543
I1540
sS'embarrass'
p1544
I1541
sS'godli'
p1545
I1542
sS'greedi'
p1546
I1543
sS'chilli'
p1547
I1544
sS'spill'
p1548
I1545
sS'outsiz'
p1549
I1546
sS'could'
p1550
I1547
sS'scarv'
p1551
I1548
sS'david'
p1552
I1549
sS'length'
p1553
I1550
sS'enforc'
p1554
I1551
sS'outsid'
p1555
I1552
sS'scarc'
p1556
I1553
sS'out\xe2\x80\x9d'
p1557
I1922
sS'scarf'
p1558
I1555
sS'manuscript'
p1559
I1556
sS'blown'
p1560
I1557
sS'blackpaint'
p1561
I1558
sS'scene'
p1562
I1559
sS'unobserv'
p1563
I1560
sS'jesus'
p1564
I1561
sS'\xe2\x80\x9cprobably\xe2\x80\x9d'
p1565
I1959
sS'owner'
p1566
I1563
sS'scent'
p1567
I1564
sS'key\xe2\x80\x99'
p1568
I4987
sS'licens'
p1569
I1566
sS'system'
p1570
I1567
sS'fray'
p1571
I1568
sS'termin'
p1572
I1569
sS'stomach'
p1573
I1570
sS'\xe2\x80\x9chave'
p1574
I1571
sS'accompani'
p1575
I1572
sS'shorti'
p1576
I2027
sS'steel'
p1577
I1574
sS'dresser'
p1578
I1575
sS'bother'
p1579
I1576
sS'inanim'
p1580
I1577
sS'psycholog'
p1581
I1578
sS'twos'
p1582
I1579
sS'steer'
p1583
I1580
sS'beggar'
p1584
I1581
sS'terribl'
p1585
I1582
sS'tonight'
p1586
I1583
sS'briefcas'
p1587
I1584
sS'lili'
p1588
I1585
sS'twentytwo'
p1589
I1586
sS'multiawardwin'
p1590
I2148
sS'yellowandblackstrip'
p1591
I1588
sS'cipher'
p1592
I2178
sS'fervent'
p1593
I1590
sS'placement'
p1594
I1591
sS'stronger'
p1595
I1592
sS'face'
p1596
I1593
sS'soprano'
p1597
I6197
sS'diaries\xe2\x80\x9d'
p1598
I2235
sS'jut'
p1599
I6198
sS'indispens'
p1600
I1597
sS'bring'
p1601
I1598
sS'bedroom'
p1602
I1599
sS'rough'
p1603
I1600
sS'trivial'
p1604
I1601
sS'redirect'
p1605
I1602
sS'footbal'
p1606
I1603
sS'sundressandsand'
p1607
I1604
sS'nois'
p1608
I1605
sS'mute'
p1609
I1606
sS'jar'
p1610
I1607
sS'should'
p1611
I1608
sS'gestur'
p1612
I1609
sS'score'
p1613
I1610
sS'suppos'
p1614
I2300
sS'jag'
p1615
I1612
sS'flinch'
p1616
I1613
sS'hope'
p1617
I1614
sS'meant'
p1618
I1615
sS'satisfact'
p1619
I1616
sS'familiar'
p1620
I1617
sS'coming\xe2\x80\x9d'
p1621
I1618
sS'wring'
p1622
I1619
sS'lucki'
p1623
I1620
sS'untrim'
p1624
I1621
sS'pieixoto'
p1625
I1622
sS'matter\xe2\x80\x9d'
p1626
I1623
sS'summon'
p1627
I1624
sS'devast'
p1628
I1625
sS'stuff'
p1629
I1626
sS'compucard'
p1630
I1627
sS'unimport'
p1631
I1628
sS'inabl'
p1632
I1629
sS'frame'
p1633
I1630
sS'steven\xe2\x80\x9d'
p1634
I1631
sS'packet'
p1635
I1632
sS'temporarili'
p1636
I1633
sS'smallscreen'
p1637
I1634
sS'wire'
p1638
I1635
sS'does\xe2\x80\x9d'
p1639
I1636
sS'you\xe2\x80\x99d\xe2\x80\xa6'
p1640
I1637
sS'wiri'
p1641
I1638
sS'\xe2\x80\x98i\xe2\x80\x99h'
p1642
I1639
sS'unravel'
p1643
I1640
sS'destini'
p1644
I1641
sS'biblic'
p1645
I1642
sS'pistol'
p1646
I1643
sS'faceless'
p1647
I1644
sS'word\xe2\x80\x9d'
p1648
I1645
sS'dislik'
p1649
I1646
sS'courtyard'
p1650
I1647
sS'ovoid'
p1651
I6205
sS'wingless'
p1652
I1649
sS'undoubt'
p1653
I1650
sS'scrolli'
p1654
I1651
sS'\xe2\x80\x9clend'
p1655
I1652
sS'drum'
p1656
I1653
sS'\xe2\x80\x9conc'
p1657
I1654
sS'drug'
p1658
I1655
sS'dogear'
p1659
I1656
sS'doorway'
p1660
I1657
sS'puff'
p1661
I1658
sS'storm\xe2\x80\x99'
p1662
I1659
sS'flirtat'
p1663
I1660
sS'like\xe2\x80\x9d'
p1664
I1661
sS'like\xe2\x80\xa6'
p1665
I1662
sS'lt'
p1666
I5002
sS'vacuumpack'
p1667
I1664
sS'drank'
p1668
I4931
sS'\xe2\x80\x9cwas'
p1669
I1666
sS'trajectori'
p1670
I1667
sS'feather'
p1671
I1668
sS'immedi'
p1672
I1669
sS'banist'
p1673
I2632
sS'crisscross'
p1674
I1671
sS'deliber'
p1675
I1672
sS'mannequin'
p1676
I3118
sS'blackmarket'
p1677
I1674
sS'spain'
p1678
I1675
sS'mauv'
p1679
I1676
sS'bathtub'
p1680
I1678
sS'hatethesin'
p1681
I1679
sS'purchas'
p1682
I1680
sS'ripe'
p1683
I1681
sS'vi'
p1684
I1682
sS'lush'
p1685
I1683
sS'site'
p1686
I1684
sS'lust'
p1687
I1685
sS'archiv'
p1688
I1686
sS'\xe2\x80\x9cwhich'
p1689
I1687
sS'tattoo'
p1690
I1688
sS'denial'
p1691
I1689
sS'illegal\xe2\x80\x94in'
p1692
I1690
sS'carsick'
p1693
I1691
sS'outbreak'
p1694
I1692
sS'competit'
p1695
I1693
sS'balm'
p1696
I1694
sS'ball'
p1697
I1695
sS'raymond'
p1698
I1696
sS'dusk'
p1699
I1697
sS'drink'
p1700
I2805
sS'upon'
p1701
I1699
sS'\xe2\x80\x9cenjoy\xe2\x80\x9d'
p1702
I1700
sS'coffe'
p1703
I1701
sS'strateg'
p1704
I1702
sS'dust'
p1705
I1703
sS'expand'
p1706
I1704
sS'off'
p1707
I1705
sS'philippin'
p1708
I1706
sS'minutes\xe2\x80\x9d'
p1709
I3782
sS'overcast'
p1710
I1708
sS'exampl'
p1711
I1709
sS'command'
p1712
I1710
sS'paus'
p1713
I1711
sS'less'
p1714
I2878
sS'guy\xe2\x80\x9d'
p1715
I1713
sS'paul'
p1716
I2899
sS'demograph'
p1717
I1715
sS'web'
p1718
I1716
sS'generous'
p1719
I1717
sS'wed'
p1720
I1718
sS'wimpl'
p1721
I1719
sS'housework'
p1722
I2637
sS'day'
p1723
I1720
sS'arrest'
p1724
I1721
sS'crack'
p1725
I2937
sS'phosphoresc'
p1726
I1723
sS'alone\xe2\x80\x9d'
p1727
I1724
sS'hornshap'
p1728
I1725
sS'piec'
p1729
I1726
sS'haul'
p1730
I1727
sS'discothequ'
p1731
I1728
sS'five'
p1732
I1729
sS'desk'
p1733
I1730
sS'crup'
p1734
I1731
sS'tick'
p1735
I2980
sS'pier'
p1736
I1733
sS'resid'
p1737
I4266
sS'janine\xe2\x80\x99'
p1738
I1735
sS'stagger'
p1739
I1736
sS'hatandumbrella'
p1740
I1737
sS'murk'
p1741
I1738
sS'womenon'
p1742
I1739
sS'sinewi'
p1743
I1740
sS'daylight'
p1744
I1741
sS'flush'
p1745
I1742
sS'guarante'
p1746
I1743
sS'transport'
p1747
I1744
sS'oneself'
p1748
I6214
sS'disbelief'
p1749
I1746
sS'avoid'
p1750
I1747
sS'shone'
p1751
I1748
sS'periodcostum'
p1752
I1749
sS'passion'
p1753
I1750
sS'cap\xe2\x80\x99'
p1754
I1751
sS'forgiven'
p1755
I1752
sS'stairway'
p1756
I1753
sS'voluptu'
p1757
I1754
sS'imaginari'
p1758
I1757
sS'stagi'
p1759
I1758
sS'ingrati'
p1760
I3792
sS'iris'
p1761
I1760
sS'sister'
p1762
I1761
sS'interven'
p1763
I1762
sS'documentari'
p1764
I1763
sS'\xe2\x80\x9cfine\xe2\x80\x9d'
p1765
I1764
sS'who\xe2\x80\x99v'
p1766
I1766
sS'assess'
p1767
I1767
sS'lung'
p1768
I1768
sS'who\xe2\x80\x99d'
p1769
I1769
sS'mere'
p1770
I1770
sS'whiteblond'
p1771
I1771
sS'ting'
p1772
I1772
sS'heresi'
p1773
I1773
sS'seen\xe2\x80\x94to'
p1774
I1774
sS'caviar'
p1775
I1775
sS'perhaps\xe2\x80\x9d'
p1776
I1776
sS'function'
p1777
I1777
sS'funnel'
p1778
I1778
sS'\xe2\x80\x9csometim'
p1779
I3197
sS'taciturn'
p1780
I1781
sS'grate'
p1781
I1782
sS'\xe2\x80\x9care'
p1782
I1783
sS'count'
p1783
I1784
sS'baptist'
p1784
I1785
sS'behemoth'
p1785
I1786
sS'veget'
p1786
I1787
sS'shrunk'
p1787
I1788
sS'smooth'
p1788
I1789
sS'triumphant'
p1789
I1790
sS'garbl'
p1790
I1791
sS'item\xe2\x80\x94i'
p1791
I1792
sS'idol'
p1792
I1793
sS'boneyard'
p1793
I1794
sS'ropedoff'
p1794
I1795
sS'otherwis'
p1795
I1796
sS'problem'
p1796
I1797
sS'blous'
p1797
I1798
sS'fairytal'
p1798
I1799
sS'replica'
p1799
I1800
sS'ink'
p1800
I1801
sS'gateway\xe2\x80\x9d'
p1801
I1802
sS'wartim'
p1802
I1803
sS'nonetheless'
p1803
I1804
sS'machines\xe2\x80\x9d'
p1804
I1805
sS'month\xe2\x80\x9d'
p1805
I3802
sS'behold'
p1806
I1807
sS'reckless'
p1807
I1808
sS'repeat'
p1808
I3424
sS'veil'
p1809
I1810
sS'chanci'
p1810
I3453
sS'ghost'
p1811
I1812
sS'rule'
p1812
I1813
sS'syllabl'
p1813
I1814
sS'rural'
p1814
I1815
sS'goldedg'
p1815
I1816
sS'almostbar'
p1816
I1817
sS'lassitud'
p1817
I1818
sS'oldest'
p1818
I1819
sS'porno'
p1819
I1820
sS'bludgeon'
p1820
I1821
sS'forebod'
p1821
I1822
sS'daze'
p1822
I1823
sS'hedg'
p1823
I1824
sS'worth'
p1824
I1825
sS'ale'
p1825
I6050
sS'blanket'
p1826
I1828
sS'anglosaxon'
p1827
I1829
sS'distort'
p1828
I1830
sS'closeup'
p1829
I1831
sS'jacob'
p1830
I1832
sS'tank'
p1831
I3807
sS'rape\xe2\x80\x9d'
p1832
I1834
sS'daydream'
p1833
I1835
sS'pinch'
p1834
I1836
sS'roadblock'
p1835
I1837
sS'nondescript'
p1836
I1838
sS'triumph'
p1837
I1839
sS'chew'
p1838
I1840
sS'another\xe2\x80\x99'
p1839
I1841
sS'limeston'
p1840
I314
sS'preacher'
p1841
I1843
sS'consequ'
p1842
I1844
sS'hors'
p1843
I1845
sS'\xe2\x80\x9cprefer'
p1844
I1846
sS'blasphemi'
p1845
I1847
sS'supervis'
p1846
I1848
sS'amus'
p1847
I1849
sS'lowerrank'
p1848
I1850
sS'toll'
p1849
I1851
sS'told'
p1850
I1852
sS'pursuit'
p1851
I1853
sS'impercept'
p1852
I1854
sS'grapevine\xe2\x80\x9d'
p1853
I1855
sS'spunki'
p1854
I1856
sS'pleasur'
p1855
I1857
sS'daughter'
p1856
I1858
sS'vogu'
p1857
I1860
sS'smoke'
p1858
I1861
sS'studi'
p1859
I1862
sS'onlook'
p1860
I3817
sS'envious'
p1861
I1864
sS'newspap'
p1862
I1865
sS'bothrob'
p1863
I1866
sS'attitud'
p1864
I1867
sS'total'
p1865
I1868
sS'angrili'
p1866
I1869
sS'plot'
p1867
I1870
sS'sweater'
p1868
I1871
sS'gloss'
p1869
I1872
sS'ploy'
p1870
I1873
sS'insult'
p1871
I1874
sS'retali'
p1872
I1875
sS'cottag'
p1873
I1876
sS'reced'
p1874
I1877
sS'haha'
p1875
I1878
sS'word'
p1876
I1879
sS'magen'
p1877
I1880
sS'work'
p1878
I1881
sS'worm'
p1879
I1882
sS'worn'
p1880
I1883
sS'genitalia'
p1881
I1884
sS'wors'
p1882
I1885
sS'era'
p1883
I1886
sS'elbow'
p1884
I1887
sS'metalcolor'
p1885
I1888
sS'bridal'
p1886
I4796
sS'flung'
p1887
I1890
sS'india'
p1888
I1891
sS'indic'
p1889
I1892
sS'woman'
p1890
I6239
sS'basebal'
p1891
I1894
sS'back\xe2\x80\x9d'
p1892
I1895
sS'back\xe2\x80\x99'
p1893
I1896
sS'gigant'
p1894
I1897
sS'ordinari'
p1895
I1898
sS'toehold'
p1896
I1899
sS'disappear'
p1897
I3831
sS'interview'
p1898
I1901
sS'disappoint'
p1899
I1902
sS'beach'
p1900
I1903
sS'else\xe2\x80\x9d'
p1901
I1904
sS'fever'
p1902
I1905
sS'recogn'
p1903
I1906
sS'else\xe2\x80\x99'
p1904
I1907
sS'\xe2\x80\x9cit\xe2\x80\x9d'
p1905
I1908
sS'chines'
p1906
I1909
sS'after'
p1907
I1910
sS'\xe2\x80\x9cit\xe2\x80\x99'
p1908
I1911
sS'lab'
p1909
I1912
sS'lax'
p1910
I1913
sS'lay'
p1911
I1914
sS'law'
p1912
I1915
sS'arch'
p1913
I1916
sS'scull'
p1914
I1917
sS'dilut'
p1915
I1918
sS'commanders\xe2\x80\x94had'
p1916
I1919
sS'opaqu'
p1917
I1920
sS'greet'
p1918
I1921
sS'scare'
p1919
I1554
sS'foolhardi'
p1920
I1923
sS'green'
p1921
I1924
sS'mechan'
p1922
I1925
sS'order'
p1923
I1926
sS'toaster'
p1924
I324
sS'diagnos'
p1925
I1928
sS'consent'
p1926
I1030
sS'offici'
p1927
I1930
sS'modesti'
p1928
I1931
sS'incid'
p1929
I1932
sS'japan'
p1930
I1933
sS'flexibl'
p1931
I1934
sS'hypnot'
p1932
I1935
sS'surprised\xe2\x80\x9d'
p1933
I1936
sS'offic'
p1934
I1937
sS'caught\xe2\x80\x94but'
p1935
I1938
sS'\xe2\x80\x9ckgb\xe2\x80\x9d'
p1936
I1939
sS'shear'
p1937
I1940
sS'split'
p1938
I326
sS'then'
p1939
I1942
sS'them'
p1940
I1943
sS'fragment'
p1941
I1944
sS'thee'
p1942
I1945
sS'safe'
p1943
I1946
sS'break'
p1944
I1947
sS'band'
p1945
I1948
sS'scrupl'
p1946
I1949
sS'they'
p1947
I1950
sS'thev'
p1948
I1951
sS'bank'
p1949
I1952
sS'bread'
p1950
I1953
sS'dingi'
p1951
I1954
sS'tendenc'
p1952
I1955
sS'encircl'
p1953
I1956
sS'oxygen'
p1954
I1957
sS'rollertip'
p1955
I1958
sS'fatigu'
p1956
I4498
sS'angela\xe2\x80\x9d'
p1957
I1960
sS'lost\xe2\x80\x93stil'
p1958
I1961
sS'logo'
p1959
I1962
sS'flock'
p1960
I1963
sS'network'
p1961
I1964
sS'mannequin\xe2\x80\x99'
p1962
I1965
sS'disloyalti'
p1963
I1966
sS'forth'
p1964
I1967
sS'forti'
p1965
I1968
sS'barrier'
p1966
I1969
sS'windowsil'
p1967
I1970
sS'standard'
p1968
I1971
sS'ancient'
p1969
I1972
sS'purpose\xe2\x80\x94to'
p1970
I1973
sS'drench'
p1971
I1974
sS'angl'
p1972
I1975
sS'sprig'
p1973
I1976
sS'tiredlook'
p1974
I1977
sS'can\xe2\x80\x99t'
p1975
I1978
sS'guesswork'
p1976
I1979
sS'semaphor'
p1977
I1980
sS'poudr'
p1978
I1981
sS'render'
p1979
I1982
sS'independ'
p1980
I1983
sS'splay'
p1981
I6451
sS'stillbirth'
p1982
I1984
sS'thick'
p1983
I1985
sS'nomin'
p1984
I1986
sS'immodest'
p1985
I1987
sS'cuff'
p1986
I6433
sS'taskmistress'
p1987
I1988
sS'happili'
p1988
I1989
sS'flightless'
p1989
I1990
sS'provid'
p1990
I1991
sS'hike'
p1991
I1992
sS'biolog'
p1992
I6256
sS'merci'
p1993
I1994
sS'guilt'
p1994
I1995
sS'iron'
p1995
I1996
sS'minut'
p1996
I1997
sS'carsplit'
p1997
I1998
sS'salvag'
p1998
I1999
sS'anyway\xe2\x80\x9d'
p1999
I4736
sS'manner'
p2000
I2001
sS'salvat'
p2001
I2002
sS'ponder'
p2002
I2003
sS'strength'
p2003
I2004
sS'realm'
p2004
I2005
sS'luxuri'
p2005
I2006
sS'latter'
p2006
I2007
sS'smolder'
p2007
I5059
sS'maiden'
p2008
I2009
sS'volleybal'
p2009
I2010
sS'phase'
p2010
I2011
sS'enthron'
p2011
I2012
sS'grave'
p2012
I2013
sS'excus'
p2013
I2014
sS'bracken'
p2014
I2015
sS'swamp'
p2015
I2016
sS'aunt'
p2016
I2017
sS'soupedup'
p2017
I2018
sS'notion'
p2018
I2019
sS'opposit'
p2019
I2020
sS'\xe2\x80\x9cthere'
p2020
I2021
sS'found\xe2\x80\x94often'
p2021
I2022
sS'wrung'
p2022
I2023
sS'facto'
p2023
I5022
sS'involv'
p2024
I2025
sS'sewn'
p2025
I2026
sS'silverback'
p2026
I7017
sS'tissuepap'
p2027
I1573
sS'predecessor'
p2028
I2028
sS'do'
p2029
I2029
sS'voiceprint'
p2030
I2030
sS'de'
p2031
I2031
sS'dc'
p2032
I2032
sS'past\xe2\x80\x9d'
p2033
I2033
sS'gauz'
p2034
I2034
sS'secretari'
p2035
I2035
sS'embroi'
p2036
I2036
sS'stead'
p2037
I2037
sS'rung'
p2038
I2038
sS'steak'
p2039
I2039
sS'steal'
p2040
I2040
sS'steam'
p2041
I2041
sS'\xe2\x80\x9cdown\xe2\x80\x9d'
p2042
I2042
sS'impud'
p2043
I2043
sS'uncoordin'
p2044
I2044
sS'themselv'
p2045
I6277
sS'sewag'
p2046
I2047
sS'pastel'
p2047
I5083
sS'away'
p2048
I2049
sS'gentleman'
p2049
I2050
sS'overgrown'
p2050
I5108
sS'awak'
p2051
I5242
sS'drawn'
p2052
I2053
sS'accord'
p2053
I5124
sS'emigr'
p2054
I2055
sS'wr'
p2055
I2056
sS'unfold'
p2056
I2057
sS'intox'
p2057
I2058
sS'kitchen'
p2058
I2059
sS'bras'
p2059
I2060
sS'cot'
p2060
I2061
sS'cow'
p2061
I2062
sS'coy'
p2062
I2063
sS'howev'
p2063
I5178
sS'futil'
p2064
I2065
sS'coo'
p2065
I2066
sS'tough'
p2066
I2067
sS'applianc'
p2067
I2068
sS'royal'
p2068
I3862
sS'stillborn'
p2069
I2070
sS'wider'
p2070
I2071
sS'paradis'
p2071
I2072
sS'commanders\xe2\x80\x99'
p2072
I2073
sS'wraith'
p2073
I2171
sS'sensat'
p2074
I2075
sS'reveng'
p2075
I2076
sS'club\xe2\x80\x9d'
p2076
I2077
sS'petti'
p2077
I2078
sS'manytim'
p2078
I2079
sS'scarecrow'
p2079
I2080
sS'warmth'
p2080
I2081
sS'isn\xe2\x80\x99t\xe2\x80\x9d'
p2081
I2082
sS'plebeian'
p2082
I2083
sS'prison'
p2083
I346
sS'hoist'
p2084
I2085
sS'sabotag'
p2085
I2086
sS'gracious'
p2086
I2087
sS'ident'
p2087
I2088
sS'else\xe2\x80\x94wa'
p2088
I2694
sS'properti'
p2089
I2090
sS'pungent'
p2090
I2091
sS'air'
p2091
I2092
sS'aim'
p2092
I2093
sS'ail'
p2093
I2094
sS'\xe2\x80\x9cout\xe2\x80\x9d'
p2094
I2095
sS'aid'
p2095
I2096
sS'raspi'
p2096
I2097
sS'vagu'
p2097
I2098
sS'immigr'
p2098
I2099
sS'dusting\xe2\x80\x9d'
p2099
I2100
sS'stink'
p2100
I2101
sS'dizzi'
p2101
I2102
sS'cone'
p2102
I2103
sS'coni'
p2103
I2104
sS'\xe2\x80\x9cus\xe2\x80\x9d'
p2104
I2105
sS'perform'
p2105
I2106
sS'descend'
p2106
I2107
sS'wheel'
p2107
I2108
sS'hurt\xe2\x80\x9d'
p2108
I2109
sS'raid'
p2109
I2110
sS'fuss'
p2110
I2111
sS'evid'
p2111
I2112
sS'swell'
p2112
I2113
sS'darktint'
p2113
I2114
sS'hang'
p2114
I2115
sS'cat\xe2\x80\x99sey'
p2115
I2116
sS'evil'
p2116
I2117
sS'hand'
p2117
I2118
sS'rais'
p2118
I2119
sS'latin\xe2\x80\x9d'
p2119
I2120
sS'kept'
p2120
I2121
sS'she\xe2\x80\x99d'
p2121
I2122
sS'thr'
p2122
I2123
sS'vindic'
p2123
I2125
sS'thi'
p2124
I2126
sS'snigger'
p2125
I2127
sS'the'
p2126
I2128
sS'indigo'
p2127
I2129
sS'indign'
p2128
I2130
sS'photo'
p2129
I2131
sS'you\xe2\x80\x99r'
p2130
I2132
sS'farther'
p2131
I2133
sS'dignifi'
p2132
I2134
sS'oldfashion'
p2133
I2135
sS'shout'
p2134
I2136
sS'spread'
p2135
I2137
sS'board'
p2136
I2138
sS'mayb'
p2137
I2139
sS'bird\xe2\x80\x9d'
p2138
I2140
sS'arab'
p2139
I2141
sS'tarzan'
p2140
I2142
sS'cape'
p2141
I2143
sS'retreat'
p2142
I2144
sS'\xe2\x80\x9calma\xe2\x80\x9d'
p2143
I2145
sS'cooler'
p2144
I2146
sS'\xe2\x80\x9cthat\xe2\x80\x99'
p2145
I2147
sS'soap'
p2146
I1587
sS'natural\xe2\x80\x9d'
p2147
I2149
sS'night'
p2148
I2150
sS'childbear'
p2149
I2151
sS'negat'
p2150
I3879
sS'church\xe2\x80\x9d'
p2151
I2153
sS'birthmobil'
p2152
I2154
sS'born'
p2153
I2155
sS'flatten'
p2154
I2156
sS'bore'
p2155
I2157
sS'saliv'
p2156
I2158
sS'ain\xe2\x80\x99t'
p2157
I2159
sS'humor'
p2158
I2160
sS'/'
p2159
I2162
sS'eleph'
p2160
I2163
sS'somewhere\xe2\x80\x94h'
p2161
I2164
sS'overcom'
p2162
I2165
sS'dangerous\xe2\x80\x9d'
p2163
I2166
sS'peel'
p2164
I2167
sS'jubil'
p2165
I2168
sS'pose'
p2166
I2169
sS'confer'
p2167
I2170
sS'posses'
p2168
I2173
sS'peer'
p2169
I2174
sS'post'
p2170
I2175
sS'poss'
p2171
I2176
sS'abdomin'
p2172
I2177
sS'visa'
p2173
I1589
sS'horizon'
p2174
I2179
sS'taint'
p2175
I5543
sS'imported\xe2\x80\x9d'
p2176
I2181
sS'if\xe2\x80\x99'
p2177
I2182
sS'float'
p2178
I2183
sS'bound'
p2179
I2184
sS'curios'
p2180
I2185
sS'bed\xe2\x80\x99'
p2181
I2186
sS'opportun'
p2182
I2187
sS'animos'
p2183
I2188
sS'authorization\xe2\x80\x9d'
p2184
I2189
sS'wag'
p2185
I2190
sS'quirki'
p2186
I2191
sS'wad'
p2187
I2192
sS'frill'
p2188
I2193
sS'fight'
p2189
I2194
sS'bedraggl'
p2190
I2195
sS'way'
p2191
I2196
sS'was'
p2192
I2197
sS'war'
p2193
I2198
sS'somehow'
p2194
I3887
sS'taken'
p2195
I2718
sS'limpkin'
p2196
I2201
sS'true'
p2197
I2202
sS'inquir'
p2198
I2203
sS'maximum'
p2199
I2204
sS'secrets\xe2\x80\x9d'
p2200
I2205
sS'left\xe2\x80\x9d'
p2201
I2206
sS'inaccur'
p2202
I2207
sS'absenc'
p2203
I2208
sS'retir'
p2204
I2209
sS'request'
p2205
I5092
sS'abstract'
p2206
I2211
sS'molt'
p2207
I2212
sS'israel'
p2208
I6298
sS'\xe2\x80\x9cage'
p2209
I2214
sS'xiii'
p2210
I2215
sS'prayer'
p2211
I2216
sS'something\xe2\x80\x94what\xe2\x80\x94that'
p2212
I2217
sS'mold'
p2213
I2218
sS'mole'
p2214
I2219
sS'dingdong'
p2215
I2220
sS'new\xe2\x80\x9d'
p2216
I2221
sS'test'
p2217
I2222
sS'shrink'
p2218
I2223
sS'realiti'
p2219
I2224
sS'macabr'
p2220
I2225
sS'archaisms\xe2\x80\x94w'
p2221
I2226
sS'notepad'
p2222
I2227
sS'almostempti'
p2223
I2229
sS'occasion'
p2224
I2230
sS'\xe2\x80\x9ctrust'
p2225
I2231
sS'outdat'
p2226
I2232
sS'loyal'
p2227
I2233
sS'usual\xe2\x80\x94so'
p2228
I2234
sS'fact'
p2229
I1595
sS'lineup'
p2230
I2236
sS'lovethesinn'
p2231
I2237
sS'concept'
p2232
I2238
sS'matron'
p2233
I2239
sS'ma\xe2\x80\x99am\xe2\x80\x9d'
p2234
I2240
sS'miscarriag'
p2235
I2241
sS'kamikaz'
p2236
I2242
sS'toothpick'
p2237
I2243
sS'varnish'
p2238
I2244
sS'middl'
p2239
I2245
sS'grape'
p2240
I2246
sS'graph'
p2241
I2247
sS'godless'
p2242
I2248
sS'flash'
p2243
I2249
sS'rhythm'
p2244
I2250
sS'terror'
p2245
I2251
sS'brown'
p2246
I2252
sS'ventures\xe2\x80\x9d'
p2247
I2253
sS'toothpast'
p2248
I2254
sS'kitten'
p2249
I2256
sS'mideighti'
p2250
I2257
sS'gum'
p2251
I2258
sS'q'
p2252
I2259
sS'sidewalk'
p2253
I2260
sS'upper'
p2254
I2261
sS'brave'
p2255
I2262
sS'regret'
p2256
I2263
sS'cost'
p2257
I2264
sS'chinadol'
p2258
I2265
sS'opening\xe2\x80\xa6'
p2259
I2266
sS'cargo'
p2260
I2267
sS'appeas'
p2261
I2268
sS'appear'
p2262
I2269
sS'uniform'
p2263
I2270
sS'\xe2\x80\x9cnow'
p2264
I2271
sS'indiffer'
p2265
I2272
sS'\xe2\x80\x9cnot'
p2266
I2273
sS'settlers\xe2\x80\x99'
p2267
I2274
sS'genet'
p2268
I2275
sS'upheav'
p2269
I2276
sS'satisfi'
p2270
I2277
sS'lustrous'
p2271
I2278
sS'chainlink'
p2272
I2279
sS'buck'
p2273
I2280
sS'\xe2\x80\x9celvi'
p2274
I2281
sS'trial'
p2275
I2282
sS'behav'
p2276
I2283
sS'cora\xe2\x80\x99'
p2277
I2284
sS'colleg'
p2278
I2285
sS'pillow'
p2279
I2286
sS'montreal'
p2280
I2287
sS'infract'
p2281
I2288
sS'extra'
p2282
I2289
sS'\xe2\x80\x9cfrom'
p2283
I2290
sS'mobil'
p2284
I2291
sS'market'
p2285
I2292
sS'him\xe2\x80\x9d'
p2286
I2293
sS'anesthet'
p2287
I2294
sS'prove'
p2288
I2295
sS'subvert'
p2289
I2296
sS'angela'
p2290
I2297
sS'subvers'
p2291
I2298
sS'live'
p2292
I2299
sS'tape'
p2293
I1611
sS'club'
p2294
I2301
sS'cluck'
p2295
I2302
sS'clue'
p2296
I2303
sS'oddlli'
p2297
I2304
sS'unconsci'
p2298
I2305
sS'graphic'
p2299
I2306
sS'slogan'
p2300
I2307
sS'car'
p2301
I2308
sS'prepar'
p2302
I2309
sS'cap'
p2303
I2310
sS'cat'
p2304
I2311
sS'hardest'
p2305
I2312
sS'can'
p2306
I2313
sS'\xe2\x80\x9csurrog'
p2307
I2314
sS'heart'
p2308
I2315
sS'puriti'
p2309
I2316
sS'hears'
p2310
I2317
sS'chip'
p2311
I2318
sS'heard'
p2312
I2319
sS'abort'
p2313
I2320
sS'chin'
p2314
I2321
sS'onevowel'
p2315
I2322
sS'occur'
p2316
I2323
sS'occup'
p2317
I2324
sS'filigre'
p2318
I2325
sS'write'
p2319
I2326
sS'flank'
p2320
I2327
sS'\xe2\x80\x9cpow\xe2\x80\x9d'
p2321
I2328
sS'gascanist'
p2322
I2329
sS'product'
p2323
I2330
sS'superintend'
p2324
I2331
sS'district'
p2325
I5949
sS'antiquarian'
p2326
I2332
sS'baseboad'
p2327
I2333
sS'offens'
p2328
I2334
sS'offend'
p2329
I2335
sS'handhold'
p2330
I2336
sS'stilt'
p2331
I2337
sS'where\xe2\x80\x9d'
p2332
I2338
sS'\xe2\x80\x9ccould'
p2333
I2339
sS'infiltr'
p2334
I2340
sS'approv'
p2335
I2341
sS'brain'
p2336
I2342
sS'genteel'
p2337
I2343
sS'approb'
p2338
I2344
sS'cold'
p2339
I2345
sS'braid'
p2340
I2346
sS'sprinkl'
p2341
I2347
sS'willow'
p2342
I2348
sS'window'
p2343
I2349
sS'recal'
p2344
I2350
sS'hand\xe2\x80\x99'
p2345
I2351
sS'nod'
p2346
I2352
sS'newfallen'
p2347
I2353
sS'1955'
p2348
I2354
sS'1954'
p2349
I2355
sS'aesthet'
p2350
I2356
sS'died\xe2\x80\x9d'
p2351
I2357
sS'half'
p2352
I2358
sS'not'
p2353
I2359
sS'gauzi'
p2354
I388
sS'hall'
p2355
I2361
sS'nor'
p2356
I2362
sS'introduct'
p2357
I2363
sS'servant'
p2358
I2364
sS'\xe2\x80\x9cthis'
p2359
I2365
sS'drop'
p2360
I2366
sS'pregilead'
p2361
I2367
sS'magazin'
p2362
I2368
sS'late\xe2\x80\x9d'
p2363
I2369
sS'courag'
p2364
I2370
sS'domain'
p2365
I2371
sS'replac'
p2366
I2372
sS'perenni'
p2367
I2373
sS'collus'
p2368
I2374
sS'sandwich'
p2369
I6325
sS'year'
p2370
I2375
sS'resourc'
p2371
I6326
sS'happen'
p2372
I2377
sS'es'
p2373
I2379
sS'album'
p2374
I2380
sS'shown'
p2375
I2381
sS'accomplish'
p2376
I2382
sS'space'
p2377
I2383
sS'skylin'
p2378
I2384
sS'ironi'
p2379
I2385
sS'hastili'
p2380
I2386
sS'unclip'
p2381
I393
sS'carv'
p2382
I2388
sS'argu'
p2383
I2389
sS'cart'
p2384
I2390
sS'compulsori'
p2385
I2391
sS'rebel'
p2386
I2392
sS'card'
p2387
I2393
sS'care'
p2388
I2394
sS'\xe2\x80\x9cnice'
p2389
I2395
sS'banquets\xe2\x80\x9d'
p2390
I2396
sS'british'
p2391
I2397
sS'honest'
p2392
I2398
sS'profess'
p2393
I2399
sS'health\xe2\x80\x9d'
p2394
I104
sS'xi'
p2395
I2401
sS'blink'
p2396
I124
sS'gasp'
p2397
I2403
sS'\xe2\x80\x9churri'
p2398
I2404
sS'ring'
p2399
I2405
sS'drove'
p2400
I2406
sS'xv'
p2401
I2407
sS'angular'
p2402
I2408
sS'zap'
p2403
I2409
sS'yourselv'
p2404
I141
sS'sheep'
p2405
I2411
sS'sheer'
p2406
I2412
sS'ofglen\xe2\x80\x99'
p2407
I2413
sS'sheet'
p2408
I2414
sS'christma'
p2409
I147
sS'ofglen\xe2\x80\x9d'
p2410
I2416
sS'bookmark'
p2411
I2417
sS'caught'
p2412
I2418
sS'breed'
p2413
I2419
sS'purloin'
p2414
I2420
sS'silenc'
p2415
I2421
sS'breez'
p2416
I2422
sS'silenl'
p2417
I2423
sS'friend'
p2418
I2424
sS'courier'
p2419
I2425
sS'especi'
p2420
I195
sS'document\xe2\x80\x94let'
p2421
I2427
sS'thai'
p2422
I2428
sS'peck'
p2423
I2429
sS'than'
p2424
I2430
sS'did\xe2\x80\x9d'
p2425
I2431
sS'recruit'
p2426
I2432
sS'yesteryear'
p2427
I2433
sS'fork'
p2428
I3919
sS'delic'
p2429
I2435
sS'angel'
p2430
I2436
sS'slay'
p2431
I2437
sS'anywher'
p2432
I2438
sS'slap'
p2433
I2439
sS'slam'
p2434
I2440
sS'deliv'
p2435
I2441
sS'anger'
p2436
I2442
sS'breakfast'
p2437
I2443
sS'slab'
p2438
I2444
sS'doorbel'
p2439
I2445
sS'engin'
p2440
I2446
sS'there\xe2\x80\x99r'
p2441
I2447
sS'shore'
p2442
I6337
sS'snout'
p2443
I2449
sS'satellit'
p2444
I2450
sS'biologicalwarfar'
p2445
I2451
sS'implor'
p2446
I2452
sS'there\xe2\x80\x99d'
p2447
I2453
sS'begin'
p2448
I2454
sS'price'
p2449
I2455
sS'silhouett'
p2450
I2456
sS'apocalyps'
p2451
I2457
sS'shorn'
p2452
I6339
sS'america'
p2453
I2459
sS'synthesi'
p2454
I2460
sS'rescu'
p2455
I2461
sS'egg'
p2456
I2462
sS'meanwhil'
p2457
I2464
sS'profus'
p2458
I2465
sS'knuckl'
p2459
I2466
sS'steadi'
p2460
I2467
sS'\xe2\x80\x9ccharming\xe2\x80\x9d'
p2461
I2468
sS'washcloth'
p2462
I2469
sS'ungrudg'
p2463
I2470
sS'german'
p2464
I2471
sS'geographi'
p2465
I2472
sS'armyissu'
p2466
I6342
sS'ground'
p2467
I2473
sS'onli'
p2468
I2474
sS'stair'
p2469
I2475
sS'jolt'
p2470
I2476
sS'eighthmonth'
p2471
I2477
sS'stain'
p2472
I2478
sS'shrill'
p2473
I2479
sS'pumpkin'
p2474
I2480
sS'vinedrap'
p2475
I3925
sS'porridg'
p2476
I2482
sS'loath'
p2477
I2483
sS'cannot'
p2478
I2484
sS'querul'
p2479
I2485
sS'boathous'
p2480
I2486
sS'stroll'
p2481
I2487
sS'truli'
p2482
I2488
sS'leather'
p2483
I2489
sS'hostil'
p2484
I2490
sS'husband'
p2485
I2491
sS'concert'
p2486
I2492
sS'burst'
p2487
I2493
sS'unfil'
p2488
I2494
sS'concreteblock'
p2489
I2495
sS'unfit'
p2490
I2496
sS'asleep'
p2491
I2497
sS'sport'
p2492
I2498
sS'concern'
p2493
I2499
sS'for\xe2\x80\x94th'
p2494
I2500
sS'complexion'
p2495
I2501
sS'between'
p2496
I2502
sS'import'
p2497
I2503
sS'prowler'
p2498
I2504
sS'pluck'
p2499
I2505
sS'blame'
p2500
I2506
sS'alternatives\xe2\x80\x9d'
p2501
I2507
sS'rippl'
p2502
I2508
sS'nearbi'
p2503
I2509
sS'abdic'
p2504
I2510
sS'aura'
p2505
I2511
sS'blackmirror'
p2506
I2512
sS'platitud'
p2507
I2513
sS'adroit'
p2508
I2514
sS'sulki'
p2509
I2515
sS'matriarch'
p2510
I2516
sS'damag'
p2511
I2517
sS'prurienc'
p2512
I2518
sS'petit'
p2513
I2519
sS'selfdeni'
p2514
I2520
sS'textbook'
p2515
I2521
sS'countless'
p2516
I2522
sS'crumb'
p2517
I2523
sS'thunk'
p2518
I3935
sS'these'
p2519
I930
sS'trick'
p2520
I2526
sS'moira\xe2\x80\x99'
p2521
I2527
sS'pass\xe2\x80\x9d'
p2522
I2528
sS'i\xe2\x80\x9d'
p2523
I2529
sS'fatherhood'
p2524
I2530
sS'soil'
p2525
I2531
sS'worri'
p2526
I974
sS'eras'
p2527
I2533
sS'fatalist'
p2528
I2534
sS'develop'
p2529
I2535
sS'medic'
p2530
I2536
sS'gentlemen'
p2531
I1029
sS'lith'
p2532
I2538
sS'document'
p2533
I2539
sS'medit'
p2534
I2540
sS'finish'
p2535
I2541
sS'closest'
p2536
I2542
sS'arctic'
p2537
I2543
sS'\xe2\x80\x9cmantovani\xe2\x80\x99'
p2538
I2544
sS'someon'
p2539
I2545
sS'fruit'
p2540
I2546
sS'obvers'
p2541
I2547
sS'theater'
p2542
I2548
sS'valanc'
p2543
I2549
sS'hand\xe2\x80\x94and'
p2544
I2550
sS'pervad'
p2545
I2551
sS'noah'
p2546
I1143
sS'everyone\xe2\x80\x99'
p2547
I2553
sS'affabl'
p2548
I2554
sS'diffid'
p2549
I1166
sS'speed'
p2550
I2557
sS'death'
p2551
I2558
sS'desktop'
p2552
I2559
sS'identif'
p2553
I2560
sS'versa'
p2554
I2561
sS'struck'
p2555
I2562
sS'denim'
p2556
I2563
sS'earli'
p2557
I1231
sS'libertheo'
p2558
I2565
sS'hover'
p2559
I2566
sS'aml'
p2560
I1239
sS'spectacular'
p2561
I2568
sS'onscreen'
p2562
I2569
sS'read'
p2563
I2570
sS'ladi'
p2564
I2571
sS'earnest'
p2565
I2572
sS'stunt'
p2566
I2573
sS'apathet'
p2567
I2574
sS'postcard'
p2568
I2575
sS'treacher'
p2569
I2576
sS'engross'
p2570
I2577
sS'benefit'
p2571
I2578
sS'gun\xe2\x80\x9d'
p2572
I2579
sS't'
p2573
I2580
sS'downward'
p2574
I2581
sS'verbal'
p2575
I2583
sS'hackl'
p2576
I2584
sS'radiat'
p2577
I2585
sS'bless'
p2578
I2586
sS'sling'
p2579
I3949
sS'squirt'
p2580
I2588
sS'lezebel'
p2581
I2589
sS'uneasi'
p2582
I2590
sS'sixti'
p2583
I2591
sS'fakefur'
p2584
I2592
sS'throw'
p2585
I2593
sS'comparison'
p2586
I2594
sS'deflat'
p2587
I2595
sS'placard'
p2588
I1445
sS'chop'
p2589
I2597
sS'journey'
p2590
I2598
sS'pieti'
p2591
I2599
sS'assassin'
p2592
I2600
sS'stratagem'
p2593
I2601
sS'\xe2\x80\x9chow\xe2\x80\x9d'
p2594
I2602
sS'latenight'
p2595
I2603
sS'earring'
p2596
I2604
sS'nurs'
p2597
I2605
sS'your'
p2598
I2606
sS'restless'
p2599
I2607
sS'stare'
p2600
I2608
sS'fast'
p2601
I6632
sS'identipass'
p2602
I2609
sS'area'
p2603
I2610
sS'loo'
p2604
I2611
sS'cato'
p2605
I2612
sS'lor'
p2606
I2613
sS'start'
p2607
I2614
sS'fascin'
p2608
I2615
sS'starv'
p2609
I2616
sS'low'
p2610
I2617
sS'lot'
p2611
I2618
sS'ado\xe2\x80\x9d'
p2612
I2619
sS'\xe2\x80\x9cwomen'
p2613
I2620
sS'submiss'
p2614
I2621
sS'leach'
p2615
I2622
sS'indecor'
p2616
I2623
sS'groan'
p2617
I2624
sS'punit'
p2618
I2625
sS'upthan'
p2619
I2626
sS'satur'
p2620
I2627
sS'peccadillo'
p2621
I2628
sS'hire'
p2622
I2629
sS'bucket'
p2623
I2630
sS'mutil'
p2624
I2631
sS'salem'
p2625
I1677
sS'momentarili'
p2626
I2633
sS'yon'
p2627
I2634
sS'braill'
p2628
I2635
sS'pumic'
p2629
I2636
sS'that'
p2630
I2426
sS'valid'
p2631
I2638
sS'\xe2\x80\x9cpretend'
p2632
I2639
sS'you'
p2633
I2640
sS'juic'
p2634
I2641
sS'poor'
p2635
I2642
sS'pear'
p2636
I2643
sS'podium'
p2637
I2644
sS'peak'
p2638
I2645
sS'peac'
p2639
I2646
sS'pool'
p2640
I2647
sS'reduc'
p2641
I2648
sS'philosoph'
p2642
I2649
sS'moonlight'
p2643
I2650
sS'inevit'
p2644
I2651
sS'repay'
p2645
I2652
sS'mourner'
p2646
I2653
sS'untidi'
p2647
I2654
sS'skeleton'
p2648
I2655
sS'peacock'
p2649
I2656
sS'month'
p2650
I2657
sS'correl'
p2651
I2658
sS'carpet'
p2652
I2659
sS'corps'
p2653
I2661
sS'inaud'
p2654
I2662
sS'articl'
p2655
I2663
sS'fervor'
p2656
I2664
sS'washroom'
p2657
I2665
sS'vers'
p2658
I2666
sS'masquerad'
p2659
I2667
sS'horror'
p2660
I2668
sS'whitewing'
p2661
I2669
sS'laceup'
p2662
I2670
sS'allur'
p2663
I2671
sS'headgear'
p2664
I2672
sS'veri'
p2665
I2673
sS'\xe2\x80\x9coffred\xe2\x80\x9d'
p2666
I2674
sS'heaven'
p2667
I2675
sS'testifi'
p2668
I2676
sS'dimens'
p2669
I2677
sS'skin'
p2670
I3972
sS'unheard'
p2671
I2679
sS'orgasm'
p2672
I2680
sS'narrat'
p2673
I2681
sS'casual'
p2674
I2682
sS'inert'
p2675
I2683
sS'incredul'
p2676
I2684
sS'ast'
p2677
I2685
sS'lurch'
p2678
I2686
sS'theatric'
p2679
I2687
sS'decid'
p2680
I2688
sS'lack'
p2681
I6228
sS'trunk'
p2682
I2689
sS'prologu'
p2683
I2690
sS'strong'
p2684
I2691
sS'whini'
p2685
I2692
sS'inattent'
p2686
I2693
sS'rezipp'
p2687
I3756
sS'shouldn\xe2\x80\x99t'
p2688
I2695
sS'whine'
p2689
I2696
sS'soldier'
p2690
I2697
sS'amount'
p2691
I2698
sS'base'
p2692
I2811
sS'medicin'
p2693
I2701
sS'engrav'
p2694
I2702
sS'chunki'
p2695
I2703
sS'father'
p2696
I3979
sS'\xe2\x80\x9cechoes\xe2\x80\x9d'
p2697
I2705
sS'ask'
p2698
I2706
sS'famili'
p2699
I2707
sS'seventeenth'
p2700
I2708
sS'dangl'
p2701
I2709
sS'aggress'
p2702
I2710
sS'pillbox'
p2703
I2711
sS'taskmast'
p2704
I2712
sS'thirtyfive\xe2\x80\xa6'
p2705
I2713
sS'girdl'
p2706
I2714
sS'reclassif'
p2707
I2715
sS'massag'
p2708
I2716
sS'bash'
p2709
I2717
sS'nauseat'
p2710
I2200
sS'grandmother\xe2\x80\x99'
p2711
I2719
sS'tumbl'
p2712
I2720
sS'hurri'
p2713
I2721
sS'\xe2\x80\x9cto'
p2714
I2722
sS'broke'
p2715
I2723
sS'\xe2\x80\x9cnext'
p2716
I2724
sS'grill'
p2717
I2725
sS'smurt'
p2718
I2726
sS'histori'
p2719
I2727
sS'nine'
p2720
I2728
sS'\xe2\x80\x9cboy'
p2721
I2729
sS'parasol'
p2722
I2730
sS'transcend'
p2723
I2731
sS'mushroomcolor'
p2724
I2732
sS'nautilus'
p2725
I2733
sS'voiceov'
p2726
I2734
sS'nippl'
p2727
I2735
sS'phrase'
p2728
I2736
sS'undercurr'
p2729
I2737
sS'moving\xe2\x80\x9d'
p2730
I2738
sS'cowlick'
p2731
I2739
sS'anoth'
p2732
I2740
sS'american'
p2733
I2741
sS'foreseen'
p2734
I3971
sS'onceshini'
p2735
I2743
sS'reject'
p2736
I2744
sS'sneak'
p2737
I2745
sS'embrac'
p2738
I2746
sS'undergradu'
p2739
I2747
sS'\xe2\x80\x9cnatur'
p2740
I2748
sS'a'
p2741
I2749
sS'humbug'
p2742
I2750
sS'overnight'
p2743
I2751
sS'bugl'
p2744
I2752
sS'beardless'
p2745
I2753
sS'dread'
p2746
I2754
sS'dream'
p2747
I2755
sS'up\xe2\x80\x9d'
p2748
I2756
sS'esquir'
p2749
I2757
sS'sweatshirt\xe2\x80\x94h'
p2750
I2758
sS'help'
p2751
I2759
sS'coeduc'
p2752
I2760
sS'erod'
p2753
I2761
sS'slouch'
p2754
I2762
sS'soon'
p2755
I2763
sS'held'
p2756
I2764
sS'steril'
p2757
I2765
sS'soot'
p2758
I2766
sS'erot'
p2759
I2767
sS'hell'
p2760
I2768
sS'\xe2\x80\x9csorry\xe2\x80\x9d'
p2761
I2769
sS'obscen'
p2762
I2770
sS'daycar'
p2763
I2771
sS'feel'
p2764
I6400
sS'delici'
p2765
I2773
sS'fool'
p2766
I2774
sS'food'
p2767
I2775
sS'sentenc'
p2768
I2776
sS'inquisit'
p2769
I2777
sS'vomit'
p2770
I2778
sS'foot'
p2771
I2779
sS'fairi'
p2772
I2780
sS'predatori'
p2773
I2781
sS'broken\xe2\x80\xa6'
p2774
I2782
sS'thathat'
p2775
I2783
sS'fulli'
p2776
I2784
sS'him\xe2\x80\x94it'
p2777
I2785
sS'pamper'
p2778
I2786
sS'anarchi'
p2779
I2787
sS'heavi'
p2780
I2788
sS'talisman'
p2781
I2789
sS'beyond'
p2782
I2790
sS'event'
p2783
I2791
sS'magnet'
p2784
I3996
sS'mist'
p2785
I2793
sS'safeti'
p2786
I2794
sS'coeditor'
p2787
I2795
sS'lights\xe2\x80\x9d'
p2788
I2796
sS'publish'
p2789
I2797
sS'fountain'
p2790
I2798
sS'piefer'
p2791
I2799
sS'shrivel'
p2792
I2800
sS'compunct'
p2793
I2801
sS'ass'
p2794
I2802
sS'thirtyf'
p2795
I2803
sS'pun'
p2796
I2804
sS'bald'
p2797
I1698
sS'bass'
p2798
I2806
sS'dirt'
p2799
I2807
sS'dunc'
p2800
I2808
sS'seen\xe2\x80\x93i'
p2801
I2809
sS'reason'
p2802
I2810
sS'\xe2\x80\x9csometh'
p2803
I2699
sS'dire'
p2804
I2812
sS'put'
p2805
I2813
sS'earliest'
p2806
I2814
sS'pur'
p2807
I2815
sS'precari'
p2808
I2816
sS'daisi'
p2809
I2817
sS'liaison'
p2810
I2818
sS'\xe2\x80\x9cwell\xe2\x80\x9d'
p2811
I2819
sS'businessmen'
p2812
I2820
sS'heartbeat'
p2813
I2821
sS'blush'
p2814
I2822
sS'assign'
p2815
I2823
sS'uncommun'
p2816
I2824
sS'prayer\xe2\x80\x9d'
p2817
I2825
sS'effortless'
p2818
I2827
sS'membran'
p2819
I2828
sS'soon\xe2\x80\x9d'
p2820
I2829
sS'miss'
p2821
I2830
sS'eddi'
p2822
I2831
sS'questionnair'
p2823
I2832
sS'horsi'
p2824
I2833
sS'station'
p2825
I2834
sS'fingernail'
p2826
I4681
sS'scheme'
p2827
I2836
sS'behind'
p2828
I2837
sS'\xe2\x80\x9cthere\xe2\x80\x9d'
p2829
I2838
sS'\xe2\x80\x9cthere\xe2\x80\x99'
p2830
I2839
sS'boredom'
p2831
I2840
sS'grew'
p2832
I2841
sS'god\xe2\x80\x9d'
p2833
I2842
sS'haddock'
p2834
I2843
sS'groceri'
p2835
I2844
sS'bridg'
p2836
I2845
sS'sts'
p2837
I2846
sS'excitement\xe2\x80\x99'
p2838
I2847
sS'toward'
p2839
I2848
sS'excitement\xe2\x80\x9d'
p2840
I2849
sS'crescent'
p2841
I2850
sS'toxiccleanup'
p2842
I2851
sS'strung'
p2843
I5534
sS'wellfrequ'
p2844
I2852
sS'antonio'
p2845
I2853
sS'lid'
p2846
I2854
sS'lie'
p2847
I2855
sS'cave'
p2848
I2856
sS'undeclar'
p2849
I953
sS'lip'
p2850
I2858
sS'useless'
p2851
I2859
sS'indecis'
p2852
I2860
sS'mixtur'
p2853
I2862
sS'off\xe2\x80\x9d'
p2854
I2863
sS'eaten'
p2855
I2864
sS'clear'
p2856
I2865
sS'salari'
p2857
I2866
sS'clean'
p2858
I2867
sS'skein'
p2859
I2868
sS'blend'
p2860
I2869
sS'\xe2\x80\x9chow'
p2861
I2870
sS'humid'
p2862
I2871
sS'languid'
p2863
I2872
sS'flicker'
p2864
I2873
sS'\xe2\x80\x9cpick'
p2865
I2874
sS'crayon'
p2866
I2875
sS'pretti'
p2867
I2876
sS'paranoid'
p2868
I2877
sS'flesh'
p2869
I1712
sS'theplateask'
p2870
I2879
sS'shrunken'
p2871
I6424
sS'darwin'
p2872
I2881
sS'\xe2\x80\x9cin'
p2873
I2882
sS'\xe2\x80\x9cif'
p2874
I2883
sS'god\xe2\x80\x99'
p2875
I2884
sS'basement'
p2876
I2885
sS'\xe2\x80\x9cit'
p2877
I2886
sS'likely\xe2\x80\x9d'
p2878
I2887
sS'\xe2\x80\x9cis'
p2879
I2888
sS'commander\xe2\x80\x9d'
p2880
I2889
sS'commander\xe2\x80\x99'
p2881
I2890
sS'antiqu'
p2882
I2891
sS'x'
p2883
I2892
sS'courteous'
p2884
I2893
sS'unsmil'
p2885
I2894
sS'cramp'
p2886
I2895
sS'\xe2\x80\x9cmay'
p2887
I3228
sS'delus'
p2888
I2897
sS'garag'
p2889
I5641
sS'close'
p2890
I2898
sS'fromabov'
p2891
I1714
sS'bride'
p2892
I2900
sS'\xe2\x80\x9cquiet\xe2\x80\x9d'
p2893
I2901
sS'particip'
p2894
I2902
sS'utopia'
p2895
I2903
sS'won'
p2896
I2904
sS'stalk'
p2897
I2905
sS'way\xe2\x80\x9d'
p2898
I2906
sS'piss'
p2899
I2907
sS'noncaucasian'
p2900
I2908
sS'isol'
p2901
I2909
sS'poorer'
p2902
I2910
sS'\xe2\x80\x9cjanine\xe2\x80\x9d'
p2903
I2911
sS'spray'
p2904
I2912
sS'distinguish'
p2905
I2913
sS'zipper'
p2906
I2914
sS'both'
p2907
I2915
sS'dismay'
p2908
I6648
sS'forgotten'
p2909
I2916
sS'driedup'
p2910
I2917
sS'vault'
p2911
I2918
sS'material\xe2\x80\x94wa'
p2912
I2919
sS'stoplight'
p2913
I2920
sS'farmhous'
p2914
I2921
sS'puritan'
p2915
I2922
sS'vessel'
p2916
I2923
sS'\xe2\x80\x9ctall\xe2\x80\x9d'
p2917
I2924
sS'forgiv'
p2918
I2925
sS'stamp'
p2919
I2926
sS'damp'
p2920
I2927
sS'territori'
p2921
I2928
sS'humung'
p2922
I2929
sS'empti'
p2923
I2930
sS'damn'
p2924
I2931
sS'fenland'
p2925
I2932
sS'threaten'
p2926
I2933
sS'invis'
p2927
I4018
sS'jesuit'
p2928
I2935
sS'imag'
p2929
I2936
sS'wet'
p2930
I1722
sS'deter'
p2931
I2938
sS'drink\xe2\x80\x9d'
p2932
I2939
sS'furrow'
p2933
I2940
sS'loom'
p2934
I2941
sS'\xe2\x80\x9cwith'
p2935
I3522
sS'prayvaganza'
p2936
I2943
sS'rope'
p2937
I2944
sS'pace'
p2938
I2945
sS'while'
p2939
I2946
sS'ought'
p2940
I2947
sS'loot'
p2941
I2948
sS'fixtur'
p2942
I2949
sS'nicotin'
p2943
I3550
sS'loop'
p2944
I2951
sS'pack'
p2945
I2952
sS'readi'
p2946
I2953
sS'petal'
p2947
I2954
sS'spong'
p2948
I2955
sS'shat'
p2949
I2956
sS'grant'
p2950
I2957
sS'belong'
p2951
I2958
sS'makeshift'
p2952
I2959
sS'discredit'
p2953
I2960
sS'terrac'
p2954
I2961
sS'owngood'
p2955
I2962
sS'hallway'
p2956
I2963
sS'imagin'
p2957
I2964
sS'optim'
p2958
I2965
sS'inflat'
p2959
I2966
sS'\xe2\x80\x9cfertil'
p2960
I2967
sS'temporari'
p2961
I2968
sS'fatti'
p2962
I2969
sS'cow\xe2\x80\x99stongu'
p2963
I2970
sS'els'
p2964
I5674
sS'older'
p2965
I2971
sS'punctuat'
p2966
I2972
sS'grind'
p2967
I2973
sS'realiz'
p2968
I5223
sS'coup'
p2969
I2975
sS'chore'
p2970
I2976
sS'cocki'
p2971
I2977
sS'\xe2\x80\x9camericans\xe2\x80\x9d'
p2972
I2978
sS'lit'
p2973
I2979
sS'password'
p2974
I1732
sS'prudish'
p2975
I2981
sS'cemeteri'
p2976
I2982
sS'march'
p2977
I2983
sS'molecul'
p2978
I2984
sS'game'
p2979
I2985
sS'wiser'
p2980
I2986
sS'through\xe2\x80\x9d'
p2981
I2987
sS'characterist'
p2982
I2988
sS'like'
p2983
I2989
sS'girl\xe2\x80\x9d'
p2984
I2990
sS'sofn'
p2985
I2991
sS'moira'
p2986
I2992
sS'signal'
p2987
I2993
sS'popular'
p2988
I2861
sS'cruis'
p2989
I2995
sS'pillag'
p2990
I2996
sS'voraci'
p2991
I2997
sS'urgenc'
p2992
I2998
sS'trendi'
p2993
I2999
sS'porous'
p2994
I3000
sS'like\xe2\x80\x94\xe2\x80\x9d'
p2995
I3001
sS'some'
p2996
I3002
sS'undress'
p2997
I3003
sS'yolk'
p2998
I3004
sS'chocol'
p2999
I3005
sS'baby\xe2\x80\x99'
p3000
I3006
sS'baby\xe2\x80\x9d'
p3001
I3007
sS'amput'
p3002
I3008
sS'clownish'
p3003
I3009
sS'compubit'
p3004
I3010
sS'run'
p3005
I3011
sS'\xe2\x80\x9chello\xe2\x80\x9d'
p3006
I3012
sS'rub'
p3007
I3013
sS'booklet'
p3008
I3014
sS'rug'
p3009
I3015
sS'stem'
p3010
I3016
sS'chickenshit'
p3011
I3017
sS'step'
p3012
I3018
sS'stew'
p3013
I3329
sS'alleyway'
p3014
I3020
sS'taboo'
p3015
I3021
sS'rut'
p3016
I3022
sS'shine'
p3017
I3023
sS'faith'
p3018
I4041
sS'keynot'
p3019
I3025
sS'reappear'
p3020
I3026
sS'shini'
p3021
I3027
sS'taken\xe2\x80\x9d'
p3022
I4380
sS'idl'
p3023
I3029
sS'block'
p3024
I3030
sS'trate'
p3025
I3031
sS'smelli'
p3026
I3032
sS'within'
p3027
I3033
sS'along\xe2\x80\x9d'
p3028
I3035
sS'triangl'
p3029
I3036
sS'carnegi'
p3030
I3037
sS'solitude\xe2\x80\x94and'
p3031
I3038
sS'pious\xe2\x80\x9d'
p3032
I3040
sS'semiliquid'
p3033
I3041
sS'amaz'
p3034
I6452
sS'harem'
p3035
I3042
sS'himself'
p3036
I3043
sS'fishi'
p3037
I3044
sS'frost'
p3038
I3045
sS'haven\xe2\x80\x99t'
p3039
I3046
sS'russian'
p3040
I3047
sS'reek'
p3041
I3048
sS'reel'
p3042
I3049
sS'dull'
p3043
I3050
sS'skull'
p3044
I3051
sS'\xe2\x80\x9cplease\xe2\x80\x9d'
p3045
I3052
sS'\xe2\x80\x9cpant'
p3046
I3054
sS'similar'
p3047
I3055
sS'lectur'
p3048
I3056
sS'concluded\xe2\x80\x9d'
p3049
I3057
sS'cotton'
p3050
I3058
sS'sullen'
p3051
I3059
sS'pronounc'
p3052
I3060
sS'titl'
p3053
I3061
sS'gilead'
p3054
I3062
sS'nap'
p3055
I3063
sS'breathe\xe2\x80\x9d'
p3056
I3064
sS'manhattan'
p3057
I3065
sS'penhold'
p3058
I3066
sS'draw'
p3059
I3067
sS'tongu'
p3060
I3068
sS'evas'
p3061
I3069
sS'are\xe2\x80\x9d'
p3062
I6854
sS'resign'
p3063
I3070
sS'drag'
p3064
I3071
sS'later\xe2\x80\x9d'
p3065
I3072
sS'depth'
p3066
I3073
sS'allowed\xe2\x80\x9d'
p3067
I3075
sS'\xe2\x80\x9cthough'
p3068
I3076
sS'bribe'
p3069
I3077
sS'doortodoor'
p3070
I3078
sS'babydol'
p3071
I3079
sS'untangl'
p3072
I3101
sS'benevol'
p3073
I3081
sS'phenomenon'
p3074
I3082
sS'compact'
p3075
I3083
sS'car\xe2\x80\x9d'
p3076
I3084
sS'airplan'
p3077
I3085
sS'wave'
p3078
I3086
sS'trough'
p3079
I3087
sS'nausea'
p3080
I4569
sS'snide'
p3081
I3089
sS'stiff'
p3082
I3090
sS'gender'
p3083
I3091
sS'button'
p3084
I4585
sS'stifl'
p3085
I3093
sS'open\xe2\x80\x94it'
p3086
I6118
sS'hemispher'
p3087
I3094
sS'game\xe2\x80\x9d'
p3088
I3095
sS'picket'
p3089
I3097
sS'muffl'
p3090
I3098
sS'uniqu'
p3091
I4050
sS'jump'
p3092
I3100
sS'click'
p3093
I3102
sS'poke'
p3094
I3103
sS'worthi'
p3095
I3104
sS'reclus'
p3096
I4661
sS'cell'
p3097
I3106
sS'rotten'
p3098
I3107
sS'unspeak'
p3099
I3108
sS'with\xe2\x80\x9d'
p3100
I6463
sS'\xe2\x80\x9coh'
p3101
I3110
sS'\xe2\x80\x9con'
p3102
I3111
sS'\xe2\x80\x9cof'
p3103
I3112
sS'melancholi'
p3104
I3113
sS'\xe2\x80\x9cor'
p3105
I3114
sS'papier'
p3106
I3115
sS'convert'
p3107
I3116
sS'convers'
p3108
I4738
sS'chant'
p3109
I3119
sS'repel'
p3110
I3120
sS'noisili'
p3111
I3121
sS'chang'
p3112
I3122
sS'hexagon'
p3113
I3123
sS'chanc'
p3114
I3124
sS'wig'
p3115
I3125
sS'subservi'
p3116
I4785
sS'danger'
p3117
I3127
sS'win'
p3118
I3128
sS'wit'
p3119
I3129
sS'cloud'
p3120
I3130
sS'metaphor'
p3121
I3131
sS'child\xe2\x80\x99'
p3122
I3132
sS'solidif'
p3123
I3133
sS'outside\xe2\x80\x9d'
p3124
I6464
sS'\xe2\x80\x9ckrishna'
p3125
I4849
sS'camera'
p3126
I3136
sS'hope\xe2\x80\x9d'
p3127
I3137
sS'cram'
p3128
I3138
sS'stage'
p3129
I1759
sS'pornycorn'
p3130
I3139
sS'meek'
p3131
I4905
sS'perceiv'
p3132
I3141
sS'ride'
p3133
I3143
sS'meet'
p3134
I3144
sS'control'
p3135
I3145
sS'evensteven'
p3136
I3146
sS'transition\xe2\x80\x9d'
p3137
I4064
sS'skirt'
p3138
I3148
sS'they\xe2\x80\x99ll'
p3139
I3149
sS'georg'
p3140
I3150
sS'fourpet'
p3141
I3151
sS'dissolv'
p3142
I3152
sS'circular'
p3143
I3153
sS'pink'
p3144
I4065
sS'elus'
p3145
I3155
sS'farm'
p3146
I3156
sS'thunderstorm'
p3147
I3157
sS'checkpoints\xe2\x80\x9d'
p3148
I3158
sS'\xe2\x80\x9csteady\xe2\x80\x9d'
p3149
I3159
sS'nolit'
p3150
I5040
sS'toowarm'
p3151
I3161
sS'prolix'
p3152
I3162
sS'bugged\xe2\x80\x9d'
p3153
I3163
sS'bloodstream'
p3154
I3164
sS'ungrac'
p3155
I3165
sS'overdress'
p3156
I3166
sS'too\xe2\x80\x94at'
p3157
I3167
sS'corral'
p3158
I3169
sS'scoop'
p3159
I3170
sS'ungrat'
p3160
I3171
sS'fruit\xe2\x80\x9d'
p3161
I3172
sS'cattl'
p3162
I3173
sS'blackglov'
p3163
I3174
sS'compubank'
p3164
I3175
sS'draperi'
p3165
I3176
sS'\xe2\x80\x9cpull'
p3166
I3177
sS'newsweek'
p3167
I3178
sS'outer'
p3168
I3179
sS'broom'
p3169
I3180
sS'wellknown'
p3170
I3181
sS'sword'
p3171
I4071
sS'frond'
p3172
I3183
sS'handi'
p3173
I3184
sS'tribut'
p3174
I3185
sS'clinics\xe2\x80\x9d'
p3175
I3186
sS'placid'
p3176
I3187
sS'front'
p3177
I3188
sS'somewher'
p3178
I3189
sS'spoilag'
p3179
I3190
sS'slide'
p3180
I5240
sS'mode'
p3181
I3192
sS'masteri'
p3182
I3193
sS'summer\xe2\x80\x9d'
p3183
I3194
sS'upward'
p3184
I3195
sS'perfidi'
p3185
I4076
sS'oasi'
p3186
I3198
sS'unwink'
p3187
I3199
sS'drizzl'
p3188
I3200
sS'mollusk'
p3189
I3201
sS'special'
p3190
I3202
sS'butch'
p3191
I3203
sS'lukewarm'
p3192
I3204
sS'influenc'
p3193
I5321
sS'confess'
p3194
I3206
sS'suitabl'
p3195
I3207
sS'hardwar'
p3196
I3208
sS'slapdash'
p3197
I3209
sS'obsess'
p3198
I3210
sS'umbrella'
p3199
I3211
sS'spot'
p3200
I3212
sS'manipul'
p3201
I3213
sS'undo'
p3202
I3214
sS'undu'
p3203
I3215
sS'sneer'
p3204
I3216
sS'unwant'
p3205
I3217
sS'florida'
p3206
I3218
sS'segreg'
p3207
I3219
sS'keep'
p3208
I3220
sS'stride'
p3209
I3221
sS'shred'
p3210
I3222
sS'humphrey'
p3211
I3224
sS'godsak'
p3212
I3225
sS'qualiti'
p3213
I3226
sS'yesterday\xe2\x80\x9d'
p3214
I3227
sS'fluoresc'
p3215
I2896
sS'bitch'
p3216
I3229
sS'art'
p3217
I6480
sS'forgeri'
p3218
I4205
sS'wrapper'
p3219
I3232
sS'grow'
p3220
I4086
sS'attach'
p3221
I3234
sS'attack'
p3222
I3235
sS'privaci'
p3223
I3236
sS'rebelli'
p3224
I3237
sS'jellyfish'
p3225
I3238
sS'final'
p3226
I3239
sS'beard'
p3227
I3240
sS'ash'
p3228
I3241
sS'punish'
p3229
I3242
sS'groggili'
p3230
I3243
sS'tissu'
p3231
I3244
sS'foliag'
p3232
I3245
sS'herself'
p3233
I3246
sS'cit\xe2\x80\xa6\xe2\x80\x9d'
p3234
I3247
sS'waist'
p3235
I609
sS'photograph'
p3236
I3249
sS'rendezv'
p3237
I3250
sS'beg'
p3238
I5127
sS'bed'
p3239
I3252
sS'bee'
p3240
I3253
sS'stippl'
p3241
I3254
sS'barb'
p3242
I6482
sS'\xe2\x80\x9cknow'
p3243
I4884
sS'dumb'
p3244
I5835
sS'bet'
p3245
I3257
sS'greenishyellow'
p3246
I3258
sS'grayish'
p3247
I3259
sS'tabl'
p3248
I3260
sS'need'
p3249
I3261
sS'border'
p3250
I3262
sS'gloveless'
p3251
I1779
sS'screw'
p3252
I3264
sS'camouflag'
p3253
I4158
sS'thanksgiving\xe2\x80\x9d'
p3254
I4082
sS'sprinkler'
p3255
I3267
sS'ofwarren\xe2\x80\x9d'
p3256
I3268
sS'bonfir'
p3257
I3269
sS'tactic'
p3258
I3270
sS'truck'
p3259
I4839
sS'visor'
p3260
I3272
sS'singl'
p3261
I3273
sS'textur'
p3262
I3274
sS'energet'
p3263
I3275
sS'collective\xe2\x80\x99'
p3264
I3276
sS'sleigh'
p3265
I2994
sS'galleri'
p3266
I3277
sS'discov'
p3267
I3278
sS'anyone\xe2\x80\x99'
p3268
I3280
sS'anyone\xe2\x80\x9d'
p3269
I3281
sS'urg'
p3270
I3282
sS'urn'
p3271
I3283
sS'inde'
p3272
I3284
sS'\xe2\x80\x9cresettl'
p3273
I3285
sS'affair'
p3274
I3286
sS'namecal'
p3275
I3287
sS'anyway'
p3276
I3288
sS'aren\xe2\x80\x99t'
p3277
I3289
sS'\xe2\x80\x9cneither'
p3278
I3290
sS'gawk\xe2\x80\x9d'
p3279
I3291
sS'tire'
p3280
I3292
sS'incorrig'
p3281
I3293
sS'upstair'
p3282
I3294
sS'rash'
p3283
I3295
sS'manufactur'
p3284
I3296
sS'brighter'
p3285
I3297
sS'envi'
p3286
I3298
sS'fuel'
p3287
I3299
sS'brightey'
p3288
I3300
sS'discontinu'
p3289
I3301
sS'deiti'
p3290
I3302
sS'gratifi'
p3291
I3303
sS'endless'
p3292
I3304
sS'gray'
p3293
I3305
sS'tobacco'
p3294
I3306
sS'she'
p3295
I3307
sS'contain'
p3296
I3308
sS'shi'
p3297
I3309
sS'grab'
p3298
I3310
sS'widow'
p3299
I3311
sS'legaci'
p3300
I3312
sS'hardwood'
p3301
I3313
sS'funer'
p3302
I3314
sS'immor'
p3303
I3315
sS'know\xe2\x80\x9d'
p3304
I6495
sS'driveway'
p3305
I3687
sS'discont'
p3306
I3318
sS'unearth'
p3307
I3319
sS'picture\xe2\x80\x9d'
p3308
I3320
sS'unshaven'
p3309
I3321
sS'state'
p3310
I3322
sS'tens'
p3311
I3323
sS'neither'
p3312
I3324
sS'induc'
p3313
I6499
sS'tent'
p3314
I3326
sS'bleed'
p3315
I5036
sS'blinker'
p3316
I3327
sS'merri'
p3317
I3328
sS'unwav'
p3318
I3330
sS'unwat'
p3319
I3331
sS'heads\xe2\x80\x99'
p3320
I3332
sS'precious'
p3321
I3333
sS'jobbi'
p3322
I3334
sS'aslant'
p3323
I3335
sS'career'
p3324
I3336
sS'trove'
p3325
I3337
sS'sterile\xe2\x80\x9d'
p3326
I3338
sS'admit'
p3327
I3339
sS'admir'
p3328
I3340
sS'ami'
p3329
I3341
sS'\xe2\x80\x9cpush'
p3330
I3342
sS'toneless'
p3331
I3343
sS'moistur'
p3332
I3344
sS'poem'
p3333
I3345
sS'slowli'
p3334
I3346
sS'tread'
p3335
I3347
sS'sara'
p3336
I3348
sS'treat'
p3337
I3349
sS'whisper'
p3338
I3350
sS'eloqu'
p3339
I3351
sS'spaniel'
p3340
I3352
sS'snivel'
p3341
I3353
sS'hamburg'
p3342
I3354
sS'furnitur'
p3343
I3355
sS'plausibl'
p3344
I3356
sS'shameless'
p3345
I3357
sS'novel'
p3346
I3358
sS'outspread'
p3347
I3359
sS'volit'
p3348
I3360
sS'harden'
p3349
I3361
sS'revil'
p3350
I3362
sS'buckl'
p3351
I3363
sS'hearten'
p3352
I3364
sS'revis'
p3353
I3365
sS'scienc'
p3354
I3366
sS'welcom'
p3355
I3367
sS'generic'
p3356
I3368
sS'parti'
p3357
I3369
sS'balloon'
p3358
I3370
sS'they\xe2\x80\x99d'
p3359
I5199
sS'speaker'
p3360
I3372
sS'got\xe2\x80\x9d'
p3361
I3373
sS'underground'
p3362
I3374
sS'they\xe2\x80\x99v'
p3363
I3375
sS'strangl'
p3364
I3376
sS'they\xe2\x80\x99r'
p3365
I3377
sS'absorb'
p3366
I3378
sS'interrog'
p3367
I3379
sS'ankl'
p3368
I3380
sS'effect'
p3369
I3381
sS'milk\xe2\x80\x94i'
p3370
I3382
sS'initi'
p3371
I3383
sS'women\xe2\x80\x9d'
p3372
I3384
sS'women\xe2\x80\x99'
p3373
I3385
sS'paycheck'
p3374
I3386
sS'lunch'
p3375
I4123
sS'i'
p3376
I3389
sS'well'
p3377
I3390
sS'snaketwin'
p3378
I3391
sS'drone'
p3379
I3392
sS'welt'
p3380
I3393
sS'rifl'
p3381
I3394
sS'distanc'
p3382
I3395
sS'therebi'
p3383
I3396
sS'mistaken'
p3384
I3397
sS'distant'
p3385
I3399
sS'skill'
p3386
I3400
sS'lauren'
p3387
I3401
sS'homework'
p3388
I3402
sS'sonic'
p3389
I3403
sS'fate'
p3390
I3404
sS'varieti'
p3391
I3405
sS'utah'
p3392
I3406
sS'handprint'
p3393
I6515
sS'unseen'
p3394
I3408
sS'loss'
p3395
I3409
sS'lost'
p3396
I3410
sS'clown'
p3397
I3411
sS'necessari'
p3398
I3412
sS'lose'
p3399
I3413
sS'starri'
p3400
I3414
sS'candl'
p3401
I3415
sS'page'
p3402
I3416
sS'candi'
p3403
I3417
sS'walk\xe2\x80\x9d'
p3404
I3418
sS'shed'
p3405
I3419
sS'glare'
p3406
I3420
sS'twitter'
p3407
I3421
sS'hush'
p3408
I3422
sS'\xe2\x80\x9cofwarren\xe2\x80\x9d'
p3409
I3423
sS'quartz'
p3410
I1809
sS'warmer'
p3411
I3425
sS'shes'
p3412
I3426
sS'mistak'
p3413
I6516
sS'home'
p3414
I3428
sS'librari'
p3415
I3429
sS'pinpoint'
p3416
I3430
sS'broad'
p3417
I3431
sS'estim'
p3418
I3432
sS'encourag'
p3419
I3433
sS'pulpi'
p3420
I3434
sS'excav'
p3421
I3435
sS'usag'
p3422
I3436
sS'wheedl'
p3423
I3437
sS'instinct'
p3424
I3438
sS'refuge'
p3425
I3439
sS'freedom'
p3426
I3441
sS'nightclub'
p3427
I3442
sS'burntout'
p3428
I3443
sS'say\xe2\x80\x9d'
p3429
I3444
sS'tortur'
p3430
I3445
sS'diagon'
p3431
I3446
sS'milkmaid'
p3432
I3447
sS'adrenalin'
p3433
I3448
sS'doubtless'
p3434
I3449
sS'museum'
p3435
I3450
sS'wimp'
p3436
I3451
sS'handmaid\xe2\x80\x99'
p3437
I3452
sS'vein'
p3438
I1811
sS'say\xe2\x80\xa6'
p3439
I3454
sS'there\xe2\x80\x9d'
p3440
I3455
sS'eyesi'
p3441
I3456
sS'squirmi'
p3442
I3457
sS'north'
p3443
I3458
sS'ean'
p3444
I3459
sS'hw'
p3445
I3460
sS'neutral'
p3446
I3461
sS'gain'
p3447
I3462
sS'whistl'
p3448
I3464
sS'technician'
p3449
I3465
sS'overflow'
p3450
I3466
sS'ear'
p3451
I3467
sS'eat'
p3452
I3468
sS'he'
p3453
I3469
sS'222329'
p3454
I3470
sS'cruel'
p3455
I3471
sS'limit'
p3456
I3472
sS'solitair'
p3457
I3473
sS'display'
p3458
I3474
sS'sponsor'
p3459
I3475
sS'carborundorum'
p3460
I3476
sS'bentwood'
p3461
I3477
sS'balconi'
p3462
I3478
sS'twist'
p3463
I3479
sS'crummi'
p3464
I3480
sS'prais'
p3465
I3481
sS'futur'
p3466
I3482
sS'rememb'
p3467
I3483
sS'stat'
p3468
I3484
sS'star'
p3469
I3485
sS'this\xe2\x80\x9d'
p3470
I3486
sS'stay'
p3471
I3487
sS'stab'
p3472
I3488
sS'stac'
p3473
I3489
sS'herbicid'
p3474
I3490
sS'appoint'
p3475
I3491
sS'spectacl'
p3476
I3492
sS'massacr'
p3477
I3493
sS'mother\xe2\x80\x99'
p3478
I3494
sS'chalki'
p3479
I3495
sS'\xe2\x80\x9cnick\xe2\x80\x9d'
p3480
I3496
sS'something\xe2\x80\x9d'
p3481
I3497
sS'liebchen'
p3482
I3498
sS'work\xe2\x80\x9d'
p3483
I3499
sS'pardon'
p3484
I3500
sS'knelt'
p3485
I3501
sS'protest'
p3486
I3502
sS'powderi'
p3487
I3503
sS'nothing\xe2\x80\x9d'
p3488
I3504
sS'whose'
p3489
I3505
sS'accus'
p3490
I3506
sS'accur'
p3491
I3507
sS'swam'
p3492
I3508
sS'sorri'
p3493
I3509
sS'swan'
p3494
I3510
sS'buddi'
p3495
I3511
sS'sway'
p3496
I3512
sS'voic'
p3497
I3513
sS'vase'
p3498
I93
sS'gilead\xe2\x80\x99'
p3499
I3515
sS'gilead\xe2\x80\x9d'
p3500
I3516
sS'govern'
p3501
I3517
sS'appar'
p3502
I108
sS'sleek'
p3503
I5327
sS'lefthand'
p3504
I3520
sS'business\xe2\x80\x9d'
p3505
I114
sS'look'
p3506
I2942
sS'kitchenett'
p3507
I3523
sS'correct'
p3508
I4148
sS'greenish'
p3509
I3525
sS'whirlwind'
p3510
I3526
sS'wasn\xe2\x80\x99t'
p3511
I4150
sS'crave'
p3512
I3529
sS'sloughedoff'
p3513
I3531
sS'illumin'
p3514
I3532
sS'wildwood\xe2\x80\x9d'
p3515
I3533
sS'even'
p3516
I3534
sS'wreck'
p3517
I3535
sS'asid'
p3518
I3536
sS'lightn'
p3519
I3537
sS'bikini'
p3520
I3538
sS'fetish'
p3521
I243
sS'net'
p3522
I3540
sS'ever'
p3523
I3541
sS'hazi'
p3524
I3542
sS'elimin'
p3525
I253
sS'never'
p3526
I269
sS'drew'
p3527
I3545
sS'met'
p3528
I3546
sS'mew'
p3529
I3547
sS'cardboard'
p3530
I3548
sS'interpret'
p3531
I3549
sS'loos'
p3532
I2950
sS'dri'
p3533
I3551
sS'jame'
p3534
I323
sS'permit'
p3535
I3553
sS'menial'
p3536
I3554
sS'nineti'
p3537
I3555
sS'volunt'
p3538
I339
sS'hunch'
p3539
I3557
sS'finger\xe2\x80\x99tfor'
p3540
I3558
sS'moral'
p3541
I3559
sS'overhear'
p3542
I3560
sS'overhead'
p3543
I399
sS'calm'
p3544
I3562
sS'recommend'
p3545
I402
sS'type'
p3546
I3564
sS'tell'
p3547
I3565
sS'looni'
p3548
I3566
sS'churchyard'
p3549
I3567
sS'\xe2\x80\x9ctwo'
p3550
I428
sS'warn'
p3551
I3569
sS'warm'
p3552
I3570
sS'grandfath'
p3553
I3571
sS'wari'
p3554
I3572
sS'flotilla'
p3555
I3573
sS'room'
p3556
I3575
sS'pant'
p3557
I6015
sS'thirtyseven'
p3558
I469
sS'roof'
p3559
I474
sS'root'
p3560
I3578
sS'vodka'
p3561
I3579
sS'the\xe2\x80\x93'
p3562
I3580
sS'give'
p3563
I3581
sS'assent'
p3564
I3582
sS'honey'
p3565
I3583
sS'innocu'
p3566
I3584
sS'\xe2\x80\x9cofcharles\xe2\x80\x9d'
p3567
I3585
sS'solitud'
p3568
I3586
sS'quot'
p3569
I3587
sS'polic'
p3570
I3588
sS'rib'
p3571
I6552
sS'soror'
p3572
I3590
sS'intestin'
p3573
I3591
sS'confin'
p3574
I3592
sS'scrambl'
p3575
I3593
sS'answer'
p3576
I3594
sS'negoti'
p3577
I3595
sS'aurora'
p3578
I3596
sS'confid'
p3579
I573
sS'vicious'
p3580
I587
sS'misfit'
p3581
I3599
sS'loyalti'
p3582
I3600
sS'\xe2\x80\x9c\xe2\x80\x98i\xe2\x80\x99her'
p3583
I3601
sS'guerilla'
p3584
I3602
sS'attempt'
p3585
I3603
sS'third'
p3586
I3604
sS'maintain'
p3587
I3605
sS'janin'
p3588
I3606
sS'foresaw'
p3589
I3607
sS'fetus'
p3590
I3608
sS'deck'
p3591
I3609
sS'helena'
p3592
I3610
sS'privileg'
p3593
I3611
sS'keyboard'
p3594
I3612
sS'manacl'
p3595
I3613
sS'what\xe2\x80\x99r'
p3596
I3614
sS'personag'
p3597
I711
sS'better'
p3598
I3616
sS'implac'
p3599
I4167
sS'what\xe2\x80\x99d'
p3600
I738
sS'polygami'
p3601
I3619
sS'happy\xe2\x80\x9d'
p3602
I3620
sS'anil'
p3603
I3621
sS'absolv'
p3604
I753
sS'therapi'
p3605
I755
sS'promin'
p3606
I3624
sS'\xe2\x80\x9cme\xe2\x80\x9d'
p3607
I6558
sS'promis'
p3608
I3626
sS'runni'
p3609
I3627
sS'denud'
p3610
I3628
sS'meat'
p3611
I3629
sS'thenc'
p3612
I3630
sS'boni'
p3613
I3631
sS'roast'
p3614
I3632
sS'poppi'
p3615
I3633
sS'\xe2\x80\x9cthink'
p3616
I825
sS'sliver'
p3617
I6559
sS'oblig'
p3618
I3636
sS'side'
p3619
I3637
sS'bone'
p3620
I3638
sS'mean'
p3621
I833
sS'mediev'
p3622
I3640
sS'weightless'
p3623
I3641
sS'enorm'
p3624
I3642
sS'taught'
p3625
I3643
sS'forgot'
p3626
I3644
sS'dawn'
p3627
I3645
sS'tatti'
p3628
I3646
sS'extract'
p3629
I3647
sS'velvet'
p3630
I3648
sS'\xe2\x80\x9cpam\xe2\x80\x9d'
p3631
I3649
sS'crucial'
p3632
I3650
sS'content'
p3633
I3651
sS'debit'
p3634
I3652
sS'sluggish'
p3635
I3653
sS'whiff'
p3636
I3654
sS'situat'
p3637
I3655
sS'infil'
p3638
I950
sS'bestow'
p3639
I3657
sS'mistress'
p3640
I3658
sS'eyeshadow'
p3641
I5653
sS'welfar'
p3642
I3659
sS'satini'
p3643
I3660
sS'him\xe2\x80\xa6\xe2\x80\x9d'
p3644
I3661
sS'startl'
p3645
I3662
sS'isl'
p3646
I3663
sS'loud'
p3647
I3664
sS'week\xe2\x80\x99'
p3648
I3665
sS'romanesqu'
p3649
I3666
sS'hoop'
p3650
I3667
sS'buttock'
p3651
I3668
sS'hook'
p3652
I3669
sS'unlik'
p3653
I3670
sS'naughti'
p3654
I3671
sS'\xe2\x80\x9clook\xe2\x80\x9d'
p3655
I3672
sS'ditch'
p3656
I1056
sS'inconspicu'
p3657
I3674
sS'hood'
p3658
I3675
sS'\xe2\x80\x9cwon\xe2\x80\x99t'
p3659
I3676
sS'historian'
p3660
I3677
sS'sometim'
p3661
I3678
sS'draft'
p3662
I612
sS'unwholesom'
p3663
I3680
sS'kitchen\xe2\x80\x94so'
p3664
I3681
sS'years\xe2\x80\x9d'
p3665
I1117
sS'gym'
p3666
I3683
sS'is\xe2\x80\x9d'
p3667
I3684
sS'somewhat'
p3668
I3685
sS'horn'
p3669
I1842
sS'symptom'
p3670
I3686
sS'silli'
p3671
I3688
sS'affront'
p3672
I3689
sS'afterbirth'
p3673
I3690
sS'dimpl'
p3674
I3691
sS'matter'
p3675
I1176
sS'upholsteri'
p3676
I3693
sS'loiter'
p3677
I1182
sS'\xe2\x80\x9cmatches\xe2\x80\x9d'
p3678
I3695
sS'seep'
p3679
I3696
sS'modern'
p3680
I3697
sS'mind'
p3681
I3698
sS'mine'
p3682
I3699
sS'ginger'
p3683
I3700
sS'seed'
p3684
I3701
sS'seen'
p3685
I3702
sS'seem'
p3686
I3703
sS'churn'
p3687
I1241
sS'mint'
p3688
I1244
sS'it\xe2\x80\x9d'
p3689
I3706
sS'nights\xe2\x80\x9d'
p3690
I3707
sS'it\xe2\x80\xa6'
p3691
I3708
sS'chest'
p3692
I3709
sS'lopsid'
p3693
I3710
sS'crippl'
p3694
I3711
sS'regular'
p3695
I3712
sS'too\xe2\x80\x9d'
p3696
I3713
sS'tradit'
p3697
I3714
sS'doc'
p3698
I3715
sS'alarm'
p3699
I3716
sS'm'
p3700
I3717
sS'dog'
p3701
I3718
sS'doe'
p3702
I3719
sS'digress'
p3703
I3720
sS'twopiec'
p3704
I3721
sS'constrict'
p3705
I3722
sS'scotch'
p3706
I3723
sS'we\xe2\x80\x9d'
p3707
I3724
sS'hunger'
p3708
I3725
sS'visitor'
p3709
I3726
sS'\xe2\x80\x9csafe'
p3710
I3727
sS'probe'
p3711
I3728
sS'celeri'
p3712
I3729
sS'despit'
p3713
I3730
sS'particicution\xe2\x80\x9d'
p3714
I2582
sS'despis'
p3715
I3732
sS'explain'
p3716
I1424
sS'trembled\xe2\x80\x94penetr'
p3717
I3734
sS'sugar'
p3718
I1431
sS'unbenevol'
p3719
I3736
sS'despic'
p3720
I3737
sS'maryann'
p3721
I3738
sS'hoard'
p3722
I3739
sS'chalic'
p3723
I3740
sS'it\xe2\x80\x99ll'
p3724
I3741
sS'stow'
p3725
I3742
sS'stop'
p3726
I3743
sS'coast'
p3727
I3744
sS'smug'
p3728
I3745
sS'parachut'
p3729
I3746
sS'bat'
p3730
I1511
sS'bar'
p3731
I3748
sS'sacrific'
p3732
I3749
sS'\xe2\x80\x9cfifteen'
p3733
I3750
sS'bag'
p3734
I3751
sS'bad'
p3735
I3752
sS'troop'
p3736
I3753
sS'ban'
p3737
I3754
sS'enchant'
p3738
I3755
sS'blameless'
p3739
I3757
sS'unworthi'
p3740
I3758
sS'fluffi'
p3741
I3759
sS'subject'
p3742
I3760
sS'i\xe2\x80\x99vegiven'
p3743
I3761
sS'said'
p3744
I3762
sS'compuphon'
p3745
I3763
sS'embroideri'
p3746
I3764
sS'scrap'
p3747
I3765
sS'sail'
p3748
I3766
sS'crumpl'
p3749
I3767
sS'simplest'
p3750
I3768
sS'triplet'
p3751
I3769
sS'\xe2\x80\x9chell'
p3752
I3770
sS'vitamin'
p3753
I3771
sS'lotion'
p3754
I3772
sS'wait\xe2\x80\x9d'
p3755
I3773
sS'lazi'
p3756
I3774
sS'\xe2\x80\x9chelp'
p3757
I3775
sS'motto'
p3758
I3776
sS'conch'
p3759
I3777
sS'adolesc'
p3760
I3778
sS'against'
p3761
I3779
sS'\xe2\x80\x9carmi'
p3762
I3780
sS'uncertainti'
p3763
I3781
sS'foldout'
p3764
I1707
sS'epilept'
p3765
I3783
sS'eyeblink'
p3766
I6583
sS'\xe2\x80\x9canim'
p3767
I3784
sS'snakeskin'
p3768
I3785
sS'height'
p3769
I3786
sS'lick'
p3770
I3787
sS'2195'
p3771
I3788
sS'path'
p3772
I5374
sS'quinc'
p3773
I3790
sS'ether'
p3774
I3791
sS'nicer'
p3775
I2555
sS'three'
p3776
I3793
sS'erect'
p3777
I3794
sS'specul'
p3778
I3795
sS'them\xe2\x80\x94and'
p3779
I3796
sS'interest'
p3780
I3797
sS'repatri'
p3781
I3798
sS'tini'
p3782
I3799
sS'threw'
p3783
I3800
sS'mushroom'
p3784
I3801
sS'suppress'
p3785
I1806
sS'dismiss'
p3786
I3803
sS'pisti'
p3787
I3804
sS'deepen'
p3788
I3805
sS'ugli'
p3789
I3806
sS'chauvinist'
p3790
I1833
sS'servil'
p3791
I3808
sS'reddish'
p3792
I3809
sS'servic'
p3793
I3810
sS'gasolin'
p3794
I3811
sS'near'
p3795
I3812
sS'neat'
p3796
I3813
sS'motorist'
p3797
I3814
sS'occas'
p3798
I3815
sS'anchor'
p3799
I3816
sS'spawn'
p3800
I1863
sS'ix'
p3801
I3818
sS'seven'
p3802
I3819
sS'cane'
p3803
I3820
sS'is'
p3804
I3821
sS'it'
p3805
I3822
sS'iv'
p3806
I3823
sS'ii'
p3807
I3824
sS'shame'
p3808
I3825
sS'cant'
p3809
I3826
sS'im'
p3810
I3827
sS'in'
p3811
I3828
sS'colosseum'
p3812
I3829
sS'id'
p3813
I3830
sS'sever'
p3814
I1900
sS'if'
p3815
I3832
sS'grown'
p3816
I3833
sS'growl'
p3817
I3834
sS'belli'
p3818
I3835
sS'receiv'
p3819
I3836
sS'make'
p3820
I3837
sS'polaroid'
p3821
I1929
sS'outstretch'
p3822
I3839
sS'ingenu'
p3823
I3840
sS'delight'
p3824
I3841
sS'kin'
p3825
I3842
sS'jealous'
p3826
I3843
sS'\xe2\x80\x9chere\xe2\x80\x9d'
p3827
I3844
sS'overs'
p3828
I3845
sS'kid'
p3829
I3846
sS'butter'
p3830
I3847
sS'twofour'
p3831
I3848
sS'inherit'
p3832
I3849
sS'bedspread'
p3833
I3850
sS'rome'
p3834
I3851
sS'anchorman'
p3835
I3852
sS'left'
p3836
I3853
sS'identifi'
p3837
I2024
sS'just'
p3838
I3855
sS'yen'
p3839
I3856
sS'human'
p3840
I3857
sS'kinki'
p3841
I3858
sS'yes'
p3842
I3859
sS'yet'
p3843
I3860
sS'languag'
p3844
I3861
sS'character'
p3845
I2069
sS'\xe2\x80\x9cat'
p3846
I3863
sS'wretch'
p3847
I4203
sS'\xe2\x80\x9cas'
p3848
I3865
sS'transit\xe2\x80\x9d'
p3849
I3866
sS'save'
p3850
I3867
sS'perfunctori'
p3851
I3868
sS'dissip'
p3852
I3869
sS'vaniti'
p3853
I3870
sS'discreet'
p3854
I3871
sS'oranges\xe2\x80\x9d'
p3855
I3872
sS'elabor'
p3856
I3873
sS'dreamt'
p3857
I3874
sS'athlet'
p3858
I3875
sS'culturespecif'
p3859
I3876
sS'shoulder'
p3860
I3877
sS'obstin'
p3861
I3878
sS'manual'
p3862
I827
sS'digniti'
p3863
I3880
sS'\xe2\x80\x9cguess\xe2\x80\x9d'
p3864
I3881
sS'indefin'
p3865
I3882
sS'unnecessari'
p3866
I3883
sS'hour\xe2\x80\x9d'
p3867
I3884
sS'squander'
p3868
I3885
sS'deal'
p3869
I3886
sS'maxim'
p3870
I2199
sS'dead'
p3871
I3888
sS'revel'
p3872
I3889
sS'intern'
p3873
I3890
sS'dear'
p3874
I3891
sS'interf'
p3875
I3892
sS'sardon'
p3876
I3893
sS'sprawl'
p3877
I3894
sS'subdu'
p3878
I3895
sS'fireless'
p3879
I3896
sS'overcook'
p3880
I3897
sS'creatur'
p3881
I3898
sS'bold'
p3882
I3899
sS'burn'
p3883
I3900
sS'buri'
p3884
I3901
sS'blackmail'
p3885
I3902
sS'squeamish'
p3886
I3903
sS'promot'
p3887
I3904
sS'keeper'
p3888
I3905
sS'ofwarren'
p3889
I3906
sS'conceal'
p3890
I3907
sS'afternoon'
p3891
I3909
sS'commit'
p3892
I3910
sS'clapboard'
p3893
I3911
sS'anthropolog'
p3894
I3912
sS'thinner'
p3895
I2045
sS'knuck'
p3896
I3914
sS'down'
p3897
I3915
sS'riskier'
p3898
I3916
sS'jealousi'
p3899
I3917
sS'lurid'
p3900
I3918
sS'analysi'
p3901
I2434
sS'form'
p3902
I3920
sS'forc'
p3903
I3921
sS'forg'
p3904
I3922
sS'lingeri'
p3905
I3923
sS'underwhor'
p3906
I3924
sS'unrev'
p3907
I2481
sS'liftup'
p3908
I3926
sS'vouchsaf'
p3909
I3927
sS'extravag'
p3910
I5395
sS'zygot'
p3911
I3929
sS'whiskey'
p3912
I3930
sS'propaganda'
p3913
I3931
sS'\xe2\x80\x9csome'
p3914
I3932
sS'featur'
p3915
I3933
sS'toss'
p3916
I4448
sS'gland'
p3917
I2524
sS'scrawl'
p3918
I3936
sS'frowzi'
p3919
I3937
sS'bogart'
p3920
I3938
sS'glanc'
p3921
I3939
sS'ship'
p3922
I3940
sS'shit'
p3923
I3941
sS'sticki'
p3924
I3942
sS'courtesan'
p3925
I3943
sS'elizabeth\xe2\x80\x99'
p3926
I3944
sS'trip\xe2\x80\x9d'
p3927
I3945
sS'excel'
p3928
I3946
sS'congeal'
p3929
I3947
sS'encas'
p3930
I3948
sS'garland'
p3931
I2587
sS'felt'
p3932
I3950
sS'sensuous'
p3933
I3951
sS'fell'
p3934
I3952
sS'weekend'
p3935
I3953
sS'scholar'
p3936
I3954
sS'femal'
p3937
I3955
sS'potato'
p3938
I3956
sS'daily'
p3939
I3957
sS'derstand'
p3940
I3958
sS'jacket'
p3941
I3959
sS'grownup'
p3942
I1354
sS'ignor'
p3943
I3960
sS'teeth'
p3944
I3961
sS'drag\xe2\x80\x9d'
p3945
I3962
sS'daili'
p3946
I3963
sS'body\xe2\x80\x99'
p3947
I4220
sS'coopedup'
p3948
I3965
sS'woodwork'
p3949
I3966
sS'invent'
p3950
I3967
sS'mild'
p3951
I3968
sS'mile'
p3952
I3969
sS'skim'
p3953
I3970
sS'disconsol'
p3954
I2678
sS'milo'
p3955
I3973
sS'mill'
p3956
I3974
sS'milk'
p3957
I3975
sS'twelev'
p3958
I3976
sS'depend'
p3959
I3977
sS'swoon'
p3960
I3978
sS'femaleroad\xe2\x80\x9d'
p3961
I2704
sS'editori'
p3962
I3980
sS'me'
p3963
I3981
sS'nuclearpl'
p3964
I670
sS'string'
p3965
I3983
sS'jezebel'
p3966
I3984
sS'yeast'
p3967
I3985
sS'\xe2\x80\x9cwithin'
p3968
I3986
sS'decamp'
p3969
I3987
sS'pious'
p3970
I3988
sS'wore'
p3971
I3989
sS'dim'
p3972
I3990
sS'did'
p3973
I3991
sS'die'
p3974
I3992
sS'dig'
p3975
I3993
sS'democrat'
p3976
I3994
sS'everchang'
p3977
I3995
sS'noiseless'
p3978
I2792
sS'item'
p3979
I3997
sS'signif'
p3980
I3998
sS'dip'
p3981
I3999
sS'round'
p3982
I4000
sS'shave'
p3983
I4001
sS'villa'
p3984
I4002
sS'asham'
p3985
I4003
sS'sordid'
p3986
I4004
sS'fillet'
p3987
I4005
sS'heret'
p3988
I4006
sS'suspect'
p3989
I4007
sS'spection'
p3990
I4008
sS'deriv'
p3991
I4009
sS'wail'
p3992
I4010
sS'nuanc'
p3993
I4011
sS'guardian'
p3994
I4012
sS'makeup'
p3995
I4013
sS'waif'
p3996
I4014
sS'french'
p3997
I4015
sS'deceiv'
p3998
I4016
sS'wait'
p3999
I4017
sS'box'
p4000
I2934
sS'boy'
p4001
I4019
sS'fenc'
p4002
I4230
sS'invit'
p4003
I4021
sS'shift'
p4004
I4022
sS'unsupervis'
p4005
I4023
sS'bow'
p4006
I4024
sS'boo'
p4007
I4025
sS'extrem'
p4008
I4026
sS'bob'
p4009
I4027
sS'nylon'
p4010
I4028
sS'moonfil'
p4011
I4029
sS'ceram'
p4012
I4030
sS'elect'
p4013
I4031
sS'plumb'
p4014
I4232
sS'\xe2\x80\x9ctime'
p4015
I4032
sS'eccentr'
p4016
I4033
sS'wealth'
p4017
I4034
sS'sake'
p4018
I4035
sS'univers'
p4019
I4036
sS'visit'
p4020
I4037
sS'everybodi'
p4021
I4038
sS'seedpod'
p4022
I4039
sS'yoghurt'
p4023
I4040
sS'blotchi'
p4024
I4042
sS'tandem'
p4025
I4043
sS'rigid'
p4026
I4044
sS'examin'
p4027
I4045
sS'effort'
p4028
I4046
sS'ooz'
p4029
I4047
sS'melodrama'
p4030
I3096
sS'flu'
p4031
I4049
sS'soul'
p4032
I3099
sS'fli'
p4033
I4051
sS'soup'
p4034
I4052
sS'sour'
p4035
I4053
sS'isn\xe2\x80\x99t'
p4036
I4054
sS'\xe2\x80\x9ciran'
p4037
I4055
sS'walley'
p4038
I4056
sS'claim'
p4039
I4057
sS'ma7'
p4040
I4058
sS'shallowroot'
p4041
I4059
sS'fuck'
p4042
I4060
sS'agent'
p4043
I4061
sS'drawer'
p4044
I4062
sS'crazi'
p4045
I4063
sS'agenc'
p4046
I3147
sS'purs'
p4047
I3154
sS'tilt'
p4048
I4066
sS'pine'
p4049
I4067
sS'till'
p4050
I4068
sS'sunday'
p4051
I4069
sS'purg'
p4052
I4070
sS'pure'
p4053
I3182
sS'tile'
p4054
I4072
sS'wordofmouth'
p4055
I4073
sS'pathway'
p4056
I4074
sS'purl'
p4057
I4075
sS'apparel\xe2\x80\x9d'
p4058
I2172
sS'map'
p4059
I4077
sS'mat'
p4060
I4078
sS'intrud'
p4061
I4079
sS'may'
p4062
I4080
sS'usabl'
p4063
I4081
sS'mae'
p4064
I3223
sS'mad'
p4065
I4083
sS'mag'
p4066
I4084
sS'partway'
p4067
I4085
sS'mal'
p4068
I3233
sS'man'
p4069
I4087
sS'relinquish'
p4070
I4088
sS'aimless'
p4071
I4089
sS'hemlock'
p4072
I4090
sS'neck'
p4073
I4091
sS'\xe2\x80\x9cjanin'
p4074
I4092
sS'tale'
p4075
I4093
sS'switch'
p4076
I4094
sS'jail'
p4077
I4095
sS'deposit'
p4078
I4096
sS'basket'
p4079
I4097
sS'tall'
p4080
I4098
sS'we\xe2\x80\x99re\xe2\x80\xa6'
p4081
I4099
sS'talk'
p4082
I4100
sS'cute'
p4083
I4101
sS'shield'
p4084
I4102
sS'jehovah\xe2\x80\x99'
p4085
I4103
sS'gradual'
p4086
I4104
sS'graduat'
p4087
I4105
sS'specialdetail'
p4088
I4106
sS'shake'
p4089
I4107
sS'equip'
p4090
I4108
sS'entitl'
p4091
I4109
sS'shaki'
p4092
I4110
sS'pointer'
p4093
I4111
sS'group'
p4094
I4112
sS'thank'
p4095
I4113
sS'polici'
p4096
I4114
sS'maid'
p4097
I4115
sS'mail'
p4098
I4116
sS'main'
p4099
I4117
sS'prime'
p4100
I4118
sS'beig'
p4101
I4119
sS'shatter'
p4102
I4120
sS'sooner'
p4103
I4121
sS'succul'
p4104
I4122
sS'doing\xe2\x80\x9d'
p4105
I4362
sS'verifi'
p4106
I4124
sS'bullshit'
p4107
I4125
sS'possess'
p4108
I4126
sS'bad\xe2\x80\x9d'
p4109
I4127
sS'careless'
p4110
I4129
sS'ledg'
p4111
I4130
sS'rock'
p4112
I4131
sS'redraw'
p4113
I4132
sS'eyelid'
p4114
I4133
sS'continu'
p4115
I4134
sS'eyelin'
p4116
I4135
sS'unlock'
p4117
I4136
sS'girl'
p4118
I4137
sS'brassbound'
p4119
I4138
sS'chatterje'
p4120
I4139
sS'conting'
p4121
I4140
sS'canada'
p4122
I4141
sS'announc'
p4123
I6625
sS'\xe2\x80\x9call\xe2\x80\x9d'
p4124
I4143
sS'blitzkrieg'
p4125
I4144
sS'dutch'
p4126
I4145
sS'people\xe2\x80\x99'
p4127
I4146
sS'straggl'
p4128
I4147
sS'people\xe2\x80\x9d'
p4129
I3524
sS'romanc'
p4130
I4149
sS'compuchek'
p4131
I3528
sS'diseas'
p4132
I3530
sS'monster'
p4133
I4152
sS'california'
p4134
I4153
sS'vinyl'
p4135
I4154
sS'ajar'
p4136
I4155
sS'hefti'
p4137
I4156
sS'cough'
p4138
I4157
sS'underwear'
p4139
I4159
sS'office\xe2\x80\x9d'
p4140
I4160
sS'befor'
p4141
I5430
sS'thing'
p4142
I4162
sS'think'
p4143
I4163
sS'frequent'
p4144
I4164
sS'first'
p4145
I4165
sS'\xe2\x80\x9clate'
p4146
I4166
sS'carri'
p4147
I3617
sS'lone'
p4148
I6631
sS'rachel'
p4149
I4169
sS'does\xe2\x80\x99t'
p4150
I4170
sS'acquisit'
p4151
I4171
sS'minute\xe2\x80\x9d'
p4152
I1088
sS'oppos'
p4153
I4173
sS'duskros'
p4154
I5863
sS'twoleg'
p4155
I4174
sS'lap'
p4156
I4175
sS'slept'
p4157
I4176
sS'ambul'
p4158
I4177
sS'headdress'
p4159
I4178
sS'escort'
p4160
I4179
sS'deciph'
p4161
I4180
sS'\xe2\x80\x9ctell'
p4162
I4181
sS'\xe2\x80\x9cwho\xe2\x80\x9d'
p4163
I4182
sS'ambulatori'
p4164
I4183
sS'\xe2\x80\x9cwho\xe2\x80\x99'
p4165
I4184
sS'foreplay'
p4166
I4185
sS'moscow'
p4167
I4186
sS'hall\xe2\x80\x9d'
p4168
I1243
sS'butt'
p4169
I4188
sS'singsong'
p4170
I4189
sS'orgi'
p4171
I4190
sS'victorian'
p4172
I4191
sS'were'
p4173
I4192
sS'crackl'
p4174
I4193
sS'conspiraci'
p4175
I4194
sS'lice'
p4176
I4195
sS'highrank'
p4177
I4196
sS'stubbl'
p4178
I4197
sS'stubbi'
p4179
I4198
sS'sulk'
p4180
I4199
sS'warsaw'
p4181
I4200
sS'squar'
p4182
I4201
sS'advic'
p4183
I4202
sS'squad'
p4184
I3864
sS'interior'
p4185
I4204
sS'channel'
p4186
I4206
sS'pain'
p4187
I4207
sS'trace'
p4188
I4208
sS'normal'
p4189
I4209
sS'track'
p4190
I4210
sS'somehow\xe2\x80\x9d'
p4191
I4211
sS'zigzag'
p4192
I4256
sS'then\xe2\x80\x9d'
p4193
I4213
sS'sunglass'
p4194
I4214
sS'pair'
p4195
I4215
sS'cuban'
p4196
I4216
sS'pathet'
p4197
I4217
sS'napkin'
p4198
I4218
sS'scowl'
p4199
I4219
sS'shop'
p4200
I3964
sS'shot'
p4201
I4221
sS'show'
p4202
I4222
sS'cravat'
p4203
I4223
sS'\xe2\x80\x9cget'
p4204
I4224
sS'shoe'
p4205
I4225
sS'prepubesc'
p4206
I4226
sS'threshold'
p4207
I4227
sS'corner'
p4208
I4228
sS'lithuania\xe2\x80\x9d'
p4209
I4229
sS'travesti'
p4210
I4020
sS'she\xe2\x80\x99s\xe2\x80\x99tug'
p4211
I4231
sS'innoc'
p4212
I1780
sS'butcher\xe2\x80\x99'
p4213
I4233
sS'black'
p4214
I4234
sS'sprout'
p4215
I4235
sS'revisionist'
p4216
I4236
sS'plump'
p4217
I4237
sS'get'
p4218
I4238
sS'bambooshoot'
p4219
I4239
sS'wheezi'
p4220
I4240
sS'gel'
p4221
I4241
sS'nouveau'
p4222
I4242
sS'sideway'
p4223
I4243
sS'beseech'
p4224
I4244
sS'ruddi'
p4225
I4245
sS'\xe2\x80\x9cnothing\xe2\x80\x9d'
p4226
I4246
sS'you\xe2\x80\xa6\xe2\x80\x9d'
p4227
I4247
sS'yield'
p4228
I4248
sS'overmantel'
p4229
I4249
sS'stupid'
p4230
I4250
sS'nostril'
p4231
I4251
sS'chainwound'
p4232
I4252
sS'\xe2\x80\x9cwive'
p4233
I4253
sS'pimus'
p4234
I4254
sS'\xe2\x80\x9cwhat'
p4235
I4255
sS'menac'
p4236
I4187
sS'seat'
p4237
I4258
sS'peoni'
p4238
I4259
sS'seal'
p4239
I4260
sS'calendar'
p4240
I4261
sS'wonder'
p4241
I4262
sS'infinit'
p4242
I4263
sS'ornament'
p4243
I4264
sS'label'
p4244
I4265
sS'pump'
p4245
I4267
sS'offred\xe2\x80\x9d'
p4246
I4268
sS'across'
p4247
I4269
sS'august'
p4248
I4270
sS'parent'
p4249
I4271
sS'skyblu'
p4250
I4272
sS'jh'
p4251
I4273
sS'tub'
p4252
I4274
sS'tug'
p4253
I4275
sS'tuck'
p4254
I4276
sS'improb'
p4255
I4277
sS'audienc'
p4256
I4707
sS'improv'
p4257
I4279
sS'totemist'
p4258
I4280
sS'importun'
p4259
I4281
sS'peephol'
p4260
I4282
sS'among'
p4261
I4283
sS'stretcher'
p4262
I4284
sS'cancer'
p4263
I4285
sS'grasshopp'
p4264
I4286
sS'pretty\xe2\x80\x9d'
p4265
I4287
sS'singledmind'
p4266
I4288
sS'woman\xe2\x80\xa6'
p4267
I4289
sS'woman\xe2\x80\x99'
p4268
I4290
sS'ultim'
p4269
I4291
sS'\xe2\x80\x9cwelcome\xe2\x80\x9d'
p4270
I4292
sS'mark'
p4271
I4294
sS'alittl'
p4272
I4295
sS'bonetir'
p4273
I4296
sS'squash'
p4274
I4297
sS'wake'
p4275
I4298
sS'roguish'
p4276
I4299
sS'those'
p4277
I4300
sS'sound'
p4278
I4301
sS'recaptur'
p4279
I4302
sS'cock'
p4280
I4303
sS'advantag'
p4281
I4304
sS'batho'
p4282
I4305
sS'strain'
p4283
I4306
sS'sudden'
p4284
I4307
sS'outrag'
p4285
I4308
sS'protein'
p4286
I4309
sS'pelvi'
p4287
I4310
sS'pat'
p4288
I4311
sS'harsh'
p4289
I4312
sS'doctor'
p4290
I4313
sS'insofar'
p4291
I1826
sS'tour'
p4292
I4278
sS'same'
p4293
I4316
sS'speech'
p4294
I4317
sS'pan'
p4295
I4318
sS'mane'
p4296
I4319
sS'exhaust'
p4297
I4320
sS'oil'
p4298
I4321
sS'unwomen\xe2\x80\xa6'
p4299
I4322
sS'espionag'
p4300
I4323
sS'companion'
p4301
I4324
sS'capabl'
p4302
I4325
sS'disguis'
p4303
I4326
sS'drain'
p4304
I3034
sS'parodi'
p4305
I4328
sS'boy\xe2\x80\x99'
p4306
I4329
sS'outdoor'
p4307
I4330
sS'execut'
p4308
I4331
sS'fume'
p4309
I4670
sS'room\xe2\x80\x9d'
p4310
I4333
sS'flavor'
p4311
I4334
sS'comeon'
p4312
I4335
sS'offcent'
p4313
I4336
sS'parad'
p4314
I4337
sS'hypothet'
p4315
I4338
sS'pile'
p4316
I4339
sS'bond'
p4317
I6511
sS'heavier'
p4318
I4340
sS'pill'
p4319
I4341
sS'grip'
p4320
I4342
sS'singlehand'
p4321
I4343
sS'secreci'
p4322
I4344
sS'mop'
p4323
I4345
sS'mow'
p4324
I4346
sS'm\xe2\x80\x99aidez'
p4325
I4347
sS'mom'
p4326
I4348
sS'grin'
p4327
I4349
sS'fanlight'
p4328
I4350
sS'republ'
p4329
I4351
sS'either'
p4330
I4352
sS'hallelujah'
p4331
I4353
sS'fulfil'
p4332
I4354
sS'sneaker'
p4333
I4355
sS'cabl'
p4334
I4356
sS'doll'
p4335
I4357
sS'ascend'
p4336
I4358
sS'dole'
p4337
I4359
sS'in\xe2\x80\x9d'
p4338
I4360
sS'choir'
p4339
I5464
sS'confirm'
p4340
I4363
sS'pantyhos'
p4341
I4364
sS'lunar'
p4342
I4365
sS'linoleum'
p4343
I4366
sS'door\xe2\x80\x94women\xe2\x80\x99'
p4344
I4367
sS'knife'
p4345
I4368
sS'gratitud'
p4346
I4369
sS'broken'
p4347
I4370
sS'about\xe2\x80\x9d'
p4348
I4371
sS'face\xe2\x80\x9d'
p4349
I4372
sS'solidifi'
p4350
I4373
sS'roar'
p4351
I4374
sS'island'
p4352
I4375
sS'eighteenth'
p4353
I4257
sS'lithograph'
p4354
I4376
sS'inscrut'
p4355
I4980
sS'allianc'
p4356
I4378
sS'road'
p4357
I4379
sS'coupon'
p4358
I4381
sS'rumania'
p4359
I4382
sS'strip'
p4360
I4383
sS'she\xe2\x80\x99'
p4361
I4384
sS'gravid'
p4362
I4385
sS'totalitarian'
p4363
I4386
sS'daytim'
p4364
I4387
sS'enough'
p4365
I4388
sS'shroud'
p4366
I4389
sS'offspr'
p4367
I4390
sS'gorg'
p4368
I4391
sS'buggi'
p4369
I4392
sS'strawberri'
p4370
I4393
sS'possibl'
p4371
I4394
sS'nostalg'
p4372
I4395
sS'unusu'
p4373
I4396
sS'\xe2\x80\x9cdark'
p4374
I4397
sS'nobody\xe2\x80\x99'
p4375
I4398
sS'judd\xe2\x80\x94accord'
p4376
I4399
sS'deer'
p4377
I5167
sS'deep'
p4378
I4401
sS'antagon'
p4379
I5171
sS'undergon'
p4380
I4404
sS'file'
p4381
I4405
sS'dreamlik'
p4382
I4406
sS'proport'
p4383
I4407
sS'lanolin'
p4384
I4408
sS'film'
p4385
I4409
sS'fill'
p4386
I4410
sS'again'
p4387
I4411
sS'repent'
p4388
I4412
sS'field'
p4389
I4413
sS'prism'
p4390
I4414
sS'cleanup'
p4391
I4415
sS'sunflow'
p4392
I4416
sS'condens'
p4393
I4417
sS'shelter'
p4394
I4418
sS'insati'
p4395
I4419
sS'videotap'
p4396
I4420
sS'downfal'
p4397
I4421
sS'huski'
p4398
I4422
sS'ovari'
p4399
I4423
sS'sewer'
p4400
I4424
sS'escap'
p4401
I4425
sS'motel'
p4402
I5482
sS'forger'
p4403
I4427
sS'forget'
p4404
I4428
sS'founder'
p4405
I4429
sS'soidis'
p4406
I4430
sS'forbidden'
p4407
I4431
sS'dollar'
p4408
I4432
sS'sunt'
p4409
I4433
sS'meddl'
p4410
I4434
sS'sunk'
p4411
I4435
sS'atlant'
p4412
I5348
sS'abject'
p4413
I4437
sS'implement'
p4414
I4438
sS'sung'
p4415
I4439
sS'somesom'
p4416
I4440
sS'former'
p4417
I4441
sS'crimson'
p4418
I4442
sS'hideout'
p4419
I4443
sS'we\xe2\x80\x99r'
p4420
I5487
sS'bestir'
p4421
I4445
sS'parcel'
p4422
I4446
sS'fals'
p4423
I4447
sS'scout'
p4424
I4449
sS'clench'
p4425
I4450
sS'lx>ve'
p4426
I4451
sS'dreamscap'
p4427
I4452
sS'subterranean'
p4428
I4453
sS'puffi'
p4429
I4454
sS'alma'
p4430
I4455
sS'pornomart'
p4431
I4456
sS'bangor'
p4432
I4457
sS'rules\xe2\x80\x9d'
p4433
I4458
sS'becometh'
p4434
I4459
sS'withheld'
p4435
I4460
sS'go'
p4436
I3080
sS'zero'
p4437
I4462
sS'lawyer'
p4438
I4463
sS'further'
p4439
I4464
sS'excit'
p4440
I4465
sS'dial'
p4441
I4466
sS'stood'
p4442
I4467
sS'microphon'
p4443
I4468
sS'stool'
p4444
I4469
sS'stoop'
p4445
I4470
sS'public'
p4446
I4471
sS'unlabel'
p4447
I4472
sS'movement'
p4448
I4473
sS'variat'
p4449
I4474
sS'valv'
p4450
I4475
sS'valu'
p4451
I4476
sS'search'
p4452
I4477
sS'miseri'
p4453
I4478
sS'margin'
p4454
I4479
sS'storefront'
p4455
I4480
sS'airport'
p4456
I4481
sS'narrow'
p4457
I4482
sS'fatten'
p4458
I4483
sS'declin'
p4459
I4484
sS'problems\xe2\x80\x9d'
p4460
I4485
sS'primit'
p4461
I4486
sS'transit'
p4462
I4487
sS'inappropri'
p4463
I4488
sS'demonstr'
p4464
I4489
sS'establish'
p4465
I4490
sS'memor'
p4466
I4491
sS'eye'
p4467
I4492
sS'distinct'
p4468
I4493
sS'liber'
p4469
I4494
sS'regist'
p4470
I4495
sS'two'
p4471
I4496
sS'splash'
p4472
I4497
sS'diamond'
p4473
I4499
sS'desir'
p4474
I4500
sS'brisk'
p4475
I4501
sS'sylph'
p4476
I4502
sS'expedit'
p4477
I4503
sS'particular'
p4478
I4504
sS'that\xe2\x80\x9d'
p4479
I4505
sS'nightlight\xe2\x80\x99'
p4480
I4506
sS'that\xe2\x80\x99'
p4481
I4507
sS'town'
p4482
I4508
sS'none'
p4483
I4509
sS'hour'
p4484
I4510
sS'hous'
p4485
I4511
sS'remain'
p4486
I4512
sS'den'
p4487
I4513
sS'abandon'
p4488
I4514
sS'instantan'
p4489
I4515
sS'explod'
p4490
I4516
sS'stubborn'
p4491
I4517
sS'shark'
p4492
I4518
sS'buttress'
p4493
I4519
sS'salesmen'
p4494
I4520
sS'share'
p4495
I4521
sS'shard'
p4496
I4522
sS'blackrob'
p4497
I4523
sS'sphere'
p4498
I4524
sS'minimum'
p4499
I4525
sS'ovcrgreen'
p4500
I4526
sS'attain'
p4501
I4527
sS'explor'
p4502
I4528
sS'explos'
p4503
I4529
sS'sharp'
p4504
I4530
sS'talkat'
p4505
I4531
sS'siren'
p4506
I4532
sS'awkward'
p4507
I4533
sS'secur'
p4508
I4534
sS'comfort'
p4509
I4535
sS'stir'
p4510
I4536
sS'needl'
p4511
I4537
sS'mothers\xe2\x80\x9d'
p4512
I4538
sS'greenpaint'
p4513
I4539
sS'blacken'
p4514
I4540
sS'blood'
p4515
I4541
sS'blackey'
p4516
I4542
sS'bleak'
p4517
I4543
sS'lipread'
p4518
I4544
sS'sli'
p4519
I4545
sS'coat'
p4520
I4546
sS'paw'
p4521
I763
sS'spoon'
p4522
I6683
sS'blunder'
p4523
I4549
sS'roundish'
p4524
I4550
sS'coal'
p4525
I4551
sS'sect'
p4526
I4552
sS'blackandwhit'
p4527
I4553
sS'\xe2\x80\x9ctwist'
p4528
I4554
sS'preposit'
p4529
I4555
sS'here\xe2\x80\x99'
p4530
I4556
sS'here\xe2\x80\x9d'
p4531
I4557
sS'must\xe2\x80\x99v'
p4532
I4558
sS'clumsili'
p4533
I4559
sS'here\xe2\x80\x94'
p4534
I4560
sS'dough'
p4535
I4561
sS'lava'
p4536
I4562
sS'suffer'
p4537
I4563
sS'25'
p4538
I4564
sS'late'
p4539
I4565
sS'pend'
p4540
I4566
sS'pad'
p4541
I4567
sS'eunuch'
p4542
I4568
sS'\xe2\x80\x9cangela'
p4543
I3088
sS'good'
p4544
I4570
sS'\xe2\x80\xa6and'
p4545
I4571
sS'pollut'
p4546
I4572
sS'goos'
p4547
I4573
sS'compound'
p4548
I4574
sS'adventur'
p4549
I4575
sS'complain'
p4550
I4576
sS'filch'
p4551
I6862
sS'pregnant'
p4552
I4577
sS'renounc'
p4553
I4578
sS'mysteri'
p4554
I4579
sS'conic'
p4555
I4580
sS'token'
p4556
I4581
sS'luke\xe2\x80\x99'
p4557
I4582
sS'twentyfirst'
p4558
I4583
sS'reminisc'
p4559
I4584
sS'sedentari'
p4560
I3092
sS'clamp'
p4561
I4586
sS'harm'
p4562
I4587
sS'fish'
p4563
I4588
sS'hard'
p4564
I4589
sS'beret'
p4565
I4590
sS'\xe2\x80\x9cnoth'
p4566
I5512
sS'babies\xe2\x80\x99'
p4567
I4592
sS'connect'
p4568
I4593
sS'precoc'
p4569
I4594
sS'energi'
p4570
I4595
sS'orient'
p4571
I4596
sS'flower'
p4572
I4597
sS'admiss'
p4573
I4598
sS'childish'
p4574
I4599
sS'pigeon'
p4575
I4600
sS'princ'
p4576
I4601
sS'granola'
p4577
I4602
sS'print'
p4578
I4603
sS'difficulti'
p4579
I4604
sS'dealt'
p4580
I6692
sS'suspici'
p4581
I4605
sS'cockroach'
p4582
I4606
sS'pleasant'
p4583
I4607
sS'intric'
p4584
I4608
sS'ornat'
p4585
I6693
sS'prophet'
p4586
I4610
sS'wither'
p4587
I4611
sS'perman'
p4588
I4612
sS'nature\xe2\x80\x99'
p4589
I4613
sS'nature\xe2\x80\x9d'
p4590
I4614
sS'exchang'
p4591
I4615
sS'barbarian'
p4592
I4616
sS'done'
p4593
I4618
sS'shoal'
p4594
I4619
sS'chipboard'
p4595
I4620
sS'obligatori'
p4596
I4621
sS'razor'
p4597
I4622
sS'open\xe2\x80\xa6'
p4598
I4623
sS'construct'
p4599
I4624
sS'paint'
p4600
I4625
sS'leash'
p4601
I4626
sS'statement'
p4602
I4627
sS'twenti'
p4603
I4628
sS'mini'
p4604
I4403
sS'pare'
p4605
I4630
sS'you\xe2\x80\x9d'
p4606
I4631
sS'park'
p4607
I4632
sS'pari'
p4608
I4633
sS'dentist'
p4609
I4634
sS'appropri'
p4610
I4327
sS'\xe2\x80\x9ctoo'
p4611
I4636
sS'b'
p4612
I4637
sS'contrari'
p4613
I4638
sS'fold'
p4614
I6700
sS'gotten'
p4615
I4640
sS'youth'
p4616
I4641
sS'wilfr'
p4617
I4642
sS'incub'
p4618
I5526
sS'built'
p4619
I4644
sS'reader\xe2\x80\x99'
p4620
I4645
sS'build'
p4621
I4647
sS'itmust'
p4622
I4648
sS'patho'
p4623
I4649
sS'serena'
p4624
I4650
sS'salmon'
p4625
I4651
sS'chart'
p4626
I4652
sS'comps'
p4627
I4653
sS'charm'
p4628
I4654
sS'charl'
p4629
I4655
sS'charg'
p4630
I4656
sS'faithless'
p4631
I4657
sS'kt'
p4632
I4658
sS'sector'
p4633
I4659
sS'sanctiti'
p4634
I4660
sS'twothirti'
p4635
I4662
sS'quagmir'
p4636
I4663
sS'scrabbl'
p4637
I4664
sS'fine'
p4638
I4665
sS'find'
p4639
I4666
sS'giant'
p4640
I4667
sS'nervous'
p4641
I4668
sS'ruin'
p4642
I4669
sS'money'
p4643
I4332
sS'unhappi'
p4644
I4671
sS'tonightcicumst'
p4645
I4672
sS'luke'
p4646
I4673
sS'carborundorum\xe2\x80\x9d'
p4647
I4674
sS'express'
p4648
I4675
sS'epidem'
p4649
I4676
sS'cheaper'
p4650
I4677
sS'earsplit'
p4651
I4678
sS'leathercov'
p4652
I4679
sS'breast'
p4653
I4680
sS'salut'
p4654
I4682
sS'do\xe2\x80\x9d'
p4655
I4683
sS'uncomfort'
p4656
I4684
sS'commot'
p4657
I4685
sS'common'
p4658
I4686
sS'gospel'
p4659
I4687
sS'printout'
p4660
I4688
sS'vine'
p4661
I4689
sS'tender'
p4662
I4690
sS'reserv'
p4663
I4691
sS'expert'
p4664
I4692
sS'debas'
p4665
I4693
sS'someth'
p4666
I4694
sS'shatterproof'
p4667
I4695
sS'cutout'
p4668
I4696
sS'experi'
p4669
I4697
sS'altern'
p4670
I4698
sS'popup'
p4671
I4699
sS'appreci'
p4672
I4700
sS'unrol'
p4673
I4701
sS'barrack'
p4674
I4702
sS'infam'
p4675
I4703
sS'infal'
p4676
I4704
sS'purpl'
p4677
I4705
sS'popul'
p4678
I4706
sS'defunct'
p4679
I4708
sS'terrible\xe2\x80\x9d'
p4680
I4709
sS'archway'
p4681
I4710
sS'alon'
p4682
I4711
sS'grudg'
p4683
I4712
sS'foreign'
p4684
I4713
sS'zilch'
p4685
I4714
sS'clothes\xe2\x80\xa6'
p4686
I4715
sS'gypsi'
p4687
I4716
sS'simpli'
p4688
I4717
sS'point'
p4689
I4718
sS'smother'
p4690
I4719
sS'newborn'
p4691
I4720
sS'pamphlet'
p4692
I4721
sS'dancer'
p4693
I4722
sS'hangov'
p4694
I4723
sS'shutdown'
p4695
I4724
sS'suppli'
p4696
I4725
sS'throughout'
p4697
I4726
sS'cathedr'
p4698
I4727
sS'becom'
p4699
I4728
sS'dentists\xe2\x80\x99'
p4700
I4729
sS'secret'
p4701
I4730
sS'gay'
p4702
I4731
sS'gas'
p4703
I4732
sS'gap'
p4704
I4733
sS'you\xe2\x80\x94th'
p4705
I4734
sS'understand'
p4706
I4735
sS'truffl'
p4707
I2000
sS'chatter'
p4708
I4737
sS'\xe2\x80\x9cofwayn'
p4709
I3117
sS'fur'
p4710
I4739
sS'raw'
p4711
I5544
sS'solid'
p4712
I4741
sS'coyli'
p4713
I15
sS'crutch'
p4714
I4743
sS'cluster'
p4715
I4744
sS'fun'
p4716
I4745
sS'anonym'
p4717
I4746
sS'curiousthey'
p4718
I4747
sS'everyon'
p4719
I4748
sS'unrepent'
p4720
I4749
sS'mystif'
p4721
I4750
sS'echelon'
p4722
I4751
sS'shoddi'
p4723
I4752
sS'centuri'
p4724
I4753
sS'righthand'
p4725
I4754
sS'sociologist'
p4726
I4755
sS'incarn'
p4727
I4756
sS'everybody\xe2\x80\x99'
p4728
I4757
sS'corridor'
p4729
I4758
sS'furio'
p4730
I4759
sS'flurri'
p4731
I4760
sS'itch'
p4732
I4761
sS'yesterday'
p4733
I4762
sS'unwari'
p4734
I4763
sS'moment'
p4735
I4764
sS'anachron'
p4736
I4765
sS'stripe'
p4737
I4766
sS'recreat'
p4738
I4767
sS'task'
p4739
I4768
sS'ampl'
p4740
I4769
sS'regim'
p4741
I4770
sS'entri'
p4742
I181
sS'chemistri'
p4743
I4772
sS'spent'
p4744
I186
sS'withdraw'
p4745
I202
sS'globul'
p4746
I4775
sS'landmark'
p4747
I4776
sS'recant'
p4748
I4777
sS'tast'
p4749
I4778
sS'spend'
p4750
I4779
sS'howl'
p4751
I4780
sS'i\xe2\x80\x99m'
p4752
I4781
sS'i\xe2\x80\x99d'
p4753
I4782
sS'obscur'
p4754
I4783
sS'shape'
p4755
I4784
sS'daybreak'
p4756
I3126
sS'i\xe2\x80\x99v'
p4757
I4786
sS'rundown'
p4758
I268
sS'cut'
p4759
I4788
sS'cup'
p4760
I4789
sS'sinist'
p4761
I4790
sS'snag'
p4762
I4791
sS'all\xe2\x80\x9d'
p4763
I4792
sS'emptylook'
p4764
I4793
sS'snap'
p4765
I4794
sS'cun'
p4766
I4795
sS'persuas'
p4767
I5413
sS'easter'
p4768
I4797
sS'bin'
p4769
I4798
sS'insol'
p4770
I4799
sS'horsesho'
p4771
I4800
sS'bid'
p4772
I4801
sS'bib'
p4773
I4802
sS'biz'
p4774
I4803
sS'bit'
p4775
I4804
sS'boatperson'
p4776
I4805
sS'knock'
p4777
I4806
sS'gear\xe2\x80\x94th'
p4778
I4807
sS'glove'
p4779
I4808
sS'jezebel\xe2\x80\x99'
p4780
I4809
sS'foolish'
p4781
I4810
sS'sequin'
p4782
I384
sS'transgress'
p4783
I4812
sS'often'
p4784
I4813
sS'falsiti'
p4785
I6731
sS'back'
p4786
I4815
sS'ah'
p4787
I4816
sS'martian'
p4788
I4817
sS'mirror'
p4789
I4818
sS'scald'
p4790
I4819
sS'crossleg'
p4791
I4820
sS'pet'
p4792
I4821
sS'pelt'
p4793
I4822
sS'per'
p4794
I4823
sS'pen'
p4795
I4824
sS'larg'
p4796
I4825
sS'jewelri'
p4797
I4826
sS'pee'
p4798
I4827
sS'reproduc'
p4799
I4828
sS'pea'
p4800
I4829
sS'nose'
p4801
I4830
sS'ladder'
p4802
I4831
sS'patient'
p4803
I4832
sS'nitti'
p4804
I4833
sS'fed'
p4805
I6733
sS'croni'
p4806
I4835
sS'patienc'
p4807
I4836
sS'impos'
p4808
I4837
sS'preclud'
p4809
I4838
sS'pertin'
p4810
I4840
sS'cooking\xe2\x80\x99'
p4811
I4841
sS'dispens'
p4812
I4842
sS'brass'
p4813
I6219
sS'jimmi'
p4814
I4843
sS'lesson'
p4815
I4844
sS'jockey'
p4816
I4845
sS'\xe2\x80\x9cshe'
p4817
I4846
sS'spectat'
p4818
I4847
sS'\xc3\xbciul'
p4819
I4848
sS'generos'
p4820
I3135
sS'errand'
p4821
I4850
sS'handbook'
p4822
I4851
sS'includ'
p4823
I4852
sS'forward'
p4824
I4853
sS'\xe2\x80\x9coh\xe2\x80\x9d'
p4825
I4854
sS'fits\xe2\x80\x9d'
p4826
I4855
sS'edgment'
p4827
I4856
sS'patronym'
p4828
I4857
sS'lydia'
p4829
I4858
sS'those\xe2\x80\x9d'
p4830
I4859
sS'right\xe2\x80\x9d'
p4831
I4860
sS'schmobbi'
p4832
I4861
sS'curv'
p4833
I4862
sS'flop'
p4834
I6047
sS'metal'
p4835
I5561
sS'scarlet'
p4836
I4865
sS'cure'
p4837
I4866
sS'tuneless'
p4838
I4867
sS'curl'
p4839
I4868
sS'waggl'
p4840
I4869
sS'\xe2\x80\x98em'
p4841
I4870
sS'today\xe2\x80\x99'
p4842
I4871
sS'today\xe2\x80\x9d'
p4843
I4872
sS'cellar'
p4844
I4873
sS'fishey'
p4845
I4874
sS'desert'
p4846
I4875
sS'deserv'
p4847
I4876
sS'mantel'
p4848
I4877
sS'tradeoff'
p4849
I4878
sS'tube'
p4850
I4879
sS'definit'
p4851
I815
sS'wool\xe2\x80\x9d'
p4852
I4881
sS'literari'
p4853
I4882
sS'privat'
p4854
I4883
sS'sensit'
p4855
I955
sS'peanut'
p4856
I4885
sS'elsewher'
p4857
I4886
sS'conspicu'
p4858
I4887
sS'mower'
p4859
I4888
sS'granular'
p4860
I4889
sS'becam'
p4861
I4890
sS'waterford'
p4862
I4891
sS'\xe2\x80\x9cye'
p4863
I4892
sS'fatal'
p4864
I4893
sS'inject'
p4865
I4894
sS'passiv'
p4866
I4895
sS'random'
p4867
I5572
sS'dessert'
p4868
I4897
sS'rhyme'
p4869
I4898
sS'\xe2\x80\x9corder'
p4870
I1011
sS'mous'
p4871
I4900
sS'other\xe2\x80\x99'
p4872
I4901
sS'volum'
p4873
I4902
sS'untouch'
p4874
I4903
sS'fulfilled\xe2\x80\xa6'
p4875
I4904
sS'salad'
p4876
I3140
sS'shock'
p4877
I4906
sS'quaker'
p4878
I4907
sS'mural'
p4879
I4908
sS'leakag'
p4880
I4909
sS'tinni'
p4881
I4910
sS'append'
p4882
I4911
sS'giblet'
p4883
I4912
sS'resembl'
p4884
I4913
sS'effort\xe2\x80\xa6\xe2\x80\x9d'
p4885
I4914
sS'like\xe2\x80\xa6\xe2\x80\x9d'
p4886
I4915
sS'impuls'
p4887
I4916
sS'deduc'
p4888
I4917
sS'toast'
p4889
I4918
sS'perimet'
p4890
I4919
sS'bodi'
p4891
I4920
sS'bachelor'
p4892
I4921
sS'intercept'
p4893
I4922
sS'sink'
p4894
I4923
sS'tremor'
p4895
I4924
sS'safer'
p4896
I4925
sS'vertic'
p4897
I4926
sS'sinc'
p4898
I4927
sS'remark'
p4899
I4928
sS'talent'
p4900
I4929
sS'flannelett'
p4901
I4930
sS'conceiv'
p4902
I4932
sS'later'
p4903
I5998
sS'or\xe2\x80\x94mor'
p4904
I4933
sS'climb'
p4905
I4934
sS'honor'
p4906
I4935
sS'limp'
p4907
I4936
sS'\xe2\x80\x9clike'
p4908
I4937
sS'prestig'
p4909
I4938
sS'beckon'
p4910
I4939
sS'patrol'
p4911
I6751
sS'gateway'
p4912
I4941
sS'lime'
p4913
I4942
sS'wardrob'
p4914
I4943
sS'onioni'
p4915
I6752
sS'oili'
p4916
I4945
sS'he\xe2\x80\x99d'
p4917
I4946
sS'pronatalist'
p4918
I4947
sS'trait'
p4919
I4948
sS'trail'
p4920
I4949
sS'train'
p4921
I4950
sS'iii'
p4922
I4951
sS'opium'
p4923
I4952
sS'femaleroad'
p4924
I4953
sS'\xe2\x80\x9cwhat\xe2\x80\x99'
p4925
I4954
sS'account'
p4926
I4955
sS'alik'
p4927
I4956
sS'\xe2\x80\x9cwhat\xe2\x80\x9d'
p4928
I4957
sS'f'
p4929
I4958
sS'tunnel'
p4930
I4959
sS'\xe2\x80\x9cfolk'
p4931
I4960
sS'cambridg'
p4932
I4961
sS'edwardian'
p4933
I4962
sS'partly\xe2\x80\x94th'
p4934
I4963
sS'unreal'
p4935
I4964
sS'obvious'
p4936
I4965
sS'smear'
p4937
I4966
sS'aliv'
p4938
I4967
sS'contempl'
p4939
I4968
sS'nastili'
p4940
I4969
sS'inscript'
p4941
I4970
sS'luggag'
p4942
I4971
sS'plexigla'
p4943
I4972
sS'tan'
p4944
I6758
sS'contempt'
p4945
I4974
sS'lamb'
p4946
I4975
sS'surfac'
p4947
I4976
sS'lame'
p4948
I4977
sS'betveen'
p4949
I4978
sS'lamp'
p4950
I4979
sS'arthriti'
p4951
I4377
sS'forest'
p4952
I4981
sS'democraci'
p4953
I4982
sS'stock'
p4954
I4983
sS'nerve\xe2\x80\x9d'
p4955
I4984
sS'\xe2\x80\x9cafter'
p4956
I4985
sS'wateri'
p4957
I4986
sS'redund'
p4958
I1565
sS'philosophi'
p4959
I4988
sS'terrier'
p4960
I4989
sS'physic'
p4961
I4990
sS'drape'
p4962
I4991
sS'correspond'
p4963
I4992
sS'scurvi'
p4964
I4993
sS'imperson'
p4965
I4994
sS'sumus'
p4966
I4995
sS'bunch'
p4967
I4996
sS'le'
p4968
I4997
sS'lo'
p4969
I4998
sS'decorum'
p4970
I4999
sS'labor'
p4971
I5000
sS'kindergarten'
p4972
I5001
sS'heroism'
p4973
I1663
sS'blatant'
p4974
I5003
sS'redpattern'
p4975
I5004
sS'greater'
p4976
I5005
sS'dab'
p4977
I5006
sS'spell'
p4978
I5007
sS'swordfish'
p4979
I5008
sS'mention'
p4980
I5009
sS'plaintiv'
p4981
I5010
sS'ectoplasm'
p4982
I5011
sS'thrill'
p4983
I5012
sS'slacken'
p4984
I5013
sS'radiant'
p4985
I5014
sS'alr\xc3\xbcid'
p4986
I5015
sS'sacrileg'
p4987
I5016
sS'intellig'
p4988
I5017
sS'sexual'
p4989
I5018
sS'pantri'
p4990
I5019
sS'yellowend'
p4991
I5020
sS'defend'
p4992
I5021
sS'once\xe2\x80\x9d'
p4993
I6090
sS'stub'
p4994
I5023
sS'presley\xe2\x80\x99'
p4995
I5024
sS'susurr'
p4996
I5025
sS'stuf'
p4997
I5026
sS'stud'
p4998
I5027
sS'stun'
p4999
I5028
sS'red'
p5000
I5029
sS'het'
p5001
I838
sS'takeov'
p5002
I5031
sS'insid'
p5003
I5032
sS'multicolor'
p5004
I4315
sS'charit'
p5005
I5033
sS'invad'
p5006
I5034
sS'fourteen'
p5007
I5035
sS'afterward'
p5008
I3543
sS'septemb'
p5009
I5037
sS'yard'
p5010
I5038
sS'youknowwhat'
p5011
I5039
sS'fart'
p5012
I3160
sS'yarn'
p5013
I5041
sS'rita'
p5014
I6893
sS'presid'
p5015
I3279
sS'retain'
p5016
I5044
sS'waitress'
p5017
I5045
sS'th\xc3\xbcng'
p5018
I5046
sS'sack'
p5019
I5047
sS'sacr'
p5020
I5048
sS'vandal'
p5021
I5049
sS'want\xe2\x80\xa6\xe2\x80\x9d'
p5022
I5050
sS'laps'
p5023
I5051
sS'vulgar'
p5024
I5052
sS'graveston'
p5025
I5053
sS'messag'
p5026
I5054
sS'well\xe2\x80\x9d'
p5027
I5055
sS'scant'
p5028
I5056
sS'hilari'
p5029
I5057
sS'gear'
p5030
I5058
sS'\xe2\x80\x9cabout'
p5031
I2008
sS'\xe2\x80\x9csumptuari'
p5032
I5060
sS'marthas\xe2\x80\x99'
p5033
I5061
sS'nobodi'
p5034
I5062
sS'resist'
p5035
I5597
sS'ladylik'
p5036
I5064
sS'shampoo'
p5037
I5065
sS'structur'
p5038
I5066
sS'tide'
p5039
I5067
sS'cavern'
p5040
I5068
sS'have'
p5041
I5069
sS'throat'
p5042
I5070
sS'waken'
p5043
I5071
sS'tidi'
p5044
I5072
sS'password\xe2\x80\x9d'
p5045
I5073
sS'you\xe2\x80\x99v'
p5046
I5074
sS'mid'
p5047
I5075
sS'list\xe2\x80\x9d'
p5048
I5076
sS'mix'
p5049
I5077
sS'miniskirt'
p5050
I5078
sS'you\xe2\x80\x99d'
p5051
I5079
sS'graviti'
p5052
I5080
sS'sedat'
p5053
I5081
sS'unless'
p5054
I5082
sS'preliminari'
p5055
I2161
sS'mortal'
p5056
I5043
sS'fullcolor'
p5057
I5084
sS'eight'
p5058
I5085
sS'clamber'
p5059
I5086
sS'tranc'
p5060
I6697
sS'transcript'
p5061
I5087
sS'homogen'
p5062
I5088
sS'firelight'
p5063
I5089
sS'skinni'
p5064
I5090
sS'gather'
p5065
I5091
sS'frederick'
p5066
I2210
sS'atwood'
p5067
I5093
sS'absurd'
p5068
I5094
sS'beetl'
p5069
I5095
sS'thicken'
p5070
I5096
sS'kite'
p5071
I5097
sS'awar'
p5072
I2048
sS'pinhead'
p5073
I5098
sS'traitor'
p5074
I5099
sS'empir'
p5075
I5100
sS'floodlight'
p5076
I5101
sS'thicket'
p5077
I5102
sS'texa'
p5078
I5103
sS'handmaid'
p5079
I5104
sS'bicycl'
p5080
I5105
sS'costeffect'
p5081
I5106
sS'bigbelli'
p5082
I2051
sS'sparkl'
p5083
I5109
sS'unable\xe2\x80\x94'
p5084
I5110
sS'starch'
p5085
I5111
sS'beat'
p5086
I5112
sS'ladies\xe2\x80\x9d'
p5087
I5113
sS'background'
p5088
I5114
sS'bear'
p5089
I5115
sS'beam'
p5090
I5116
sS'bean'
p5091
I5117
sS'increas'
p5092
I5118
sS'reluct'
p5093
I5119
sS'organ'
p5094
I5120
sS'ashtray'
p5095
I5121
sS'eyebrow'
p5096
I5122
sS'mascara'
p5097
I5123
sS'covert'
p5098
I3934
sS'we'
p5099
I2054
sS'apolog'
p5100
I5125
sS'groggi'
p5101
I5126
sS'reform'
p5102
I2463
sS'pattern'
p5103
I5128
sS'boundari'
p5104
I5129
sS'indoctrin'
p5105
I5130
sS'strawberries\xe2\x80\x94th'
p5106
I5131
sS'progress'
p5107
I5132
sS'thumbnail'
p5108
I5133
sS'chamoi'
p5109
I5134
sS'time\xe2\x80\x9d'
p5110
I5135
sS'sorrow'
p5111
I5136
sS'straightfac'
p5112
I5137
sS'time\xe2\x80\x99'
p5113
I5138
sS'hadn\xe2\x80\x99t'
p5114
I5139
sS'\xe2\x80\x9canyway'
p5115
I5609
sS'instant'
p5116
I5141
sS'weav'
p5117
I5610
sS'joke'
p5118
I5143
sS'takinf'
p5119
I5144
sS'equal'
p5120
I5145
sS'unbutton'
p5121
I5146
sS'instanc'
p5122
I5147
sS'swim'
p5123
I2564
sS'freeli'
p5124
I5148
sS'swallow'
p5125
I5149
sS'highland'
p5126
I5150
sS'wear'
p5127
I5612
sS'comment'
p5128
I5152
sS'fester'
p5129
I5153
sS'gone'
p5130
I5154
sS'broomcolor'
p5131
I5155
sS'veng'
p5132
I5156
sS'laugh'
p5133
I5157
sS'commenc'
p5134
I5158
sS'anomali'
p5135
I5159
sS'gaze'
p5136
I5160
sS'electr'
p5137
I5161
sS'curtain'
p5138
I5162
sS'muddi'
p5139
I5163
sS'nick\xe2\x80\x99'
p5140
I5164
sS'nick\xe2\x80\x9d'
p5141
I5165
sS'daughter\xe2\x80\x99'
p5142
I5166
sS'censor'
p5143
I4400
sS'protect'
p5144
I5614
sS'cig\xe2\x80\x9d'
p5145
I5169
sS'bulb'
p5146
I5170
sS'general'
p5147
I4402
sS'bulg'
p5148
I5172
sS'plaid'
p5149
I5173
sS'plain'
p5150
I5174
sS'as'
p5151
I5175
sS'defin'
p5152
I5176
sS'done\xe2\x80\x9d'
p5153
I5177
sS'ill'
p5154
I2064
sS'aw'
p5155
I5179
sS'helper'
p5156
I5180
sS'almost'
p5157
I5181
sS'generat'
p5158
I5182
sS'substanti'
p5159
I5183
sS'fiddl'
p5160
I5184
sS'partner'
p5161
I5185
sS'squir'
p5162
I5186
sS'japanes'
p5163
I5187
sS'defiant'
p5164
I5188
sS'handl'
p5165
I5189
sS'defianc'
p5166
I5190
sS'twelfth'
p5167
I5191
sS'garish'
p5168
I5192
sS'tighten'
p5169
I5193
sS'sauna'
p5170
I5194
sS'atwoodi'
p5171
I5195
sS'sunburn'
p5172
I5196
sS'judgment'
p5173
I5197
sS'cosmet'
p5174
I5198
sS'ordinarylook'
p5175
I5200
sS'center'
p5176
I5201
sS'nevertheless'
p5177
I5202
sS'weapon'
p5178
I5203
sS'slug\xe2\x80\x99'
p5179
I5204
sS'thought'
p5180
I5205
sS'choos'
p5181
I5206
sS'enclav'
p5182
I5207
sS'bloodlust'
p5183
I5208
sS'abas'
p5184
I5209
sS'clinic'
p5185
I5210
sS'dakota'
p5186
I5211
sS'tone'
p5187
I5212
sS'abolish'
p5188
I886
sS'steelrim'
p5189
I5214
sS'either/or'
p5190
I6802
sS'onward'
p5191
I5216
sS'bench'
p5192
I5217
sS'add'
p5193
I5218
sS'match'
p5194
I5219
sS'raven'
p5195
I5220
sS'royalti'
p5196
I5221
sS'newsstand'
p5197
I5222
sS'dryer'
p5198
I2974
sS'insert'
p5199
I5224
sS'backbon'
p5200
I5225
sS'success'
p5201
I5226
sS'sofa'
p5202
I5227
sS'beautifulsunset'
p5203
I5228
sS'risk\xe2\x80\x9d'
p5204
I5229
sS'mustach'
p5205
I5230
sS'soft'
p5206
I5231
sS'heel'
p5207
I5232
sS'propel'
p5208
I5233
sS'hair'
p5209
I5234
sS'convey'
p5210
I5235
sS'convex'
p5211
I5236
sS'proper'
p5212
I5237
sS'shrug'
p5213
I5238
sS'est'
p5214
I5239
sS'bleeder'
p5215
I3191
sS'everexpand'
p5216
I5241
sS'speak'
p5217
I2074
sS'trap'
p5218
I6805
sS'regain'
p5219
I5243
sS'pepper'
p5220
I5244
sS'hose'
p5221
I5245
sS'slight'
p5222
I5246
sS'noisi'
p5223
I5247
sS'stellar'
p5224
I5248
sS'plumper'
p5225
I5249
sS'although'
p5226
I5250
sS'stone\xe2\x80\x99'
p5227
I5251
sS'panel'
p5228
I5252
sS'unhamp'
p5229
I5253
sS'about'
p5230
I5254
sS'actual'
p5231
I5255
sS'socket'
p5232
I5256
sS'withdrew'
p5233
I5257
sS'justif'
p5234
I5258
sS'flake'
p5235
I5259
sS'stalactit'
p5236
I5260
sS'discard'
p5237
I5261
sS'tomb'
p5238
I5262
sS'drip'
p5239
I5263
sS'desper'
p5240
I5264
sS'unwind'
p5241
I3196
sS'guard'
p5242
I5265
sS'doesnt'
p5243
I5266
sS'been'
p5244
I5630
sS'lettuc'
p5245
I5268
sS'pictur'
p5246
I5269
sS'glimmer'
p5247
I5270
sS'maze'
p5248
I5271
sS'glib'
p5249
I5272
sS'buy'
p5250
I5273
sS'unexpect'
p5251
I5274
sS'bookshelv'
p5252
I5275
sS'bus'
p5253
I5276
sS'brand'
p5254
I5277
sS'but'
p5255
I5278
sS'ivori'
p5256
I5279
sS'bui'
p5257
I5280
sS'bun'
p5258
I5281
sS'bum'
p5259
I5282
sS'acknowl'
p5260
I5283
sS'bug'
p5261
I5284
sS'wise'
p5262
I5285
sS'adrenaline\xe2\x80\x99'
p5263
I5286
sS'selfcongratul'
p5264
I5287
sS'seiz'
p5265
I5288
sS'j'
p5266
I5289
sS'flip'
p5267
I5290
sS'\xe2\x80\x9cthey\xe2\x80\x99d'
p5268
I5291
sS'wisp'
p5269
I5292
sS'wist'
p5270
I5293
sS'glori'
p5271
I5294
sS'\xe2\x80\x9cthey\xe2\x80\x99r'
p5272
I5295
sS'\xe2\x80\x9cthey\xe2\x80\x99v'
p5273
I5296
sS'pin'
p5274
I5297
sS'garter'
p5275
I5298
sS'dure'
p5276
I5299
sS'circus'
p5277
I5300
sS'pie'
p5278
I5301
sS'pig'
p5279
I5302
sS'pis'
p5280
I5303
sS'pit'
p5281
I5304
sS'probabl'
p5282
I5305
sS'redder'
p5283
I5306
sS'\xe2\x80\x9caround'
p5284
I5307
sS'detail'
p5285
I5308
sS'oar'
p5286
I5309
sS'vegetableoil'
p5287
I5310
sS'adam'
p5288
I5311
sS'peachcolor'
p5289
I5312
sS'r\xe2\x80\x99s'
p5290
I5313
sS'\xe2\x80\x9cbath'
p5291
I5314
sS'\xe2\x80\xa2'
p5292
I5315
sS'seismic'
p5293
I5316
sS'basketbal'
p5294
I5317
sS'sentiment'
p5295
I6814
sS'women\xe2\x80\x94i'
p5296
I5319
sS'jab'
p5297
I5320
sS'armor'
p5298
I3205
sS'pupil'
p5299
I5322
sS'discer'
p5300
I5323
sS'yell'
p5301
I5324
sS'hatr'
p5302
I5325
sS'sin\xe2\x80\x93'
p5303
I5326
sS'hitch'
p5304
I3519
sS'hath'
p5305
I5328
sS'sleev'
p5306
I5329
sS'sleep'
p5307
I5330
sS'consider\xe2\x80\x99thi'
p5308
I5331
sS'sci'
p5309
I5332
sS'dere'
p5310
I5333
sS'hate'
p5311
I5334
sS'whitepaint'
p5312
I5335
sS'concret'
p5313
I5336
sS'under'
p5314
I5337
sS'tweed'
p5315
I5338
sS'pride'
p5316
I5339
sS'lure'
p5317
I5340
sS'everi'
p5318
I5341
sS'risk'
p5319
I5342
sS'were\xe2\x80\x9d'
p5320
I5343
sS'rise'
p5321
I5344
sS'arous'
p5322
I5345
sS'\xe2\x80\x9ctoday'
p5323
I5346
sS'school'
p5324
I5347
sS'slung'
p5325
I4436
sS'huddl'
p5326
I5349
sS'venus'
p5327
I5350
sS'enjoy'
p5328
I5351
sS'nonmarit'
p5329
I5352
sS'direct'
p5330
I5353
sS'nail'
p5331
I5354
sS'titil'
p5332
I5355
sS'street'
p5333
I5356
sS'c\xe2\x80\x99s'
p5334
I5357
sS'sylphid'
p5335
I5358
sS'blue'
p5336
I5359
sS'bluf'
p5337
I5360
sS'hide'
p5338
I5361
sS'christ'
p5339
I5362
sS'solemn'
p5340
I5363
sS'play\xe2\x80\x9d'
p5341
I5364
sS'beaten'
p5342
I5365
sS'children'
p5343
I5366
sS'blur'
p5344
I5367
sS'catandmous'
p5345
I5368
sS'symmetr'
p5346
I5369
sS'liberti'
p5347
I5370
sS'metamorphosi'
p5348
I5371
sS'orthodoxi'
p5349
I5372
sS'studio'
p5350
I5373
sS'aftermath'
p5351
I3789
sS'ours\xe2\x80\x94i'
p5352
I5375
sS'necessary\xe2\x80\x94to'
p5353
I5376
sS'connoisseur'
p5354
I5377
sS'\xe2\x80\x9cgood'
p5355
I5378
sS'hooks\xe2\x80\x94how'
p5356
I1665
sS'anymor'
p5357
I5379
sS'precis'
p5358
I5380
sS'cradl'
p5359
I5381
sS'changer'
p5360
I5382
sS'portabl'
p5361
I5383
sS'signifi'
p5362
I6483
sS'offr'
p5363
I5384
sS'strap'
p5364
I5385
sS'name\xe2\x80\x9d'
p5365
I5386
sS'name\xe2\x80\x99'
p5366
I5387
sS'melang'
p5367
I5388
sS'redol'
p5368
I5389
sS'describ'
p5369
I5390
sS'would'
p5370
I5391
sS'spike'
p5371
I5392
sS'building\xe2\x80\x99'
p5372
I5393
sS'spiki'
p5373
I5394
sS'vultur'
p5374
I3928
sS'breathi'
p5375
I5396
sS'muse'
p5376
I5397
sS'phone'
p5377
I5398
sS'l\xe2\x80\x9dr'
p5378
I5399
sS'lop'
p5379
I5400
sS'pouch'
p5380
I5401
sS'phoni'
p5381
I5402
sS'must'
p5382
I5403
sS'shoot'
p5383
I5404
sS'join'
p5384
I5405
sS'ml'
p5385
I5406
sS'telescop'
p5386
I5407
sS'unwomen'
p5387
I5408
sS'ms'
p5388
I5409
sS'my'
p5389
I5410
sS'shook'
p5390
I5411
sS'offkey'
p5391
I5412
sS'childless'
p5392
I5414
sS'overheard'
p5393
I5415
sS'attract'
p5394
I5416
sS'end'
p5395
I5417
sS'ceremoni'
p5396
I5418
sS'toxin'
p5397
I5419
sS'toxic'
p5398
I5420
sS'gate'
p5399
I5421
sS'widespread'
p5400
I5422
sS'ancestor'
p5401
I5423
sS'collaps'
p5402
I5424
sS'poker'
p5403
I5425
sS'elizabeth'
p5404
I5426
sS'mess'
p5405
I5427
sS'famish'
p5406
I5428
sS'lump'
p5407
I5429
sS'schedule\xe2\x80\x9d'
p5408
I4161
sS'mesh'
p5409
I5431
sS'sparkler'
p5410
I5432
sS'wouldn\xe2\x80\x99t'
p5411
I5433
sS'stronghold'
p5412
I5434
sS'unclaim'
p5413
I5435
sS'spous'
p5414
I5436
sS'exclud'
p5415
I5437
sS'willpow'
p5416
I5438
sS'incorpor'
p5417
I5439
sS'enter'
p5418
I5440
sS'plagu'
p5419
I5441
sS'vapor'
p5420
I5442
sS'carnat'
p5421
I5443
sS'deform'
p5422
I5444
sS'\xe2\x80\x9cit\xe2\x80\x99ll'
p5423
I5445
sS'crumbl'
p5424
I5446
sS'over'
p5425
I5447
sS'bleach'
p5426
I5448
sS'orang'
p5427
I5449
sS'becaus'
p5428
I5450
sS'oven'
p5429
I5451
sS'digest'
p5430
I5452
sS'greencolor'
p5431
I5453
sS'fade'
p5432
I5454
sS'nightcap'
p5433
I5455
sS'iowa'
p5434
I5456
sS'tourist'
p5435
I5457
sS'plaster'
p5436
I5458
sS'my\xe2\x80\x93i'
p5437
I5459
sS'pinkish'
p5438
I5460
sS'choic'
p5439
I5461
sS'victori'
p5440
I5462
sS'detroit'
p5441
I5463
sS'incauti'
p5442
I4361
sS'gluttoni'
p5443
I5465
sS'intoth'
p5444
I5466
sS'each'
p5445
I5467
sS'shadowi'
p5446
I5468
sS'\xe2\x80\x9cbaptist'
p5447
I5469
sS'prohibit'
p5448
I5470
sS'hanger'
p5449
I5471
sS'gymnasium'
p5450
I5472
sS'honey\xe2\x80\x9d'
p5451
I5473
sS'mahogani'
p5452
I5474
sS'thermo'
p5453
I5475
sS'truant'
p5454
I5476
sS'saturday'
p5455
I5477
sS'lait'
p5456
I5478
sS'we\xe2\x80\x99d'
p5457
I5479
sS'goe'
p5458
I5480
sS'god'
p5459
I5481
sS'newli'
p5460
I4426
sS'emphysema'
p5461
I5483
sS'we\xe2\x80\x99v'
p5462
I5484
sS'laid'
p5463
I5485
sS'adjust'
p5464
I5486
sS'good\xe2\x80\x9d'
p5465
I4444
sS'got'
p5466
I5488
sS'unimagin'
p5467
I5489
sS'cleanmind'
p5468
I5490
sS'smudg'
p5469
I5491
sS'believer\xe2\x80\x9d'
p5470
I5492
sS'worthwhil'
p5471
I5493
sS'rail'
p5472
I5494
sS'precaut'
p5473
I5495
sS'free'
p5474
I5496
sS'greedili'
p5475
I5497
sS'rain'
p5476
I5498
sS'distract'
p5477
I7069
sS'puzzl'
p5478
I5499
sS'ritual'
p5479
I5500
sS'filter'
p5480
I5501
sS'fuse'
p5481
I5502
sS'onto'
p5482
I5503
sS'pristin'
p5483
I5504
sS'fantasi'
p5484
I5505
sS'rang'
p5485
I5506
sS'trembl'
p5486
I6829
sS'\xe2\x80\x9cbitch\xe2\x80\x9d'
p5487
I5508
sS'rank'
p5488
I5509
sS'necess'
p5489
I5510
sS'alreadi'
p5490
I5511
sS'sober'
p5491
I4591
sS'toy'
p5492
I5513
sS'almostclos'
p5493
I5514
sS'top'
p5494
I5515
sS'twentyf'
p5495
I5516
sS'thickish'
p5496
I5517
sS'primipara\xe2\x80\x9d'
p5497
I5518
sS'kinder'
p5498
I5519
sS'too'
p5499
I5520
sS'flippant'
p5500
I5521
sS'tog'
p5501
I5522
sS'unbroken'
p5502
I5523
sS'toe'
p5503
I5524
sS'urban'
p5504
I5525
sS'consol'
p5505
I4643
sS'conson'
p5506
I5527
sS'tool'
p5507
I5528
sS'took'
p5508
I5529
sS'western'
p5509
I5530
sS'drool'
p5510
I6831
sS'unsaid'
p5511
I5532
sS'warmup'
p5512
I5533
sS'gangrap'
p5513
I4461
sS'aztec'
p5514
I5535
sS'sociobiologist'
p5515
I5536
sS'flame'
p5516
I5537
sS'mirth'
p5517
I5538
sS'rag'
p5518
I5539
sS'fashion'
p5519
I5540
sS'handkerchief'
p5520
I5541
sS'ran'
p5521
I5542
sS'1972'
p5522
I2180
sS'otherwise\xe2\x80\x9d'
p5523
I4740
sS'rat'
p5524
I5545
sS'ray'
p5525
I5546
sS'snow'
p5526
I5547
sS'client'
p5527
I4646
sS'fuzzi'
p5528
I5549
sS'hear\xe2\x80\x9d'
p5529
I5550
sS'greatest'
p5530
I5659
sS'insur'
p5531
I5552
sS'though'
p5532
I5553
sS'coif'
p5533
I5554
sS'coil'
p5534
I5555
sS'insul'
p5535
I5556
sS'tibetan'
p5536
I5557
sS'everyth'
p5537
I5661
sS'glow'
p5538
I5559
sS'cathol'
p5539
I4863
sS'flow'
p5540
I4864
sS'rancid'
p5541
I5562
sS'freeway'
p5542
I5563
sS'declar'
p5543
I5564
sS'\xe2\x80\x9cmoira\xe2\x80\x9d'
p5544
I5565
sS'curio'
p5545
I5566
sS'chariot'
p5546
I5567
sS'bait'
p5547
I5568
sS'endear'
p5548
I5569
sS'saga'
p5549
I5570
sS'abl'
p5550
I5571
sS'queen'
p5551
I4896
sS'radio'
p5552
I5573
sS'queer'
p5553
I5574
sS'earth'
p5554
I5575
sS'absolut'
p5555
I5576
sS'crossfir'
p5556
I5577
sS'proclam'
p5557
I5578
sS'sympathet'
p5558
I5579
sS'disgust'
p5559
I5580
sS'kali'
p5560
I5581
sS'tropic'
p5561
I5582
sS'soundless'
p5562
I5583
sS'beadulteri'
p5563
I5584
sS'watch'
p5564
I5585
sS'fluid'
p5565
I5586
sS'report'
p5566
I5587
sS'reconstruct'
p5567
I5588
sS'incept'
p5568
I5589
sS'catgut'
p5569
I5590
sS'plush'
p5570
I5591
sS'twice'
p5571
I5592
sS'glassedovcr'
p5572
I5593
sS'habit'
p5573
I5594
sS'nut'
p5574
I3463
sS'\xe2\x80\x9cbreath'
p5575
I3251
sS'nun'
p5576
I5063
sS'go\xe2\x80\x9d'
p5577
I5598
sS'corrupt'
p5578
I5599
sS'months\xe2\x80\x99'
p5579
I5600
sS'hourglass'
p5580
I5601
sS'outwait'
p5581
I5602
sS'unaccustom'
p5582
I5603
sS'discoveri'
p5583
I5604
sS'mothbal'
p5584
I5605
sS'finger'
p5585
I5606
sS'approach'
p5586
I5607
sS'weak'
p5587
I5608
sS'toothbrush'
p5588
I5140
sS'kids\xe2\x80\x99'
p5589
I5142
sS'larynx'
p5590
I5611
sS'devout'
p5591
I5151
sS'news'
p5592
I5613
sS'goddess'
p5593
I5168
sS'fault'
p5594
I5615
sS'margarin'
p5595
I5616
sS'stragg'
p5596
I5617
sS'jelli'
p5597
I5618
sS'\xe2\x80\x9cdefinit'
p5598
I5619
sS'ships\xe2\x80\x94wa'
p5599
I5620
sS'maudlin'
p5600
I5621
sS'trust'
p5601
I5622
sS'truss'
p5602
I5623
sS'nake'
p5603
I5624
sS'bathroom'
p5604
I5625
sS'tallith'
p5605
I5626
sS'beef'
p5606
I5627
sS'nonsens'
p5607
I5628
sS'door\xe2\x80\x99'
p5608
I5629
sS'\xe2\x80\x9cnolit'
p5609
I5267
sS'legend'
p5610
I5631
sS'beer'
p5611
I5632
sS'communion'
p5612
I5633
sS'forsret'
p5613
I5634
sS'conjur'
p5614
I1484
sS'catch'
p5615
I5636
sS'heartland'
p5616
I5637
sS'n'
p5617
I5638
sS'lesser'
p5618
I5639
sS'\xe2\x80\x9cso'
p5619
I5640
sS'pyramid'
p5620
I3527
sS'untuck'
p5621
I5642
sS'hardlin'
p5622
I5644
sS'inventori'
p5623
I5645
sS'prior'
p5624
I5646
sS'suggest'
p5625
I5647
sS'wound'
p5626
I5648
sS'forehead'
p5627
I5649
sS'complet'
p5628
I5650
sS'pick'
p5629
I5651
sS'riffl'
p5630
I5652
sS'bastard'
p5631
I3265
sS'suburb'
p5632
I5654
sS'hygien'
p5633
I5655
sS'aunt\xe2\x80\x99'
p5634
I5656
sS'barearm'
p5635
I5657
sS'aisl'
p5636
I5658
sS'\xe2\x80\x9cpardon\xe2\x80\x9d'
p5637
I5551
sS'mother'
p5638
I5660
sS'jean'
p5639
I5558
sS'chandeli'
p5640
I5662
sS'snowman'
p5641
I5663
sS'bugger'
p5642
I5664
sS'joy\xe2\x80\x99'
p5643
I5665
sS'joy\xe2\x80\x9d'
p5644
I5666
sS'torah'
p5645
I5667
sS'rodent'
p5646
I5668
sS'expos'
p5647
I5669
sS'interfer'
p5648
I5670
sS'sociobiolog'
p5649
I5671
sS'conjug'
p5650
I5672
sS'fourteen\xe2\x80\x94start'
p5651
I5673
sS'furri'
p5652
I534
sS'wonderful\xe2\x80\x9d'
p5653
I5675
sS'gave'
p5654
I5676
sS'sanitari'
p5655
I5677
sS'tremul'
p5656
I5678
sS'tactil'
p5657
I3271
sS'befit'
p5658
I5679
sS'rumor'
p5659
I5680
sS'apart'
p5660
I5681
sS'martha'
p5661
I5682
sS'submachin'
p5662
I5683
sS'gift'
p5663
I5684
sS'bygon'
p5664
I5685
sS'interrogation\xe2\x80\x94for'
p5665
I5686
sS'hunt'
p5666
I5687
sS'zoom'
p5667
I5688
sS'that\xe2\x80\x94what'
p5668
I5689
sS'zeal'
p5669
I5690
sS'hung'
p5670
I5691
sS'celibaci'
p5671
I5692
sS'eas'
p5672
I6874
sS'fearsom'
p5673
I5693
sS'understood\xe2\x80\x9d'
p5674
I5694
sS'doorstep'
p5675
I5695
sS'cooper'
p5676
I5696
sS'richer'
p5677
I6840
sS'coercion'
p5678
I5697
sS'dustyros'
p5679
I5698
sS'ice'
p5680
I5699
sS'newsprint'
p5681
I5700
sS'skylight'
p5682
I5701
sS'cna'
p5683
I5702
sS'convict'
p5684
I5703
sS'birthrat'
p5685
I5704
sS'core'
p5686
I5705
sS'khaki'
p5687
I5706
sS'cora'
p5688
I5707
sS'corn'
p5689
I5708
sS'extradit'
p5690
I5709
sS'push\xe2\x80\x9d'
p5691
I5710
sS'plug'
p5692
I5711
sS'censur'
p5693
I5712
sS'steadili'
p5694
I5713
sS'unrespond'
p5695
I5714
sS'choke'
p5696
I5715
sS'enshroud'
p5697
I3231
sS'unfortun'
p5698
I5717
sS'festiv'
p5699
I5718
sS'dinner'
p5700
I5719
sS'twitch'
p5701
I5720
sS'produc'
p5702
I5721
sS'calgari'
p5703
I5722
sS'deferenti'
p5704
I5723
sS'civil'
p5705
I5724
sS'bath'
p5706
I5725
sS'tanker'
p5707
I5726
sS'coastal'
p5708
I5727
sS'cafeteria'
p5709
I5728
sS'storag'
p5710
I5729
sS'omen'
p5711
I3248
sS'transform'
p5712
I5730
sS'sunlight'
p5713
I5731
sS'stuck'
p5714
I5732
sS'reli'
p5715
I5733
sS'fought'
p5716
I5734
sS'flatter'
p5717
I2152
sS'man\xe2\x80\x99'
p5718
I5735
sS'everything\xe2\x80\x9d'
p5719
I5736
sS'man\xe2\x80\x9d'
p5720
I5737
sS'head'
p5721
I5738
sS'altogeth'
p5722
I5739
sS'heal'
p5723
I5740
sS'floorboard'
p5724
I5741
sS'eggs\xe2\x80\x9d'
p5725
I5742
sS'hear'
p5726
I5743
sS'refriger'
p5727
I5744
sS'counsel'
p5728
I5745
sS'evolut'
p5729
I5746
sS'dugup'
p5730
I5747
sS'bargain'
p5731
I5748
sS'snubhi'
p5732
I5749
sS'latch'
p5733
I5750
sS'adorn'
p5734
I5751
sS'trim'
p5735
I5752
sS'caught\xe2\x80\x9d'
p5736
I5753
sS'forearm'
p5737
I5754
sS'somnambul'
p5738
I5755
sS'check'
p5739
I5756
sS'assembl'
p5740
I5757
sS'no'
p5741
I5758
sS'tit'
p5742
I5759
sS'\xe2\x80\x9cwhy\xe2\x80\x9d'
p5743
I5760
sS'tip'
p5744
I5761
sS'tin'
p5745
I5762
sS'stagnant'
p5746
I5763
sS'tie'
p5747
I5764
sS'appetit'
p5748
I5765
sS'lawn\xe2\x80\x9d'
p5749
I5766
sS'tic'
p5750
I5767
sS'evergreen'
p5751
I5768
sS'scratchi'
p5752
I5769
sS'hormon'
p5753
I5770
sS'consid'
p5754
I5771
sS'younger'
p5755
I5772
sS'longer'
p5756
I5773
sS'bullet'
p5757
I5774
sS'intimaci'
p5758
I5775
sS'withhold'
p5759
I5776
sS'bambi'
p5760
I5777
sS'jostl'
p5761
I5778
sS'serious'
p5762
I5779
sS'crazy\xe2\x80\x9d'
p5763
I5780
sS'backward'
p5764
I5781
sS'coach'
p5765
I5782
sS'snif'
p5766
I5783
sS'rob'
p5767
I5784
sS'rod'
p5768
I5785
sS'focus'
p5769
I5786
sS'snip'
p5770
I5787
sS'signific'
p5771
I5788
sS'stumbl'
p5772
I5789
sS'rot'
p5773
I5790
sS'row'
p5774
I5791
sS'melon'
p5775
I5792
sS'sing'
p5776
I5793
sS'econowif'
p5777
I5794
sS'sourc'
p5778
I5795
sS'unfamiliar'
p5779
I5796
sS'cook'
p5780
I5797
sS'cool'
p5781
I5798
sS'level'
p5782
I5799
sS'brother'
p5783
I5800
sS'quick'
p5784
I5801
sS'lever'
p5785
I5802
sS'wife\xe2\x80\x99'
p5786
I5803
sS'cloudi'
p5787
I5804
sS'pork'
p5788
I5805
sS'drier'
p5789
I5806
sS'slower'
p5790
I5807
sS'porn'
p5791
I5808
sS'trend'
p5792
I5809
sS'straightback'
p5793
I5810
sS'inland'
p5794
I5811
sS'pelbl'
p5795
I5812
sS'underdraw'
p5796
I5813
sS'bake'
p5797
I5814
sS'bacteria'
p5798
I5815
sS'hymn'
p5799
I5816
sS'repli'
p5800
I5817
sS'bedsor'
p5801
I5818
sS'tarmac'
p5802
I5820
sS'taut'
p5803
I4128
sS'water'
p5804
I5822
sS'fluke'
p5805
I5823
sS'entertain'
p5806
I5824
sS'witch'
p5807
I5825
sS'twentieth'
p5808
I5826
sS'\xe2\x80\x9cshh\xe2\x80\x9d'
p5809
I5827
sS'shove'
p5810
I5828
sS'catnap'
p5811
I5829
sS'cinnamon'
p5812
I5830
sS'thirti'
p5813
I5831
sS'prude'
p5814
I5832
sS'healthi'
p5815
I5833
sS'guilti'
p5816
I5834
sS'forev'
p5817
I3039
sS'visibl'
p5818
I5837
sS'salti'
p5819
I5838
sS'andl'
p5820
I5839
sS'vivid'
p5821
I5840
sS'memori'
p5822
I5841
sS'percept'
p5823
I5842
sS'loung'
p5824
I5843
sS'onetwo'
p5825
I5845
sS'today'
p5826
I5846
sS'chapter'
p5827
I5847
sS'scab'
p5828
I992
sS'riot'
p5829
I5849
sS'altar'
p5830
I5850
sS'tuber'
p5831
I5851
sS'drown'
p5832
I5852
sS'religi'
p5833
I5853
sS'clamor'
p5834
I6082
sS'unruli'
p5835
I5854
sS'suffoc'
p5836
I5855
sS'judg'
p5837
I5856
sS'judd'
p5838
I5857
sS'inadequ'
p5839
I5858
sS'rainstorm'
p5840
I5859
sS'purpos'
p5841
I5860
sS'laughter'
p5842
I5861
sS'stroke'
p5843
I5862
sS'surround'
p5844
I5716
sS'unguard'
p5845
I5864
sS'contamin'
p5846
I5865
sS'\xe2\x80\x9crelax'
p5847
I5866
sS'alway'
p5848
I5867
sS'vital'
p5849
I5868
sS'anyon'
p5850
I5869
sS'fourth'
p5851
I5870
sS'\xe2\x80\x9cwish'
p5852
I5871
sS'floral'
p5853
I5872
sS'flyspeck'
p5854
I5873
sS'eighti'
p5855
I5874
sS'classroom'
p5856
I5875
sS'proprieti'
p5857
I5876
sS'practic'
p5858
I5877
sS'liquid'
p5859
I5878
sS'joint'
p5860
I5879
sS'\xe2\x80\x9clet\xe2\x80\x99'
p5861
I5880
sS'muggi'
p5862
I5881
sS'inform'
p5863
I5882
sS'preced'
p5864
I5883
sS'combin'
p5865
I5884
sS'hilltop'
p5866
I5885
sS'superscript'
p5867
I5886
sS'anticip'
p5868
I5887
sS'midnight'
p5869
I5888
sS'blare'
p5870
I5889
sS'stonewar'
p5871
I5890
sS'topsecret'
p5872
I5891
sS'bacal'
p5873
I5892
sS'passag'
p5874
I5893
sS'comic'
p5875
I5894
sS'platform'
p5876
I5895
sS'unwoman'
p5877
I5896
sS'oranges\xe2\x80\x94they'
p5878
I5897
sS'underneath'
p5879
I5898
sS'loneli'
p5880
I5899
sS'i\xe2\x80\x99erhap'
p5881
I5900
sS'anecdot'
p5882
I5901
sS'fern'
p5883
I5902
sS'term'
p5884
I5903
sS'name'
p5885
I5904
sS'clutch'
p5886
I5905
sS'advent'
p5887
I5906
sS'that\xe2\x80\x94it'
p5888
I5907
sS'ters'
p5889
I5908
sS'gape'
p5890
I5909
sS'individu'
p5891
I5910
sS'course\xe2\x80\x9d'
p5892
I5911
sS'begun'
p5893
I5913
sS'bustl'
p5894
I5914
sS'dispos'
p5895
I5915
sS'hysteria'
p5896
I5916
sS'profit'
p5897
I5917
sS'dredg'
p5898
I5918
sS'infrar'
p5899
I5919
sS'profil'
p5900
I5920
sS'maybe\xe2\x80\xa6\xe2\x80\x9di'
p5901
I7
sS'can\xe2\x80\x99t\xe2\x80\x9d'
p5902
I5922
sS'powderblu'
p5903
I5923
sS'glimps'
p5904
I5924
sS'\xe2\x80\x9cwhisper'
p5905
I5925
sS'theori'
p5906
I5926
sS'prescrib'
p5907
I5927
sS'flare'
p5908
I5928
sS'synchron'
p5909
I5929
sS'refus'
p5910
I5930
sS'motion'
p5911
I5931
sS'turn'
p5912
I5932
sS'place'
p5913
I5933
sS'swing'
p5914
I5934
sS'unborn'
p5915
I5935
sS'preach'
p5916
I5936
sS'imposs'
p5917
I98
sS'exnurs'
p5918
I5938
sS'origin'
p5919
I5939
sS'clumsi'
p5920
I5940
sS'suspend'
p5921
I5941
sS'semiretir'
p5922
I5942
sS'solstic'
p5923
I5943
sS'suspens'
p5924
I5944
sS'array'
p5925
I5945
sS'given'
p5926
I5946
sS'day\xe2\x80\x9d'
p5927
I5947
sS'afterthought'
p5928
I5948
sS'teenag'
p5929
I149
sS'associ'
p5930
I5950
sS'plastic'
p5931
I5951
sS'necessarili'
p5932
I163
sS'absinth'
p5933
I5953
sS'circl'
p5934
I5954
sS'white'
p5935
I5955
sS'circa'
p5936
I5956
sS'dolls\xe2\x80\x99'
p5937
I5957
sS'hud'
p5938
I5958
sS'backstag'
p5939
I5959
sS'hug'
p5940
I5960
sS'hasn\xe2\x80\x99t'
p5941
I5961
sS'season'
p5942
I198
sS'copi'
p5943
I5963
sS'eagl'
p5944
I5964
sS'hut'
p5945
I5965
sS'yet\xe2\x80\x9d'
p5946
I1017
sS'enclos'
p5947
I5966
sS'gin'
p5948
I5967
sS'\xe2\x80\x9ccim'
p5949
I2742
sS'grunt'
p5950
I5968
sS'holder'
p5951
I5969
sS'serv'
p5952
I5970
sS'wide'
p5953
I5971
sS'\xe2\x80\x98don\xe2\x80\x99t'
p5954
I5972
sS'r'
p5955
I5973
sS'tawdri'
p5956
I267
sS'posit'
p5957
I5976
sS'powder'
p5958
I3317
sS'and'
p5959
I5978
sS'wobbl'
p5960
I4547
sS'rend'
p5961
I5979
sS'drugged\xe2\x80\x94and'
p5962
I5980
sS'kingsiz'
p5963
I5981
sS'pri'
p5964
I5982
sS'ani'
p5965
I5983
sS'ant'
p5966
I5984
sS'everywher'
p5967
I5844
sS'rent'
p5968
I5986
sS'stolid'
p5969
I5987
sS'ideal'
p5970
I5988
sS'surf'
p5971
I5989
sS'surg'
p5972
I5990
sS'sure'
p5973
I5991
sS'multipli'
p5974
I5992
sS'clearer'
p5975
I5993
sS'inki'
p5976
I5994
sS'clatter'
p5977
I5995
sS'saunter'
p5978
I5996
sS'heav'
p5979
I5997
sS'adopt'
p5980
I1859
sS'heat'
p5981
I5999
sS'reconstfuct'
p5982
I420
sS'obedi'
p5983
I6001
sS'senior'
p5984
I6002
sS'hungri'
p5985
I6003
sS'firecrack'
p5986
I6004
sS'slope'
p5987
I6005
sS'solar'
p5988
I6006
sS'stonyfac'
p5989
I6007
sS'cheat'
p5990
I6008
sS'to\xe2\x80\x9d'
p5991
I6009
sS'cheap'
p5992
I6010
sS'permiss'
p5993
I6011
sS'hack'
p5994
I6012
sS'before\xe2\x80\x9d'
p5995
I6013
sS'favor'
p5996
I6910
sS'tupperwar'
p5997
I1023
sS'gull'
p5998
I6016
sS'written'
p5999
I6017
sS'shimmer'
p6000
I6018
sS'crime'
p6001
I6019
sS'wood'
p6002
I6020
sS'deign'
p6003
I6021
sS'wool'
p6004
I6022
sS'presbyterian'
p6005
I6023
sS'jazz'
p6006
I6024
sS'treacheri'
p6007
I6025
sS'bilhah'
p6008
I6026
sS'nobl'
p6009
I6027
sS'festoon'
p6010
I6028
sS'lighter'
p6011
I6029
sS'dye'
p6012
I6030
sS'grudgehold'
p6013
I1756
sS'sex\xe2\x80\x9d'
p6014
I6032
sS'naked'
p6015
I6033
sS'through'
p6016
I6034
sS'bath\xe2\x80\x9d'
p6017
I6036
sS'beethoven'
p6018
I6037
sS'picnic'
p6019
I6038
sS'prowl'
p6020
I6039
sS'labori'
p6021
I6040
sS'\xe2\x80\x9cnick\xe2\x80\x99s\xe2\x80\x9d'
p6022
I620
sS'silverencrust'
p6023
I6042
sS'extrud'
p6024
I6043
sS'crystal'
p6025
I6044
sS'review'
p6026
I6045
sS'untrustworthi'
p6027
I6046
sS'hiss'
p6028
I6048
sS'bedtim'
p6029
I6049
sS'weren\xe2\x80\x99t'
p6030
I6918
sS'come'
p6031
I6051
sS'reaction'
p6032
I6052
sS'repertoir'
p6033
I6053
sS'berri'
p6034
I6054
sS'quiet'
p6035
I6055
sS'contract'
p6036
I6056
sS'mealtim'
p6037
I6057
sS'starvat'
p6038
I6058
sS'buttercup'
p6039
I6059
sS'jitter'
p6040
I6060
sS'key'
p6041
I6061
sS'color'
p6042
I6062
sS'pot'
p6043
I6063
sS'inspir'
p6044
I6064
sS'period'
p6045
I6065
sS'pop'
p6046
I6066
sS'duti'
p6047
I6067
sS'pole'
p6048
I6068
sS'be\xe2\x80\x94her'
p6049
I813
sS'turkey'
p6050
I6070
sS'coupl'
p6051
I6071
sS'we\xe2\x80\x99ll'
p6052
I6072
sS'unhygien'
p6053
I6073
sS'bedsid'
p6054
I6074
sS'schoolboy'
p6055
I6075
sS'crossandstar'
p6056
I6076
sS'irrever'
p6057
I6077
sS'standup'
p6058
I6078
sS'author\xe2\x80\x99'
p6059
I6079
sS'andrea'
p6060
I6080
sS'impati'
p6061
I6081
sS'spirit'
p6062
I914
sS'pilot'
p6063
I6083
sS'case'
p6064
I6084
sS'myself'
p6065
I6085
sS'slipperi'
p6066
I6086
sS'superflu'
p6067
I6087
sS'mount'
p6068
I6088
sS'cash'
p6069
I6089
sS'cast'
p6070
I942
sS'mound'
p6071
I6091
sS'sobriety\xe2\x80\x9d'
p6072
I6092
sS'helmet'
p6073
I6093
sS'author'
p6074
I6094
sS'bowl'
p6075
I6095
sS'trip'
p6076
I6096
sS'sedit'
p6077
I6097
sS'status'
p6078
I1048
sS'nunavit'
p6079
I6099
sS'driver'
p6080
I6100
sS'surgeon\xe2\x80\x99'
p6081
I6101
sS'weed'
p6082
I6102
sS'driven'
p6083
I1072
sS'devoid'
p6084
I1073
sS'petticoat'
p6085
I6105
sS'lute'
p6086
I6106
sS'puke'
p6087
I6107
sS'vowel'
p6088
I6108
sS'weep'
p6089
I6109
sS'cartoon'
p6090
I6110
sS'applaus'
p6091
I6111
sS'handsom'
p6092
I6112
sS'\xe2\x80\x9cwhat\xe2\x80\x99ll'
p6093
I6113
sS'facad'
p6094
I6114
sS'justifi'
p6095
I6115
sS'without'
p6096
I6116
sS'relief'
p6097
I6117
sS'strange\xe2\x80\x9d'
p6098
I1291
sS'model'
p6099
I6119
sS'reward'
p6100
I6120
sS'satir'
p6101
I6121
sS'when'
p6102
I6122
sS'clot'
p6103
I6123
sS'imbu'
p6104
I1155
sS'kill'
p6105
I6125
sS'tomorrow\xe2\x80\x99'
p6106
I6126
sS'polish'
p6107
I6127
sS'satin'
p6108
I6128
sS'halfway'
p6109
I6129
sS'blow'
p6110
I6130
sS'blot'
p6111
I1184
sS'rosi'
p6112
I6132
sS'hint'
p6113
I6133
sS'rose'
p6114
I6134
sS'except'
p6115
I6135
sS'blob'
p6116
I6136
sS'notori'
p6117
I1217
sS'it\xe2\x80\x99d'
p6118
I6138
sS'scrapbook'
p6119
I6139
sS'vulner'
p6120
I6140
sS'kingdom'
p6121
I6141
sS'\xe2\x80\x9cthem\xe2\x80\x9d'
p6122
I6142
sS'divorc'
p6123
I6143
sS'saniti'
p6124
I6144
sS'beggar\xe2\x80\x99'
p6125
I6145
sS'towel'
p6126
I6146
sS'bracelet'
p6127
I6147
sS'\xe2\x80\x9cangela\xe2\x80\x9d'
p6128
I6148
sS'tower'
p6129
I6149
sS'pseudonym'
p6130
I6150
sS'devil\xe2\x80\x99'
p6131
I6151
sS'mediumhard'
p6132
I6152
sS'animal\xe2\x80\x9d'
p6133
I6153
sS'\xe2\x80\x9cwe'
p6134
I6154
sS'fanat'
p6135
I6155
sS'freez'
p6136
I6156
sS'slice'
p6137
I6157
sS'mood'
p6138
I6158
sS'easili'
p6139
I6159
sS'slick'
p6140
I6160
sS'legal'
p6141
I1363
sS'moon'
p6142
I6162
sS'complic'
p6143
I6163
sS'match\xe2\x80\x9d'
p6144
I6164
sS'czarist'
p6145
I6165
sS'quit'
p6146
I6166
sS'garbag'
p6147
I6167
sS'inspect'
p6148
I6168
sS'calmer'
p6149
I6169
sS'earlier'
p6150
I4151
sS'mantelpiec'
p6151
I6171
sS'on'
p6152
I6172
sS'jeez'
p6153
I6173
sS'ol'
p6154
I6174
sS'cornucopia'
p6155
I1453
sS'of'
p6156
I6176
sS'jeer'
p6157
I6177
sS'shrimp'
p6158
I6178
sS'stand'
p6159
I6179
sS'or'
p6160
I6180
sS'routin'
p6161
I6181
sS'denay'
p6162
I6182
sS'lightishgray'
p6163
I6183
sS'matressfor'
p6164
I6184
sS'snowmen'
p6165
I6185
sS'there'
p6166
I6186
sS'strict'
p6167
I6187
sS'fisheri'
p6168
I6941
sS'racist'
p6169
I6189
sS'valley'
p6170
I6190
sS'threeweekold'
p6171
I6191
sS'mischief'
p6172
I6192
sS'jug'
p6173
I6193
sS'regard'
p6174
I6194
sS'toxicwast'
p6175
I6195
sS'idea'
p6176
I6196
sS'diffus'
p6177
I1594
sS'praise\xe2\x80\x9d'
p6178
I1596
sS'illus'
p6179
I6199
sS'faster'
p6180
I6200
sS'notat'
p6181
I6201
sS'impenetr'
p6182
I6202
sS'silly\xe2\x80\x9d'
p6183
I6203
sS'unbabi'
p6184
I6204
sS'grasp'
p6185
I1648
sS'grass'
p6186
I6206
sS'toilet'
p6187
I6207
sS'fist'
p6188
I6208
sS'frighten'
p6189
I6209
sS'treasur'
p6190
I6945
sS'idiot'
p6191
I6211
sS'rubber'
p6192
I6212
sS'trash'
p6193
I6213
sS'seasid'
p6194
I1745
sS'cat\xe2\x80\x99'
p6195
I6215
sS'symbol'
p6196
I6216
sS'midair'
p6197
I6217
sS'briefli'
p6198
I6218
sS'nicotineandalcohol'
p6199
I389
sS'lipstick'
p6200
I6220
sS'won\xe2\x80\x99t\xe2\x80\x9d'
p6201
I6221
sS'wife'
p6202
I6222
sS'potenti'
p6203
I6223
sS'treason'
p6204
I6224
sS'assimil'
p6205
I6225
sS'all'
p6206
I6226
sS'lace'
p6207
I6227
sS'wreath'
p6208
I1827
sS'disc'
p6209
I6229
sS'abil'
p6210
I6230
sS'\xe2\x80\x9cmi'
p6211
I6231
sS'dish'
p6212
I6232
sS'follow'
p6213
I6233
sS'infirmari'
p6214
I6234
sS'thursday'
p6215
I6235
sS'program'
p6216
I6236
sS'humili'
p6217
I6237
sS'crest'
p6218
I6238
sS'maybe\xe2\x80\x9d'
p6219
I1893
sS'song'
p6220
I6240
sS'far'
p6221
I6241
sS'fat'
p6222
I6242
sS'order\xe2\x80\x9d'
p6223
I6243
sS'mayday'
p6224
I6244
sS'hypocrit'
p6225
I6245
sS'worst'
p6226
I3574
sS'failur'
p6227
I6247
sS'unoffici'
p6228
I6248
sS'list'
p6229
I6249
sS'\xe2\x80\x9cproblem'
p6230
I6250
sS'flick'
p6231
I6251
sS'ten'
p6232
I6252
sS'foreground'
p6233
I6253
sS'tea'
p6234
I6254
sS'whiteveil'
p6235
I6255
sS'rate'
p6236
I1993
sS'pressur'
p6237
I6257
sS'design'
p6238
I6258
sS'anymore\xe2\x80\x94and'
p6239
I6259
sS'what'
p6240
I6260
sS'sun'
p6241
I6261
sS'\xe2\x80\x9cyou\xe2\x80\x99r'
p6242
I5975
sS'whimper'
p6243
I6263
sS'crust'
p6244
I6264
sS'brief'
p6245
I6265
sS'overload'
p6246
I6266
sS'crush'
p6247
I6267
sS'version'
p6248
I6268
sS'sur'
p6249
I6269
sS'intersect'
p6250
I6270
sS'solitary\xe2\x80\x9d'
p6251
I6271
sS'deepli'
p6252
I6272
sS'\xe2\x80\x9cyou\xe2\x80\x99d'
p6253
I6273
sS'musti'
p6254
I6274
sS'womb'
p6255
I3168
sS'prickear'
p6256
I6276
sS'christian'
p6257
I2046
sS'rehears'
p6258
I6278
sS'particicut'
p6259
I6279
sS'concubin'
p6260
I6280
sS'crybabi'
p6261
I6281
sS'reddishbrown'
p6262
I6282
sS'forgetmenot'
p6263
I6283
sS'gleeful'
p6264
I6284
sS'bulli'
p6265
I6285
sS'\xe2\x80\x9cchines'
p6266
I6286
sS'\xe2\x80\x9ctomorrow'
p6267
I6287
sS'snuf'
p6268
I6288
sS'mutant'
p6269
I6956
sS'snub'
p6270
I6290
sS'proceed'
p6271
I6291
sS'faint'
p6272
I6292
sS'bizarr'
p6273
I6293
sS'paper\xe2\x80\x99'
p6274
I6294
sS'spi'
p6275
I6749
sS'angrier'
p6276
I6295
sS'minor'
p6277
I6296
sS'flat'
p6278
I6297
sS'flaw'
p6279
I2213
sS'flit'
p6280
I6299
sS'gopal'
p6281
I6300
sS'flag'
p6282
I6301
sS'stick'
p6283
I6302
sS'known'
p6284
I6303
sS'mellow'
p6285
I6304
sS'herself\xe2\x80\x9d'
p6286
I6305
sS'glad'
p6287
I6306
sS'valuabl'
p6288
I6307
sS'outlin'
p6289
I6308
sS'v'
p6290
I6309
sS'sentri'
p6291
I6310
sS'\xe2\x80\x9che'
p6292
I6311
sS'\xe2\x80\x9chi'
p6293
I6312
sS'searchlight'
p6294
I6313
sS'jeopard'
p6295
I6314
sS'poni'
p6296
I6315
sS'who\xe2\x80\x99'
p6297
I6316
sS'pond'
p6298
I6317
sS'cours'
p6299
I6318
sS'court'
p6300
I6319
sS'goal'
p6301
I6320
sS'divid'
p6302
I6321
sS'rather'
p6303
I6322
sS'divis'
p6304
I6323
sS'odder'
p6305
I6324
sS'unchast'
p6306
I3398
sS'okay'
p6307
I2376
sS'headress'
p6308
I6327
sS'reflect'
p6309
I6328
sS'seconds\xe2\x80\x99'
p6310
I6329
sS'numb'
p6311
I6330
sS'preoccupi'
p6312
I6331
sS'short'
p6313
I6332
sS'susan'
p6314
I6333
sS'stash'
p6315
I6334
sS'ambigu'
p6316
I6335
sS'caus'
p6317
I6336
sS'\xe2\x80\x9cwhi'
p6318
I2448
sS'\xe2\x80\x9cwho'
p6319
I6338
sS'usual\xe2\x80\x9d'
p6320
I2458
sS'began'
p6321
I6340
sS'see\xe2\x80\x9d'
p6322
I6341
sS'chanti'
p6323
I3371
sS'liekd'
p6324
I6343
sS'painstak'
p6325
I6344
sS'scientist'
p6326
I6345
sS'flaunt'
p6327
I6346
sS'islam'
p6328
I6347
sS'style'
p6329
I6348
sS'glide'
p6330
I6349
sS'pray'
p6331
I6350
sS'inward'
p6332
I6351
sS'mattress'
p6333
I6352
sS'harmless'
p6334
I6353
sS'boneless'
p6335
I6354
sS'might'
p6336
I6355
sS'alter'
p6337
I6356
sS'return'
p6338
I6357
sS'cupola'
p6339
I6358
sS'speechless'
p6340
I6359
sS'somebodi'
p6341
I6360
sS'birthmobile\xe2\x80\x99'
p6342
I6361
sS'ovalsid'
p6343
I6362
sS'ceas'
p6344
I6363
sS'friendship'
p6345
I6364
sS'secondlast'
p6346
I6365
sS'loopi'
p6347
I6366
sS'weight'
p6348
I6367
sS'gun'
p6349
I6368
sS'linkag'
p6350
I6369
sS'expect'
p6351
I6370
sS'renaiss'
p6352
I6371
sS'shamefaced'
p6353
I6372
sS'alcohol'
p6354
I6373
sS'foolproof'
p6355
I6374
sS'loll'
p6356
I6375
sS'health'
p6357
I6377
sS'hill'
p6358
I6378
sS'shipment'
p6359
I6379
sS'didn\xe2\x80\x99t\xe2\x80\xa6\xe2\x80\x9d'
p6360
I6380
sS'caucasian'
p6361
I6381
sS'monotoni'
p6362
I6382
sS'conspiratori'
p6363
I1755
sS'halfdead'
p6364
I6384
sS'differ'
p6365
I6385
sS'hepburn'
p6366
I6386
sS'you\xe2\x80\x99ll'
p6367
I6387
sS'disinfect'
p6368
I6388
sS'teach'
p6369
I6389
sS'guy'
p6370
I6390
sS'lag'
p6371
I6391
sS'guest'
p6372
I6392
sS'thrown'
p6373
I6393
sS'thread'
p6374
I6394
sS'perhap'
p6375
I6395
sS'fallen'
p6376
I6396
sS'seashel'
p6377
I3028
sS'feed'
p6378
I6397
sS'sympathi'
p6379
I6398
sS'dine'
p6380
I6399
sS'\xe2\x80\x9cup'
p6381
I2772
sS'feet'
p6382
I6401
sS'plummet'
p6383
I6402
sS'least'
p6384
I6403
sS'blank'
p6385
I6404
sS'bland'
p6386
I6405
sS'pant\xe2\x80\x9d'
p6387
I6406
sS'moan'
p6388
I6407
sS'breathless'
p6389
I6408
sS'incredible\xe2\x80\x94a'
p6390
I6409
sS'superpow'
p6391
I6410
sS'script'
p6392
I6411
sS'collar'
p6393
I6974
sS'swarm'
p6394
I6413
sS'stori'
p6395
I6414
sS'storm'
p6396
I6415
sS'store'
p6397
I6416
sS'necklac'
p6398
I6417
sS'luckili'
p6399
I6418
sS'hotel'
p6400
I6419
sS'pos\xc3\xbcng'
p6401
I6420
sS'break\xe2\x80\x99'
p6402
I6421
sS'fidget'
p6403
I6422
sS'fall'
p6404
I6423
sS'uncut'
p6405
I2880
sS'king'
p6406
I6425
sS'kind'
p6407
I6426
sS'whenev'
p6408
I6427
sS'remot'
p6409
I6428
sS'remov'
p6410
I6429
sS'knive'
p6411
I6430
sS'riski'
p6412
I6431
sS'stall'
p6413
I6432
sS'architect'
p6414
I166
sS'dang'
p6415
I6434
sS'postur'
p6416
I6435
sS'stale'
p6417
I6436
sS'danc'
p6418
I6437
sS'cleaner'
p6419
I6438
sS'atmospher'
p6420
I6439
sS'marbl'
p6421
I6440
sS'helpless'
p6422
I6441
sS'violat'
p6423
I6442
sS'moist'
p6424
I6443
sS'screwdriv'
p6425
I6444
sS'wrong\xe2\x80\x9d'
p6426
I6445
sS'rapist'
p6427
I6446
sS'unsur'
p6428
I6447
sS'neglige'
p6429
I6448
sS'reach'
p6430
I6449
sS'midsumm'
p6431
I6450
sS'react'
p6432
I3024
sS'neverend'
p6433
I2537
sS'won\xe2\x80\x99t'
p6434
I6453
sS'\xe2\x80\x9csomebodi'
p6435
I6454
sS'part'
p6436
I4635
sS'daddyish'
p6437
I6455
sS'pizzazz'
p6438
I6456
sS'ridicul'
p6439
I6457
sS'didn\xe2\x80\x99t'
p6440
I6458
sS'afterimag'
p6441
I6459
sS'fond'
p6442
I6460
sS'\xe2\x80\x9cthree'
p6443
I6461
sS'sieglinda'
p6444
I6462
sS'penalti'
p6445
I3109
sS'frivol'
p6446
I3134
sS'betray'
p6447
I6465
sS'freckles\xe2\x80\x9d'
p6448
I6466
sS'hip'
p6449
I6467
sS'his'
p6450
I6468
sS'hit'
p6451
I6469
sS'equivoc'
p6452
I6470
sS'hid'
p6453
I6471
sS'second\xe2\x80\x9d'
p6454
I6472
sS'him'
p6455
I6473
sS'appeal'
p6456
I6474
sS'hieroglyph'
p6457
I6475
sS'statist'
p6458
I6476
sS'limegreen'
p6459
I6477
sS'wrote'
p6460
I6478
sS'oldenday'
p6461
I6479
sS'equinox'
p6462
I3230
sS'dump'
p6463
I6481
sS'arc'
p6464
I3255
sS'bare'
p6465
I3256
sS'are'
p6466
I6484
sS'disadvantag'
p6467
I6485
sS'thinnish'
p6468
I3266
sS'arm'
p6469
I6487
sS'thinfac'
p6470
I6488
sS'akimbo'
p6471
I6489
sS'blurt'
p6472
I6490
sS'forlorn'
p6473
I6491
sS'crisp'
p6474
I1734
sS'enclosur'
p6475
I6492
sS'various'
p6476
I6493
sS'rstrain'
p6477
I6494
sS'latin'
p6478
I3316
sS'bibl'
p6479
I6496
sS'goddamn'
p6480
I6497
sS'unauthor'
p6481
I6498
sS'sold'
p6482
I3325
sS'sole'
p6483
I6500
sS'outfit'
p6484
I6501
sS'succeed'
p6485
I6502
sS'solv'
p6486
I6503
sS'inertia'
p6487
I6504
sS'hairi'
p6488
I6505
sS'c'
p6489
I6506
sS'\xe2\x80\x9cbesid'
p6490
I6507
sS'latetwentiethcenturi'
p6491
I6508
sS'ignomini'
p6492
I6509
sS'context'
p6493
I6510
sS'carniv'
p6494
I3387
sS'distress'
p6495
I6512
sS'sweet'
p6496
I6513
sS'wastebasket'
p6497
I6514
sS'sweep'
p6498
I3407
sS'cheerleaders\xe2\x80\x99'
p6499
I3427
sS'dishtowel'
p6500
I6517
sS'dub'
p6501
I6518
sS'overlook'
p6502
I6519
sS'due'
p6503
I6520
sS'dug'
p6504
I6521
sS'whom'
p6505
I6522
sS'pa'
p6506
I6523
sS'cobweb'
p6507
I1562
sS'brick'
p6508
I6524
sS'thing\xe2\x80\x9d'
p6509
I6525
sS'chandler'
p6510
I6526
sS'woke'
p6511
I6527
sS'strategi'
p6512
I6528
sS'flight'
p6513
I6529
sS'\xe2\x80\x9cscrawny\xe2\x80\x9d'
p6514
I6530
sS'demand'
p6515
I6531
sS'cither'
p6516
I6532
sS'stolen'
p6517
I6533
sS'boast'
p6518
I6534
sS'packag'
p6519
I6535
sS'frozen'
p6520
I6536
sS'batch'
p6521
I6537
sS'surplus\xe2\x80\x9d'
p6522
I6538
sS'kick'
p6523
I6539
sS'abov'
p6524
I6540
sS'mordant'
p6525
I6541
sS'incognito'
p6526
I6542
sS'ecstasi'
p6527
I6543
sS'strapless'
p6528
I6544
sS'\xe2\x80\x9chold'
p6529
I6545
sS'adulter'
p6530
I6546
sS'rip'
p6531
I6547
sS'demor'
p6532
I6548
sS'rim'
p6533
I6549
sS'quail'
p6534
I6550
sS'rid'
p6535
I6551
sS'anguish'
p6536
I3589
sS'chauffeur'
p6537
I6553
sS'tothi'
p6538
I6554
sS'shirt'
p6539
I6555
sS'rubberclad'
p6540
I6556
sS'room\xe2\x80\x94not'
p6541
I6557
sS'\xe2\x80\x9ctri'
p6542
I3625
sS'higher'
p6543
I3635
sS'munific'
p6544
I6560
sS'painless'
p6545
I6561
sS'cement'
p6546
I6562
sS'owl\xe2\x80\x99'
p6547
I6486
sS'craftier'
p6548
I6563
sS'wherev'
p6549
I6564
sS'same\xe2\x80\x9d'
p6550
I6565
sS'lower'
p6551
I6566
sS'discourag'
p6552
I6567
sS'cheek'
p6553
I6568
sS'mean\xe2\x80\x9d'
p6554
I6569
sS'cheer'
p6555
I6570
sS'chees'
p6556
I6571
sS'temporary\xe2\x80\x9d'
p6557
I6572
sS'propos'
p6558
I6573
sS'pollen'
p6559
I6574
sS'catkin'
p6560
I6575
sS'burden'
p6561
I6576
sS'\xe2\x80\x9cno'
p6562
I6577
sS'foreshorten'
p6563
I6578
sS'\xe2\x80\x9chere'
p6564
I6579
sS'pebbl'
p6565
I6580
sS'northern'
p6566
I6581
sS'stimul'
p6567
I6582
sS'\xe2\x80\x9ctonight'
p6568
I2660
sS'humanoid'
p6569
I6584
sS'may\xe2\x80\x9d'
p6570
I6585
sS'freshbak'
p6571
I6586
sS'girls\xe2\x80\x9d\xe2\x80\x94h'
p6572
I6587
sS'awaken'
p6573
I6588
sS'house\xe2\x80\x9d'
p6574
I6589
sS'confront'
p6575
I6590
sS'incred'
p6576
I7001
sS'documents\xe2\x80\x9d'
p6577
I6591
sS'earthquak'
p6578
I6592
sS'collect'
p6579
I6593
sS'cowri'
p6580
I6594
sS'me\xe2\x80\x9d'
p6581
I6595
sS'embroid'
p6582
I6596
sS'piglet'
p6583
I6597
sS'sprightli'
p6584
I6598
sS'couldn\xe2\x80\x99t'
p6585
I6599
sS'understood'
p6586
I6600
sS'surpris'
p6587
I6601
sS'pros'
p6588
I6602
sS'plasterhard'
p6589
I6603
sS'\xe2\x80\x9cfred\xe2\x80\x9d'
p6590
I6604
sS'prop'
p6591
I6605
sS'undon'
p6592
I6606
sS'prod'
p6593
I6607
sS'spangl'
p6594
I6608
sS'ancestress'
p6595
I6609
sS'viabl'
p6596
I6610
sS'jumpi'
p6597
I6611
sS'squeez'
p6598
I6612
sS'meantim'
p6599
I6613
sS'roundup'
p6600
I6614
sS'cautious'
p6601
I6615
sS'aftershav'
p6602
I4048
sS'deathwatch'
p6603
I6617
sS'suffus'
p6604
I6618
sS'ordeal'
p6605
I6619
sS'underton'
p6606
I6620
sS'plan'
p6607
I6621
sS'judd\xe2\x80\x99'
p6608
I6622
sS'holster'
p6609
I6623
sS'\xe2\x80\x9ctomorrow\xe2\x80\x9d'
p6610
I6624
sS'artifici'
p6611
I4142
sS'stench'
p6612
I6626
sS'sheep\xe2\x80\x99'
p6613
I6627
sS'genespl'
p6614
I6628
sS'featureless'
p6615
I6629
sS'\xe2\x80\x9ci'
p6616
I6630
sS'question'
p6617
I4168
sS'long'
p6618
I4172
sS'\xe2\x80\x9ca'
p6619
I6633
sS'\xe2\x80\x9cgreetings\xe2\x80\x9d'
p6620
I6634
sS'etch'
p6621
I6635
sS'styliz'
p6622
I6636
sS'dwindl'
p6623
I6637
sS'cloth'
p6624
I6638
sS'uncontrol'
p6625
I6639
sS'usurp'
p6626
I6640
sS'upright'
p6627
I6641
sS'pirn'
p6628
I6642
sS'friez'
p6629
I6643
sS'consist'
p6630
I6644
sS'peppermint'
p6631
I6645
sS'gallantri'
p6632
I6646
sS'z'
p6633
I6647
sS'bell'
p6634
I6982
sS'laughs\xe2\x80\x94\xe2\x80\x9dfrom'
p6635
I4293
sS'pinkyr'
p6636
I6649
sS'gunpoint'
p6637
I6650
sS'someone\xe2\x80\x99'
p6638
I6651
sS'\xe2\x80\x9cenjoy'
p6639
I5848
sS'famin'
p6640
I6652
sS'\xe2\x80\x9cmayday\xe2\x80\x9d'
p6641
I6653
sS'lemon'
p6642
I6654
sS'peach'
p6643
I6655
sS'reeduc'
p6644
I6656
sS'\xe2\x80\x9call'
p6645
I6657
sS'nick'
p6646
I6658
sS'parlor'
p6647
I6659
sS'mock'
p6648
I6660
sS'nice'
p6649
I6661
sS'insect'
p6650
I6662
sS'sibil'
p6651
I6663
sS'happier'
p6652
I6664
sS'lead'
p6653
I7009
sS'fast\xe2\x80\x9d'
p6654
I6666
sS'vice'
p6655
I6667
sS'dismantl'
p6656
I6668
sS'scroll'
p6657
I6669
sS'overwint'
p6658
I6670
sS'pervers'
p6659
I6671
sS'edg'
p6660
I6672
sS'lean'
p6661
I7012
sS'dispel'
p6662
I6674
sS'gang'
p6663
I6675
sS'jurisdict'
p6664
I6676
sS'shanghai'
p6665
I6677
sS'leap'
p6666
I7013
sS'sure\xe2\x80\x9d'
p6667
I6679
sS'breach'
p6668
I6680
sS'pay'
p6669
I4314
sS'girls\xe2\x80\x99'
p6670
I2857
sS'coquettish'
p6671
I6681
sS'toenail'
p6672
I6682
sS'electron'
p6673
I4548
sS'stalem'
p6674
I6684
sS'spook'
p6675
I6685
sS'electrod'
p6676
I6686
sS'seawat'
p6677
I6687
sS'fan'
p6678
I6246
sS'fastfood'
p6679
I6688
sS'disgrac'
p6680
I6689
sS'brevity\xe2\x80\x94cam'
p6681
I6690
sS'listens\xe2\x80\x9d'
p6682
I6691
sS'computalk'
p6683
I3263
sS'mirag'
p6684
I4609
sS'outdo'
p6685
I6694
sS'pleas'
p6686
I6695
sS'malici'
p6687
I6696
sS'smaller'
p6688
I4617
sS'pleat'
p6689
I6698
sS'battl'
p6690
I6699
sS'men\xe2\x80\x9d'
p6691
I4639
sS'helicopt'
p6692
I6701
sS'men\xe2\x80\x99'
p6693
I6702
sS'plead'
p6694
I6703
sS'telephon'
p6695
I3913
sS'acid'
p6696
I6704
sS'folk'
p6697
I6705
sS'undetect'
p6698
I6706
sS'compar'
p6699
I6707
sS'husbands\xe2\x80\x99'
p6700
I6708
sS'decent\xe2\x80\x9d'
p6701
I6709
sS'mitt'
p6702
I7019
sS'vibrat'
p6703
I6711
sS'chose'
p6704
I6712
sS'canadian'
p6705
I6713
sS'singles\xe2\x80\x99'
p6706
I6714
sS'cozi'
p6707
I6715
sS'gloat'
p6708
I6716
sS'melodramat'
p6709
I6717
sS'weather\xe2\x80\x9d'
p6710
I6718
sS'miser'
p6711
I6719
sS'inhomag'
p6712
I6720
sS'headless'
p6713
I6721
sS'pieixoto\xe2\x80\x99'
p6714
I6722
sS'armpit'
p6715
I6723
sS'typic'
p6716
I6724
sS'pajama'
p6717
I6725
sS'shovel'
p6718
I6726
sS'appli'
p6719
I6727
sS'approxim'
p6720
I6728
sS'she\xe2\x80\x99ll'
p6721
I6729
sS'motor'
p6722
I6730
sS'duck'
p6723
I4814
sS'redo'
p6724
I6732
sS'use'
p6725
I4834
sS'from'
p6726
I6734
sS'frog'
p6727
I6735
sS'few'
p6728
I6736
sS'dishevel'
p6729
I6737
sS'iust'
p6730
I6738
sS'sort'
p6731
I6739
sS'clever'
p6732
I6740
sS'porch'
p6733
I6741
sS'impress'
p6734
I6742
sS'sore'
p6735
I6743
sS'rabbit'
p6736
I6744
sS'recount'
p6737
I6745
sS'penis'
p6738
I6746
sS'women'
p6739
I6747
sS'annoy'
p6740
I6748
sS'duster'
p6741
I334
sS'annot'
p6742
I6750
sS'tap'
p6743
I4940
sS'patron'
p6744
I4944
sS'tricia'
p6745
I6753
sS'pregnanc'
p6746
I6754
sS'carrot'
p6747
I6755
sS'condescend'
p6748
I6756
sS'wizen'
p6749
I6757
sS'serial'
p6750
I4973
sS'rape'
p6751
I6759
sS'counterfeit'
p6752
I6760
sS'sir'
p6753
I6761
sS'sip'
p6754
I6762
sS'sit'
p6755
I6763
sS'six'
p6756
I6764
sS'change\xe2\x80\x9d'
p6757
I6765
sS'swear'
p6758
I7030
sS'instead'
p6759
I6767
sS'panic'
p6760
I6768
sS'sin'
p6761
I6769
sS'tension'
p6762
I6770
sS'cupboard'
p6763
I6771
sS'attend'
p6764
I6772
sS'hazard'
p6765
I6773
sS'discomfort'
p6766
I6774
sS'infertil'
p6767
I6775
sS'wrist'
p6768
I6776
sS'attent'
p6769
I6777
sS'fratern'
p6770
I6778
sS'villag'
p6771
I6779
sS'twentyfirstcenturi'
p6772
I6780
sS'orchestr'
p6773
I6781
sS'agricultur'
p6774
I6782
sS'light'
p6775
I6783
sS'\xe2\x80\x9cdon\xe2\x80\x99t'
p6776
I6784
sS'lirst'
p6777
I6785
sS'wrinkl'
p6778
I6786
sS'elig'
p6779
I6787
sS'what\xe2\x80\x9d'
p6780
I6788
sS'chemical\xe2\x80\x93'
p6781
I6789
sS'what\xe2\x80\x99'
p6782
I6790
sS'elit'
p6783
I6791
sS'silk'
p6784
I6792
sS'sunni'
p6785
I6793
sS'restrain'
p6786
I6794
sS'turban'
p6787
I6795
sS'choosi'
p6788
I6796
sS'\xe2\x80\x9cgovern'
p6789
I6797
sS'flex'
p6790
I6798
sS'crash'
p6791
I6799
sS'orthodox'
p6792
I6800
sS'flour'
p6793
I6801
sS'flee'
p6794
I5215
sS'\xe2\x80\x9cthank'
p6795
I6803
sS'footstool'
p6796
I6804
sS'weather'
p6797
I7042
sS'polit'
p6798
I3597
sS'depriv'
p6799
I4787
sS'darci'
p6800
I6806
sS'cocoon'
p6801
I6807
sS'tray'
p6802
I6808
sS'freckl'
p6803
I6809
sS'our'
p6804
I6810
sS'out'
p6805
I6811
sS'semen'
p6806
I6812
sS'weedless'
p6807
I6813
sS'waitperson'
p6808
I5318
sS'splitcrotch'
p6809
I6815
sS'categori'
p6810
I6816
sS'lacedup'
p6811
I6817
sS'sir\xe2\x80\x9d'
p6812
I6818
sS'york'
p6813
I6819
sS'dictionari'
p6814
I6820
sS'usual'
p6815
I6821
sS'river'
p6816
I2826
sS'g'
p6817
I6823
sS'illicit'
p6818
I6824
sS'bouquet'
p6819
I6825
sS'echo'
p6820
I6826
sS'glisten'
p6821
I6827
sS'unknown'
p6822
I6828
sS'accent'
p6823
I5507
sS'their'
p6824
I6830
sS'glister'
p6825
I5531
sS'\xe2\x80\x9cher'
p6826
I6832
sS'boil'
p6827
I6833
sS'inner'
p6828
I6834
sS'shell'
p6829
I6835
sS'shelf'
p6830
I6836
sS'juli'
p6831
I6837
sS'there\xe2\x80\x99'
p6832
I6838
sS'diminish'
p6833
I6839
sS'protocol'
p6834
I3854
sS'bookcas'
p6835
I5596
sS'are\xe2\x80\xa6'
p6836
I6841
sS'clip'
p6837
I6842
sS'theseat'
p6838
I6843
sS'chicken\xe2\x80\x9d'
p6839
I6844
sS'stiffback'
p6840
I6845
sS'\xe2\x80\x9cgood\xe2\x80\x9d'
p6841
I6846
sS'pallor'
p6842
I6847
sS'afraid'
p6843
I6848
sS'rout'
p6844
I6849
sS'contact'
p6845
I5548
sS'are\xe2\x80\x94'
p6846
I6850
sS'ringlet'
p6847
I6851
sS'which'
p6848
I6852
sS'roug'
p6849
I6853
sS'trivia'
p6850
I2228
sS'define\xe2\x80\x94for'
p6851
I6855
sS'combat'
p6852
I6856
sS'caftan'
p6853
I6857
sS'who'
p6854
I6858
sS'whi'
p6855
I6859
sS'multitud'
p6856
I6860
sS'sisterinlaw'
p6857
I6861
sS'byzantin'
p6858
I2255
sS'class'
p6859
I6863
sS'clasp'
p6860
I6864
sS'deni'
p6861
I6865
sS'determin'
p6862
I6866
sS'dog\xe2\x80\x99'
p6863
I6867
sS'son'
p6864
I6868
sS'mistook'
p6865
I6869
sS'smilebutton'
p6866
I6870
sS'slidingtop'
p6867
I6871
sS'chicken'
p6868
I5042
sS'darkest'
p6869
I6873
sS'camaraderi'
p6870
I5819
sS'nearer'
p6871
I6875
sS'\xe2\x80\x9cani'
p6872
I6876
sS'highest'
p6873
I6877
sS'locat'
p6874
I6878
sS'highheel'
p6875
I6879
sS'\xe2\x80\x9cand'
p6876
I6880
sS'diction\xe2\x80\x94guy\xe2\x80\x94pul'
p6877
I6881
sS'spacetim'
p6878
I6882
sS'inhabit'
p6879
I6883
sS'eav'
p6880
I6884
sS'local'
p6881
I6885
sS'cube'
p6882
I6886
sS'\xe2\x80\x9cnotwithstand'
p6883
I6887
sS'watercolor'
p6884
I6888
sS'ghetto'
p6885
I6889
sS'wallpap'
p6886
I6890
sS'both\xe2\x80\x94lik'
p6887
I5912
sS'mademoisell'
p6888
I6892
sS'kneel'
p6889
I1179
sS'roadwork'
p6890
I6894
sS'view'
p6891
I6895
sS'unison'
p6892
I6896
sS'expel'
p6893
I6897
sS'knowledg'
p6894
I6898
sS'meatshop'
p6895
I6899
sS'elast'
p6896
I6900
sS'nightgown'
p6897
I6901
sS'violet'
p6898
I6902
sS'closer'
p6899
I6903
sS'entranc'
p6900
I6904
sS'still'
p6901
I6905
sS'wiredup'
p6902
I6906
sS'closet'
p6903
I6907
sS'meanmind'
p6904
I6908
sS'monstrous'
p6905
I6909
sS'genius'
p6906
I6014
sS'crude'
p6907
I6911
sS'chemic'
p6908
I6912
sS'\xe2\x80\x9cshowoff\xe2\x80\x9d'
p6909
I6913
sS'bought'
p6910
I6914
sS'entic'
p6911
I6915
sS'joy'
p6912
I6916
sS'jumpiest'
p6913
I6917
sS'clothes\xe2\x80\x9d'
p6914
I6376
sS'copul'
p6915
I6919
sS'job'
p6916
I6920
sS'entir'
p6917
I6921
sS'spoil'
p6918
I6922
sS'jog'
p6919
I6923
sS'swift'
p6920
I6924
sS'memento'
p6921
I6925
sS'addit'
p6922
I6926
sS'canopi'
p6923
I6927
sS'april'
p6924
I6928
sS'audibl'
p6925
I6929
sS'grain'
p6926
I6930
sS'anything\xe2\x80\x99'
p6927
I1212
sS'wall'
p6928
I6932
sS'arriv'
p6929
I6933
sS'walk'
p6930
I6934
sS'forbidden\xe2\x80\x9d'
p6931
I6935
sS'\xe2\x80\x9cfind'
p6932
I6936
sS'respect'
p6933
I6937
sS'withdrawn'
p6934
I6938
sS'decent'
p6935
I6939
sS'compos'
p6936
I6940
sS'unspoken'
p6937
I6188
sS'besid'
p6938
I6942
sS'decenc'
p6939
I6943
sS'mike'
p6940
I6944
sS'cutpap'
p6941
I6210
sS'presenc'
p6942
I6946
sS'\xe2\x80\x9cjust'
p6943
I6947
sS'overturn'
p6944
I6948
sS'present'
p6945
I6949
sS'kerchief'
p6946
I6950
sS'will'
p6947
I6951
sS'thou'
p6948
I6952
sS'fingertip'
p6949
I6953
sS'wild'
p6950
I6954
sS'observ'
p6951
I6955
sS'sherry\xe2\x80\x9d'
p6952
I6289
sS'tar'
p6953
I6957
sS'thus'
p6954
I6958
sS'motiv'
p6955
I6959
sS'ave'
p6956
I6960
sS'thud'
p6957
I6961
sS'whore'
p6958
I6962
sS'uniti'
p6959
I6963
sS'cross'
p6960
I6964
sS'member'
p6961
I6965
sS'inch'
p6962
I6966
sS'constel'
p6963
I6967
sS'difficult'
p6964
I6968
sS'lobbi'
p6965
I6969
sS'water\xe2\x80\x9d'
p6966
I6970
sS'lash'
p6967
I6971
sS'student'
p6968
I6972
sS'whale'
p6969
I6973
sS'\xe2\x80\x9cyou\xe2\x80\x99ll'
p6970
I6412
sS'\xe2\x80\x9churry\xe2\x80\x9d'
p6971
I6975
sS'scissor'
p6972
I6976
sS'\xe2\x80\x9ctoday\xe2\x80\x99'
p6973
I6977
sS'english'
p6974
I6978
sS'replenish'
p6975
I6979
sS'heavili'
p6976
I6980
sS'simultan'
p6977
I6981
sS'now'
p6978
I2360
sS'drunk'
p6979
I1196
sS'sky'
p6980
I6983
sS'discuss'
p6981
I6984
sS'other'
p6982
I7085
sS'cultur'
p6983
I6986
sS'halo'
p6984
I6987
sS'highlevel'
p6985
I6035
sS'ski'
p6986
I6989
sS'knob'
p6987
I6990
sS'branch'
p6988
I7087
sS'legitimis'
p6989
I6992
sS'neardeath'
p6990
I6993
sS'know'
p6991
I6994
sS'knot'
p6992
I6995
sS'press'
p6993
I6996
sS'doughnut'
p6994
I6997
sS'incendiari'
p6995
I6998
sS'institut'
p6996
I6999
sS'housetohous'
p6997
I5635
sS'ahem'
p6998
I7000
sS'size\xe2\x80\x9d'
p6999
I3105
sS'safest'
p7000
I7002
sS'tennyson'
p7001
I7003
sS'dustypink'
p7002
I7004
sS'church'
p7003
I7005
sS'waterford\xe2\x80\x99'
p7004
I7006
sS'growth'
p7005
I7007
sS'leaf'
p7006
I7008
sS'pompom'
p7007
I6665
sS'leak'
p7008
I7010
sS'leah'
p7009
I7011
sS'miner'
p7010
I6673
sS'staccato'
p7011
I6678
sS'leav'
p7012
I7014
sS'settl'
p7013
I7015
sS'leader'
p7014
I7016
sS'soft\xe2\x80\x9d'
p7015
I5107
sS'investig'
p7016
I7018
sS'reveal'
p7017
I6031
sS'superstit'
p7018
I6710
sS'slut'
p7019
I7020
sS'semish'
p7020
I7021
sS'largebrim'
p7021
I7022
sS'mite'
p7022
I7023
sS'throne'
p7023
I7024
sS'rare'
p7024
I7025
sS'rolledup'
p7025
I7026
sS'linger'
p7026
I7027
sS'column'
p7027
I7028
sS'sectarian'
p7028
I7029
sS'fear'
p7029
I6872
sS'carrier'
p7030
I6766
sS'sweat'
p7031
I7031
sS'udder'
p7032
I7032
sS'guardian\xe2\x80\x99'
p7033
I7033
sS'disabl'
p7034
I7034
sS'\xe2\x80\x9csomehow\xe2\x80\x9d'
p7035
I7035
sS'checkers\xe2\x80\x9d'
p7036
I7036
sS'outset'
p7037
I7037
sS'own'
p7038
I7038
sS'owe'
p7039
I7039
sS'tag'
p7040
I7040
sS'automat'
p7041
I7041
sS'cri'
p7042
I6822
sS'\xe2\x80\x9cbi'
p7043
I7043
sS'brush'
p7044
I7044
sS'\xe2\x80\x9cno\xe2\x80\x9d'
p7045
I7045
sS'\xe2\x80\x9crested\xe2\x80\x9d'
p7046
I7046
sS'van'
p7047
I7047
sS'geoffrey'
p7048
I6891
sS'transfer'
p7049
I7049
sS'*'
p7050
I7050
sS'appl'
p7051
I7051
sS'principal\xe2\x80\x99'
p7052
I7052
sS'ed'
p7053
I7053
sS'\xe2\x80\x9cviolat'
p7054
I7054
sS'vat'
p7055
I7055
sS'piousli'
p7056
I7056
sS'torch'
p7057
I7057
sS'contradictori'
p7058
I7058
sS'unwrap'
p7059
I7059
sS'sweatband'
p7060
I7060
sS'mutter'
p7061
I7061
sS'brassier'
p7062
I7062
sS'ivorycolor'
p7063
I7063
sS'liquor'
p7064
I5595
sS'made'
p7065
I7064
sS'whether'
p7066
I7065
sS'injur'
p7067
I7066
sS'daffodil'
p7068
I7067
sS'ricketi'
p7069
I7068
sS'troubl'
p7070
I381
sS'record'
p7071
I7070
sS'below'
p7072
I7071
sS'cake'
p7073
I7072
sS'marquetri'
p7074
I7073
sS'maroon'
p7075
I7074
sS'\xe2\x80\x9cserena'
p7076
I7075
sS'\xe2\x80\x9cmore'
p7077
I7076
sS'counteract'
p7078
I7077
sS'\xe2\x80\x9cluke\xe2\x80\x9d'
p7079
I7078
sS'upsidedown'
p7080
I7079
sS'mutual'
p7081
I7080
sS'glint'
p7082
I7081
sS'boot'
p7083
I7082
sS'no\xe2\x80\x9d'
p7084
I7083
sS'\xe2\x80\x9cofglen\xe2\x80\x9d'
p7085
I7084
sS'book'
p7086
I6985
sS'shortwav'
p7087
I7086
sS'sick'
p7088
I6991
sS'junk'
p7089
I7088
sS'june'
p7090
I7089
sS'margaret'
p7091
I7090
sS'squeak'
p7092
I7091
sS'dhow'
p7093
I7092
sS'shredder'
p7094
I7093
sS'experienc'
p7095
I7094
sS'laundromat'
p7096
I7100
sS'scientif'
p7097
I7096
sS'\xe2\x80\x9ccommander\xe2\x80\x9d'
p7098
I7097
sS'reliabl'
p7099
I7098
sS'emerg'
p7100
I7099
sS'invari'
p7101
I7095
s.