(dp0
S'"lizzi'
p1
I3220
sS'sweetesttemp'
p2
I0
sS'expired]'
p3
I1
sS'profici'
p4
I2
sS'pardon'
p5
I3
sS'better"'
p6
I4
sS'overcome"'
p7
I6
sS'united"'
p8
I7
sS'hatr'
p9
I8
sS'foul'
p10
I9
sS'ever"'
p11
I10
sS'four'
p12
I11
sS'rapid'
p13
I5014
sS'protest'
p14
I12
sS'grosvenor'
p15
I4184
sS'sleep'
p16
I13
sS'maid'
p17
I4854
sS'avenue"'
p18
I2830
sS'mansion'
p19
I14
sS'oldest'
p20
I16
sS'hate'
p21
I17
sS'repetit'
p22
I3595
sS'consider'
p23
I2679
sS'whose'
p24
I21
sS'"at'
p25
I22
sS'accur'
p26
I23
sS'`satisfactorili'
p27
I3243
sS'authoris'
p28
I25
sS'undec'
p29
I26
sS'goes"'
p30
I1800
sS'manner"'
p31
I3597
sS'sorri'
p32
I28
sS'scold'
p33
I29
sS'"ay'
p34
I31
sS'sprain'
p35
I5069
sS'illustr'
p36
I2681
sS'edward'
p37
I33
sS'under'
p38
I34
sS'"an'
p39
I35
sS'lord'
p40
I36
sS'romannumer'
p41
I37
sS'pride'
p42
I38
sS'cousin\'s"'
p43
I39
sS'worth'
p44
I40
sS'"ah'
p45
I41
sS'digit'
p46
I42
sS'_me_'
p47
I275
sS'risk'
p48
I44
sS'physician'
p49
I906
sS'compassion'
p50
I46
sS'otherwise"'
p51
I296
sS'rise'
p52
I48
sS'lurk'
p53
I49
sS'voic'
p54
I306
sS'accord'
p55
I4758
sS'"heaven'
p56
I52
sS'uncl'
p57
I1806
sS'sermon'
p58
I4204
sS'fingers"'
p59
I54
sS'today"'
p60
I55
sS'govern'
p61
I57
sS'affect'
p62
I58
sS'_such_'
p63
I1073
sS'vast'
p64
I61
sS'servil'
p65
I909
sS'"realli'
p66
I63
sS'party"'
p67
I64
sS'disturb'
p68
I65
sS'neighbour"'
p69
I66
sS'prize'
p70
I67
sS'conscienti'
p71
I3775
sS'wednesday'
p72
I69
sS'_sister_'
p73
I70
sS'29>'
p74
I71
sS'undervalu'
p75
I72
sS'propens'
p76
I73
sS'bequeath'
p77
I2689
sS'enquir'
p78
I75
sS'red'
p79
I4466
sS'_remind_'
p80
I78
sS'intentions"'
p81
I79
sS'"don\'t'
p82
I80
sS'_manner_'
p83
I1810
sS'garden'
p84
I4074
sS'triumph'
p85
I83
sS'austen]'
p86
I84
sS'culprit'
p87
I4380
sS'"all'
p88
I85
sS'abil'
p89
I2690
sS'constern'
p90
I87
sS'me"'
p91
I88
sS'her"'
p92
I89
sS'_memoir_'
p93
I90
sS'patronag'
p94
I91
sS'direct'
p95
I92
sS'consequ'
p96
I93
sS'second'
p97
I94
sS'mama"'
p98
I95
sS'wellgrown'
p99
I96
sS'others"'
p100
I97
sS'follow'
p101
I2693
sS'durat'
p102
I3057
sS'equal"'
p103
I100
sS'illusag'
p104
I101
sS'even'
p105
I102
sS'employ'
p106
I918
sS'dialogu'
p107
I104
sS'captain'
p108
I105
sS'hide'
p109
I106
sS'terms"'
p110
I107
sS'solemn'
p111
I108
sS'amus'
p112
I109
sS'asid'
p113
I110
sS'near'
p114
I111
sS'spokesman'
p115
I112
sS'compos'
p116
I4859
sS'xvii'
p117
I114
sS'conduct'
p118
I115
sS'understood"'
p119
I116
sS'new'
p120
I117
sS'net'
p121
I118
sS'ever'
p122
I120
sS'domest'
p123
I1816
sS'liberti'
p124
I122
sS'told'
p125
I123
sS'unask'
p126
I4606
sS'afterward'
p127
I4482
sS'"whether'
p128
I126
sS'acted"'
p129
I794
sS'men'
p130
I130
sS'lodg'
p131
I131
sS'accus'
p132
I132
sS'here'
p133
I133
sS'finest'
p134
I4508
sS'met'
p135
I134
sS'pratt'
p136
I135
sS'through"'
p137
I136
sS'10>'
p138
I137
sS'pursuit'
p139
I138
sS'chaise"'
p140
I140
sS'path'
p141
I141
sS'wedding"'
p142
I142
sS'pleasur'
p143
I143
sS'feather"'
p144
I144
sS'"imposs'
p145
I145
sS'"as'
p146
I146
sS'daughter'
p147
I148
sS'aug'
p148
I149
sS'insinuating"'
p149
I150
sS'militari'
p150
I151
sS'residence"'
p151
I5077
sS'exclamation"'
p152
I152
sS'precis'
p153
I153
sS'credit'
p154
I154
sS'confidante"'
p155
I489
sS'preference"'
p156
I156
sS'"perhap'
p157
I157
sS'permit'
p158
I159
sS"i'm"
p159
I160
sS'"whi'
p160
I161
sS'pieces"'
p161
I162
sS'"oh"'
p162
I163
sS'counti'
p163
I164
sS'================================================================'
p164
I3622
sS'xii'
p165
I3194
sS'meant"'
p166
I2704
sS'home'
p167
I5088
sS'gentleman"'
p168
I167
sS'cheapside"'
p169
I168
sS'sweetest'
p170
I169
sS'newspap'
p171
I170
sS'company"'
p172
I171
sS'deceived"'
p173
I172
sS'fortitud'
p174
I173
sS'brought'
p175
I174
sS'uncivil'
p176
I175
sS'louisa"'
p177
I4872
sS'moral'
p178
I178
sS'thursday'
p179
I2707
sS'embarrass'
p180
I4479
sS'instabl'
p181
I180
sS'support'
p182
I5183
sS'total'
p183
I181
sS'angrili'
p184
I182
sS'unit'
p185
I183
sS'sarah'
p186
I250
sS'interest'
p187
I5196
sS'overhear'
p188
I186
sS'<chapter'
p189
I187
sS'spoke'
p190
I188
sS'would'
p191
I189
sS'to'
p192
I2709
sS'injunct'
p193
I191
sS'folio'
p194
I5264
sS'dure'
p195
I5246
sS'insult'
p196
I1471
sS'recommenc'
p197
I195
sS'readi'
p198
I3628
sS'music'
p199
I197
sS'retali'
p200
I1219
sS'governess"'
p201
I4512
sS'recommend'
p202
I200
sS'strike'
p203
I201
sS'"sir'
p204
I2711
sS'tradesman'
p205
I203
sS'care'
p206
I1831
sS'extravag'
p207
I205
sS'tell'
p208
I206
sS'griev'
p209
I207
sS'follows"'
p210
I4484
sS'ridicule"'
p211
I209
sS'mother"'
p212
I4807
sS'relat'
p213
I213
sS'notic'
p214
I214
sS'"i'
p215
I215
sS'grief'
p216
I216
sS'glass'
p217
I217
sS'warm'
p218
I218
sS'grandfath'
p219
I219
sS'_could_'
p220
I220
sS'former'
p221
I2243
sS'9>'
p222
I221
sS'yard'
p223
I4487
sS'ward'
p224
I224
sS'hold'
p225
I225
sS'overrul'
p226
I226
sS'hedg'
p227
I227
sS'feeling"'
p228
I228
sS'must'
p229
I229
sS'shoot'
p230
I1232
sS'accid'
p231
I231
sS'word'
p232
I233
sS'room'
p233
I234
sS'books"'
p234
I235
sS'restor'
p235
I236
sS'society"'
p236
I237
sS'neglig'
p237
I2719
sS'archaism'
p238
I239
sS'work'
p239
I240
sS'worn'
p240
I242
sS'ere'
p241
I244
sS'wors'
p242
I245
sS'mr'
p243
I248
sS'my'
p244
I251
sS'quarrel'
p245
I253
sS'defer'
p246
I254
sS'breakfastparlour'
p247
I255
sS'55>'
p248
I256
sS'"stupid'
p249
I257
sS'_pride_and_prejudice_'
p250
I3835
sS'unassail'
p251
I259
sS'give'
p252
I260
sS'pie'
p253
I4884
sS'unjust'
p254
I261
sS'household'
p255
I262
sS'bitterest'
p256
I1555
sS'assent'
p257
I264
sS'cookeri'
p258
I265
sS'indic'
p259
I266
sS'replet'
p260
I1707
sS'overheard'
p261
I270
sS'caution'
p262
I271
sS'unavail'
p263
I1598
sS'want'
p264
I273
sS'robinson"'
p265
I274
sS'everi'
p266
I43
sS'unavoid'
p267
I3429
sS'attract'
p268
I277
sS'expressed"'
p269
I278
sS'recov'
p270
I1843
sS'lizzi'
p271
I3748
sS'end'
p272
I282
sS'solitud'
p273
I283
sS'turn'
p274
I1844
sS'hon'
p275
I285
sS'ordinari'
p276
I286
sS'faulti'
p277
I287
sS'length'
p278
I4495
sS'ceremoni'
p279
I288
sS'how'
p280
I289
sS'hot'
p281
I290
sS'enforc'
p282
I4496
sS'recoveri'
p283
I718
sS'answer'
p284
I293
sS'disappoint'
p285
I294
sS'fresher'
p286
I5201
sS'if'
p287
I295
sS'void'
p288
I1803
sS'polit'
p289
I297
sS'unacquaint'
p290
I4540
sS'monosyl'
p291
I298
sS'elizabeth'
p292
I299
sS'adds"'
p293
I300
sS'both"'
p294
I301
sS'selfdecept'
p295
I302
sS'"wickham'
p296
I4791
sS'after'
p297
I304
sS'hope"'
p298
I3883
sS'vicious'
p299
I305
sS'ball'
p300
I4953
sS'ductil'
p301
I50
sS'befor'
p302
I307
sS'wrong'
p303
I308
sS'lay'
p304
I309
sS'beauti'
p305
I310
sS'retain'
p306
I4500
sS"bennet'"
p307
I311
sS'law'
p308
I312
sS'arch'
p309
I313
sS'bennet"'
p310
I314
sS'_they_'
p311
I315
sS'1811'
p312
I193
sS'gover'
p313
I318
sS'alacr'
p314
I319
sS'scarc'
p315
I4502
sS'attempt'
p316
I321
sS'splendid'
p317
I322
sS'third'
p318
I323
sS'iii>'
p319
I324
sS'amid'
p320
I325
sS'retort'
p321
I1943
sS'revolv'
p322
I329
sS'imposs'
p323
I1850
sS'insuffer'
p324
I331
sS'receiv'
p325
I332
sS'18th'
p326
I333
sS'green'
p327
I334
sS'shrewish'
p328
I4902
sS'enter'
p329
I336
sS'exclus'
p330
I337
sS'worst'
p331
I1958
sS'be"'
p332
I4532
sS'bingley'
p333
I339
sS'order'
p334
I340
sS'wind'
p335
I341
sS'wine'
p336
I342
sS'__'
p337
I343
sS'blind'
p338
I1853
sS'foresaw'
p339
I345
sS'belong'
p340
I3644
sS'unsoci'
p341
I347
sS'deck'
p342
I348
sS'consent'
p343
I349
sS'over'
p344
I350
sS'_of_'
p345
I2074
sS'becaus'
p346
I353
sS'modesti'
p347
I354
sS'xi'
p348
I1855
sS'london'
p349
I356
sS'butcher'
p350
I3907
sS'appar'
p351
I358
sS'misconduct'
p352
I359
sS'regard"'
p353
I4507
sS'pretti'
p354
I2966
sS'vari'
p355
I361
sS'ancl'
p356
I2009
sS'member'
p357
I4940
sS'gentl'
p358
I363
sS'fit'
p359
I365
sS'illtreat'
p360
I366
sS'then"'
p361
I367
sS'chatti'
p362
I368
sS'fix'
p363
I369
sS'[sourcewiretap]'
p364
I370
sS'comprehend'
p365
I371
sS'better'
p366
I372
sS'implac'
p367
I1854
sS'[id*]'
p368
I374
sS'hypocrisi'
p369
I1605
sS'comprehens'
p370
I377
sS'40>'
p371
I378
sS'inconsider'
p372
I381
sS'_had_'
p373
I382
sS'then'
p374
I383
sS'them'
p375
I384
sS'anim'
p376
I385
sS'grievous'
p377
I386
sS'corrobor'
p378
I388
sS'present"'
p379
I389
sS'complete"'
p380
I4515
sS'safe'
p381
I391
sS'irretriev'
p382
I19
sS'extracts"'
p383
I1863
sS'break'
p384
I394
sS'effectu'
p385
I982
sS'promis'
p386
I396
sS'they'
p387
I397
sS'interrupt'
p388
I398
sS'resourc'
p389
I2974
sS'beaux'
p390
I399
sS'yourself'
p391
I1865
sS'young"'
p392
I401
sS'pardon"'
p393
I402
sS'bank'
p394
I403
sS'rumour'
p395
I404
sS'choic'
p396
I405
sS'tendenc'
p397
I406
sS'essentials"'
p398
I1057
sS'victori'
p399
I408
sS'arrog'
p400
I409
sS'_with_'
p401
I410
sS'thenc'
p402
I411
sS'detain'
p403
I5008
sS'week"'
p404
I412
sS'persever'
p405
I413
sS'insensibility"'
p406
I4497
sS"week'"
p407
I414
sS'lofti'
p408
I415
sS'unnatur'
p409
I416
sS'goodness"'
p410
I417
sS'luca'
p411
I419
sS'roast'
p412
I420
sS'each'
p413
I421
sS'undoubt'
p414
I4806
sS'fatigu'
p415
I4521
sS'went'
p416
I423
sS'higher'
p417
I3658
sS'oblig'
p418
I424
sS'side'
p419
I425
sS'mean'
p420
I427
sS'paus'
p421
I4993
sS'prohibit'
p422
I428
sS'whim'
p423
I429
sS'horsewoman'
p424
I5248
sS'resum'
p425
I430
sS'enorm'
p426
I431
sS'taught'
p427
I436
sS'fortnight'
p428
I438
sS'forgot'
p429
I439
sS'allay'
p430
I440
sS'_know_'
p431
I2615
sS'extract'
p432
I442
sS'saturday'
p433
I443
sS'backgammon'
p434
I444
sS'incomprehens'
p435
I2630
sS'rt'
p436
I446
sS'depress'
p437
I447
sS'by'
p438
I3852
sS'rw'
p439
I449
sS'at"'
p440
I450
sS'palat'
p441
I2674
sS'relationship"'
p442
I4390
sS'goe'
p443
I453
sS'god'
p444
I454
sS'negativ'
p445
I455
sS'bennet'
p446
I456
sS'tomorrow'
p447
I1877
sS'[scanned*]'
p448
I458
sS'laid'
p449
I459
sS'inhabit'
p450
I4703
sS'counterbal'
p451
I4947
sS'adapt'
p452
I460
sS'reader'
p453
I461
sS'is"'
p454
I462
sS'size'
p455
I1879
sS'day"'
p456
I464
sS'forti'
p457
I465
sS'coat"'
p458
I3723
sS'goodhumour'
p459
I3580
sS'written'
p460
I4785
sS'rail'
p461
I467
sS'dancing"'
p462
I468
sS'situat'
p463
I469
sS'_her_'
p464
I470
sS'scheme"'
p465
I471
sS'`near'
p466
I472
sS'evil'
p467
I474
sS'admitt'
p468
I476
sS'sheet'
p469
I1884
sS'mistress'
p470
I478
sS'"her'
p471
I479
sS'principle"'
p472
I480
sS'whist'
p473
I481
sS'fret'
p474
I482
sS'stranger"'
p475
I483
sS'ate'
p476
I484
sS'speedi'
p477
I485
sS'pianofort'
p478
I486
sS'puzzl'
p479
I487
sS'perhaps"'
p480
I488
sS'argument'
p481
I1947
sS"``yes'"
p482
I490
sS'"inde'
p483
I4531
sS'needlework'
p484
I492
sS'fordyc'
p485
I493
sS'"this'
p486
I495
sS'shrubberi'
p487
I496
sS'renew'
p488
I497
sS'"no'
p489
I498
sS'unabl'
p490
I499
sS'startl'
p491
I500
sS'kingdom'
p492
I3623
sS'undeserved"'
p493
I3672
sS'ostent'
p494
I502
sS'confus'
p495
I503
sS'caught'
p496
I1888
sS'fellow"'
p497
I505
sS'enjoy'
p498
I506
sS'rang'
p499
I507
sS'slept'
p500
I1889
sS'too"'
p501
I509
sS'render'
p502
I510
sS'mingl'
p503
I512
sS'trembl'
p504
I4535
sS'independ'
p505
I514
sS'wast'
p506
I515
sS'rank'
p507
I516
sS'necess'
p508
I517
sS'design"'
p509
I4741
sS'17>'
p510
I519
sS'unlik'
p511
I520
sS'alreadi'
p512
I521
sS'likes"'
p513
I522
sS'messag'
p514
I4537
sS'unmark'
p515
I2763
sS'agre'
p516
I525
sS'mischanc'
p517
I526
sS'"read'
p518
I528
sS'dwelt'
p519
I529
sS'hospit'
p520
I3972
sS'acquaint'
p521
I531
sS'attach'
p522
I4538
sS'taller"'
p523
I534
sS'top'
p524
I535
sS'sometim'
p525
I536
sS'overr'
p526
I537
sS'sarcast'
p527
I538
sS'kinder'
p528
I539
sS'sure"'
p529
I540
sS'necessarili'
p530
I1894
sS'master'
p531
I542
sS'too'
p532
I543
sS'xiv'
p533
I544
sS'tea'
p534
I2767
sS'xix'
p535
I546
sS'dwell'
p536
I547
sS'john'
p537
I548
sS'bitter'
p538
I549
sS'listen'
p539
I550
sS'pemberley'
p540
I551
sS'consol'
p541
I554
sS'_knew_'
p542
I555
sS"her'"
p543
I556
sS'luncheon'
p544
I557
sS'[revision*]'
p545
I558
sS'took'
p546
I559
sS'wisdom'
p547
I560
sS'kindest'
p548
I561
sS'paltri'
p549
I562
sS'dozen'
p550
I3655
sS'somewhat'
p551
I563
sS'glow'
p552
I3912
sS'happili'
p553
I565
sS'persev'
p554
I567
sS'peculiar'
p555
I568
sS'symptom'
p556
I569
sS'expenc'
p557
I3681
sS'"good'
p558
I570
sS'cure'
p559
I3968
sS'silli'
p560
I572
sS'affront'
p561
I573
sS'"probabl'
p562
I574
sS'unvari'
p563
I575
sS'provid'
p564
I576
sS'seminari'
p565
I578
sS'body"'
p566
I579
sS'tree'
p567
I580
sS'hors'
p568
I581
sS'hearth'
p569
I3108
sS'project'
p570
I583
sS'matter'
p571
I584
sS'congratulatori'
p572
I585
sS'&c'
p573
I586
sS'guilt'
p574
I587
sS'cruelli'
p575
I588
sS'to"'
p576
I590
sS'sooth'
p577
I1348
sS'minut'
p578
I592
sS'prone'
p579
I4546
sS'proxi'
p580
I5091
sS'girl"'
p581
I595
sS'provis'
p582
I597
sS'turnpik'
p583
I4547
sS'fashion'
p584
I598
sS'entail'
p585
I599
sS'handkerchief'
p586
I600
sS'editions]'
p587
I601
sS'ran'
p588
I602
sS'exercise"'
p589
I603
sS'over"'
p590
I3211
sS'modern'
p591
I605
sS'mind'
p592
I606
sS'mine'
p593
I607
sS'spent'
p594
I3688
sS'sportsmen'
p595
I3608
sS'grantley\'s"'
p596
I1904
sS'_appearance_'
p597
I612
sS'manner'
p598
I613
sS'miniatur'
p599
I3630
sS'immedi'
p600
I4871
sS'seen'
p601
I617
sS'seem'
p602
I618
sS'_he_'
p603
I4652
sS'seek'
p604
I620
sS'etext'
p605
I621
sS'well"'
p606
I622
sS'mortifi'
p607
I4190
sS'quieter'
p608
I623
sS'strength'
p609
I624
sS'often"'
p610
I625
sS'recreat'
p611
I626
sS'terrif'
p612
I627
sS'do"'
p613
I628
sS'latter'
p614
I629
sS'that'
p615
I1905
sS'thorough'
p616
I631
sS'overtook'
p617
I632
sS'himself"'
p618
I5139
sS'27>'
p619
I633
sS'neither'
p620
I4789
sS'eyes"'
p621
I5231
sS'thur'
p622
I4921
sS'answer"'
p623
I2781
sS'`kill'
p624
I1592
sS'infam'
p625
I4831
sS'blue'
p626
I638
sS'elev'
p627
I3696
sS'maiden'
p628
I642
sS'_wish_'
p629
I77
sS'pitiful"'
p630
I4640
sS'object'
p631
I645
sS'tell"'
p632
I646
sS'complais'
p633
I3064
sS'defianc'
p634
I4946
sS'did'
p635
I3097
sS'_nephew_'
p636
I648
sS'mouth'
p637
I649
sS'see"'
p638
I650
sS'letter'
p639
I651
sS'long"'
p640
I652
sS'_fine_'
p641
I653
sS'everyth'
p642
I654
sS'grave'
p643
I655
sS'peevish'
p644
I212
sS'subject"'
p645
I657
sS'excus'
p646
I658
sS'richard'
p647
I2787
sS'cops'
p648
I5132
sS'grove'
p649
I661
sS'eliza"'
p650
I662
sS'alarm'
p651
I663
sS'camp'
p652
I664
sS'flow'
p653
I665
sS'skreen'
p654
I1911
sS'austen'
p655
I5174
sS'doe'
p656
I667
sS'affair"'
p657
I668
sS'_particularly_'
p658
I2789
sS'digress'
p659
I670
sS'declar'
p660
I671
sS'aunt'
p661
I672
sS'carolin'
p662
I673
sS'"pardon'
p663
I674
sS'patro'
p664
I2510
sS'scotch'
p665
I676
sS'supercili'
p666
I677
sS'came'
p667
I678
sS'vestibul'
p668
I292
sS'ostentati'
p669
I680
sS'footman'
p670
I2967
sS'pope'
p671
I681
sS'endear'
p672
I682
sS'opposit'
p673
I683
sS'penanc'
p674
I685
sS'presum'
p675
I2416
sS'dupe'
p676
I686
sS'case"'
p677
I3129
sS'rector'
p678
I688
sS'nephew'
p679
I689
sS'diningparlour'
p680
I690
sS'involv'
p681
I692
sS'absolut'
p682
I693
sS'misfortun'
p683
I4935
sS'louisa'
p684
I694
sS"what'shisnam"
p685
I3625
sS'acquir'
p686
I696
sS'despis'
p687
I441
sS'displeas'
p688
I2797
sS'heartili'
p689
I699
sS'safest'
p690
I5060
sS'explain'
p691
I700
sS'may"'
p692
I701
sS'releas'
p693
I4478
sS'stanza'
p694
I702
sS'busi'
p695
I704
sS'deepest'
p696
I705
sS'rich'
p697
I706
sS'haste"'
p698
I707
sS'mend'
p699
I708
sS'54>'
p700
I709
sS'warmest'
p701
I571
sS'do'
p702
I712
sS'attempt"'
p703
I713
sS'10'
p704
I4076
sS'seclud'
p705
I717
sS'falsehood"'
p706
I1458
sS'selfconceit'
p707
I719
sS'unworthili'
p708
I610
sS'watch'
p709
I721
sS'_shall_'
p710
I722
sS'compli'
p711
I723
sS'pocket'
p712
I725
sS'"nay"'
p713
I726
sS'watson'
p714
I727
sS'12'
p715
I1061
sS'spirit'
p716
I2708
sS'rest"'
p717
I729
sS'report'
p718
I730
sS'happiest'
p719
I732
sS'dependence"'
p720
I734
sS'relish'
p721
I735
sS'transpir'
p722
I898
sS'earl'
p723
I3605
sS'hall'
p724
I5024
sS'"engag'
p725
I739
sS'impli'
p726
I4106
sS'copse"'
p727
I4605
sS'_should_"'
p728
I741
sS'sacrific'
p729
I742
sS'probabl'
p730
I5261
sS'method'
p731
I743
sS'twice'
p732
I745
sS'bad'
p733
I746
sS'judge"'
p734
I747
sS'them"'
p735
I748
sS'ineffectu'
p736
I749
sS'18'
p737
I2795
sS'cousin"'
p738
I751
sS'41>'
p739
I752
sS'hasten'
p740
I753
sS'mien'
p741
I4778
sS'men"'
p742
I755
sS'_more_'
p743
I757
sS'impun'
p744
I758
sS'reread'
p745
I759
sS'fair'
p746
I760
sS'habit'
p747
I761
sS'impud'
p748
I352
sS'brothers"'
p749
I763
sS'into"'
p750
I764
sS'convey'
p751
I5086
sS'blameless'
p752
I51
sS'resist'
p753
I766
sS'"sensibl'
p754
I767
sS'full'
p755
I2807
sS'unworthi'
p756
I769
sS'_violent_'
p757
I2476
sS'fail'
p758
I771
sS'themselv'
p759
I2808
sS'charact'
p760
I4569
sS'commiser'
p761
I775
sS'best'
p762
I776
sS'subject'
p763
I777
sS'_my_'
p764
I778
sS'awar'
p765
I779
sS'darcy"'
p766
I780
sS'estate"'
p767
I781
sS'matters"'
p768
I782
sS'away'
p769
I783
sS'stairs"'
p770
I784
sS'gentleman'
p771
I785
sS'pleasing"'
p772
I4571
sS'discoveri'
p773
I787
sS'"oh'
p774
I788
sS'mud'
p775
I789
sS'figur'
p776
I790
sS'score'
p777
I791
sS'invalu'
p778
I792
sS'"on'
p779
I793
sS'gayer'
p780
I877
sS'awak'
p781
I795
sS'dilig'
p782
I3867
sS'approach'
p783
I797
sS'"of'
p784
I798
sS'attribut'
p785
I799
sS'we'
p786
I800
sS'friendship"'
p787
I475
sS'conjectur'
p788
I802
sS'impel'
p789
I4126
sS'#2000'
p790
I803
sS'way"'
p791
I3464
sS'weak'
p792
I804
sS'extens'
p793
I808
sS'drew'
p794
I810
sS'extent'
p795
I811
sS'extenu'
p796
I812
sS'natur'
p797
I4111
sS'toler'
p798
I813
sS'advertis'
p799
I814
sS'debt'
p800
I815
sS'38>'
p801
I816
sS'weari'
p802
I817
sS'behaviour'
p803
I2815
sS'protect'
p804
I820
sS'accident'
p805
I821
sS'expos'
p806
I822
sS'cow'
p807
I823
sS'disdain'
p808
I824
sS'fault'
p809
I826
sS'ill'
p810
I827
sS'against'
p811
I828
sS'"may'
p812
I4578
sS'piti'
p813
I830
sS'directly"'
p814
I831
sS'"_that_'
p815
I832
sS'unalter'
p816
I833
sS'draw"'
p817
I3680
sS'"upon'
p818
I835
sS'respectablelook'
p819
I836
sS'countri'
p820
I837
sS'before"'
p821
I5103
sS'matrimoni'
p822
I838
sS'col'
p823
I839
sS'might"'
p824
I3843
sS'unanswer'
p825
I841
sS'money"'
p826
I842
sS'suggest'
p827
I956
sS'assur'
p828
I844
sS'tone'
p829
I845
sS'aros'
p830
I4774
sS'patchedup'
p831
I846
sS'unfavour'
p832
I4966
sS'character'
p833
I848
sS'vain'
p834
I849
sS'excess'
p835
I2817
sS'delic'
p836
I1940
sS'height'
p837
I852
sS'whisper'
p838
I5245
sS'"and'
p839
I853
sS'"could'
p840
I4893
sS'25>'
p841
I854
sS'supplic'
p842
I317
sS'guid'
p843
I857
sS'assum'
p844
I858
sS'longbourn'
p845
I859
sS'speak'
p846
I860
sS'accustom'
p847
I861
sS'possess"'
p848
I862
sS'reveng'
p849
I863
sS'recur'
p850
I864
sS'"ladi'
p851
I124
sS'union'
p852
I866
sS'fri'
p853
I867
sS'loveli'
p854
I868
sS'three'
p855
I869
sS'been'
p856
I870
sS'plantat'
p857
I871
sS'blenheim'
p858
I872
sS'much'
p859
I874
sS'unhappili'
p860
I875
sS'meryton"'
p861
I876
sS'disengag'
p862
I878
sS'warmth'
p863
I879
sS'were"'
p864
I880
sS'threw'
p865
I881
sS'condescens'
p866
I4858
sS'life'
p867
I883
sS'regul'
p868
I885
sS'deeper'
p869
I886
sS'pounds"'
p870
I887
sS'spring"'
p871
I889
sS'suppress'
p872
I890
sS'excercis'
p873
I891
sS'dismiss'
p874
I892
sS'uncommon'
p875
I893
sS'anywher'
p876
I1335
sS'16>'
p877
I896
sS'lift'
p878
I897
sS'efficaci'
p879
I899
sS'child'
p880
I900
sS'catch'
p881
I901
sS'bestow"'
p882
I902
sS'xxi'
p883
I903
sS'persuas'
p884
I3742
sS'gracious'
p885
I905
sS'ugli'
p886
I45
sS'exception'
p887
I907
sS'has'
p888
I908
sS'`all'
p889
I375
sS'affirm'
p890
I910
sS'disgraced"'
p891
I911
sS'angry"'
p892
I912
sS'servic'
p893
I913
sS'properti'
p894
I914
sS'twelvemonth'
p895
I915
sS'air'
p896
I917
sS'aim'
p897
I103
sS'calcul'
p898
I919
sS'marriag'
p899
I921
sS'viii'
p900
I922
sS'ask"'
p901
I923
sS'occas'
p902
I924
sS'aid'
p903
I925
sS'vagu'
p904
I147
sS'guardianship'
p905
I928
sS'consent"'
p906
I929
sS'ix'
p907
I930
sS'seven'
p908
I931
sS'pyramid'
p909
I177
sS'"a'
p910
I184
sS'ought"'
p911
I5207
sS'character"'
p912
I934
sS'is'
p913
I935
sS'it'
p914
I937
sS'"mrs'
p915
I938
sS'iv'
p916
I939
sS'ii'
p917
I940
sS'shame'
p918
I941
sS'implies"'
p919
I1769
sS'jest'
p920
I944
sS'in'
p921
I945
sS'sever'
p922
I949
sS'girls"'
p923
I950
sS'grown'
p924
I951
sS'harmoni'
p925
I316
sS'perforc'
p926
I953
sS'1813'
p927
I327
sS'perform'
p928
I955
sS'alarm"'
p929
I992
sS'make'
p930
I957
sS'question"'
p931
I3751
sS'wound'
p932
I959
sS'cogent'
p933
I960
sS'dazzl'
p934
I961
sS'millin'
p935
I962
sS'_myself_'
p936
I963
sS'teazing"'
p937
I3390
sS'descend'
p938
I965
sS'coach"'
p939
I966
sS'fact"'
p940
I967
sS'unconcern'
p941
I968
sS'complet'
p942
I969
sS'thought'
p943
I4979
sS'can"'
p944
I970
sS'fuss'
p945
I2402
sS'evid'
p946
I972
sS'i>'
p947
I973
sS'ingenu'
p948
I974
sS'swell'
p949
I975
sS'lustr'
p950
I976
sS'prognost'
p951
I977
sS'"despis'
p952
I978
sS'rain'
p953
I979
sS'hand'
p954
I980
sS'delight'
p955
I981
sS'made"'
p956
I4961
sS'rais'
p957
I983
sS'ingeni'
p958
I984
sS'scale'
p959
I3814
sS'refin'
p960
I985
sS'jealous'
p961
I986
sS'disregard'
p962
I5126
sS'i"'
p963
I989
sS'bequest'
p964
I990
sS'studi'
p965
I991
sS'sallad'
p966
I993
sS'qualif'
p967
I994
sS'hearti'
p968
I995
sS'kept'
p969
I996
sS'lucas'
p970
I997
sS'she'
p971
I4743
sS'edwardstreet'
p972
I998
sS'_dislike_'
p973
I999
sS'undoubtedly"'
p974
I1000
sS'itself'
p975
I3633
sS'ramsgate"'
p976
I1001
sS'inherit'
p977
I1002
sS'unshackl'
p978
I2843
sS'vindic'
p979
I1005
sS'mamma'
p980
I1006
sS'greatest'
p981
I1007
sS'mother'
p982
I1008
sS'thing"'
p983
I1009
sS'the'
p984
I1010
sS'sonsinlaw'
p985
I1011
sS'_did_'
p986
I1012
sS'left'
p987
I1014
sS'[this'
p988
I1016
sS'indign'
p989
I1017
sS'just'
p990
I1018
sS'charlott'
p991
I1019
sS'nowaday'
p992
I1021
sS'addresses"'
p993
I1022
sS'ordin'
p994
I1023
sS'rous'
p995
I4607
sS'birmingham'
p996
I1027
sS'farther'
p997
I1028
sS'human'
p998
I1029
sS'yes'
p999
I1032
sS'dignifi'
p1000
I737
sS'yet'
p1001
I1034
sS'languag'
p1002
I1035
sS'previous'
p1003
I1036
sS'gretna'
p1004
I1037
sS'errand'
p1005
I3729
sS'ham'
p1006
I2636
sS'easi'
p1007
I1040
sS'interfer'
p1008
I1041
sS'had'
p1009
I1043
sS'"pray'
p1010
I3943
sS'sensat'
p1011
I1045
sS'straw'
p1012
I1046
sS"ma'am"
p1013
I1047
sS'spread'
p1014
I1048
sS'"nor'
p1015
I4821
sS'board'
p1016
I639
sS'endur'
p1017
I1051
sS'els'
p1018
I1052
sS'save'
p1019
I1053
sS'hat'
p1020
I1054
sS'tast'
p1021
I3701
sS'gave'
p1022
I1056
sS'applic'
p1023
I1058
sS'required"'
p1024
I1059
sS'objection"'
p1025
I738
sS'unpretend'
p1026
I1062
sS'measur'
p1027
I1079
sS'preserv'
p1028
I1064
sS'disposit'
p1029
I1065
sS'vaniti'
p1030
I1067
sS'opinion"'
p1031
I1068
sS'chuse'
p1032
I1069
sS'birth'
p1033
I1070
sS'involuntari'
p1034
I1072
sS'readili'
p1035
I2854
sS'illiter'
p1036
I1075
sS'retreat'
p1037
I1076
sS'apart'
p1038
I1077
sS'country"'
p1039
I1078
sS'obstin'
p1040
I1063
sS'5>'
p1041
I1081
sS'instead'
p1042
I4400
sS'gift'
p1043
I1082
sS'justice"'
p1044
I1083
sS'55'
p1045
I1084
sS'contradict'
p1046
I1085
sS'hunt'
p1047
I1086
sS'dishonest'
p1048
I1087
sS'vicin'
p1049
I5244
sS'noth'
p1050
I1978
sS'opinions"'
p1051
I1091
sS'digniti'
p1052
I1130
sS'pavement'
p1053
I1093
sS'regiment'
p1054
I2856
sS'singl'
p1055
I4619
sS"porridge'"
p1056
I1096
sS'night'
p1057
I1097
sS'53>'
p1058
I1098
sS'lakes"'
p1059
I1100
sS'unnecessari'
p1060
I1101
sS'webb'
p1061
I1103
sS'attorney'
p1062
I1104
sS'right'
p1063
I1105
sS'old'
p1064
I1106
sS'deal'
p1065
I1107
sS'flatter'
p1066
I1109
sS'interv'
p1067
I1110
sS'crown'
p1068
I1112
sS'somehow'
p1069
I1113
sS'dead'
p1070
I1114
sS'rever'
p1071
I1240
sS'accost'
p1072
I1117
sS'adieu'
p1073
I4623
sS'meaning"'
p1074
I1119
sS'obtrud'
p1075
I4984
sS'dear'
p1076
I1120
sS'entreati'
p1077
I1985
sS'indirect'
p1078
I1122
sS'dramati'
p1079
I3776
sS'will'
p1080
I4904
sS'born'
p1081
I3740
sS'forcibl'
p1082
I1127
sS'manor'
p1083
I4625
sS'for'
p1084
I1129
sS'remind'
p1085
I1092
sS'fellowtravel'
p1086
I1131
sS'inhuman'
p1087
I1132
sS'refused"'
p1088
I943
sS'timeperiod'
p1089
I5031
sS'banish'
p1090
I4892
sS'equal'
p1091
I4817
sS'select'
p1092
I2865
sS'overcom'
p1093
I1137
sS'_making_'
p1094
I1138
sS'convict'
p1095
I1139
sS'month"'
p1096
I1140
sS'ashoot'
p1097
I1141
sS'drink'
p1098
I4957
sS'splendor'
p1099
I5306
sS'intreati'
p1100
I185
sS'particular'
p1101
I2903
sS'sensibl'
p1102
I1144
sS'mantlepiec'
p1103
I1146
sS'defend'
p1104
I5320
sS'payment'
p1105
I1148
sS'"veri'
p1106
I1149
sS'buri'
p1107
I1150
sS'confer'
p1108
I1151
sS'whi'
p1109
I4630
sS'popular'
p1110
I3783
sS'"ten'
p1111
I1156
sS'corp'
p1112
I1157
sS'paid'
p1113
I1993
sS'antechamb'
p1114
I1159
sS'post'
p1115
I1160
sS'alien'
p1116
I4049
sS'shaken'
p1117
I1161
sS'describ'
p1118
I1162
sS'chapter'
p1119
I1163
sS'censur'
p1120
I1164
sS'troubl'
p1121
I5225
sS'nectarin'
p1122
I1165
sS'steadili'
p1123
I1166
sS'conceal'
p1124
I1167
sS'boister'
p1125
I1168
sS'v'
p1126
I2925
sS'surround'
p1127
I1169
sS'unfortun'
p1128
I1170
sS'distinct'
p1129
I2871
sS'dinner'
p1130
I1172
sS'despair'
p1131
I1173
sS'afternoon'
p1132
I1174
sS'cherish'
p1133
I1175
sS'own'
p1134
I5160
sS'courtesi'
p1135
I4622
sS'preserved"'
p1136
I5291
sS'miracul'
p1137
I1177
sS'produc'
p1138
I1178
sS'capric'
p1139
I1180
sS'this'
p1140
I4254
sS'discont'
p1141
I1181
sS'civil'
p1142
I1182
sS'for"'
p1143
I1183
sS'immor'
p1144
I4761
sS'contriv'
p1145
I1185
sS'bound'
p1146
I1186
sS'curios'
p1147
I1187
sS'down'
p1148
I1188
sS'lewi'
p1149
I1189
sS'unwelcom'
p1150
I1190
sS'speediest'
p1151
I1758
sS'slight'
p1152
I5120
sS'rememb'
p1153
I5275
sS'lieu'
p1154
I1192
sS'coffe'
p1155
I4960
sS'opportun'
p1156
I1193
sS'forgav'
p1157
I1194
sS'awe'
p1158
I4638
sS'education"'
p1159
I1196
sS'"design'
p1160
I1197
sS'cardtabl'
p1161
I5078
sS'crowd'
p1162
I1201
sS'suffici'
p1163
I1202
sS'attack'
p1164
I4539
sS'disinterest'
p1165
I1204
sS'clever"'
p1166
I1205
sS'_shirley_'
p1167
I3818
sS'due"'
p1168
I258
sS'happi'
p1169
I1208
sS'avail'
p1170
I1209
sS'imit'
p1171
I1210
sS'reli'
p1172
I1211
sS'synonim'
p1173
I1212
sS'deeplyroot'
p1174
I1213
sS'way'
p1175
I1214
sS'acknowledg'
p1176
I3795
sS'jane'
p1177
I1216
sS'call'
p1178
I1217
sS'was'
p1179
I1218
sS'calm'
p1180
I198
sS'consolatori'
p1181
I1811
sS'headach'
p1182
I1221
sS'head'
p1183
I1222
sS'so"'
p1184
I1223
sS'secondhand'
p1185
I1224
sS'form'
p1186
I1225
sS'offer'
p1187
I1226
sS'forc'
p1188
I1227
sS'cruelly"'
p1189
I1228
sS'wittic'
p1190
I1229
sS'armi'
p1191
I1230
sS'lawn'
p1192
I2171
sS'purvi'
p1193
I2003
sS'26th'
p1194
I1234
sS'22>'
p1195
I1235
sS'hear'
p1196
I1236
sS'what"'
p1197
I1237
sS'liveliest'
p1198
I1238
sS'same"'
p1199
I1239
sS'"will'
p1200
I1115
sS'true'
p1201
I1241
sS'fort'
p1202
I1442
sS'absent'
p1203
I1246
sS"se'nnight"
p1204
I1247
sS'"well'
p1205
I1248
sS'ignorance"'
p1206
I1249
sS'despise"'
p1207
I1250
sS'slope'
p1208
I2840
sS'emin'
p1209
I1252
sS'inquir'
p1210
I1253
sS'utmost'
p1211
I1254
sS'depreci'
p1212
I1255
sS'unbecom'
p1213
I3556
sS'until'
p1214
I1258
sS'"exce'
p1215
I1259
sS'unsuspici'
p1216
I1261
sS'anew'
p1217
I1262
sS'absenc'
p1218
I1263
sS'duet'
p1219
I1266
sS'"la'
p1220
I1267
sS'temper'
p1221
I1268
sS'adorn'
p1222
I1269
sS'trim'
p1223
I1270
sS'reced'
p1224
I1271
sS'result'
p1225
I4580
sS'proud'
p1226
I2012
sS'sight'
p1227
I3805
sS'elop'
p1228
I1273
sS'rencontr'
p1229
I1274
sS'petit'
p1230
I1275
sS'nobodi'
p1231
I4557
sS'novel'
p1232
I4896
sS'liberalmind'
p1233
I3840
sS'altern'
p1234
I4750
sS'15>'
p1235
I1277
sS'postscript'
p1236
I1278
sS'enhanc'
p1237
I4016
sS'xiii'
p1238
I1279
sS'subsist'
p1239
I1280
sS'improprieti'
p1240
I1281
sS'glanc'
p1241
I1282
sS'request'
p1242
I4647
sS'desir'
p1243
I2892
sS'mrs'
p1244
I2014
sS'check'
p1245
I1285
sS'august'
p1246
I2152
sS'silliest'
p1247
I1286
sS'assembl'
p1248
I1287
sS'inde'
p1249
I4649
sS'husbands"'
p1250
I1290
sS'no'
p1251
I1292
sS'index'
p1252
I3371
sS'excel'
p1253
I1294
sS"you'll"
p1254
I2096
sS'song"'
p1255
I1296
sS'tis'
p1256
I1297
sS'profus'
p1257
I2017
sS'communic'
p1258
I1299
sS'jone'
p1259
I1300
sS'"when'
p1260
I1301
sS'test'
p1261
I1302
sS'mistaken"'
p1262
I1303
sS'appetit'
p1263
I1304
sS'shrink'
p1264
I2425
sS'hurry"'
p1265
I1306
sS'realiti'
p1266
I2431
sS'cleric'
p1267
I1309
sS'engaged"'
p1268
I1654
sS'intend'
p1269
I1311
sS'determin'
p1270
I4653
sS'"speak'
p1271
I1312
sS"o'clock"
p1272
I1313
sS'devot'
p1273
I1314
sS'felt'
p1274
I1315
sS'mary"'
p1275
I1316
sS'express"'
p1276
I1317
sS'interference"'
p1277
I1318
sS'discomposur'
p1278
I1320
sS'&c"'
p1279
I1321
sS'fell'
p1280
I1322
sS'intent'
p1281
I1323
sS'consid'
p1282
I1324
sS'occasion'
p1283
I4655
sS'dullest'
p1284
I1326
sS'stoke'
p1285
I1327
sS'hurt'
p1286
I1328
sS'_him_"'
p1287
I5314
sS'troop'
p1288
I1329
sS'warn'
p1289
I1330
sS'younger'
p1290
I1331
sS'leav'
p1291
I5107
sS'longer'
p1292
I1333
sS'custodi'
p1293
I2640
sS'wholli'
p1294
I4467
sS'intimaci'
p1295
I1337
sS'bottom'
p1296
I1338
sS'stout'
p1297
I4399
sS'carriag'
p1298
I1340
sS'off"'
p1299
I1341
sS'ignor'
p1300
I1342
sS'time'
p1301
I1343
sS'matlock'
p1302
I2646
sS'serious'
p1303
I1345
sS'sharpen'
p1304
I3935
sS'backward'
p1305
I1347
sS'women"'
p1306
I3819
sS'"his'
p1307
I1349
sS'exposur'
p1308
I3414
sS'gown'
p1309
I1350
sS'befriend'
p1310
I1126
sS'broke'
p1311
I2902
sS'dispirit'
p1312
I1353
sS'affair'
p1313
I4663
sS'brotherinlaw'
p1314
I1355
sS'rob'
p1315
I1356
sS'celebr'
p1316
I1357
sS'eldest'
p1317
I1359
sS'invent'
p1318
I1360
sS'horseback'
p1319
I1361
sS'finelook'
p1320
I1363
sS'signific'
p1321
I1364
sS'mile'
p1322
I1365
sS'deprav'
p1323
I1367
sS'agoni'
p1324
I4792
sS'chair'
p1325
I1368
sS'chais'
p1326
I1369
sS'bewild'
p1327
I1371
sS'discern'
p1328
I1372
sS'farther"'
p1329
I4444
sS'decid'
p1330
I1373
sS'middl'
p1331
I1374
sS'depend'
p1332
I1375
sS'point\'\'"'
p1333
I1376
sS'mistook'
p1334
I4668
sS'father'
p1335
I1378
sS'pen'
p1336
I1307
sS'vex'
p1337
I1380
sS'formid'
p1338
I1381
sS'elat'
p1339
I2031
sS'slowly"'
p1340
I1383
sS'decis'
p1341
I1384
sS'visitor'
p1342
I4068
sS'turn"'
p1343
I1385
sS'larg'
p1344
I3826
sS'lake'
p1345
I5022
sS'undon'
p1346
I3827
sS'me'
p1347
I230
sS'strangers"'
p1348
I362
sS'extort'
p1349
I5301
sS'illfound'
p1350
I98
sS'42>'
p1351
I1393
sS'child"'
p1352
I1394
sS'laugh"'
p1353
I1890
sS'decamp'
p1354
I1395
sS'merit'
p1355
I2035
sS'condit'
p1356
I1397
sS'cook'
p1357
I946
sS'simper'
p1358
I1366
sS'fullest'
p1359
I1400
sS'blast'
p1360
I1401
sS'exact'
p1361
I1402
sS'[checked*]'
p1362
I1403
sS'teaz'
p1363
I1404
sS'irish'
p1364
I5241
sS"catherine'"
p1365
I1405
sS'inattent'
p1366
I2826
sS'captiv'
p1367
I3635
sS'hour'
p1368
I1406
sS'level'
p1369
I3091
sS'tear'
p1370
I1408
sS'die'
p1371
I1409
sS'poor"'
p1372
I809
sS'_never_'
p1373
I1860
sS'``bingley'
p1374
I1050
sS'married"'
p1375
I1412
sS'p'
p1376
I1413
sS'remainsfor'
p1377
I1414
sS'encroach'
p1378
I1417
sS'quick'
p1379
I1418
sS'introduct'
p1380
I5032
sS'unaccount'
p1381
I1419
sS'gentlewoman'
p1382
I1420
sS'round'
p1383
I1421
sS'upper'
p1384
I1423
sS'wanton'
p1385
I2701
sS'regret'
p1386
I1425
sS'scarciti'
p1387
I1426
sS'creatur'
p1388
I1143
sS'attic'
p1389
I3406
sS'sigh'
p1390
I1429
sS'lacon'
p1391
I1430
sS'hack'
p1392
I2042
sS'compens'
p1393
I1432
sS'sign'
p1394
I1433
sS'____'
p1395
I1434
sS'cost'
p1396
I1435
sS'talker'
p1397
I1436
sS'redress"'
p1398
I1437
sS'unprotect'
p1399
I1438
sS'patient'
p1400
I3836
sS'"mere'
p1401
I1440
sS'hair"'
p1402
I1441
sS'port'
p1403
I1443
sS'precipit'
p1404
I1444
sS'bold'
p1405
I1445
sS'appeas'
p1406
I1447
sS'appear'
p1407
I1448
sS'church'
p1408
I5079
sS'repli'
p1409
I1450
sS'eliza'
p1410
I1451
sS'favour'
p1411
I1452
sS'sharer'
p1412
I1358
sS'delightfully"'
p1413
I1454
sS'bass'
p1414
I3157
sS'health'
p1415
I3145
sS'suspect'
p1416
I1456
sS'pretty"'
p1417
I1457
sS'silly"'
p1418
I1459
sS'nine'
p1419
I2924
sS'52>'
p1420
I1462
sS'appeal'
p1421
I1463
sS'"obstin'
p1422
I1464
sS'indifference"'
p1423
I1465
sS'deris'
p1424
I1466
sS'burn'
p1425
I1468
sS'defici'
p1426
I1469
sS'deriv'
p1427
I1470
sS'gentlemanlik'
p1428
I1472
sS'muslin'
p1429
I1473
sS'guardian'
p1430
I988
sS'clerk'
p1431
I1475
sS'horses"'
p1432
I1600
sS'french'
p1433
I1477
sS'"would'
p1434
I1478
sS'satisfi'
p1435
I1479
sS'"griev'
p1436
I1480
sS'entertain'
p1437
I1481
sS'say"'
p1438
I1483
sS'address'
p1439
I1484
sS'deceit'
p1440
I1485
sS'coincid'
p1441
I1486
sS'involuntarili'
p1442
I1487
sS'_will_'
p1443
I1488
sS'mild'
p1444
I2749
sS'wait'
p1445
I1489
sS'box'
p1446
I1490
sS'boy'
p1447
I1491
sS'heart"'
p1448
I1492
sS'china'
p1449
I1493
sS'mortif'
p1450
I1494
sS'boast'
p1451
I1495
sS'invit'
p1452
I1496
sS'likewise"'
p1453
I1497
sS'shift'
p1454
I1498
sS'rage'
p1455
I4736
sS'12>'
p1456
I4727
sS'chamberlayn'
p1457
I1499
sS'bow'
p1458
I1500
sS'43>'
p1459
I1501
sS'trial'
p1460
I1502
sS'women'
p1461
I4246
sS'"near'
p1462
I604
sS'thirti'
p1463
I1504
sS'healthi'
p1464
I1505
sS'here"'
p1465
I1506
sS'shook'
p1466
I1507
sS'guilti'
p1467
I1508
sS'studier'
p1468
I1509
sS'ourselv'
p1469
I1511
sS'hither'
p1470
I1512
sS'love'
p1471
I1513
sS'humour'
p1472
I1514
sS'rambl'
p1473
I1515
sS'myself"'
p1474
I1517
sS'"mi'
p1475
I1518
sS'prefer'
p1476
I1519
sS'sanctioned"'
p1477
I3756
sS'brighten'
p1478
I4693
sS'"mr'
p1479
I1522
sS'meet"'
p1480
I1523
sS'exasper'
p1481
I1524
sS'lover'
p1482
I4575
sS'visibl'
p1483
I1526
sS'surmount'
p1484
I1528
sS'hyster'
p1485
I3348
sS'compani'
p1486
I2906
sS'peep'
p1487
I1530
sS'market'
p1488
I1531
sS'eccentr'
p1489
I1532
sS'trusted"'
p1490
I634
sS'"with'
p1491
I4876
sS'heaven'
p1492
I2744
sS'fellowcreatur'
p1493
I1534
sS'wealth'
p1494
I1535
sS'memori'
p1495
I1536
sS'sake'
p1496
I1537
sS'univers'
p1497
I1538
sS'visit'
p1498
I1539
sS'abroad'
p1499
I1798
sS'everybodi'
p1500
I1541
sS'live'
p1501
I1542
sS'cucumb'
p1502
I2063
sS'prey'
p1503
I1544
sS'scope'
p1504
I1546
sS'angri'
p1505
I1547
sS'bill'
p1506
I3139
sS'rekindl'
p1507
I1549
sS'repos'
p1508
I1550
sS'today'
p1509
I1551
sS'wicked'
p1510
I1552
sS'dismay'
p1511
I1553
sS'capit'
p1512
I1554
sS'afford'
p1513
I1558
sS'peopl'
p1514
I1559
sS'sparkl'
p1515
I4702
sS'rebuk'
p1516
I1562
sS'refrain'
p1517
I1563
sS'odious'
p1518
I1564
sS'grate'
p1519
I5209
sS'deign'
p1520
I2067
sS'generousheart'
p1521
I1567
sS'examin'
p1522
I1568
sS'ventur'
p1523
I1569
sS'effort'
p1524
I1571
sS'piano'
p1525
I2259
sS'coughs"'
p1526
I1573
sS'peacemak'
p1527
I1574
sS'"carolin'
p1528
I1575
sS'wrong"'
p1529
I1576
sS'means"'
p1530
I1577
sS'unconsci'
p1531
I4045
sS'woodi'
p1532
I1579
sS'14>'
p1533
I4458
sS'_sermons_'
p1534
I1580
sS'local'
p1535
I4705
sS'prepar'
p1536
I1582
sS'pretend'
p1537
I1583
sS'pretenc'
p1538
I501
sS'soul'
p1539
I1585
sS'obstinaci'
p1540
I2070
sS'"john'
p1541
I1516
sS'chronolog'
p1542
I1587
sS'hardest'
p1543
I1588
sS'sour'
p1544
I1589
sS'can'
p1545
I1590
sS'inadequ'
p1546
I1591
sS'plan"'
p1547
I2943
sS'purpos'
p1548
I1594
sS'laughter'
p1549
I1595
sS'materi'
p1550
I3863
sS'slightest'
p1551
I1597
sS'papa"'
p1552
I192
sS'up'
p1553
I3941
sS'``keep'
p1554
I1134
sS'bewitch'
p1555
I1922
sS'lucas"'
p1556
I1601
sS'mine"'
p1557
I5156
sS'stream'
p1558
I1602
sS'diminut'
p1559
I1603
sS'predict'
p1560
I1604
sS'reynold'
p1561
I1606
sS'irreproach'
p1562
I1607
sS'incivil'
p1563
I4696
sS'"true"'
p1564
I1608
sS'topic'
p1565
I1609
sS'heard'
p1566
I1610
sS'23>'
p1567
I1257
sS"_your's_"
p1568
I139
sS'chin'
p1569
I2440
sS'recollect'
p1570
I1614
sS'"tomorrow'
p1571
I1615
sS'unguard'
p1572
I1616
sS'disadvantag'
p1573
I3463
sS'stole'
p1574
I1619
sS'occur'
p1575
I1620
sS'occup'
p1576
I1622
sS'purs'
p1577
I1623
sS'dawdl'
p1578
I4828
sS'winter'
p1579
I1624
sS'unattend'
p1580
I4179
sS'dress'
p1581
I2949
sS'insupport'
p1582
I2076
sS'conquest"'
p1583
I1628
sS'economi'
p1584
I1629
sS'write'
p1585
I1630
sS'till'
p1586
I1631
sS'sunday'
p1587
I1632
sS'"proper'
p1588
I4393
sS'fourth'
p1589
I1634
sS'familiar'
p1590
I4715
sS'militia'
p1591
I3870
sS'product'
p1592
I1638
sS'fortune"'
p1593
I1639
sS'hesit'
p1594
I2923
sS'intrud'
p1595
I1640
sS'bronte"'
p1596
I1641
sS'may'
p1597
I1642
sS'neat'
p1598
I1643
sS'coars'
p1599
I1645
sS'spot'
p1600
I1646
sS'louder'
p1601
I1647
sS'"ah"'
p1602
I1648
sS'34>'
p1603
I1649
sS'mankind'
p1604
I4002
sS'hear"'
p1605
I1651
sS'date'
p1606
I1652
sS'such'
p1607
I1653
sS'"they'
p1608
I4951
sS'ascertain'
p1609
I4745
sS'grow'
p1610
I1656
sS'repeat'
p1611
I5283
sS'man'
p1612
I1657
sS'relinquish'
p1613
I1658
sS'proprieti'
p1614
I1659
sS'stress'
p1615
I1660
sS'unsettl'
p1616
I1662
sS'omen'
p1617
I1206
sS'highroad'
p1618
I1664
sS'conscious'
p1619
I1665
sS'misrepres'
p1620
I1666
sS'secur'
p1621
I2957
sS'favorit'
p1622
I1669
sS'st'
p1623
I1670
sS'inform'
p1624
I1671
sS'jane"'
p1625
I4762
sS'preced'
p1626
I1672
sS'so'
p1627
I1673
sS'practis'
p1628
I1674
sS'reconcili'
p1629
I3960
sS'anoth'
p1630
I2959
sS'offend'
p1631
I1675
sS'battl'
p1632
I1626
sS'acknowledge"'
p1633
I1416
sS'talk'
p1634
I1679
sS'offenc'
p1635
I1680
sS'_meant_'
p1636
I1681
sS'cruel"'
p1637
I1682
sS'sonnet'
p1638
I1683
sS'exceedingly"'
p1639
I1684
sS'ender'
p1640
I1685
sS'gradual'
p1641
I1686
sS'forfeit'
p1642
I1687
sS'approv'
p1643
I1688
sS'no"'
p1644
I1689
sS'"which'
p1645
I1690
sS'increas'
p1646
I4722
sS'stile'
p1647
I1692
sS'genteel'
p1648
I1693
sS'view"'
p1649
I1694
sS'shake'
p1650
I1695
sS'approb'
p1651
I1696
sS'entitl'
p1652
I1697
sS'still'
p1653
I1698
sS'imagine"'
p1654
I2087
sS'months"'
p1655
I1700
sS'group'
p1656
I1701
sS'thank'
p1657
I1702
sS'did"'
p1658
I1703
sS'polici'
p1659
I1704
sS'passag'
p1660
I1705
sS'sixpenc'
p1661
I4845
sS'felicit'
p1662
I1708
sS'window'
p1663
I1709
sS'master"'
p1664
I5292
sS'suspicion'
p1665
I1711
sS'haughti'
p1666
I1712
sS'eastbourn'
p1667
I1713
sS'blowsy"'
p1668
I1714
sS'mediocr'
p1669
I1715
sS'into'
p1670
I3884
sS'confin'
p1671
I1718
sS'dispens'
p1672
I2627
sS'recal'
p1673
I1722
sS'estat'
p1674
I2140
sS'ungraci'
p1675
I1725
sS'frequent"'
p1676
I1726
sS'jame'
p1677
I954
sS'spirits"'
p1678
I1728
sS'sooner'
p1679
I1729
sS'disoblig'
p1680
I1730
sS'interview'
p1681
I964
sS'removal"'
p1682
I1732
sS'conquer'
p1683
I1733
sS'neighbourhood"'
p1684
I1734
sS'therebi'
p1685
I1735
sS'gate'
p1686
I466
sS'not'
p1687
I1737
sS'anecdot'
p1688
I1738
sS'nov'
p1689
I1332
sS'now'
p1690
I1740
sS'discuss'
p1691
I1741
sS'nor'
p1692
I1742
sS'possess'
p1693
I1743
sS'concerto'
p1694
I1744
sS'term'
p1695
I1745
sS'_out_'
p1696
I4632
sS'name'
p1697
I1747
sS'feverish'
p1698
I1748
sS'creativ'
p1699
I1749
sS'servant'
p1700
I1750
sS'stir'
p1701
I2970
sS'revers'
p1702
I1753
sS'oliv'
p1703
I1754
sS'47'
p1704
I5268
sS'_you_'
p1705
I1755
sS'manoeuvr'
p1706
I2971
sS'separ'
p1707
I1757
sS'talking"'
p1708
I4734
sS'exampl'
p1709
I4980
sS'careless'
p1710
I1759
sS'_then_"'
p1711
I1761
sS'_him_'
p1712
I1762
sS'overtur'
p1713
I1763
sS'januari'
p1714
I1764
sS'aware"'
p1715
I1765
sS'confid'
p1716
I1095
sS'soon"'
p1717
I1767
sS'trouble"'
p1718
I379
sS'presenc'
p1719
I4881
sS'last'
p1720
I4889
sS'domain'
p1721
I1770
sS'advantage"'
p1722
I1773
sS'apothecari'
p1723
I1774
sS'individu'
p1724
I1775
sS'receipt'
p1725
I1776
sS'continu'
p1726
I1777
sS'small"'
p1727
I1778
sS'shewn'
p1728
I1779
sS'begun'
p1729
I1780
sS'year'
p1730
I1781
sS'aloof'
p1731
I1782
sS'halfhour'
p1732
I1783
sS'girl'
p1733
I1784
sS'dispos'
p1734
I1785
sS'patroness"'
p1735
I1786
sS'neighbourhood'
p1736
I1787
sS'agit'
p1737
I1788
sS'disguise"'
p1738
I1789
sS'accomplish'
p1739
I1790
sS'rude'
p1740
I2976
sS'space'
p1741
I1792
sS'profit'
p1742
I1793
sS'could"'
p1743
I1794
sS'uncompanion'
p1744
I1795
sS'yes"'
p1745
I1797
sS'giddi'
p1746
I1799
sS'lad'
p1747
I754
sS'boundless'
p1748
I1801
sS'stupid'
p1749
I2100
sS'discourag'
p1750
I4514
sS'kent'
p1751
I1804
sS'internet'
p1752
I1805
sS'housemaid'
p1753
I53
sS'bless'
p1754
I3096
sS'correct'
p1755
I1809
sS'hastili'
p1756
I1305
sS'favourites"'
p1757
I4636
sS'lag'
p1758
I1044
sS'officious"'
p1759
I1813
sS'glimps'
p1760
I1814
sS'emptyhead'
p1761
I3231
sS'superl'
p1762
I4772
sS'_we_'
p1763
I121
sS'_our_'
p1764
I125
sS'carv'
p1765
I128
sS'argu'
p1766
I1819
sS'substanc'
p1767
I1820
sS'disrespect'
p1768
I1821
sS'misdat'
p1769
I1824
sS'romant'
p1770
I1825
sS'existed"'
p1771
I1826
sS'cough'
p1772
I1827
sS'"must'
p1773
I1828
sS'card'
p1774
I1830
sS'halflaugh'
p1775
I204
sS'chose'
p1776
I4150
sS'departur'
p1777
I1832
sS'unwil'
p1778
I1833
sS'waiter'
p1779
I1835
sS'refut'
p1780
I2103
sS'"_wished_'
p1781
I1838
sS'fonder'
p1782
I1839
sS'exuber'
p1783
I267
sS'british'
p1784
I272
sS'honest'
p1785
I1842
sS'motion'
p1786
I280
sS'thing'
p1787
I284
sS'place'
p1788
I1845
sS'se\'nnight"'
p1789
I1847
sS'refug'
p1790
I1848
sS'profess'
p1791
I1849
sS'neglect'
p1792
I330
sS'frequent'
p1793
I1851
sS'first'
p1794
I1852
sS'origin'
p1795
I344
sS'suspend'
p1796
I355
sS'suspenc'
p1797
I1856
sS'err'
p1798
I1857
sS'unrestrain'
p1799
I3749
sS'carri'
p1800
I373
sS'onc'
p1801
I376
sS'untitl'
p1802
I1861
sS'croud'
p1803
I1862
sS'irremedi'
p1804
I393
sS'housekeep'
p1805
I1864
sS'one'
p1806
I400
sS'acquisit'
p1807
I1866
sS'xx'
p1808
I1867
sS'eye"'
p1809
I418
sS'suspens'
p1810
I1869
sS'fast'
p1811
I1870
sS'symmetri'
p1812
I1871
sS'spanish'
p1813
I432
sS'oppos'
p1814
I1873
sS'ring'
p1815
I1874
sS'drove'
p1816
I1875
sS'xv'
p1817
I1020
sS'intermarriag'
p1818
I457
sS'families"'
p1819
I4473
sS'yourselv'
p1820
I463
sS'disinterested'
p1821
I1880
sS'gig'
p1822
I1881
sS'given'
p1823
I1882
sS'thoughtless'
p1824
I1883
sS'breviti'
p1825
I477
sS'silent'
p1826
I1885
sS'bounti'
p1827
I1886
sS'delicaci'
p1828
I1887
sS'bite'
p1829
I504
sS'breed'
p1830
I508
sS'up"'
p1831
I1195
sS'_some_'
p1832
I1891
sS'citi'
p1833
I1892
sS'silenc'
p1834
I1893
sS'2'
p1835
I541
sS'circl'
p1836
I1895
sS'scarborough'
p1837
I1256
sS'conveni'
p1838
I1897
sS'"colonel'
p1839
I1898
sS'friend'
p1840
I1899
sS'editor'
p1841
I3904
sS'larder'
p1842
I1901
sS'"let'
p1843
I1902
sS'much"'
p1844
I1903
sS'hug'
p1845
I611
sS'repugn'
p1846
I4549
sS'especi'
p1847
I630
sS'on"'
p1848
I1906
sS'season'
p1849
I1907
sS'public'
p1850
I2804
sS'spoken'
p1851
I1859
sS'undertaken'
p1852
I4985
sS'sensibility"'
p1853
I3610
sS'gaudi'
p1854
I660
sS'"believ'
p1855
I666
sS'darcy\'s"'
p1856
I1912
sS'hope'
p1857
I4707
sS'repaid"'
p1858
I1913
sS'hayepark'
p1859
I1914
sS'heiress'
p1860
I5233
sS'spoilt'
p1861
I1916
sS'"poor'
p1862
I4760
sS'than'
p1863
I1917
sS'rosings"'
p1864
I3180
sS'serv'
p1865
I1919
sS'wide'
p1866
I1920
sS'13'
p1867
I1102
sS'return"'
p1868
I728
sS'15'
p1869
I2732
sS'overtaken'
p1870
I252
sS'17'
p1871
I1925
sS'16'
p1872
I1926
sS'19'
p1873
I1927
sS'rival'
p1874
I750
sS'expens'
p1875
I3695
sS'imput'
p1876
I4587
sS'1>'
p1877
I1929
sS'purport'
p1878
I3050
sS'posit'
p1879
I1933
sS'1923'
p1880
I2117
sS'remors'
p1881
I1931
sS'importance"'
p1882
I4559
sS'were'
p1883
I1932
sS'ungovern'
p1884
I380
sS'extinguish'
p1885
I1934
sS'folli'
p1886
I1935
sS'"pride"'
p1887
I1936
sS'immov'
p1888
I1937
sS'prospect'
p1889
I843
sS'lowest'
p1890
I2352
sS'expostul'
p1891
I851
sS'angel'
p1892
I1941
sS'look'
p1893
I1942
sS'revolt'
p1894
I3632
sS'ann'
p1895
I1944
sS'hearer'
p1896
I1945
sS'winter"'
p1897
I1946
sS'ani'
p1898
I894
sS'sad'
p1899
I1948
sS'amiabl'
p1900
I4408
sS'say'
p1901
I1950
sS'gratitude"'
p1902
I948
sS'coming"'
p1903
I1952
sS'deliv'
p1904
I1953
sS'anger'
p1905
I2880
sS'won'
p1906
I4699
sS'breakfast'
p1907
I1955
sS'exclud'
p1908
I1956
sS'saw'
p1909
I1957
sS'polluted"'
p1910
I1959
sS'sat'
p1911
I1960
sS'coach'
p1912
I1351
sS'pedant'
p1913
I2753
sS'doorbel'
p1914
I1962
sS'[category*]'
p1915
I1963
sS'advic'
p1916
I1964
sS'wink'
p1917
I1965
sS'moreov'
p1918
I1966
sS'solac'
p1919
I1967
sS'forbor'
p1920
I1968
sS'note'
p1921
I1970
sS'altogeth'
p1922
I1971
sS'denomin'
p1923
I1973
sS'proud"'
p1924
I4568
sS'take'
p1925
I1974
sS'advis'
p1926
I1975
sS'"where'
p1927
I5142
sS'destroy'
p1928
I1976
sS'wonder'
p1929
I2126
sS'heal'
p1930
I328
sS'charming"'
p1931
I1979
sS'assidu'
p1932
I1099
sS'propriety"'
p1933
I1981
sS'closer'
p1934
I4771
sS'begin'
p1935
I1983
sS'sure'
p1936
I1984
sS'pain'
p1937
I1121
sS'unalloy'
p1938
I1986
sS'trace'
p1939
I1987
sS'scotland"'
p1940
I1988
sS'_begin_'
p1941
I4018
sS'price'
p1942
I1990
sS'knew'
p1943
I1991
sS'clearer'
p1944
I1992
sS'threadbar'
p1945
I1158
sS'20>'
p1946
I1994
sS'impossible"'
p1947
I1995
sS'aloud'
p1948
I1039
sS'reperus'
p1949
I1997
sS'abus'
p1950
I1998
sS'plainer'
p1951
I1999
sS'pair'
p1952
I2000
sS'knee'
p1953
I2001
sS'soninlaw"'
p1954
I2002
sS'figure"'
p1955
I4776
sS'heinous'
p1956
I2006
sS'annum'
p1957
I2007
sS'allevi'
p1958
I2008
sS'pathet'
p1959
I1923
sS'rescu'
p1960
I2010
sS'acceptable"'
p1961
I1264
sS'adopt'
p1962
I1272
sS'drive'
p1963
I2013
sS'quantiti'
p1964
I1284
sS'"were'
p1965
I2015
sS'meanwhil'
p1966
I2016
sS'alone"'
p1967
I1298
sS'killed"'
p1968
I2018
sS'still"'
p1969
I2019
sS'not"'
p1970
I2020
sS'"perfect'
p1971
I1325
sS'senior'
p1972
I2022
sS'stronglymark'
p1973
I2023
sS'steadi'
p1974
I2024
sS'annesley'
p1975
I2025
sS'contribut'
p1976
I4711
sS'outdon'
p1977
I2026
sS'shop'
p1978
I2027
sS'"except"'
p1979
I2028
sS'_present_'
p1980
I2029
sS'unpardon'
p1981
I2030
sS'cheat'
p1982
I1382
sS'ornament'
p1983
I2136
sS'cheap'
p1984
I2033
sS'"exceed'
p1985
I2034
sS'_sentiment_'
p1986
I1396
sS'unjustifi'
p1987
I2036
sS'trespass'
p1988
I2037
sS'bright'
p1989
I2038
sS'concurr'
p1990
I1415
sS'shoe'
p1991
I2040
sS'permiss'
p1992
I2041
sS'handwrit'
p1993
I1431
sS'corner'
p1994
I2044
sS'"doe'
p1995
I2045
sS'unweari'
p1996
I2046
sS'pride"'
p1997
I2047
sS'fifti'
p1998
I847
sS'joke"'
p1999
I2049
sS'onli'
p2000
I2050
sS'slow'
p2001
I3322
sS'unkind'
p2002
I2052
sS'stair'
p2003
I2053
sS'genius'
p2004
I4784
sS'"seem'
p2005
I2056
sS'bourgh"'
p2006
I2057
sS'pant'
p2007
I3019
sS'proportion'
p2008
I435
sS'enough'
p2009
I2060
sS'*******************************************************************************'
p2010
I4550
sS'reel"'
p2011
I2061
sS'staid'
p2012
I1533
sS'wood'
p2013
I1543
sS'black'
p2014
I2064
sS'muffin'
p2015
I2066
sS'uppermost'
p2016
I1908
sS'complexion'
p2017
I2141
sS'regimentals"'
p2018
I2069
sS'offici'
p2019
I1720
sS'"was'
p2020
I2072
sS'get'
p2021
I1627
sS'vingtun'
p2022
I2077
sS'bestow'
p2023
I2832
sS'duel'
p2024
I2078
sS'nobl'
p2025
I2079
sS'cannot'
p2026
I2082
sS'slyness'
p2027
I2083
sS'army"'
p2028
I3025
sS'creditably"'
p2029
I2084
sS'progress'
p2030
I4788
sS'requit'
p2031
I3777
sS'querul'
p2032
I1699
sS'derbyshir'
p2033
I3026
sS'sally/sarah'
p2034
I3316
sS'requir'
p2035
I2090
sS'truli'
p2036
I2091
sS'perus'
p2037
I2092
sS'reveal'
p2038
I2093
sS'held'
p2039
I3027
sS'command'
p2040
I4981
sS'seldom'
p2041
I2094
sS'vouchsaf'
p2042
I2095
sS'borrow'
p2043
I2097
sS'yield'
p2044
I2098
sS'expedi'
p2045
I2099
sS'twelv'
p2046
I1802
sS'nettl'
p2047
I1807
sS'aris'
p2048
I4069
sS'landlord'
p2049
I2102
sS'fainter'
p2050
I1822
sS'privileg'
p2051
I1244
sS'hoped"'
p2052
I2105
sS'friends"'
p2053
I2106
sS'"how'
p2054
I1836
sS'husband'
p2055
I2108
sS'mess'
p2056
I2109
sS'"come'
p2057
I2111
sS'halfwhisp'
p2058
I3955
sS'conscienc'
p2059
I2113
sS'bye"'
p2060
I2114
sS'seat'
p2061
I2115
sS'dreadful"'
p2062
I2116
sS'unfit'
p2063
I1930
sS'asleep'
p2064
I2118
sS'"far'
p2065
I2119
sS'markettown'
p2066
I2120
sS'impuls'
p2067
I4141
sS'reserv'
p2068
I2121
sS'criticis'
p2069
I4795
sS'sport'
p2070
I2883
sS'"it'
p2071
I3034
sS'howsoev'
p2072
I2125
sS'concern'
p2073
I1977
sS'infinit'
p2074
I2127
sS'``oh'
p2075
I2128
sS'detect'
p2076
I2130
sS'patron"'
p2077
I2005
sS'steadfast'
p2078
I2133
sS'lydia"'
p2079
I4678
sS'review'
p2080
I2135
sS'enumer'
p2081
I2032
sS'caroline"'
p2082
I3945
sS'come"'
p2083
I3000
sS'charlotte"'
p2084
I2138
sS'man"'
p2085
I888
sS'volatil'
p2086
I2068
sS'voluntari'
p2087
I2142
sS'between'
p2088
I2144
sS'teath'
p2089
I4754
sS'import'
p2090
I2146
sS'reproof"'
p2091
I2147
sS'across'
p2092
I2148
sS'ought'
p2093
I5034
sS'_to_'
p2094
I2150
sS'noisi'
p2095
I5125
sS'doing"'
p2096
I2151
sS'gould'
p2097
I357
sS'parent'
p2098
I2153
sS'25'
p2099
I3040
sS'fearless'
p2100
I1125
sS'screen'
p2101
I2155
sS'prior'
p2102
I2835
sS'_them_'
p2103
I4820
sS'style'
p2104
I3041
sS'inflex'
p2105
I2158
sS'blame'
p2106
I2159
sS'adept'
p2107
I2160
sS'farth'
p2108
I2161
sS'personag'
p2109
I2162
sS'spare'
p2110
I2163
sS'tacit'
p2111
I2164
sS'_their_'
p2112
I2165
sS'come'
p2113
I2166
sS'tue'
p2114
I4079
sS'abomin'
p2115
I2168
sS'able"'
p2116
I2169
sS'west"'
p2117
I2170
sS'repine"'
p2118
I2172
sS'"indeed"'
p2119
I2938
sS'his"'
p2120
I2175
sS'"say'
p2121
I2177
sS'gamester"'
p2122
I1710
sS'contract'
p2123
I2179
sS'retir'
p2124
I2180
sS'tour'
p2125
I1147
sS'inconsist'
p2126
I2182
sS'hunsford"'
p2127
I2183
sS'whimsic'
p2128
I2184
sS"last'"
p2129
I4329
sS'mani'
p2130
I2186
sS'prettiest'
p2131
I2154
sS'"for'
p2132
I2187
sS'importun'
p2133
I2189
sS'comer'
p2134
I2190
sS'among'
p2135
I2191
sS'hasti'
p2136
I1996
sS'parsonagehous'
p2137
I2193
sS'derang'
p2138
I2824
sS'within'
p2139
I3885
sS'michaelma'
p2140
I2196
sS'inspir'
p2141
I2197
sS'unmov'
p2142
I2198
sS'period'
p2143
I2199
sS'dispatch'
p2144
I2200
sS'bosom'
p2145
I3052
sS'exagger'
p2146
I2202
sS'want"'
p2147
I2203
sS'featur'
p2148
I2204
sS'luckless'
p2149
I2205
sS'confirm'
p2150
I4030
sS'laudabl'
p2151
I2206
sS'disput'
p2152
I4805
sS'sentinel'
p2153
I2207
sS'_have_'
p2154
I2208
sS'exclam'
p2155
I2209
sS'6>'
p2156
I2210
sS'sympathis'
p2157
I2212
sS'ultim'
p2158
I2213
sS'seiz'
p2159
I2214
sS'fallen'
p2160
I3197
sS'coupl'
p2161
I2215
sS'apologise"'
p2162
I2216
sS'stretch'
p2163
I2217
sS'waitingwoman'
p2164
I4706
sS'[titleprid'
p2165
I2219
sS'offic'
p2166
I2220
sS'unseldom'
p2167
I4178
sS'mark'
p2168
I2221
sS'breath'
p2169
I2222
sS'overjoy'
p2170
I2223
sS'waterpl'
p2171
I4603
sS'bingley"'
p2172
I4809
sS'ralli'
p2173
I2224
sS'variance"'
p2174
I2225
sS'"hate'
p2175
I2226
sS'avow'
p2176
I4794
sS'kitty"'
p2177
I2227
sS'accuraci'
p2178
I4608
sS'vers'
p2179
I2722
sS'"some'
p2180
I4310
sS'selfdeni'
p2181
I2229
sS'derbyshire"'
p2182
I3962
sS'thousand'
p2183
I2231
sS'resolut'
p2184
I2232
sS'consider"'
p2185
I2233
sS'exclaim'
p2186
I4811
sS'``ah'
p2187
I2134
sS'nobler'
p2188
I2236
sS'transact'
p2189
I2237
sS'wake'
p2190
I2238
sS'_good_'
p2191
I2240
sS'"who'
p2192
I2241
sS'impati'
p2193
I2242
sS'clamor'
p2194
I1578
sS'those'
p2195
I2244
sS'case'
p2196
I2245
sS'myself'
p2197
I2246
sS'execution"'
p2198
I4529
sS'these'
p2199
I1961
sS'mount'
p2200
I2250
sS'trick'
p2201
I2251
sS'cast'
p2202
I2252
sS'art"'
p2203
I2253
sS'coquetri'
p2204
I2254
sS'life"'
p2205
I2255
sS'care"'
p2206
I927
sS'joke'
p2207
I4816
sS'anxieti'
p2208
I3638
sS'exist'
p2209
I2258
sS'finer'
p2210
I3063
sS'sopha'
p2211
I2262
sS'person"'
p2212
I2264
sS'#20000'
p2213
I691
sS'advantag'
p2214
I2266
sS'fare'
p2215
I4315
sS'"dine'
p2216
I2267
sS'brow'
p2217
I2268
sS'henc'
p2218
I2269
sS'hermitage"'
p2219
I473
sS'exult'
p2220
I3641
sS'quiet'
p2221
I2178
sS'cluster'
p2222
I2272
sS'sudden'
p2223
I2273
sS'warehous'
p2224
I2274
sS'bred'
p2225
I4646
sS'"_you_'
p2226
I5136
sS'llzzi'
p2227
I1334
sS'verac'
p2228
I2278
sS'pursu'
p2229
I2280
sS'fame'
p2230
I2281
sS'volubl'
p2231
I4818
sS'northward'
p2232
I2283
sS'widow'
p2233
I4796
sS'develop'
p2234
I2285
sS'harsh'
p2235
I2286
sS'author'
p2236
I2287
sS'pay'
p2237
I2288
sS'fender'
p2238
I3012
sS'bowl'
p2239
I3021
sS'audienc'
p2240
I2181
sS'same'
p2241
I2293
sS'fellows"'
p2242
I1840
sS'instanc'
p2243
I2295
sS'speech'
p2244
I2296
sS'fortnight"'
p2245
I2297
sS'hackneycoach'
p2246
I2376
sS'admir'
p2247
I4822
sS'medit'
p2248
I2300
sS'foxhound'
p2249
I2301
sS'week'
p2250
I2302
sS'exhaust'
p2251
I2303
sS'persona'
p2252
I2304
sS'closest'
p2253
I2306
sS'it"'
p2254
I3072
sS'confidenti'
p2255
I269
sS'illwil'
p2256
I2309
sS'companion'
p2257
I2311
sS'driven'
p2258
I2312
sS'capabl'
p2259
I2313
sS'petticoat'
p2260
I2314
sS'disguis'
p2261
I2315
sS'"safe'
p2262
I2316
sS'_is_'
p2263
I2317
sS'improv'
p2264
I2318
sS'ragout'
p2265
I2319
sS'been"'
p2266
I2320
sS'postpon'
p2267
I1015
sS'"implac'
p2268
I2322
sS'spend'
p2269
I3702
sS'"while'
p2270
I4492
sS'handsom'
p2271
I2324
sS'acquaintance"'
p2272
I2325
sS'moder'
p2273
I2326
sS'reliev'
p2274
I2327
sS'choos'
p2275
I4983
sS'vacant'
p2276
I2329
sS'event"'
p2277
I3289
sS'"dear'
p2278
I2331
sS'commonest'
p2279
I2332
sS'scrupl'
p2280
I1155
sS'demean'
p2281
I2334
sS'relief'
p2282
I2335
sS'temptat'
p2283
I2336
sS'11'
p2284
I3513
sS'model'
p2285
I2339
sS'reward'
p2286
I2340
sS'vacanc'
p2287
I2341
sS'else"'
p2288
I3226
sS'certain"'
p2289
I2256
sS'summer'
p2290
I2343
sS'vexat'
p2291
I2345
sS'officers"'
p2292
I2346
sS'violenc'
p2293
I684
sS'execut'
p2294
I2348
sS'gaieti'
p2295
I2349
sS'21>'
p2296
I2350
sS'when'
p2297
I2351
sS'"true'
p2298
I2149
sS'disconcert'
p2299
I2354
sS'despond'
p2300
I2192
sS'rest'
p2301
I2356
sS'require"'
p2302
I3092
sS'got'
p2303
I4152
sS'foot'
p2304
I3079
sS'violent'
p2305
I2359
sS'kill'
p2306
I2361
sS'affabl'
p2307
I2362
sS'aspect'
p2308
I2363
sS'abrupt'
p2309
I2364
sS'touch'
p2310
I2365
sS'polish'
p2311
I2366
sS'satin'
p2312
I2367
sS'fortunate"'
p2313
I2368
sS'57>'
p2314
I2369
sS'blow'
p2315
I2370
sS'indulg'
p2316
I2371
sS'te^tea`te^t'
p2317
I2373
sS'possible"'
p2318
I2374
sS'plagu'
p2319
I2375
sS"_her's_"
p2320
I1808
sS'hint'
p2321
I2377
sS'sportiv'
p2322
I2378
sS'rose'
p2323
I2379
sS'scamper'
p2324
I2380
sS'except'
p2325
I2381
sS'littl'
p2326
I2382
sS'instrument'
p2327
I2383
sS'pemberley"'
p2328
I2384
sS'pile'
p2329
I2385
sS'treatment'
p2330
I2386
sS'strange"'
p2331
I1655
sS'overthrow'
p2332
I2388
sS'orders"'
p2333
I3990
sS'struck'
p2334
I2389
sS'heavier'
p2335
I2390
sS'either"'
p2336
I2391
sS'breeding"'
p2337
I2392
sS'embarrassed"'
p2338
I2393
sS'earli'
p2339
I1391
sS'supposit'
p2340
I2395
sS'rejoic'
p2341
I2396
sS'around'
p2342
I2397
sS'"certainly"'
p2343
I2759
sS'illnatur'
p2344
I303
sS'read'
p2345
I2400
sS'rejoin'
p2346
I2194
sS'ladi'
p2347
I2403
sS'inexpress'
p2348
I2404
sS'wife"'
p2349
I2405
sS'dart'
p2350
I2406
sS'dark'
p2351
I2407
sS'earnest'
p2352
I2408
sS'motherinlaw'
p2353
I2409
sS'mon'
p2354
I15
sS'awok'
p2355
I2411
sS'darl'
p2356
I3710
sS'world'
p2357
I2413
sS'perfectly"'
p2358
I2414
sS'reap'
p2359
I2415
sS'unwilling'
p2360
I2201
sS'dare'
p2361
I2417
sS'astonished"'
p2362
I2418
sS'duti'
p2363
I2419
sS'written"'
p2364
I5076
sS'benefic'
p2365
I2420
sS'stranger'
p2366
I2421
sS'voluntarili'
p2367
I2422
sS'bracelet'
p2368
I2424
sS'engross'
p2369
I2426
sS'chamber'
p2370
I2427
sS'benefit'
p2371
I2428
sS'either'
p2372
I2429
sS'woman"'
p2373
I2430
sS'view'
p2374
I4748
sS'xviii'
p2375
I2432
sS'manag'
p2376
I2433
sS'incess'
p2377
I4839
sS'credit"'
p2378
I2434
sS'falsehood'
p2379
I2435
sS'sleepless'
p2380
I2436
sS'laugh'
p2381
I4840
sS'afflict'
p2382
I2438
sS'done"'
p2383
I2441
sS'ascend'
p2384
I2442
sS'matur'
p2385
I2443
sS'dole'
p2386
I2444
sS'"depend'
p2387
I2445
sS'cancel'
p2388
I2446
sS'satisfactori'
p2389
I2447
sS'london"'
p2390
I2448
sS'hurst'
p2391
I2449
sS'respect'
p2392
I4843
sS"'s"
p2393
I2452
sS'constitut'
p2394
I2453
sS'"dearest'
p2395
I2454
sS'spasm'
p2396
I2455
sS'gross'
p2397
I2457
sS'"but'
p2398
I5051
sS'conceal"'
p2399
I1520
sS'theirs"'
p2400
I2459
sS'stopt'
p2401
I2460
sS'noon'
p2402
I740
sS'unluckili'
p2403
I2462
sS'definit'
p2404
I2463
sS'achiev'
p2405
I3098
sS'legal'
p2406
I2465
sS'withdrawn'
p2407
I4846
sS'"much'
p2408
I2467
sS'throat'
p2409
I4593
sS'reading"'
p2410
I2468
sS'[abstract*]'
p2411
I2471
sS'content'
p2412
I2700
sS'equipag'
p2413
I1557
sS'grantley'
p2414
I1449
sS'uneasi'
p2415
I2475
sS'compris'
p2416
I3102
sS'power'
p2417
I2477
sS'epsom'
p2418
I2478
sS'halffinish'
p2419
I2479
sS'sixth'
p2420
I2480
sS'_any_"'
p2421
I2481
sS'37>'
p2422
I1184
sS'think"'
p2423
I2451
sS'sprung'
p2424
I2484
sS'broken'
p2425
I2486
sS'wive'
p2426
I3338
sS'dictatori'
p2427
I2487
sS'found'
p2428
I3105
sS'"compar'
p2429
I2489
sS'handsomest'
p2430
I2490
sS'throw'
p2431
I2491
sS'earlier'
p2432
I2492
sS'brighton'
p2433
I2493
sS'on'
p2434
I2494
sS'stone'
p2435
I2495
sS'pleased"'
p2436
I2496
sS'insignific'
p2437
I1796
sS'_his_'
p2438
I2498
sS'surpass'
p2439
I5005
sS'ach'
p2440
I2500
sS'greater'
p2441
I4389
sS'these"'
p2442
I4933
sS'such"'
p2443
I2502
sS'out"'
p2444
I2503
sS'journey'
p2445
I2504
sS'stand'
p2446
I2506
sS'without"'
p2447
I2507
sS'act'
p2448
I2508
sS'industri'
p2449
I2509
sS'narrowmind'
p2450
I1510
sS'or'
p2451
I2511
sS'road'
p2452
I2512
sS'vi'
p2453
I4919
sS'stratagem'
p2454
I2513
sS'liveli'
p2455
I4369
sS'seen"'
p2456
I2062
sS'collins'
p2457
I4576
sS'pleasantri'
p2458
I2518
sS'charles"'
p2459
I2519
sS'mari'
p2460
I2520
sS'jenkinson'
p2461
I2521
sS'morning"'
p2462
I2522
sS'indol'
p2463
I2523
sS'shock'
p2464
I4092
sS'nurs'
p2465
I2528
sS'"beyond'
p2466
I2529
sS'your'
p2467
I2530
sS'stare'
p2468
I2531
sS'50>'
p2469
I2532
sS'death'
p2470
I4641
sS'satisfied"'
p2471
I2533
sS'complianc'
p2472
I2534
sS'her'
p2473
I2535
sS'lify436@utxvmsccutexasedu'
p2474
I4863
sS'unbend'
p2475
I5095
sS'percept'
p2476
I1972
sS'loo'
p2477
I2538
sS'"_i_'
p2478
I4017
sS'unab'
p2479
I2540
sS'strict'
p2480
I916
sS'starv'
p2481
I2542
sS'selfsuffici'
p2482
I4637
sS'low'
p2483
I291
sS'lot'
p2484
I2545
sS'colder'
p2485
I3119
sS'hem'
p2486
I2547
sS'premis'
p2487
I2548
sS'valley'
p2488
I2549
sS'"so'
p2489
I5253
sS'fish'
p2490
I3120
sS'unal'
p2491
I2290
sS'premedit'
p2492
I2552
sS'bottl'
p2493
I2553
sS'hard'
p2494
I3121
sS'mischief'
p2495
I2555
sS'`abov'
p2496
I4997
sS'witty"'
p2497
I2556
sS'cultiv'
p2498
I2557
sS'postillion'
p2499
I5256
sS'conclud'
p2500
I2558
sS'heretofor'
p2501
I158
sS'you"'
p2502
I2560
sS'amongst'
p2503
I2561
sS'land"'
p2504
I2562
sS'wild"'
p2505
I2563
sS'mischiev'
p2506
I2564
sS'strenuous'
p2507
I2565
sS'eloqu'
p2508
I4869
sS'inoffens'
p2509
I4023
sS'realli'
p2510
I3123
sS'with'
p2511
I2569
sS'sermons"'
p2512
I3042
sS'congratul'
p2513
I2570
sS'coppicewood'
p2514
I2571
sS'heavi'
p2515
I3124
sS'_been_'
p2516
I2527
sS'curtail'
p2517
I4014
sS'are"'
p2518
I2576
sS'dirti'
p2519
I2577
sS'impenetr'
p2520
I2578
sS'possibl'
p2521
I2579
sS'default'
p2522
I2580
sS'_own_'
p2523
I2581
sS'nearest'
p2524
I2582
sS'unusu'
p2525
I2583
sS'choice"'
p2526
I4873
sS'survivor"'
p2527
I1613
sS'grasp'
p2528
I2586
sS'affection'
p2529
I2588
sS'expect'
p2530
I3127
sS'_advantages_'
p2531
I2590
sS'gone'
p2532
I2591
sS'money'
p2533
I3403
sS'ad'
p2534
I2593
sS'creat'
p2535
I2594
sS'pleasant"'
p2536
I5094
sS'frighten'
p2537
I268
sS'60>'
p2538
I2597
sS'fugit'
p2539
I279
sS'deep'
p2540
I2599
sS'nerv'
p2541
I2600
sS'felic'
p2542
I2601
sS'undergon'
p2543
I1621
sS'deem'
p2544
I2604
sS'hurst"'
p2545
I2605
sS'at'
p2546
I2606
sS'file'
p2547
I2607
sS'generat'
p2548
I2608
sS'shut'
p2549
I4468
sS'"both"'
p2550
I2609
sS'tranquil'
p2551
I2610
sS'duration"'
p2552
I1025
sS'picturesqu'
p2553
I2851
sS'understand"'
p2554
I3313
sS'unassuming"'
p2555
I530
sS'tedious'
p2556
I2613
sS'again'
p2557
I2614
sS'commiss'
p2558
I1080
sS'sanguin'
p2559
I2620
sS'performers"'
p2560
I2621
sS'insincer'
p2561
I1422
sS'field'
p2562
I2623
sS'valid'
p2563
I2167
sS'5'
p2564
I2626
sS'call"'
p2565
I2628
sS'you'
p2566
I2629
sS'_are_'
p2567
I2632
sS'poor'
p2568
I2633
sS'covi'
p2569
I2634
sS'discours'
p2570
I2635
sS'genuin'
p2571
I2637
sS'walk"'
p2572
I2638
sS'annex'
p2573
I2639
sS'shelter'
p2574
I249
sS'suscept'
p2575
I2641
sS'_eyes_'
p2576
I2642
sS'teeth'
p2577
I1545
sS'prudenc'
p2578
I2644
sS'_we_"'
p2579
I1055
sS'48>'
p2580
I1878
sS'briefli'
p2581
I2647
sS'recent'
p2582
I3677
sS'peak'
p2583
I2648
sS'increases"'
p2584
I3780
sS'barouch'
p2585
I2651
sS'emphat'
p2586
I2235
sS'peac'
p2587
I2653
sS'pool'
p2588
I2654
sS'_eldest_'
p2589
I2655
sS'reduc'
p2590
I2656
sS'philosoph'
p2591
I1661
sS'_three_'
p2592
I2658
sS'evening"'
p2593
I2659
sS'wife'
p2594
I2660
sS'unwelcome"'
p2595
I2661
sS'uglier'
p2596
I2662
sS'even"'
p2597
I3162
sS'descript'
p2598
I2663
sS'vexati'
p2599
I2664
sS'_very_'
p2600
I2665
sS'library"'
p2601
I2666
sS'lovemak'
p2602
I2667
sS'daili'
p2603
I2668
sS'smirk'
p2604
I2669
sS'apparel'
p2605
I2670
sS'escap'
p2606
I2671
sS'degrad'
p2607
I2672
sS'kympton"'
p2608
I2673
sS'untidi'
p2609
I2675
sS'represent'
p2610
I2676
sS'all'
p2611
I2677
sS'authorit'
p2612
I2678
sS'forget'
p2613
I20
sS'groundwork'
p2614
I32
sS'hereaft'
p2615
I3923
sS'newlyborn'
p2616
I2683
sS'silent"'
p2617
I2684
sS'easterday'
p2618
I2685
sS'ala'
p2619
I59
sS'interpret'
p2620
I2687
sS'sunk'
p2621
I2688
sS'"charming"'
p2622
I74
sS'avaric'
p2623
I86
sS'dish'
p2624
I2692
sS'pervers'
p2625
I2625
sS'settlement'
p2626
I2695
sS'lace'
p2627
I2696
sS'children'
p2628
I2697
sS'abid'
p2629
I2698
sS'carpet'
p2630
I119
sS'malici'
p2631
I4105
sS'friendless'
p2632
I127
sS'inconceiv'
p2633
I2499
sS'_you_"'
p2634
I5131
sS'incap'
p2635
I2703
sS'white'
p2636
I1896
sS'seabath'
p2637
I2706
sS'really"'
p2638
I179
sS'articl'
p2639
I1617
sS'"been'
p2640
I190
sS'foster'
p2641
I2710
sS'humili'
p2642
I202
sS'shameless'
p2643
I2505
sS'solicit'
p2644
I2713
sS'mamma"'
p2645
I2714
sS'illsuccess'
p2646
I2715
sS'smile'
p2647
I2716
sS'regiment"'
p2648
I2717
sS'opportunity"'
p2649
I3607
sS'rapac'
p2650
I518
sS'introduc'
p2651
I2720
sS'sound'
p2652
I2721
sS'godfath'
p2653
I513
sS'allud'
p2654
I232
sS'parcel'
p2655
I2724
sS'interf'
p2656
I2725
sS'song'
p2657
I2726
sS'far'
p2658
I2727
sS'horror'
p2659
I2728
sS'drili'
p2660
I4262
sS'elizabeth"'
p2661
I884
sS'fat'
p2662
I2731
sS'habitu'
p2663
I3101
sS'wiretap'
p2664
I2733
sS'hypocrit'
p2665
I2734
sS'candid'
p2666
I2735
sS'allus'
p2667
I338
sS'allur'
p2668
I596
sS'failur'
p2669
I351
sS'veri'
p2670
I2739
sS'ticket'
p2671
I2741
sS'strang'
p2672
I2742
sS'must"'
p2673
I2837
sS'and'
p2674
I1938
sS'knighthood'
p2675
I395
sS'nonsense"'
p2676
I2745
sS'idl'
p2677
I3868
sS'forth'
p2678
I2746
sS'ceaseless'
p2679
I2747
sS'list'
p2680
I2748
sS'"after'
p2681
I1088
sS'brighton"'
p2682
I2750
sS'testifi'
p2683
I3152
sS'partak'
p2684
I2752
sS'sang'
p2685
I452
sS'adjust'
p2686
I2754
sS'howev'
p2687
I4912
sS'lessen'
p2688
I2755
sS'small'
p2689
I2756
sS'nearer'
p2690
I5285
sS'increasing"'
p2691
I2758
sS'broadfac'
p2692
I1231
sS'dimens'
p2693
I2760
sS'hour"'
p2694
I2761
sS'19>'
p2695
I2762
sS'neighborhood'
p2696
I2344
sS'withheld'
p2697
I2764
sS'ten'
p2698
I2765
sS'extraordinari'
p2699
I3153
sS'direction"'
p2700
I545
sS'unheard'
p2701
I2769
sS'incumbr'
p2702
I4901
sS'past'
p2703
I2770
sS'teazed"'
p2704
I2771
sS'rate'
p2705
I2772
sS'design'
p2706
I2773
sS'unprepar'
p2707
I2774
sS'pass'
p2708
I2775
sS'canvass'
p2709
I2776
sS'further'
p2710
I2777
sS'misrepresent'
p2711
I2778
sS'casual'
p2712
I2779
sS'whenc'
p2713
I1024
sS'"eliza'
p2714
I635
sS'excit'
p2715
I2782
sS'unsuit'
p2716
I2783
sS'what'
p2717
I2784
sS'prepossess'
p2718
I2785
sS'stood'
p2719
I2786
sS'incredul'
p2720
I659
sS'clock'
p2721
I2788
sS'mention"'
p2722
I669
sS'sun'
p2723
I2790
sS'sum'
p2724
I2791
sS'advanc'
p2725
I3159
sS'abl'
p2726
I2793
sS'selfdestin'
p2727
I2794
sS'crush'
p2728
I2796
sS'kent"'
p2729
I698
sS'selfcommand'
p2730
I2798
sS'mayoralti'
p2731
I2799
sS'deepli'
p2732
I2801
sS'plianci'
p2733
I2802
sS'him"'
p2734
I2803
sS'obsequi'
p2735
I113
sS'contrast'
p2736
I2805
sS'essenc'
p2737
I2806
sS'displeased"'
p2738
I768
sS'christian'
p2739
I772
sS'hotpress'
p2740
I2075
sS'deal"'
p2741
I4058
sS'hackney'
p2742
I2810
sS'variat'
p2743
I2811
sS'elsewhere"'
p2744
I2813
sS'privat'
p2745
I4059
sS'unlucky"'
p2746
I2814
sS'_retaining_'
p2747
I819
sS'free'
p2748
I2816
sS'trunk'
p2749
I850
sS'hast'
p2750
I2818
sS'grape'
p2751
I2819
sS'goodby'
p2752
I437
sS'strong'
p2753
I2821
sS'valu'
p2754
I2822
sS'pinmoney'
p2755
I2823
sS'solid'
p2756
I3604
sS'search'
p2757
I2825
sS'graviti'
p2758
I4618
sS'attitude"'
p2759
I1746
sS'14'
p2760
I2827
sS'miseri'
p2761
I2282
sS'46>'
p2762
I2829
sS'disagreeable"'
p2763
I932
sS'tranquilli'
p2764
I2768
sS'through'
p2765
I3030
sS'effus'
p2766
I2834
sS'soldier'
p2767
I695
sS'amount'
p2768
I2836
sS'_all_'
p2769
I971
sS'social'
p2770
I2838
sS'action'
p2771
I2839
sS'"but"'
p2772
I987
sS'narrow'
p2773
I2439
sS'magnitud'
p2774
I1003
sS'yourself"'
p2775
I2844
sS'intric'
p2776
I2845
sS'elsewher'
p2777
I4064
sS'depart'
p2778
I2848
sS'_her_"'
p2779
I2849
sS'declin'
p2780
I2850
sS'intermedi'
p2781
I2631
sS'transit'
p2782
I2852
sS'courtier'
p2783
I1060
sS'while'
p2784
I3613
sS'_that_'
p2785
I1379
sS'ask'
p2786
I3171
sS'snug'
p2787
I1094
sS'know"'
p2788
I2857
sS'parishion'
p2789
I2858
sS'famili'
p2790
I2859
sS'sanction'
p2791
I2860
sS'beheld'
p2792
I2861
sS'presume"'
p2793
I2862
sS'parties"'
p2794
I2863
sS'establish'
p2795
I2864
sS'research'
p2796
I3143
sS'_do_"'
p2797
I1136
sS'solicitud'
p2798
I2866
sS'earliest'
p2799
I3174
sS'eye'
p2800
I2868
sS'"have'
p2801
I2869
sS'``mr'
p2802
I2870
sS'always"'
p2803
I1171
sS'liber'
p2804
I2872
sS'injuri'
p2805
I2873
sS'tackl'
p2806
I2874
sS'two'
p2807
I2875
sS'lady"'
p2808
I1667
sS'grosvenorstreet"'
p2809
I2878
sS'leisure"'
p2810
I1203
sS'_heard_'
p2811
I2881
sS'morn'
p2812
I2882
sS'6'
p2813
I47
sS'taken'
p2814
I2885
sS'unprincipl'
p2815
I2888
sS'more'
p2816
I2889
sS'flat'
p2817
I2890
sS'wretched'
p2818
I2891
sS'door'
p2819
I1283
sS'twentyfour'
p2820
I2893
sS'welfar'
p2821
I2894
sS'hundr'
p2822
I2895
sS'hurri'
p2823
I1310
sS'pleases"'
p2824
I2897
sS'"alreadi'
p2825
I2898
sS'convinc'
p2826
I2270
sS'diningroom'
p2827
I2900
sS'harriet'
p2828
I2901
sS'expedit'
p2829
I1352
sS'breach'
p2830
I1760
sS'known'
p2831
I2904
sS'ablut'
p2832
I2905
sS'openly"'
p2833
I1370
sS'destin'
p2834
I2907
sS'"rememb'
p2835
I2908
sS'glad'
p2836
I2909
sS'marriage"'
p2837
I2910
sS'town'
p2838
I2911
sS'dictat'
p2839
I1392
sS'none'
p2840
I2913
sS'modesty"'
p2841
I2914
sS'clergi'
p2842
I805
sS'hous'
p2843
I2916
sS'phillip'
p2844
I2917
sS'disapprob'
p2845
I2918
sS'_feel_'
p2846
I2919
sS'hearten'
p2847
I4923
sS'trifling"'
p2848
I2920
sS'histori'
p2849
I2921
sS'remain'
p2850
I2922
sS'outliv'
p2851
I1455
sS'8/94'
p2852
I1461
sS'learn'
p2853
I1476
sS'male'
p2854
I2928
sS'instantan'
p2855
I2469
sS'stumbl'
p2856
I2931
sS'stubborn'
p2857
I2932
sS'"there'
p2858
I1909
sS'valuabl'
p2859
I2915
sS'ponies"'
p2860
I1389
sS'challeng'
p2861
I2935
sS'illustri'
p2862
I511
sS'accept'
p2863
I2937
sS'disgrace"'
p2864
I1570
sS'pay"'
p2865
I2618
sS'sphere'
p2866
I2940
sS'intercours'
p2867
I2941
sS'sourc'
p2868
I1390
sS'poni'
p2869
I1593
sS'attain'
p2870
I2944
sS'explor'
p2871
I2945
sS'partner'
p2872
I4929
sS'sharp'
p2873
I246
sS"group'd"
p2874
I2948
sS'robinson'
p2875
I1625
sS'condemn'
p2876
I1637
sS'unlucki'
p2877
I2951
sS'expectation"'
p2878
I2952
sS'cours'
p2879
I2953
sS'court'
p2880
I2954
sS'exig'
p2881
I2955
sS'awkward'
p2882
I2956
sS'divid'
p2883
I1668
sS'rather'
p2884
I2958
sS'abhorr'
p2885
I2472
sS'comfort'
p2886
I2960
sS'hardhearted'
p2887
I1387
sS'environ'
p2888
I2962
sS'foreseen'
p2889
I2963
sS'narrowli'
p2890
I2964
sS'estates"'
p2891
I2965
sS'caus'
p2892
I3413
sS'reject'
p2893
I1727
sS'acrimoni'
p2894
I2968
sS'_two_'
p2895
I2261
sS'simpl'
p2896
I1751
sS'headstrong'
p2897
I1756
sS'hopeless'
p2898
I2972
sS'state"'
p2899
I2973
sS'61>'
p2900
I2089
sS'circuit'
p2901
I2975
sS'"never'
p2902
I1791
sS'evad'
p2903
I2977
sS'apology"'
p2904
I2978
sS'propiti'
p2905
I2979
sS'blacken'
p2906
I2980
sS'unassum'
p2907
I4868
sS'reflect'
p2908
I2982
sS'denial'
p2909
I2983
sS'embrac'
p2910
I2984
sS'waver'
p2911
I2985
sS'happen'
p2912
I5259
sS'_not_'
p2913
I2986
sS'inquiri'
p2914
I2987
sS'wave'
p2915
I4078
sS'associ'
p2916
I2988
sS'flutter'
p2917
I2989
sS'unreserv'
p2918
I2990
sS'a'
p2919
I2991
sS'stabil'
p2920
I2992
sS'circumst'
p2921
I2993
sS'short'
p2922
I2994
sS'coax'
p2923
I2996
sS'sli'
p2924
I2997
sS'coat'
p2925
I2998
sS'reverie"'
p2926
I2999
sS'nicest'
p2927
I5297
sS'handsome"'
p2928
I3001
sS'meat'
p2929
I3002
sS'mislead'
p2930
I3003
sS'"about'
p2931
I3004
sS'impetu'
p2932
I3005
sS'dread'
p2933
I1980
sS'shade'
p2934
I3007
sS'music"'
p2935
I3008
sS'volum'
p2936
I4080
sS'parasol'
p2937
I3010
sS'sincerity"'
p2938
I2011
sS'"nonsens'
p2939
I3013
sS'travel'
p2940
I3014
sS'burnt'
p2941
I2543
sS'help'
p2942
I3017
sS'unaccountable"'
p2943
I3018
sS"don't"
p2944
I2058
sS'"if'
p2945
I3020
sS'heartfelt'
p2946
I3022
sS'midjuli'
p2947
I3023
sS'soon'
p2948
I3024
sS'should"'
p2949
I2780
sS'trade'
p2950
I2088
sS'octob'
p2951
I1398
sS'"\'tis'
p2952
I1030
sS'_be_'
p2953
I1319
sS'pang'
p2954
I494
sS'infanc'
p2955
I3031
sS'indiscreet'
p2956
I4842
sS'dressingroom'
p2957
I2124
sS'suffer'
p2958
I3035
sS'rectori'
p2959
I2137
sS'exhibit"'
p2960
I3037
sS'prejudice"'
p2961
I3038
sS'24'
p2962
I1026
sS'gentlemen'
p2963
I2294
sS'26'
p2964
I2157
sS'27'
p2965
I1525
sS'20'
p2966
I3043
sS'21'
p2967
I3044
sS'22'
p2968
I3045
sS'23'
p2969
I3046
sS'pray'
p2970
I3047
sS'kitti'
p2971
I4084
sS'2>'
p2972
I3049
sS"treasure'"
p2973
I1969
sS'28'
p2974
I3051
sS'29'
p2975
I2004
sS'licenti'
p2976
I3053
sS'late'
p2977
I3054
sS'"undoubt'
p2978
I3055
sS'astonish'
p2979
I3056
sS'remembr'
p2980
I1924
sS'nephew"'
p2981
I3058
sS'delici'
p2982
I594
sS'cool'
p2983
I3060
sS'might'
p2984
I3061
sS'alter'
p2985
I3062
sS'ball"'
p2986
I4216
sS'prodigi'
p2987
I2260
sS'fool'
p2988
I1527
sS'good'
p2989
I3066
sS'return'
p2990
I3067
sS'masters"'
p2991
I3068
sS'little"'
p2992
I2298
sS'pollut'
p2993
I3070
sS'thinking"'
p2994
I3071
sS'energetic"'
p2995
I2307
sS'bought'
p2996
I3073
sS'worthi'
p2997
I4132
sS'exquisite"'
p2998
I3074
sS'consign'
p2999
I3075
sS'netherfield"'
p3000
I4945
sS'somebodi'
p3001
I3077
sS'farewel'
p3002
I3078
sS'oxford'
p3003
I2358
sS'disgrac'
p3004
I4089
sS'_brotherly_'
p3005
I3081
sS'detach'
p3006
I2228
sS'complain'
p3007
I3083
sS'oper'
p3008
I3084
sS'prejudice]'
p3009
I3085
sS'feet'
p3010
I3209
sS'all"'
p3011
I3087
sS'rant'
p3012
I2174
sS'drawingroom'
p3013
I3089
sS'instruct'
p3014
I3093
sS'critic'
p3015
I1611
sS'infer'
p3016
I4948
sS'mysteri'
p3017
I1111
sS'easili'
p3018
I2458
sS'token'
p3019
I2464
sS'unstudi'
p3020
I3099
sS'_half_'
p3021
I2473
sS'undertak'
p3022
I241
sS'best"'
p3023
I3103
sS'ceas'
p3024
I3104
sS'fulli'
p3025
I2488
sS'#4000'
p3026
I3106
sS'difficult'
p3027
I4950
sS'friendship'
p3028
I3107
sS'denni'
p3029
I3109
sS'house"'
p3030
I3110
sS'mercenary"'
p3031
I3111
sS'harm'
p3032
I3112
sS'reconcil'
p3033
I1410
sS'england'
p3034
I3114
sS'restless'
p3035
I3115
sS'weight'
p3036
I3116
sS'needless'
p3037
I3117
sS'eyelash'
p3038
I3118
sS'unequ'
p3039
I2546
sS'difficult"'
p3040
I2550
sS'monoton'
p3041
I2554
sS'idea'
p3042
I3122
sS'him'
p3043
I3428
sS'brother'
p3044
I1411
sS'duchess'
p3045
I2573
sS'apac'
p3046
I3125
sS'finish'
p3047
I3126
sS'connect'
p3048
I2589
sS'inflict'
p3049
I3128
sS'sittingroom'
p3050
I4659
sS'"yet'
p3051
I2602
sS'energi'
p3052
I3130
sS'beyond'
p3053
I3131
sS'_persuasion_'
p3054
I2846
sS'britain'
p3055
I3133
sS'harp'
p3056
I3134
sS'despicable"'
p3057
I3135
sS'safeti'
p3058
I3136
sS'admiss'
p3059
I3137
sS'join'
p3060
I1399
sS'1812'
p3061
I3138
sS'disquiet'
p3062
I3140
sS'publish'
p3063
I3142
sS'"go'
p3064
I527
sS'candour'
p3065
I3144
sS'sustain'
p3066
I2501
sS'hill'
p3067
I3146
sS'7'
p3068
I3147
sS'"mari'
p3069
I3150
sS'occurr'
p3070
I3151
sS'outrun'
p3071
I2751
sS'difficulti'
p3072
I2766
sS'qualifi'
p3073
I3154
sS'assist'
p3074
I2308
sS'obeis'
p3075
I2624
sS'risen'
p3076
I3158
sS'dirt'
p3077
I2792
sS'pitied"'
p3078
I3160
sS'good"'
p3079
I3825
sS'puf'
p3080
I3161
sS'friday'
p3081
I1251
sS'_m_'
p3082
I3163
sS'suspici'
p3083
I448
sS'effect'
p3084
I4959
sS'pleasant'
p3085
I3166
sS'reason'
p3086
I3167
sS'"'
p3087
I3224
sS'brightest'
p3088
I1118
sS'murmur'
p3089
I3170
sS'put'
p3090
I2855
sS'"sure'
p3091
I3172
sS'teach'
p3092
I3173
sS'dissembl'
p3093
I2867
sS'reproach'
p3094
I3175
sS'refer'
p3095
I4101
sS'bash'
p3096
I3176
sS'basi'
p3097
I2887
sS'thrown'
p3098
I3178
sS'prefac'
p3099
I3179
sS'believed"'
p3100
I2143
sS'"she'
p3101
I3181
sS'nomin'
p3102
I3182
sS'devoid'
p3103
I3183
sS'concept'
p3104
I4377
sS'brown'
p3105
I3184
sS'omit'
p3106
I3185
sS'curtsey'
p3107
I3186
sS'struggl'
p3108
I3187
sS'bridegroom'
p3109
I3188
sS'perhap'
p3110
I3189
sS'dear"'
p3111
I3190
sS'"one'
p3112
I4907
sS'perman'
p3113
I3192
sS'w'
p3114
I1362
sS'marry"'
p3115
I2680
sS'properly"'
p3116
I3195
sS'blush'
p3117
I3196
sS'civilities"'
p3118
I1243
sS'feelings"'
p3119
I3198
sS'celer'
p3120
I3199
sS'intimid'
p3121
I3200
sS'dine'
p3122
I3201
sS'misl'
p3123
I3202
sS'"then'
p3124
I4963
sS'wilder'
p3125
I1565
sS'feel'
p3126
I3204
sS'exchang'
p3127
I2291
sS'unprofit'
p3128
I3206
sS'cassino'
p3129
I3207
sS'number'
p3130
I3208
sS'_was_'
p3131
I3086
sS'elder'
p3132
I3088
sS'willingly"'
p3133
I3212
sS'done'
p3134
I3213
sS'construct'
p3135
I3706
sS'"sens'
p3136
I3215
sS'descent'
p3137
I952
sS'sauci'
p3138
I3217
sS'stabl'
p3139
I3218
sS'guard'
p3140
I5170
sS'miss'
p3141
I3219
sS'defi'
p3142
I2321
sS'fanci'
p3143
I3221
sS'meadow'
p3144
I3222
sS'guess'
p3145
I3164
sS'breathless'
p3146
I3168
sS'risk"'
p3147
I1116
sS'guest'
p3148
I3177
sS'verdur'
p3149
I2360
sS'begin"'
p3150
I3228
sS'thoughts"'
p3151
I3230
sS'remember"'
p3152
I2595
sS'stori'
p3153
I3236
sS'least'
p3154
I3233
sS'player'
p3155
I3234
sS'paint'
p3156
I3235
sS'property"'
p3157
I3232
sS'station'
p3158
I2947
sS'compliment"'
p3159
I3238
sS'statement'
p3160
I3239
sS'"these'
p3161
I3240
sS'mama'
p3162
I3241
sS'twenti'
p3163
I3242
sS'lose"'
p3164
I1823
sS'disagr'
p3165
I3245
sS'"apology"'
p3166
I4112
sS'store'
p3167
I3247
sS'determine"'
p3168
I3248
sS'congeni'
p3169
I3249
sS'adher'
p3170
I3250
sS'luckili'
p3171
I3251
sS'imperfect'
p3172
I3252
sS'storm'
p3173
I3253
sS'relationship'
p3174
I3254
sS'#5000'
p3175
I2876
sS'month'
p3176
I2686
sS'first"'
p3177
I3256
sS'hotel'
p3178
I3257
sS'park'
p3179
I3258
sS'minutest'
p3180
I3259
sS'kitchen'
p3181
I3260
sS'simpleton'
p3182
I4180
sS'probiti'
p3183
I3261
sS'part'
p3184
I3263
sS'fidget'
p3185
I3264
sS'fall'
p3186
I2738
sS'immediately"'
p3187
I3266
sS'59>'
p3188
I3267
sS'grace'
p3189
I3268
sS'"you'
p3190
I5144
sS'king'
p3191
I3269
sS'kind'
p3192
I3270
sS'scheme'
p3193
I3244
sS'contrari'
p3194
I3272
sS'doubli'
p3195
I3273
sS'moment"'
p3196
I3718
sS'whenev'
p3197
I3274
sS'prevent'
p3198
I3203
sS'18>'
p3199
I3276
sS'remov'
p3200
I3277
sS'kindness"'
p3201
I4258
sS'disapprov'
p3202
I2930
sS'bride'
p3203
I3472
sS'_which_'
p3204
I3280
sS'asham'
p3205
I3281
sS'"well"'
p3206
I4591
sS'frailti'
p3207
I3282
sS'arrang'
p3208
I3283
sS'toward'
p3209
I3284
sS'danc'
p3210
I3285
sS'colour'
p3211
I4975
sS'somewher'
p3212
I5050
sS'exert'
p3213
I3287
sS'sermonmak'
p3214
I3288
sS'well'
p3215
I4976
sS'engagement"'
p3216
I3290
sS'selfimport'
p3217
I4120
sS'beforehand'
p3218
I3292
sS'defect'
p3219
I3293
sS'plenti'
p3220
I3816
sS'controvert'
p3221
I3294
sS'"undoubtedly"'
p3222
I3295
sS'propos'
p3223
I3704
sS'bad"'
p3224
I2456
sS'requisit'
p3225
I3299
sS'justifi'
p3226
I3300
sS'liveri'
p3227
I210
sS'sell'
p3228
I3302
sS'mountain'
p3229
I1939
sS'carriage"'
p3230
I2809
sS'ideas"'
p3231
I4808
sS'built'
p3232
I3304
sS'fashion"'
p3233
I451
sS'eleg'
p3234
I3683
sS'self'
p3235
I3306
sS'violat'
p3236
I3307
sS'scotland'
p3237
I3308
sS'amusement"'
p3238
I3309
sS'troublesom'
p3239
I3310
sS'hertfordshir'
p3240
I3311
sS'also'
p3241
I3312
sS'without'
p3242
I2333
sS'lip'
p3243
I3314
sS'indifferent"'
p3244
I2310
sS'performance"'
p3245
I3317
sS'invect'
p3246
I3318
sS'selv'
p3247
I3319
sS'maintain'
p3248
I3320
sS'play'
p3249
I3323
sS'leavetak'
p3250
I3324
sS'distribut'
p3251
I3325
sS'correspondents"'
p3252
I3326
sS'newcastl'
p3253
I3327
sS'superexcel'
p3254
I2524
sS'victim'
p3255
I3329
sS'admirable"'
p3256
I3330
sS'selfconquest'
p3257
I2617
sS'mixtur'
p3258
I3332
sS'yawn'
p3259
I1198
sS'charm'
p3260
I3335
sS'plan'
p3261
I3336
sS'"tell'
p3262
I3337
sS'workbag'
p3263
I3225
sS'nothing'
p3264
I3339
sS'7>'
p3265
I3340
sS'faint'
p3266
I3341
sS'"unless'
p3267
I1921
sS'age"'
p3268
I3343
sS'charg'
p3269
I3344
sS'amaz'
p3270
I3345
sS'narrowest'
p3271
I3346
sS'gracechurch'
p3272
I796
sS'_filial_'
p3273
I3349
sS'taciturn'
p3274
I5202
sS'clear'
p3275
I3352
sS'cover'
p3276
I3353
sS'decorum"'
p3277
I3354
sS'diverted"'
p3278
I2073
sS'deceitful"'
p3279
I3356
sS'night"'
p3280
I3358
sS'_month_'
p3281
I3359
sS'tongu'
p3282
I3360
sS'colonel'
p3283
I4131
sS'now"'
p3284
I5172
sS'incur'
p3285
I1176
sS'saloon'
p3286
I3363
sS'usual'
p3287
I4987
sS'imitation"'
p3288
I3365
sS'satir'
p3289
I2342
sS'think'
p3290
I3368
sS'overcam'
p3291
I3369
sS'ridicul'
p3292
I3370
sS'bromley'
p3293
I3372
sS'discov'
p3294
I4631
sS'consult'
p3295
I3265
sS'humil'
p3296
I3374
sS'older"'
p3297
I4990
sS'noblest'
p3298
I3375
sS'indecorum'
p3299
I3376
sS'frequently"'
p3300
I3377
sS'distanc'
p3301
I4991
sS'crayon'
p3302
I3379
sS'selfcomplac'
p3303
I5117
sS'etiquett'
p3304
I5151
sS'fireplac'
p3305
I3380
sS'manifold'
p3306
I3381
sS'uniform'
p3307
I1453
sS'fine'
p3308
I3383
sS'find'
p3309
I3384
sS'abund'
p3310
I2347
sS'exstaci'
p3311
I4136
sS'ambit'
p3312
I1829
sS'mismanag'
p3313
I3388
sS'staircas'
p3314
I3389
sS'copyright'
p3315
I360
sS'sentenc'
p3316
I3069
sS'_food_'
p3317
I3391
sS'nervous'
p3318
I3392
sS'ruin'
p3319
I3393
sS'writer'
p3320
I3394
sS'fruit'
p3321
I3396
sS'with"'
p3322
I3397
sS'"thank'
p3323
I3398
sS'frivol'
p3324
I4213
sS'"neither'
p3325
I3400
sS'knowledg'
p3326
I4757
sS'betray'
p3327
I3401
sS'dissip'
p3328
I3402
sS'condol'
p3329
I524
sS'pleasure"'
p3330
I3404
sS'inconst'
p3331
I3405
sS'_much_'
p3332
I3407
sS'unhappi'
p3333
I3408
sS'stateli'
p3334
I3409
sS'"lizzy"'
p3335
I3410
sS'remedi'
p3336
I3411
sS'am"'
p3337
I2353
sS'behold'
p3338
I5278
sS'equivoc'
p3339
I1346
sS'missent'
p3340
I3415
sS'_missish_'
p3341
I5009
sS'express'
p3342
I3416
sS'resent'
p3343
I3417
sS'deliber'
p3344
I3418
sS'grew'
p3345
I3271
sS'hereabout'
p3346
I3420
sS'breast'
p3347
I3421
sS'journey"'
p3348
I3422
sS'compass'
p3349
I3423
sS'destitut'
p3350
I3424
sS'liabl'
p3351
I3425
sS'salut'
p3352
I3426
sS'tallest"'
p3353
I3427
sS'_us_'
p3354
I2275
sS'uncomfort'
p3355
I3430
sS'injustic'
p3356
I4142
sS'keenest'
p3357
I3432
sS'accomplishments"'
p3358
I3433
sS'``_she_'
p3359
I3434
sS'tumult'
p3360
I3435
sS'lament'
p3361
I3436
sS'minc'
p3362
I3437
sS'acut'
p3363
I3439
sS'censure"'
p3364
I5272
sS'twenty"'
p3365
I1566
sS'indeed"'
p3366
I5287
sS'common'
p3367
I3441
sS'_foundation_'
p3368
I3442
sS'x'
p3369
I3443
sS'forster'
p3370
I3444
sS'cri'
p3371
I3445
sS'courteous'
p3372
I3446
sS'wrote'
p3373
I3447
sS'_now_'
p3374
I4728
sS'spell'
p3375
I4392
sS'illjudg'
p3376
I3448
sS'set'
p3377
I3449
sS'art'
p3378
I3450
sS'31>'
p3379
I4526
sS'"meant'
p3380
I3452
sS'xxiii'
p3381
I3453
sS'petrifi'
p3382
I3454
sS'barefac'
p3383
I3455
sS'concili'
p3384
I3957
sS'sex'
p3385
I3456
sS'diffid'
p3386
I3457
sS'_insist_'
p3387
I407
sS'signifi'
p3388
I166
sS'are'
p3389
I3460
sS'laurel'
p3390
I5006
sS'tender'
p3391
I3462
sS'portrait'
p3392
I1954
sS'unqualifi'
p3393
I3367
sS'arm'
p3394
I3465
sS'selfattract'
p3395
I3466
sS'uncommon"'
p3396
I3467
sS'youth'
p3397
I3278
sS'abroad"'
p3398
I3468
sS'learnt'
p3399
I3469
sS'_mine_"'
p3400
I4151
sS'horrid'
p3401
I3471
sS'forlorn'
p3402
I3149
sS'someth'
p3403
I3475
sS'firmest'
p3404
I3476
sS'particip'
p3405
I3477
sS'behaves"'
p3406
I3478
sS'24>'
p3407
I3479
sS'old"'
p3408
I5
sS'various'
p3409
I3481
sS'"yes"'
p3410
I3482
sS'honour'
p3411
I1474
sS'woe'
p3412
I3484
sS'flame'
p3413
I3485
sS'rite'
p3414
I3486
sS'experi'
p3415
I3487
sS'hauteur'
p3416
I3489
sS'compliment'
p3417
I3490
sS'petul'
p3418
I3491
sS'"that'
p3419
I3492
sS'forbad'
p3420
I3854
sS'"miss'
p3421
I4265
sS'hardship'
p3422
I3493
sS'"sometim'
p3423
I3494
sS'induc'
p3424
I3495
sS'fluentli'
p3425
I247
sS'aspir'
p3426
I3497
sS'punch'
p3427
I4155
sS'chuse"'
p3428
I4643
sS'succeed'
p3429
I3498
sS'"not'
p3430
I3499
sS'"now'
p3431
I3500
sS'mirth'
p3432
I591
sS'distinguish'
p3433
I3502
sS'"than'
p3434
I3503
sS'days"'
p3435
I3504
sS'"noth'
p3436
I3505
sS'"kitti'
p3437
I5015
sS'oppress'
p3438
I3507
sS'disclaim'
p3439
I2961
sS'_may_'
p3440
I3510
sS'_mine_'
p3441
I3512
sS'annual'
p3442
I3515
sS'alon'
p3443
I3516
sS'event'
p3444
I3132
sS'_coming_'
p3445
I3518
sS'learn"'
p3446
I3519
sS'detest'
p3447
I3520
sS'spirit"'
p3448
I1004
sS'those"'
p3449
I3522
sS'spiritless'
p3450
I3523
sS'forgotten'
p3451
I3524
sS'"hunsford'
p3452
I3525
sS'overset'
p3453
I3526
sS'whole'
p3454
I3528
sS'haggerston'
p3455
I5019
sS'_near_'
p3456
I3529
sS'gaili'
p3457
I4160
sS'deserves"'
p3458
I3531
sS'childhood'
p3459
I3534
sS'simpli'
p3460
I3535
sS'distress'
p3461
I3536
sS'point'
p3462
I3537
sS'chaperon'
p3463
I3538
sS'sweet'
p3464
I3539
sS'knew"'
p3465
I3540
sS'town"'
p3466
I3541
sS'"none'
p3467
I5075
sS'harbour'
p3468
I3543
sS'happiness"'
p3469
I3544
sS'"delightful"'
p3470
I4161
sS'_should_'
p3471
I24
sS'suppli'
p3472
I3547
sS'mistak'
p3473
I3548
sS'bench'
p3474
I2757
sS'connexion'
p3475
I3550
sS'deceiv'
p3476
I2650
sS'hitherto'
p3477
I4517
sS'"blame'
p3478
I3552
sS'worthless'
p3479
I3553
sS'unsuccess'
p3480
I1989
sS'dul'
p3481
I3555
sS'pocketbook'
p3482
I882
sS'stamp'
p3483
I3558
sS'fifteen'
p3484
I4164
sS'damp'
p3485
I3560
sS'overlook'
p3486
I3561
sS'devic'
p3487
I3562
sS'due'
p3488
I3563
sS'perpetu'
p3489
I2039
sS'sinc'
p3490
I4165
sS'whom'
p3491
I3567
sS'secret'
p3492
I3568
sS'lambton"'
p3493
I3569
sS'unexpect'
p3494
I5197
sS'gracechurchstreet'
p3495
I3570
sS'haunch'
p3496
I3571
sS'threaten'
p3497
I3572
sS'foretold'
p3498
I5148
sS'labour'
p3499
I3738
sS'4'
p3500
I3574
sS'firm'
p3501
I3575
sS'`about'
p3502
I3576
sS'adventur'
p3503
I3082
sS'wish'
p3504
I2702
sS'like"'
p3505
I3579
sS'exercis'
p3506
I2387
sS'gay'
p3507
I577
sS'disservic'
p3508
I3582
sS'fire'
p3509
I3583
sS'success"'
p3510
I3584
sS'upstart'
p3511
I3585
sS'wet'
p3512
I5030
sS'remark'
p3513
I3587
sS'unnecessarili'
p3514
I3588
sS'deter'
p3515
I3589
sS'understand'
p3516
I3590
sS'overscrupul'
p3517
I3591
sS'demand'
p3518
I3592
sS"manner'"
p3519
I3594
sS'deport'
p3520
I18
sS'educ'
p3521
I3596
sS'heighten'
p3522
I27
sS'cruelti'
p3523
I3598
sS'3>'
p3524
I3599
sS'highest'
p3525
I5211
sS'unduti'
p3526
I3601
sS'abod'
p3527
I238
sS'beauty"'
p3528
I62
sS'inur'
p3529
I2485
sS'"do'
p3530
I3606
sS'ingratitud'
p3531
I2682
sS'confess"'
p3532
I3609
sS'compassion"'
p3533
I99
sS'further"'
p3534
I3611
sS'pace'
p3535
I3612
sS'insens'
p3536
I1260
sS'westerham'
p3537
I3614
sS'contemptu'
p3538
I1386
sS'abov'
p3539
I3616
sS'error'
p3540
I3617
sS'fun'
p3541
I3618
sS'politeness"'
p3542
I5035
sS'loos'
p3543
I2412
sS'pack'
p3544
I3621
sS'prejudic'
p3545
I165
sS'real'
p3546
I2394
sS'pound'
p3547
I3624
sS'olivebranch'
p3548
I3626
sS'ma\'am"'
p3549
I3627
sS'vol'
p3550
I196
sS'twentyseven'
p3551
I3629
sS'activ'
p3552
I2059
sS'collins"'
p3553
I3631
sS'selfconsequ'
p3554
I552
sS'virtu'
p3555
I263
sS'arrival"'
p3556
I3636
sS'"look'
p3557
I2330
sS'vanish'
p3558
I281
sS'anguish'
p3559
I3639
sS'quarrelsom'
p3560
I3640
sS'cottag'
p3561
I2131
sS'dissuad'
p3562
I3642
sS'open'
p3563
I1876
sS'dare"'
p3564
I3643
sS'secreci'
p3565
I2399
sS'shorten'
p3566
I3645
sS'away"'
p3567
I3646
sS'barnet'
p3568
I3647
sS'shorter'
p3569
I3648
sS'severest'
p3570
I3649
sS'discredit'
p3571
I3650
sS'shire'
p3572
I3651
sS'seduct'
p3573
I3652
sS'weakspirit'
p3574
I2401
sS'9'
p3575
I3654
sS'survey'
p3576
I4177
sS'nerves"'
p3577
I4199
sS'happens"'
p3578
I3301
sS'_darcy_'
p3579
I3656
sS'punctual'
p3580
I5041
sS'behav'
p3581
I1503
sS'accordingly"'
p3582
I3659
sS'goodwil'
p3583
I3660
sS'imagin'
p3584
I3303
sS'indebt'
p3585
I3662
sS'restraint'
p3586
I3663
sS'epithet'
p3587
I3665
sS'yesterday'
p3588
I3666
sS'piec'
p3589
I5043
sS'goodnatur'
p3590
I3668
sS'expressli'
p3591
I3669
sS'moment'
p3592
I3670
sS'flown'
p3593
I3671
sS'temporari'
p3594
I326
sS'seren'
p3595
I3673
sS'extrem'
p3596
I3674
sS'along'
p3597
I3551
sS'tiresom'
p3598
I3675
sS'wherev'
p3599
I3676
sS'irrevoc'
p3600
I2926
sS'found"'
p3601
I3678
sS'lower'
p3602
I3679
sS'_pride_and_prejudice_]'
p3603
I2800
sS'equival'
p3604
I3305
sS'ampl'
p3605
I3682
sS'older'
p3606
I2139
sS'"elizabeth'
p3607
I3684
sS'pitch'
p3608
I4298
sS'cheek'
p3609
I3686
sS'_here_'
p3610
I3687
sS'parenthes'
p3611
I608
sS'daughter"'
p3612
I619
sS'morrow'
p3613
I3691
sS'person'
p3614
I3692
sS'cheer'
p3615
I3693
sS'_she_'
p3616
I3694
sS'appertain'
p3617
I637
sS'withdraw'
p3618
I641
sS'impolit'
p3619
I3697
sS'consolation"'
p3620
I3698
sS'felicity"'
p3621
I3699
sS'brillianc'
p3622
I3700
sS'yet"'
p3623
I710
sS'_another_'
p3624
I714
sS'perceiv'
p3625
I4253
sS'weakest'
p3626
I675
sS'explan'
p3627
I679
sS'endeavour'
p3628
I3707
sS'"inform'
p3629
I3708
sS'"their'
p3630
I703
sS'prompt'
p3631
I2933
sS'dishonesti'
p3632
I3711
sS'briberi'
p3633
I3712
sS'_what_'
p3634
I3713
sS'relianc'
p3635
I3714
sS'shape'
p3636
I3715
sS'cessat'
p3637
I4486
sS'clump'
p3638
I3716
sS'behind'
p3639
I3255
sS'uncle"'
p3640
I3719
sS'regardless'
p3641
I3720
sS'northern'
p3642
I3721
sS'malic'
p3643
I3953
sS'meanest'
p3644
I3722
sS'depriv'
p3645
I3724
sS'presumpt'
p3646
I3725
sS'cut'
p3647
I3727
sS'predomin'
p3648
I3728
sS'cup'
p3649
I3730
sS'revert'
p3650
I4829
sS'ladies"'
p3651
I3731
sS'danger'
p3652
I3732
sS'promot'
p3653
I3733
sS'persuad'
p3654
I3734
sS"can't"
p3655
I2587
sS'studious'
p3656
I3737
sS'improb'
p3657
I2271
sS'appli'
p3658
I4192
sS'reproof'
p3659
I895
sS'cun'
p3660
I3741
sS'capital"'
p3661
I904
sS'subsequ'
p3662
I3743
sS'easter'
p3663
I3744
sS'stroll'
p3664
I3745
sS'speedili'
p3665
I926
sS'march"'
p3666
I3557
sS'complaint'
p3667
I3747
sS'unfeel'
p3668
I3032
sS'march'
p3669
I947
sS'valueless'
p3670
I3750
sS'format'
p3671
I958
sS'chambermaid'
p3672
I533
sS'"someth'
p3673
I1723
sS'bid'
p3674
I3754
sS'chiefli'
p3675
I3006
sS'longer"'
p3676
I3755
sS'injur'
p3677
I5221
sS'distance"'
p3678
I3757
sS'game'
p3679
I3758
sS'quest'
p3680
I3759
sS'christma'
p3681
I3760
sS'accomplished"'
p3682
I3761
sS'wiser'
p3683
I3762
sS'bit'
p3684
I3763
sS'awaken'
p3685
I1038
sS'overthrown'
p3686
I3765
sS'formal'
p3687
I3766
sS'hesitate"'
p3688
I3767
sS'leisur'
p3689
I3768
sS'undetermin'
p3690
I3769
sS'success'
p3691
I5058
sS'apologis'
p3692
I3771
sS'concealed"'
p3693
I3772
sS'signal'
p3694
I3773
sS'resolv'
p3695
I3774
sS'glove'
p3696
I2239
sS'breakfastroom'
p3697
I1123
sS'uproar'
p3698
I56
sS'princip'
p3699
I3779
sS'clapham'
p3700
I1135
sS'conceiv'
p3701
I4172
sS'conclusion"'
p3702
I3781
sS'gloom'
p3703
I3782
sS'surprise"'
p3704
I1154
sS'irksom'
p3705
I3784
sS'wellbr'
p3706
I3785
sS'foolish'
p3707
I3786
sS'``had'
p3708
I3787
sS'encount'
p3709
I3788
sS'sketch'
p3710
I3789
sS'"jane'
p3711
I1191
sS'grossest'
p3712
I3791
sS'often'
p3713
I3792
sS'last"'
p3714
I3793
sS'ashworth'
p3715
I3600
sS'spring'
p3716
I1215
sS'convinced"'
p3717
I4198
sS'some'
p3718
I3797
sS'back'
p3719
I1233
sS'momentari'
p3720
I3800
sS'urgent'
p3721
I3148
sS'strongest'
p3722
I3802
sS'_soon_'
p3723
I3803
sS'"we'
p3724
I3804
sS'incauti'
p3725
I2981
sS'unquestion'
p3726
I1276
sS'lydia'
p3727
I3927
sS'curious'
p3728
I3807
sS'eclat'
p3729
I3808
sS'surpris'
p3730
I3809
sS'virtue"'
p3731
I1293
sS'forster"'
p3732
I3811
sS'_laugh_'
p3733
I3812
sS'deserve"'
p3734
I3813
sS'enquiri'
p3735
I1731
sS'"though'
p3736
I3815
sS'unknow'
p3737
I716
sS'dull'
p3738
I3817
sS'loveliest'
p3739
I2355
sS'though'
p3740
I643
sS'per'
p3741
I3821
sS'relations"'
p3742
I3822
sS'modest'
p3743
I3823
sS'reckon'
p3744
I3328
sS'substitut'
p3745
I615
sS'lips"'
p3746
I3603
sS'wellinform'
p3747
I1388
sS'recognis'
p3748
I3828
sS'jane\'s"'
p3749
I3829
sS'novelti'
p3750
I3830
sS'nose'
p3751
I3831
sS'"charl'
p3752
I3832
sS'constru'
p3753
I1427
sS'sixteen'
p3754
I3834
sS'run'
p3755
I1439
sS'prejud'
p3756
I3837
sS'30>'
p3757
I3838
sS'reach'
p3758
I3331
sS'agreement'
p3759
I3842
sS'stem'
p3760
I3703
sS'sacrif'
p3761
I3844
sS'"now"'
p3762
I3845
sS'step'
p3763
I3846
sS'patienc'
p3764
I3847
sS'saturday"'
p3765
I3848
sS'barbar'
p3766
I3849
sS'warwick'
p3767
I3850
sS'father"'
p3768
I3851
sS'impos'
p3769
I1540
sS'quadrill'
p3770
I3853
sS'value"'
p3771
I2323
sS'shine'
p3772
I3855
sS'faith'
p3773
I3856
sS'cautious'
p3774
I3857
sS'discontented'
p3775
I3858
sS'tend"'
p3776
I3859
sS'deceas'
p3777
I806
sS'reappear'
p3778
I1677
sS'#30000'
p3779
I3862
sS'"take'
p3780
I1596
sS'prove'
p3781
I3864
sS'matern'
p3782
I3865
sS'wickham'
p3783
I1618
sS'revolut'
p3784
I856
sS'disclosur'
p3785
I1633
sS'possesses"'
p3786
I1636
sS'"ye'
p3787
I3872
sS'lucky"'
p3788
I3873
sS'_child_'
p3789
I1336
sS'conciliatori'
p3790
I3875
sS'charl'
p3791
I3876
sS'fulfil'
p3792
I2927
sS'buy'
p3793
I5194
sS'emphasi'
p3794
I3879
sS'horrible"'
p3795
I3880
sS'irrit'
p3796
I3882
sS'parad'
p3797
I3577
sS'conquest'
p3798
I1717
sS'[copyrightpubl'
p3799
I1721
sS'incens'
p3800
I3886
sS'gape'
p3801
I5177
sS'savag'
p3802
I3887
sS'indecis'
p3803
I3824
sS'remonstr'
p3804
I3888
sS'repaid'
p3805
I243
sS'ensur'
p3806
I3890
sS'lesson'
p3807
I3891
sS'announc'
p3808
I3892
sS'"book'
p3809
I3011
sS'notion'
p3810
I4034
sS'occupi'
p3811
I3894
sS'"_my_'
p3812
I3342
sS'institut'
p3813
I3895
sS'i'
p3814
I4973
sS'few'
p3815
I4215
sS'lambton'
p3816
I3897
sS'enabl'
p3817
I4732
sS'question'
p3818
I1834
sS'vigour'
p3819
I1872
sS'amidst'
p3820
I1199
sS'custom'
p3821
I3903
sS'almost'
p3822
I4918
sS'weep'
p3823
I3906
sS'includ'
p3824
I1900
sS'exceed'
p3825
I5073
sS'suit'
p3826
I3909
sS'spar'
p3827
I1910
sS'christmas"'
p3828
I3911
sS'maria'
p3829
I656
sS'sideglass'
p3830
I3913
sS'metcalf'
p3831
I1951
sS'heedless'
p3832
I3915
sS'perplex'
p3833
I3916
sS'bore'
p3834
I3917
sS'ramsgat'
p3835
I3919
sS'poster'
p3836
I3920
sS'vivac'
p3837
I3921
sS'frost'
p3838
I3922
sS'"sinc'
p3839
I3347
sS'cloth'
p3840
I3924
sS'arrear'
p3841
I5316
sS'scorn"'
p3842
I3926
sS'aton'
p3843
I2021
sS'uncontrol'
p3844
I3928
sS'line'
p3845
I3932
sS'civilli'
p3846
I3933
sS'reel'
p3847
I3934
sS'calico'
p3848
I1049
sS'exhibition"'
p3849
I2736
sS'intoler'
p3850
I5082
sS'gaze'
p3851
I4864
sS'consist'
p3852
I3938
sS'shew'
p3853
I5083
sS'wickham"'
p3854
I3634
sS'us'
p3855
I3942
sS'lieuten'
p3856
I2123
sS'intim'
p3857
I3944
sS'_am_'
p3858
I2939
sS'adequ'
p3859
I3946
sS'_endeavour_'
p3860
I3947
sS'gallantri'
p3861
I3948
sS'scorn'
p3862
I4470
sS'unpleas'
p3863
I3949
sS'_conditionally_'
p3864
I5085
sS'jumbl'
p3865
I2173
sS'similar'
p3866
I3951
sS'highly"'
p3867
I3952
sS'_times_'
p3868
I3357
sS'regulation"'
p3869
I2195
sS'enlarg'
p3870
I1560
sS'constant'
p3871
I3956
sS'millar'
p3872
I2211
sS'housekeeper"'
p3873
I3959
sS'm'
p3874
I2080
sS'distracted"'
p3875
I3961
sS'side"'
p3876
I2230
sS'haunt'
p3877
I3963
sS'possessor'
p3878
I3964
sS'repres'
p3879
I3965
sS'living"'
p3880
I3966
sS'scarlet'
p3881
I2247
sS'constanc'
p3882
I3878
sS'destruct'
p3883
I3355
sS'odditi'
p3884
I3970
sS'settled"'
p3885
I2284
sS'prevail'
p3886
I3973
sS'visit"'
p3887
I3975
sS'shoeros'
p3888
I3977
sS'office"'
p3889
I3978
sS'curricl'
p3890
I762
sS'intreat'
p3891
I3980
sS'peach'
p3892
I3981
sS'loser'
p3893
I5063
sS'objection'
p3894
I30
sS'titl'
p3895
I2337
sS'water'
p3896
I3984
sS'tith'
p3897
I2357
sS'scrape'
p3898
I1424
sS'stiffli'
p3899
I3987
sS'raini'
p3900
I445
sS'soninlaw'
p3901
I3989
sS'rid'
p3902
I3637
sS'librari'
p3903
I5090
sS'altar'
p3904
I3993
sS'agreeable"'
p3905
I3994
sS'bakewel'
p3906
I3995
sS'nay'
p3907
I3996
sS'faculties"'
p3908
I3997
sS'nice'
p3909
I3998
sS'does"'
p3910
I2820
sS'cradl'
p3911
I4000
sS'"money'
p3912
I4001
sS'_only_'
p3913
I4003
sS'lend'
p3914
I4004
sS'puddl'
p3915
I5219
sS'impress'
p3916
I4236
sS'realiz'
p3917
I5046
sS'papa'
p3918
I4008
sS'resign'
p3919
I4009
sS'william'
p3920
I4011
sS'sake"'
p3921
I4012
sS'single"'
p3922
I3298
sS'weigh'
p3923
I3362
sS'concerns"'
p3924
I4015
sS'clue'
p3925
I2305
sS'desert'
p3926
I2539
sS'unaffect'
p3927
I2544
sS'deserv'
p3928
I4019
sS'ago'
p3929
I4020
sS'lane'
p3930
I4021
sS'land'
p3931
I4022
sS'happier'
p3932
I82
sS'lead'
p3933
I5096
sS'phaeton'
p3934
I4025
sS'vice'
p3935
I4026
sS'illtemp'
p3936
I4027
sS'flog'
p3937
I4028
sS'age'
p3938
I4029
sS'hunsford'
p3939
I2592
sS'vow'
p3940
I4031
sS'wearisom'
p3941
I4032
sS'weighti'
p3942
I4033
sS'"write'
p3943
I2567
sS'discrimin'
p3944
I4035
sS'enquire"'
p3945
I711
sS'unconnect'
p3946
I4037
sS'bribe'
p3947
I4038
sS'walker'
p3948
I4039
sS'fresh'
p3949
I2649
sS'societies"'
p3950
I2461
sS'infancy"'
p3951
I1678
sS'unpleasantly"'
p3952
I4043
sS'trifl'
p3953
I2071
sS'edg'
p3954
I2699
sS'"lord'
p3955
I4046
sS'_dined_'
p3956
I3366
sS'happy"'
p3957
I4047
sS'things"'
p3958
I4489
sS'soften'
p3959
I4048
sS'44>'
p3960
I3726
sS'dispel'
p3961
I4050
sS'commerc'
p3962
I4051
sS'edw'
p3963
I4052
sS'amiss'
p3964
I614
sS'gossip'
p3965
I4055
sS'benevol'
p3966
I4056
sS'several"'
p3967
I4057
sS'invalid'
p3968
I3986
sS'gloomi'
p3969
I2942
sS'procur'
p3970
I4060
sS'xxii'
p3971
I4061
sS'``violent'
p3972
I4062
sS'_tolerable_"'
p3973
I4063
sS'fitzwilliam'
p3974
I2847
sS'befal'
p3975
I756
sS'georgiana'
p3976
I1066
sS'becam'
p3977
I4067
sS'fire"'
p3978
I1812
sS'alight'
p3979
I553
sS'weather'
p3980
I5171
sS'sens'
p3981
I744
sS'gravel'
p3982
I4070
sS'eas'
p3983
I5210
sS'sent'
p3984
I4071
sS'fond'
p3985
I3373
sS'envelop'
p3986
I1818
sS'whichev'
p3987
I2950
sS'disclos'
p3988
I4075
sS'`report'
p3989
I5162
sS'account'
p3990
I4248
sS'improp'
p3991
I3735
sS'blot'
p3992
I3967
sS'"are'
p3993
I3009
sS'more"'
p3994
I4081
sS'untouch'
p3995
I4082
sS'longbournhous'
p3996
I4083
sS'result"'
p3997
I3048
sS'clement'
p3998
I4085
sS'conjug'
p3999
I4086
sS'tri'
p4000
I4087
sS'recit'
p4001
I3080
sS'says"'
p4002
I4342
sS'stiff'
p4003
I4090
sS'meant'
p4004
I4709
sS'knight'
p4005
I4091
sS'inclin'
p4006
I3113
sS'grand'
p4007
I3653
sS'eve'
p4008
I4093
sS'fewer'
p4009
I4094
sS'anxious'
p4010
I4095
sS'threat'
p4011
I3709
sS'financ'
p4012
I4097
sS'race'
p4013
I4098
sS'profligaci'
p4014
I4099
sS'marri'
p4015
I4100
sS'[etext'
p4016
I60
sS'inexhaust'
p4017
I4102
sS'_were_'
p4018
I566
sS'pleas'
p4019
I4104
sS'illhumour'
p4020
I2474
sS'sex"'
p4021
I3881
sS'cap'
p4022
I4107
sS'fortun'
p4023
I4108
sS'"lydia'
p4024
I3871
sS'preclud'
p4025
I3958
sS'judg'
p4026
I1584
sS'safe"'
p4027
I3246
sS'encourag'
p4028
I4113
sS'infliction"'
p4029
I4114
sS'cambridg'
p4030
I2328
sS'jump'
p4031
I4116
sS'fold'
p4032
I4117
sS'somebody"'
p4033
I4118
sS'sentiments"'
p4034
I346
sS'cousin'
p4035
I4841
sS'pour'
p4036
I4259
sS'go'
p4037
I4054
sS'desire"'
p4038
I3291
sS'ardent'
p4039
I4121
sS'languor'
p4040
I4122
sS'odd'
p4041
I4123
sS'ladyship'
p4042
I4124
sS'compat'
p4043
I4125
sS'fli'
p4044
I1586
sS'reput'
p4045
I3382
sS'miles"'
p4046
I4128
sS'junior'
p4047
I2568
sS'soup'
p4048
I4130
sS'wore'
p4049
I3860
sS'resembl'
p4050
I3361
sS'unsubdu'
p4051
I1650
sS'_daughter_'
p4052
I4133
sS'that"'
p4053
I4134
sS'"then"'
p4054
I4135
sS'henceforth'
p4055
I3386
sS'irreligi'
p4056
I4137
sS'indel'
p4057
I4138
sS'<end'
p4058
I4139
sS'surmis'
p4059
I4140
sS'"most'
p4060
I715
sS'large"'
p4061
I3431
sS'bird'
p4062
I4143
sS'deduc'
p4063
I4144
sS'whatev'
p4064
I4145
sS'answered"'
p4065
I4146
sS'caper'
p4066
I4147
sS'ration'
p4067
I2482
sS'led'
p4068
I4149
sS'sept'
p4069
I2277
sS'conclude"'
p4070
I3470
sS'gratitud'
p4071
I2483
sS'was"'
p4072
I4153
sS'executor'
p4073
I4154
sS'sideboard'
p4074
I3387
sS'gratifi'
p4075
I4719
sS'closur'
p4076
I1207
sS'melancholi'
p4077
I4157
sS'acquit'
p4078
I4158
sS'let'
p4079
I4159
sS'sink'
p4080
I3530
sS'meet'
p4081
I4267
sS'"hayepark'
p4082
I3545
sS'sing'
p4083
I4162
sS'becom'
p4084
I4163
sS'"next'
p4085
I3559
sS'miser'
p4086
I3565
sS'39'
p4087
I1556
sS'mackinnon'
p4088
I4167
sS'talent'
p4089
I4168
sS'spite'
p4090
I697
sS'artifici'
p4091
I4072
sS'pretens'
p4092
I4171
sS'31'
p4093
I2899
sS'30'
p4094
I1071
sS'later'
p4095
I4174
sS'repel'
p4096
I4176
sS'painter'
p4097
I2712
sS'illiber'
p4098
I3214
sS'impass'
p4099
I3664
sS'harrington'
p4100
I3581
sS'opinion'
p4101
I4181
sS'chang'
p4102
I4182
sS'indelicaci'
p4103
I4183
sS'honor'
p4104
I3690
sS'inconvenience"'
p4105
I2705
sS'"louisa'
p4106
I4186
sS'33>'
p4107
I4187
sS'impertin'
p4108
I4188
sS'clark'
p4109
I4189
sS'heart'
p4110
I1599
sS'forbid'
p4111
I4191
sS'win'
p4112
I3739
sS'emot'
p4113
I2043
sS'foundat'
p4114
I3753
sS'incumb'
p4115
I1308
sS'explanation"'
p4116
I4196
sS'wit'
p4117
I4197
sS'street'
p4118
I4073
sS'duck'
p4119
I3796
sS'wil'
p4120
I4193
sS'scandal'
p4121
I3806
sS'"excus'
p4122
I4201
sS'fight'
p4123
I5226
sS'numer'
p4124
I4202
sS'_there_'
p4125
I4203
sS'cloud'
p4126
I3925
sS'italian'
p4127
I5070
sS'use'
p4128
I4205
sS'from'
p4129
I4207
sS'contempl'
p4130
I4274
sS'halfexpect'
p4131
I4209
sS'contrarieti'
p4132
I4210
sS'archbishop'
p4133
I4211
sS'doubl'
p4134
I4212
sS'next'
p4135
I4214
sS'eleven'
p4136
I3896
sS'inclination"'
p4137
I3901
sS'doubt'
p4138
I4217
sS'lotteri'
p4139
I4218
sS'aunt"'
p4140
I2643
sS'overbear'
p4141
I1918
sS'cram'
p4142
I4220
sS'selfgratul'
p4143
I4221
sS'burst'
p4144
I4222
sS'start'
p4145
I2541
sS'_make_'
p4146
I1868
sS'remaind'
p4147
I3950
sS'sort'
p4148
I3954
sS'fineri'
p4149
I4227
sS'clever'
p4150
I4228
sS'name"'
p4151
I4229
sS'conniv'
p4152
I765
sS'comparison'
p4153
I4231
sS'trait'
p4154
I3395
sS'hard"'
p4155
I4234
sS'heir'
p4156
I4006
sS'boast"'
p4157
I4010
sS'chariti'
p4158
I4238
sS'sore'
p4159
I4239
sS'transient'
p4160
I4036
sS'faultless'
p4161
I920
sS'8'
p4162
I4242
sS'actual'
p4163
I5137
sS'"to'
p4164
I4243
sS'iii'
p4165
I4244
sS'wretch'
p4166
I4245
sS'penit'
p4167
I4175
sS'annoy'
p4168
I4247
sS'unacknowledg'
p4169
I4077
sS'alik'
p4170
I4249
sS'_that_"'
p4171
I4250
sS'us"'
p4172
I4251
sS'augment'
p4173
I4252
sS'f'
p4174
I3509
sS'ridg'
p4175
I2101
sS'certainly"'
p4176
I4255
sS'ride'
p4177
I4256
sS'oh'
p4178
I2497
sS'stroke'
p4179
I1089
sS'characterist'
p4180
I3764
sS'oct'
p4181
I4260
sS'perturb'
p4182
I4261
sS'justic'
p4183
I5141
sS'butler'
p4184
I4219
sS'"laugh'
p4185
I1612
sS'obvious'
p4186
I4263
sS'thin'
p4187
I4264
sS'of'
p4188
I3237
sS'shoulder'
p4189
I3262
sS'dropt'
p4190
I4268
sS'fetch'
p4191
I4269
sS'aliv'
p4192
I4270
sS'proof'
p4193
I4271
sS'sister'
p4194
I5135
sS'wellwish'
p4195
I4939
sS'"from'
p4196
I4272
sS'bent'
p4197
I4273
sS'patron'
p4198
I4208
sS'far"'
p4199
I2616
sS'process'
p4200
I4276
sS'lock'
p4201
I4277
sS'agreeabl'
p4202
I4115
sS'high'
p4203
I4281
sS'sought'
p4204
I4287
sS'slit'
p4205
I1339
sS'his'
p4206
I3412
sS'condescend'
p4207
I4284
sS'"compli'
p4208
I4285
sS'dinnertim'
p4209
I4278
sS'train'
p4210
I4240
sS'oddly"'
p4211
I4289
sS'made'
p4212
I5216
sS'tan'
p4213
I4290
sS'contempt'
p4214
I4291
sS'weaken'
p4215
I4292
sS'"gracechurchstreet'
p4216
I4293
sS'amend'
p4217
I2248
sS'shocking"'
p4218
I4042
sS'conceit'
p4219
I4170
sS'forese'
p4220
I4297
sS'friendlier'
p4221
I4299
sS'sit'
p4222
I4300
sS'"whatev'
p4223
I4301
sS'six'
p4224
I4302
sS'parlour'
p4225
I4303
sS'degre'
p4226
I4304
sS'georg'
p4227
I4305
sS'delay'
p4228
I4306
sS'healthfuln'
p4229
I2877
sS'inmat'
p4230
I4309
sS'unfrequ'
p4231
I807
sS'netherfield'
p4232
I4311
sS'reestablish'
p4233
I4312
sS'nasti'
p4234
I1846
sS'stock'
p4235
I4314
sS'clearsight'
p4236
I4096
sS'_does_'
p4237
I4316
sS'vener'
p4238
I155
sS'river'
p4239
I4318
sS'attend'
p4240
I4319
sS'sir'
p4241
I4294
sS'farm'
p4242
I4321
sS'stop'
p4243
I4322
sS'await'
p4244
I4324
sS'displeasur'
p4245
I4295
sS'hazard'
p4246
I4325
sS'3'
p4247
I4326
sS'_too_'
p4248
I4296
sS'unexampl'
p4249
I1133
sS'attent'
p4250
I4328
sS'share'
p4251
I2936
sS'lucas\'s"'
p4252
I1200
sS'eager'
p4253
I3736
sS'philosophi'
p4254
I4332
sS'indispos'
p4255
I4333
sS'villag'
p4256
I4334
sS'_yours_'
p4257
I5155
sS'essenti'
p4258
I4336
sS'degener'
p4259
I5127
sS'"bi'
p4260
I4337
sS'about"'
p4261
I4338
sS'gone"'
p4262
I4339
sS'actuat'
p4263
I2110
sS'"be'
p4264
I4341
sS'"in'
p4265
I3015
sS'`obtain'
p4266
I4343
sS'chapman'
p4267
I4344
sS'folly"'
p4268
I4345
sS'allianc'
p4269
I4346
sS'summer"'
p4270
I4347
sS'undiminish'
p4271
I2743
sS'gratif'
p4272
I3419
sS'allow'
p4273
I4349
sS'counten'
p4274
I4350
sS'rwchapman'
p4275
I4351
sS'dinner"'
p4276
I4352
sS'furnish'
p4277
I4353
sS'unforgiv'
p4278
I4354
sS'elig'
p4279
I4355
sS'object"'
p4280
I4356
sS'unembarrass'
p4281
I4357
sS'deference"'
p4282
I3839
sS'move'
p4283
I4359
sS'disarm'
p4284
I4360
sS'affection"'
p4285
I4361
sS'whilst'
p4286
I4362
sS'discompos'
p4287
I3227
sS'earth'
p4288
I4364
sS'weeks"'
p4289
I4365
sS'existence"'
p4290
I1291
sS'13>'
p4291
I4367
sS'invitation"'
p4292
I4368
sS'glen'
p4293
I3296
sS'1'
p4294
I3334
sS'amiable"'
p4295
I4372
sS'deathwarr'
p4296
I4373
sS'alway'
p4297
I4374
sS'chosen'
p4298
I4375
sS'decorum'
p4299
I4376
sS'verili'
p4300
I2515
sS'brook'
p4301
I4378
sS'_younger_'
p4302
I4379
sS'partridg'
p4303
I731
sS'world"'
p4304
I4381
sS'speech"'
p4305
I4308
sS'restrain'
p4306
I4383
sS'bye'
p4307
I640
sS'tortur'
p4308
I5166
sS'concurrence"'
p4309
I4385
sS'offence"'
p4310
I4386
sS'recept'
p4311
I4387
sS'prosper'
p4312
I4388
sS'pure'
p4313
I3193
sS'misrepresented"'
p4314
I4391
sS'dissolv'
p4315
I3275
sS'flew'
p4316
I2842
sS'51>'
p4317
I4395
sS'sir"'
p4318
I4226
sS'mention'
p4319
I4396
sS'forgotten"'
p4320
I4397
sS'billiard'
p4321
I4398
sS'kiss'
p4322
I786
sS'intrepid'
p4323
I3979
sS'front'
p4324
I4401
sS'fasten'
p4325
I4402
sS'scatter'
p4326
I4908
sS'surviv'
p4327
I4403
sS'pompous'
p4328
I4404
sS'day'
p4329
I4405
sS'foolish"'
p4330
I4406
sS'strive'
p4331
I2517
sS'ancient'
p4332
I4528
sS'yesterday"'
p4333
I609
sS'least"'
p4334
I4409
sS'slacken'
p4335
I4410
sS'anyth'
p4336
I4411
sS'edit'
p4337
I4412
sS'unawar'
p4338
I4610
sS'whither'
p4339
I4413
sS'"did'
p4340
I4414
sS'poetri'
p4341
I4313
sS"_anybody's_"
p4342
I3940
sS'intolerable"'
p4343
I4007
sS'februari'
p4344
I4417
sS"wit'"
p4345
I3090
sS"shan't"
p4346
I4419
sS'mode'
p4347
I4420
sS'truth'
p4348
I4421
sS'"bingley"'
p4349
I4422
sS'darci'
p4350
I4423
sS'beneath'
p4351
I4424
sS'paler'
p4352
I4425
sS'esteem'
p4353
I4426
sS'lie'
p4354
I3661
sS'thwart'
p4355
I4429
sS'freckl'
p4356
I4430
sS'intellig'
p4357
I4431
sS'unshaken'
p4358
I1124
sS'composition"'
p4359
I4434
sS'``ladi'
p4360
I4435
sS'_prudently_'
p4361
I5189
sS'_being_'
p4362
I4436
sS'#10000'
p4363
I4437
sS'sleeves"'
p4364
I4438
sS'8>'
p4365
I4439
sS'brittl'
p4366
I4440
sS'fluctuat'
p4367
I4441
sS'our'
p4368
I4442
sS'differ'
p4369
I3223
sS'dissatisfi'
p4370
I3210
sS'elaps'
p4371
I2289
sS'special'
p4372
I4446
sS'out'
p4373
I4447
sS'gallant'
p4374
I4448
sS'strictest'
p4375
I4449
sS'ballroom'
p4376
I4450
sS'narrat'
p4377
I4433
sS'enemi'
p4378
I3440
sS'influenc'
p4379
I4452
sS'confess'
p4380
I4453
sS'singular'
p4381
I4320
sS'rev'
p4382
I4454
sS'defenc'
p4383
I4455
sS'acutest'
p4384
I4456
sS'repress'
p4385
I2055
sS'superintend'
p4386
I3156
sS'49>'
p4387
I3028
sS'meryton'
p4388
I4459
sS'suitabl'
p4389
I4460
sS'matter"'
p4390
I3705
sS'impart'
p4391
I4461
sS'unchang'
p4392
I4462
sS'pledg'
p4393
I4463
sS'squeamish'
p4394
I4464
sS'"_her_'
p4395
I4465
sS'time"'
p4396
I76
sS'thereupon'
p4397
I81
sS'counterpart'
p4398
I4493
sS'disgust'
p4399
I4230
sS'book"'
p4400
I616
sS'quarter'
p4401
I1766
sS'58>'
p4402
I4469
sS'frank'
p4403
I1752
sS'jilt'
p4404
I4471
sS'transfer'
p4405
I5182
sS'undo'
p4406
I4472
sS'ii>'
p4407
I3566
sS'situation"'
p4408
I4474
sS'upbraid'
p4409
I4475
sS'york'
p4410
I4476
sS'tempt'
p4411
I4477
sS'sneer'
p4412
I2423
sS'apt'
p4413
I4195
sS'philip'
p4414
I4480
sS'likelihood'
p4415
I4481
sS'ill"'
p4416
I194
sS'tenant'
p4417
I4483
sS'"can'
p4418
I208
sS'waroffic'
p4419
I4485
sS'septemb'
p4420
I2249
sS'favour"'
p4421
I223
sS'intrus'
p4422
I4488
sS'contrariwis'
p4423
I2338
sS'could'
p4424
I4490
sS'pictur'
p4425
I5180
sS'"neglect'
p4426
I4491
sS'looks"'
p4427
I2104
sS'keep'
p4428
I276
sS'respect"'
p4429
I647
sS'selfwil'
p4430
I4494
sS'chicken'
p4431
I2886
sS'evil"'
p4432
I4040
sS'jealousi'
p4433
I1928
sS'match"'
p4434
I4498
sS'mortal'
p4435
I1446
sS'elud'
p4436
I4327
sS'successor'
p4437
I4407
sS'retail'
p4438
I320
sS'_scheme_'
p4439
I4503
sS'south'
p4440
I4504
sS'_affect_'
p4441
I4505
sS'refresh'
p4442
I3094
sS'there'
p4443
I2537
sS'"has'
p4444
I4509
sS'45>'
p4445
I4510
sS'blown'
p4446
I4511
sS'proflig'
p4447
I1152
sS'savour'
p4448
I4513
sS'midjun'
p4449
I3141
sS'qualiti'
p4450
I390
sS'scene'
p4451
I4516
sS'echo'
p4452
I3976
sS'bonnet'
p4453
I4518
sS'have"'
p4454
I4519
sS'15th'
p4455
I5147
sS'"no"'
p4456
I4520
sS'pitiabl'
p4457
I422
sS'submit'
p4458
I4522
sS'rattl'
p4459
I4523
sS'owner'
p4460
I4524
sS'filial'
p4461
I4525
sS'rule'
p4462
I5311
sS'"such'
p4463
I4331
sS"love'"
p4464
I4527
sS'long'
p4465
I3902
sS'abhorrence"'
p4466
I3216
sS'droop'
p4467
I825
sS'love"'
p4468
I491
sS'insol'
p4469
I3752
sS'unknown'
p4470
I4533
sS'vulgar'
p4471
I4534
sS'accent'
p4472
I2081
sS'capac'
p4473
I4536
sS'teatim'
p4474
I523
sS'monday'
p4475
I5286
sS'their'
p4476
I532
sS'hearing"'
p4477
I3514
sS'venison'
p4478
I3685
sS'ensign'
p4479
I4194
sS'infami'
p4480
I4541
sS'enough"'
p4481
I564
sS'licenc'
p4482
I4544
sS'fairest'
p4483
I582
sS'misunderstood'
p4484
I593
sS'fastidi'
p4485
I3798
sS'sixteenth'
p4486
I4548
sS'philips'
p4487
I5193
sS'inspect'
p4488
I4148
sS'chagrin'
p4489
I1719
sS'termin'
p4490
I4543
sS'punish'
p4491
I4551
sS'juli'
p4492
I636
sS'place"'
p4493
I5191
sS'tomorrow"'
p4494
I3936
sS'larger'
p4495
I4173
sS'shall'
p4496
I3820
sS'accompani'
p4497
I4555
sS'shelv'
p4498
I4556
sS'anybodi'
p4499
I2514
sS'herself'
p4500
I4558
sS'practic'
p4501
I1663
sS'mechan'
p4502
I4560
sS'kenelworth'
p4503
I4561
sS'observation"'
p4504
I5280
sS'spurn'
p4505
I4562
sS'james\'s"'
p4506
I4563
sS'boulang'
p4507
I4564
sS'loud'
p4508
I5266
sS'repuls'
p4509
I4566
sS'see'
p4510
I3458
sS'bed'
p4511
I770
sS'shill'
p4512
I774
sS'claim'
p4513
I4570
sS'rack'
p4514
I4103
sS'palliat'
p4515
I2551
sS'outstrip'
p4516
I4574
sS'light'
p4517
I4340
sS'bare'
p4518
I3459
sS'indistinct'
p4519
I4577
sS'subjoin'
p4520
I829
sS'bet'
p4521
I834
sS'busili'
p4522
I3350
sS'exhibit'
p4523
I4581
sS'limit'
p4524
I5230
sS'sadly"'
p4525
I4583
sS'engag'
p4526
I4916
sS'explicit'
p4527
I4584
sS'correspond'
p4528
I4585
sS'tide'
p4529
I4586
sS'corrupt'
p4530
I3527
sS'cards"'
p4531
I4588
sS'torment'
p4532
I4589
sS'comes"'
p4533
I4590
sS'coher'
p4534
I589
sS'tabl'
p4535
I936
sS'need'
p4536
I4307
sS'dovedal'
p4537
I3488
sS'keener'
p4538
I4595
sS'offens'
p4539
I4596
sS'disappointment"'
p4540
I3898
sS'intermiss'
p4541
I4598
sS'plain"'
p4542
I4600
sS'afraid'
p4543
I4601
sS'wellproport'
p4544
I4602
sS'smallest'
p4545
I3480
sS'chatsworth'
p4546
I4880
sS'rout'
p4547
I1013
sS'chief'
p4548
I4348
sS'impur'
p4549
I4612
sS'chimneypiec'
p4550
I1033
sS'mix'
p4551
I4609
sS'belief'
p4552
I3321
sS'discret'
p4553
I4611
sS'desperate"'
p4554
I1031
sS'which'
p4555
I4613
sS'consequence"'
p4556
I4614
sS'divert'
p4557
I4615
sS'expected"'
p4558
I4616
sS'32>'
p4559
I4617
sS'divers'
p4560
I1090
sS'_little_'
p4561
I176
sS'_i_'
p4562
I4620
sS'business"'
p4563
I4621
sS'sedat'
p4564
I4599
sS'regard'
p4565
I2559
sS'unless'
p4566
I4624
sS'combat'
p4567
I1128
sS'principl'
p4568
I4626
sS'unfelt'
p4569
I5149
sS'favourit'
p4570
I4200
sS'who'
p4571
I4628
sS'salli'
p4572
I4629
sS'galleri'
p4573
I1153
sS'multitud'
p4574
I4266
sS'presid'
p4575
I4499
sS'irregular'
p4576
I4897
sS'said'
p4577
I4633
sS'eight'
p4578
I4634
sS'but'
p4579
I5204
sS'tall'
p4580
I1676
sS'vii'
p4581
I2853
sS'"removed"'
p4582
I3483
sS'implicit'
p4583
I4639
sS'fervent'
p4584
I129
sS'afresh'
p4585
I4604
sS'urg'
p4586
I4642
sS'inconveni'
p4587
I3893
sS'spleen'
p4588
I4644
sS'benefici'
p4589
I4645
sS'gather'
p4590
I2372
sS'stronger'
p4591
I434
sS'face'
p4592
I4648
sS'sing"'
p4593
I1288
sS'abovement'
p4594
I1295
sS'diffus'
p4595
I4651
sS'absurd'
p4596
I2279
sS'#100000'
p4597
I4582
sS'guinea'
p4598
I4654
sS'north'
p4599
I5195
sS'untam'
p4600
I3930
sS'constrain'
p4601
I4656
sS'beauteous'
p4602
I4657
sS'sagac'
p4603
I4658
sS'"or'
p4604
I2526
sS'fact'
p4605
I4660
sS'park"'
p4606
I3059
sS'son'
p4607
I4662
sS'parish'
p4608
I4286
sS'one"'
p4609
I4664
sS'niec'
p4610
I4665
sS'deject'
p4611
I4666
sS'wonderful"'
p4612
I4667
sS'word"'
p4613
I1377
sS'text'
p4614
I4669
sS'lease"'
p4615
I4670
sS'_your_'
p4616
I4671
sS'affin'
p4617
I4672
sS'indispens'
p4618
I4673
sS'infatu'
p4619
I4674
sS'tractabl'
p4620
I1407
sS'longbourn"'
p4621
I4676
sS'mean"'
p4622
I4677
sS'bedroom'
p4623
I3971
sS'utter'
p4624
I4679
sS'rough'
p4625
I1289
sS'brink'
p4626
I4681
sS'"becaus'
p4627
I4682
sS'shield'
p4628
I4683
sS'many"'
p4629
I4684
sS'36>'
p4630
I3229
sS'wear'
p4631
I4686
sS'pleasantest'
p4632
I4506
sS'explanatori'
p4633
I4688
sS'nois'
p4634
I4689
sS'tire'
p4635
I4690
sS'anticip'
p4636
I4692
sS'illus'
p4637
I4691
sS'villain'
p4638
I4282
sS'youngest'
p4639
I4156
sS'upstair'
p4640
I1521
sS'rash'
p4641
I4694
sS'true"'
p4642
I1529
sS'jan'
p4643
I2740
sS'stedfast'
p4644
I4697
sS'envi'
p4645
I4698
sS'"he'
p4646
I2729
sS'suppos'
p4647
I4700
sS'conclus'
p4648
I4701
sS'intrigu'
p4649
I1561
sS'unfolded"'
p4650
I1572
sS'b'
p4651
I4704
sS'discontinu'
p4652
I1581
sS'inferior'
p4653
I1706
sS'finger'
p4654
I4708
sS'vigor'
p4655
I1108
sS'count'
p4656
I5215
sS'loss'
p4657
I5055
sS'acced'
p4658
I840
sS'satisfact'
p4659
I4713
sS'beat'
p4660
I818
sS'convert'
p4661
I4041
sS'circumspect'
p4662
I4573
sS'disagre'
p4663
I4716
sS'hire'
p4664
I4717
sS'bear'
p4665
I4718
sS'trout'
p4666
I5114
sS'joint'
p4667
I3689
sS'this"'
p4668
I4720
sS'secret"'
p4669
I3931
sS'sisterinlaw'
p4670
I1691
sS'circumstances"'
p4671
I4723
sS'please"'
p4672
I4724
sS'spur'
p4673
I4725
sS'lucki'
p4674
I4726
sS'theatr'
p4675
I1428
sS'endless'
p4676
I1716
sS'discharg'
p4677
I4457
sS'anything"'
p4678
I1724
sS'bourgh'
p4679
I4730
sS'dishearten'
p4680
I4731
sS'de'
p4681
I4317
sS'reluct'
p4682
I1142
sS'brain'
p4683
I4733
sS'be'
p4684
I3833
sS'contents"'
p4685
I4735
sS'had"'
p4686
I1771
sS'questions"'
p4687
I4737
sS'ordain'
p4688
I4738
sS'summon'
p4689
I4739
sS'partner"'
p4690
I4740
sS'dearest'
p4691
I4363
sS'iniquit'
p4692
I4742
sS'integr'
p4693
I3974
sS'insist'
p4694
I2410
sS'contain'
p4695
I1817
sS'an'
p4696
I4890
sS'shi'
p4697
I4746
sS"won't"
p4698
I4747
sS'vouch'
p4699
I4554
sS'preach'
p4700
I2156
sS'unison'
p4701
I4749
sS'madam'
p4702
I1858
sS'legaci'
p4703
I4751
sS'"perhaps"'
p4704
I4752
sS'fear'
p4705
I4680
sS'unimport'
p4706
I4753
sS'persist'
p4707
I4755
sS'frame'
p4708
I4756
sS'entailed"'
p4709
I1548
sS'grounds"'
p4710
I3351
sS'apolog'
p4711
I4759
sS'testimoni'
p4712
I4257
sS'coolli'
p4713
I4366
sS'unwel'
p4714
I3985
sS'end"'
p4715
I364
sS'triumphant'
p4716
I4763
sS'powder'
p4717
I1245
sS'connubi'
p4718
I4764
sS'brother"'
p4719
I4765
sS'glaze'
p4720
I4767
sS'cold'
p4721
I4768
sS'_interest_'
p4722
I4769
sS'forgo'
p4723
I4770
sS'luckiest'
p4724
I1982
sS'flirt'
p4725
I2831
sS'entranc'
p4726
I4773
sS'convers'
p4727
I4169
sS'complac'
p4728
I4775
sS'extend'
p4729
I2572
sS'closet'
p4730
I4777
sS'beg'
p4731
I4567
sS'study"'
p4732
I4779
sS'boundari'
p4733
I4780
sS'_courier_'
p4734
I4781
sS'``late'
p4735
I5185
sS'couples"'
p4736
I4783
sS'generations"'
p4737
I2054
sS'state'
p4738
I1815
sS'impertinence"'
p4739
I4786
sS'vexation"'
p4740
I4787
sS'understood'
p4741
I3801
sS'_must_'
p4742
I2085
sS'disinclin'
p4743
I4530
sS'speed'
p4744
I3474
sS'tent'
p4745
I2730
sS'perfect'
p4746
I4370
sS'dec'
p4747
I4793
sS'sole'
p4748
I3496
sS'jot'
p4749
I2122
sS'merri'
p4750
I2132
sS'superior'
p4751
I4371
sS'joy'
p4752
I4797
sS'sorrow'
p4753
I4798
sS'sisters"'
p4754
I2585
sS'conjunct'
p4755
I4799
sS'dislik'
p4756
I4800
sS'court"'
p4757
I5164
sS'trepid'
p4758
I4801
sS'entir'
p4759
I4802
sS'arts"'
p4760
I4803
sS'_do_'
p4761
I4804
sS'useless'
p4762
I3746
sS'precious'
p4763
I1265
sS'eclips'
p4764
I2218
sS'regular'
p4765
I3869
sS'addit'
p4766
I4810
sS'surmise"'
p4767
I2234
sS'unappeas'
p4768
I4812
sS'instant'
p4769
I4813
sS'pecuniari'
p4770
I4814
sS'chesnut'
p4771
I4815
sS'"insol'
p4772
I2257
sS'happened"'
p4773
I4962
sS'gardiner"'
p4774
I1354
sS'ensu'
p4775
I2912
sS'_as_'
p4776
I4013
sS'april'
p4777
I4819
sS'doorway'
p4778
I335
sS'audibl'
p4779
I68
sS'grain'
p4780
I2299
sS'family"'
p4781
I4823
sS'joy"'
p4782
I4824
sS'freeli'
p4783
I4825
sS'swallow'
p4784
I4826
sS'everybody"'
p4785
I4827
sS'e'
p4786
I4572
sS'vent'
p4787
I3542
sS'christen'
p4788
I4830
sS'unfold'
p4789
I1042
sS'cordial'
p4790
I5240
sS'flirtat'
p4791
I4832
sS'tuesday'
p4792
I4833
sS'fidgeti'
p4793
I3501
sS'arriv'
p4794
I4834
sS'walk'
p4795
I4835
sS'commend'
p4796
I4836
sS'asper'
p4797
I4837
sS'empti'
p4798
I4838
sS'distrust'
p4799
I3918
sS'"mama"'
p4800
I2437
sS'news'
p4801
I773
sS'forbear'
p4802
I2265
sS'together"'
p4803
I2450
sS'reanim'
p4804
I4844
sS'repin'
p4805
I2466
sS'adieus'
p4806
I4005
sS'hertfordshire"'
p4807
I4848
sS'vogu'
p4808
I2896
sS'quit'
p4809
I4849
sS'_felt_'
p4810
I4850
sS'_talk_'
p4811
I4851
sS'slowli'
p4812
I4852
sS'own"'
p4813
I4853
sS'solitari'
p4814
I3717
sS'catherin'
p4815
I4855
sS'decent'
p4816
I4856
sS'"shall'
p4817
I4857
sS'_august_2_'
p4818
I2516
sS'obstacl'
p4819
I2065
sS'cent'
p4820
I4860
sS'insuffici'
p4821
I4861
sS'home"'
p4822
I4862
sS'"just'
p4823
I2536
sS'willing'
p4824
I4382
sS'besid'
p4825
I4865
sS'treat'
p4826
I4866
sS'chuses"'
p4827
I4867
sS'certain'
p4828
I2596
sS'curtain'
p4829
I2566
sS'feather'
p4830
I4870
sS'"hunsford"'
p4831
I2575
sS'"our'
p4832
I2263
sS'decenc'
p4833
I2584
sS'spacious'
p4834
I4874
sS'benevolence"'
p4835
I4875
sS'liverpool'
p4836
I1644
sS'general'
p4837
I4877
sS'treasur'
p4838
I4878
sS'proudest'
p4839
I4879
sS'both'
p4840
I3508
sS'book'
p4841
I5273
sS'am'
p4842
I2598
sS'point"'
p4843
I4882
sS'piquet'
p4844
I4883
sS'misfortunes"'
p4845
I873
sS'neighbour'
p4846
I2657
sS'behalf'
p4847
I4886
sS'togeth'
p4848
I4887
sS'_me_"'
p4849
I2828
sS'ador'
p4850
I4888
sS'furnitur'
p4851
I2691
sS'fellow'
p4852
I3399
sS'cruel'
p4853
I5228
sS'arisen'
p4854
I2188
sS'scrutini'
p4855
I2718
sS'carter'
p4856
I4109
sS'gardin'
p4857
I4894
sS'behaved"'
p4858
I4895
sS'therefor'
p4859
I4384
sS'_family_'
p4860
I1482
sS'wonder"'
p4861
I5023
sS'plain'
p4862
I4898
sS'subsid'
p4863
I4899
sS'false"'
p4864
I4900
sS'as'
p4865
I2603
sS'welleduc'
p4866
I4903
sS'harden'
p4867
I211
sS'defin'
p4868
I4905
sS'bath'
p4869
I4906
sS'_would_'
p4870
I3841
sS'young'
p4871
I4065
sS'decept'
p4872
I2812
sS'wild'
p4873
I4909
sS'circul'
p4874
I5254
sS'1516'
p4875
I4910
sS'plead'
p4876
I4911
sS'observ'
p4877
I2833
sS'kind"'
p4878
I5255
sS'furnished"'
p4879
I4914
sS'purchas'
p4880
I4915
sS'aw'
p4881
I4053
sS'parsonag'
p4882
I4917
sS'apprehend'
p4883
I2879
sS'sister"'
p4884
I2884
sS'thus'
p4885
I4920
sS'chanc'
p4886
I4185
sS'condition"'
p4887
I3517
sS'<finis>'
p4888
I4922
sS'believ'
p4889
I3169
sS'truest'
p4890
I4924
sS'motiv'
p4891
I4925
sS'_right_'
p4892
I4926
sS'substanti'
p4893
I4927
sS'tenor'
p4894
I4928
sS'incom'
p4895
I2946
sS'appearance"'
p4896
I4930
sS'dawson'
p4897
I5258
sS'apprehens'
p4898
I1145
sS'of"'
p4899
I4932
sS'proport'
p4900
I2611
sS'present'
p4901
I4891
sS'welcom'
p4902
I4934
sS'though"'
p4903
I1772
sS'prettier'
p4904
I3908
sS'parti'
p4905
I4936
sS'began'
p4906
I4937
sS'cross'
p4907
I4938
sS'_person_'
p4908
I3983
sS'himself'
p4909
I3914
sS'nod'
p4910
I4941
sS'speaker'
p4911
I4942
sS'creditor'
p4912
I4943
sS'largest'
p4913
I4944
sS'inch'
p4914
I3076
sS'however"'
p4915
I3521
sS'fill'
p4916
I2612
sS'travellers"'
p4917
I3095
sS'grandeur'
p4918
I4949
sS'qualifications"'
p4919
I3511
sS'competit'
p4920
I942
sS'balm'
p4921
I3297
sS'supersed'
p4922
I2525
sS'slave'
p4923
I4954
sS'misunderstand'
p4924
I4579
sS'denot'
p4925
I4288
sS'sequel'
p4926
I4956
sS'wisest'
p4927
I3155
sS'upon'
p4928
I4958
sS'lobbi'
p4929
I3165
sS'rectitud'
p4930
I1344
sS'tribut'
p4931
I4394
sS'never'
p4932
I801
sS'canva'
p4933
I4964
sS'build'
p4934
I3315
sS'judgment'
p4935
I4965
sS'prettyish'
p4936
I4712
sS'pull'
p4937
I4967
sS'part"'
p4938
I4968
sS'uncertainti'
p4939
I4969
sS'off'
p4940
I4970
sS'proceed'
p4941
I4971
sS'composur'
p4942
I4972
sS'interpos'
p4943
I3279
sS'diversifi'
p4944
I3286
sS'collect'
p4945
I3778
sS'morri'
p4946
I3861
sS'concis'
p4947
I4978
sS'poultri'
p4948
I644
sS'likewis'
p4949
I720
sS'border'
p4950
I4597
sS'`to'
p4951
I4744
sS'confidant'
p4952
I4982
sS'collin'
p4953
I2619
sS'great'
p4954
I4166
sS'35>'
p4955
I2051
sS'rush'
p4956
I4986
sS'send'
p4957
I4066
sS'latest'
p4958
I3364
sS'lest'
p4959
I4988
sS'compromis'
p4960
I4989
sS'believe"'
p4961
I4283
sS'_most_'
p4962
I3378
sS'newest'
p4963
I4992
sS'only"'
p4964
I3385
sS'surely"'
p4965
I4994
sS'less'
p4966
I4995
sS'undeserv'
p4967
I5270
sS'half'
p4968
I1736
sS'blameabl'
p4969
I4998
sS'obtain'
p4970
I4999
sS'deserved"'
p4971
I4729
sS'dose'
p4972
I5001
sS'should'
p4973
I4695
sS'trust'
p4974
I5002
sS'selfreproach'
p4975
I4224
sS'distant'
p4976
I5003
sS'repent'
p4977
I5004
sS'abat'
p4978
I3451
sS'gain'
p4979
I4661
sS'where'
p4980
I2107
sS'skill'
p4981
I5007
sS'thither'
p4982
I2622
sS'overpow'
p4983
I4418
sS'courtship'
p4984
I1739
sS'gentlest'
p4985
I5010
sS'untinctur'
p4986
I2276
sS'dishonour'
p4987
I5146
sS'``you'
p4988
I5012
sS'generous'
p4989
I5013
sS'gratified"'
p4990
I3016
sS'clergyman'
p4991
I3506
sS'toilett'
p4992
I5016
sS'woman'
p4993
I2723
sS'imprud'
p4994
I5018
sS'close'
p4995
I4592
sS'bell'
p4996
I5020
sS'hatfield'
p4997
I1467
sS'arisen"'
p4998
I3794
sS'confederaci'
p4999
I3593
sS'begun"'
p5000
I2470
sS'overspread'
p5001
I5025
sS'arrest'
p5002
I5026
sS'add'
p5003
I5027
sS'reconsid'
p5004
I5102
sS'year"'
p5005
I5029
sS'28>'
p5006
I3586
sS'tax'
p5007
I4233
sS'smart'
p5008
I3615
sS'imparti'
p5009
I5033
sS'match'
p5010
I1179
sS'reprehens'
p5011
I3619
sS'nuptial'
p5012
I5036
sS'mistake"'
p5013
I5037
sS'room"'
p5014
I5038
sS'branch'
p5015
I5039
sS'fate'
p5016
I5040
sS'drawn'
p5017
I4721
sS'admit'
p5018
I2292
sS'ampli'
p5019
I3657
sS'deaden'
p5020
I5042
sS'surprised"'
p5021
I3667
sS'_spoke_'
p5022
I5044
sS'assert'
p5023
I4885
sS'dilatori'
p5024
I5277
sS'punctuat'
p5025
I5045
sS'blemish'
p5026
I4913
sS'five'
p5027
I5047
sS'know'
p5028
I5048
sS'wed'
p5029
I5017
sS'press'
p5030
I5049
sS'footstool'
p5031
I1949
sS'conjecture"'
p5032
I1837
sS'26>'
p5033
I5052
sS'"your'
p5034
I5053
sS'degree"'
p5035
I5054
sS'we"'
p5036
I3438
sS'resid'
p5037
I5056
sS'like'
p5038
I5057
sS'lost'
p5039
I3770
sS'incred'
p5040
I5059
sS'confusion"'
p5041
I2145
sS'unintellig'
p5042
I5062
sS'draw'
p5043
I3999
sS'bring'
p5044
I4675
sS'stagger'
p5045
I5064
sS'necessari'
p5046
I5065
sS'have'
p5047
I933
sS'lose'
p5048
I5066
sS'"without'
p5049
I5067
sS'soft'
p5050
I5068
sS'page'
p5051
I3866
sS'other"'
p5052
I4110
sS'provok'
p5053
I3546
sS'therein'
p5054
I5071
sS'surest'
p5055
I5072
sS'shed'
p5056
I199
sS'drop'
p5057
I5074
sS'school'
p5058
I392
sS'explicit"'
p5059
I3899
sS'"care'
p5060
I3905
sS'parade"'
p5061
I3532
sS'[authorjan'
p5062
I855
sS'penetr'
p5063
I5080
sS'stuffi'
p5064
I5081
sS'hair'
p5065
I3937
sS'copied"'
p5066
I3939
sS'growth'
p5067
I5084
sS'reviv'
p5068
I2969
sS'wishedfor'
p5069
I3799
sS'proper'
p5070
I5087
sS'paddock'
p5071
I2176
sS'11>'
p5072
I5089
sS'transport'
p5073
I3991
sS'suffer"'
p5074
I3988
sS'shrug'
p5075
I5092
sS'"what'
p5076
I5093
sS'throughout'
p5077
I3549
sS'_frankness_'
p5078
I4323
sS'esq'
p5079
I4024
sS'ecstaci'
p5080
I4416
sS'madam"'
p5081
I5097
sS'glad"'
p5082
I5098
sS'avoid'
p5083
I5099
sS'panegyr'
p5084
I5100
sS'lean'
p5085
I5101
sS'class"'
p5086
I4358
sS'provoc'
p5087
I5104
sS'draught'
p5088
I5105
sS'estim'
p5089
I5106
sS'passion'
p5090
I2995
sS'settl'
p5091
I5108
sS'disbeliev'
p5092
I5109
sS'vehem'
p5093
I5110
sS'forgiven'
p5094
I5111
sS'enrag'
p5095
I5112
sS'inn'
p5096
I5252
sS'duplic'
p5097
I5113
sS'halfopen'
p5098
I1242
sS'regain'
p5099
I5115
sS'birthday'
p5100
I5116
sS'civility"'
p5101
I1460
sS'investig'
p5102
I4119
sS'obey'
p5103
I5119
sS'climax'
p5104
I3473
sS'yours"'
p5105
I5289
sS'imaginari'
p5106
I5122
sS'rock'
p5107
I5123
sS'usag'
p5108
I5124
sS'nichol'
p5109
I2645
sS'paper'
p5110
I3029
sS'`seen'
p5111
I4974
sS'forgiv'
p5112
I3554
sS'although'
p5113
I5128
sS'instinct'
p5114
I5129
sS'hush'
p5115
I5130
sS'stay'
p5116
I5290
sS'repair'
p5117
I3877
sS'stage'
p5118
I5133
sS'negat'
p5119
I5134
sS'about'
p5120
I4237
sS'managed"'
p5121
I1074
sS'ungener'
p5122
I3205
sS'interven'
p5123
I5138
sS'sorry"'
p5124
I3533
sS'linger'
p5125
I5140
sS'_one_'
p5126
I4223
sS'freedom'
p5127
I4235
sS'withdrew'
p5128
I5143
sS'nonsens'
p5129
I865
sS'cleans'
p5130
I5145
sS'justif'
p5131
I4280
sS'courag'
p5132
I1768
sS'happen"'
p5133
I3191
sS'coachman'
p5134
I4232
sS'bridg'
p5135
I5150
sS'prudenti'
p5136
I3065
sS'fals'
p5137
I5152
sS'indiffer'
p5138
I5153
sS'certainti'
p5139
I5154
sS'herself"'
p5140
I4335
sS'encamp'
p5141
I1220
sS'lizzy"'
p5142
I5157
sS'magistr'
p5143
I5158
sS'offers"'
p5144
I5159
sS'pale'
p5145
I3810
sS'desper'
p5146
I222
sS'auster'
p5147
I5161
sS'final'
p5148
I4545
sS'singular"'
p5149
I5163
sS'societi'
p5150
I4428
sS'owe'
p5151
I5165
sS'uncertain'
p5152
I3602
sS'unblemish'
p5153
I3461
sS'pronounc'
p5154
I3982
sS'_this_'
p5155
I5168
sS'shocked"'
p5156
I5169
sS'calling"'
p5157
I2694
sS'aloud"'
p5158
I4542
sS'there"'
p5159
I3564
sS'grosvenorstreet'
p5160
I5173
sS'luck'
p5161
I2841
sS'expediti'
p5162
I4977
sS'hang'
p5163
I5175
sS'mere'
p5164
I5176
sS'go"'
p5165
I4206
sS'doubtless'
p5166
I5178
sS'specul'
p5167
I5179
sS'prudent'
p5168
I2652
sS'despic'
p5169
I4594
sS'"certain'
p5170
I5181
sS'"_mr_'
p5171
I4501
sS'_expression_'
p5172
I5021
sS'proprietor'
p5173
I5184
sS'proverb"'
p5174
I5186
sS'piqu'
p5175
I4225
sS'unreason'
p5176
I5187
sS'worthy"'
p5177
I5188
sS'seclus'
p5178
I736
sS'wickedest'
p5179
I5190
sS'manserv'
p5180
I4553
sS'rode'
p5181
I4279
sS'resound'
p5182
I5192
sS'"nay'
p5183
I4241
sS'refus'
p5184
I1841
sS'nourish'
p5185
I2574
sS'deni'
p5186
I4650
sS'frisk'
p5187
I3790
sS'56>'
p5188
I2929
sS'innoc'
p5189
I5198
sS'road"'
p5190
I5199
sS'strictur'
p5191
I5200
sS'compar'
p5192
I4129
sS'_created_"'
p5193
I4627
sS'experienc'
p5194
I5303
sS'[*end*]'
p5195
I4635
sS'forward'
p5196
I3910
sS'shyness'
p5197
I5205
sS'they"'
p5198
I5206
sS'bodi'
p5199
I3900
sS'letter"'
p5200
I2185
sS'ensignci'
p5201
I5208
sS'everyon'
p5202
I3620
sS'raptur'
p5203
I4714
sS'grievanc'
p5204
I2934
sS'overflow'
p5205
I433
sS'ear'
p5206
I4687
sS'eat'
p5207
I5212
sS'fifth'
p5208
I5213
sS'he'
p5209
I5214
sS'embargo'
p5210
I4710
sS'selfish'
p5211
I4955
sS'prodigiously"'
p5212
I3874
sS'wise'
p5213
I5217
sS'encouragement"'
p5214
I5218
sS'supper'
p5215
I4427
sS'whether'
p5216
I5220
sS'notice"'
p5217
I724
sS'femal'
p5218
I5222
sS'insipid'
p5219
I5308
sS'smooth'
p5220
I5224
sS'comprehend"'
p5221
I5167
sS'distract'
p5222
I3033
sS'contradicted"'
p5223
I4766
sS'godson'
p5224
I5227
sS'below'
p5225
I4782
sS'belov'
p5226
I5229
sS'scienc'
p5227
I4931
sS'indefinit'
p5228
I1635
sS'glori'
p5229
I5232
sS'cake'
p5230
I687
sS'otherwis'
p5231
I5234
sS'ago"'
p5232
I5235
sS'<volum'
p5233
I5236
sS'cambric'
p5234
I5237
sS'display'
p5235
I5238
sS'thirteen'
p5236
I5239
sS'econom'
p5237
I4088
sS'bewail'
p5238
I3573
sS'welldo'
p5239
I5242
sS'mind"'
p5240
I4790
sS'income"'
p5241
I5243
sS'gracious"'
p5242
I3969
sS'constantly"'
p5243
I426
sS'bustl'
p5244
I5247
sS'friend"'
p5245
I2112
sS'bandbox'
p5246
I5249
sS'pig'
p5247
I5250
sS'novemb'
p5248
I5251
sS'fast"'
p5249
I3889
sS'dance"'
p5250
I3578
sS'steward'
p5251
I5011
sS'"unhappi'
p5252
I2737
sS'partial'
p5253
I4044
sS'flight'
p5254
I5257
sS'mistaken'
p5255
I5000
sS'counteract'
p5256
I4565
sS'oakham'
p5257
I5260
sS'retrospect'
p5258
I2398
sS'commenc'
p5259
I4330
sS'entreat'
p5260
I5313
sS'mutual'
p5261
I733
sS'unabash'
p5262
I5265
sS'heavens"'
p5263
I4415
sS'inevit'
p5264
I5267
sS'abound'
p5265
I5118
sS'antagonist'
p5266
I4432
sS'guidanc'
p5267
I5269
sS'oak'
p5268
I4996
sS'detail'
p5269
I4552
sS'wander'
p5270
I4445
sS'prais'
p5271
I4952
sS'other'
p5272
I5028
sS'futur'
p5273
I5274
sS'sick'
p5274
I3929
sS'varieti'
p5275
I5276
sS'course"'
p5276
I3039
sS'most'
p5277
I3333
sS'volume>'
p5278
I5279
sS'proclaim'
p5279
I4443
sS'reach"'
p5280
I5281
sS'withstood'
p5281
I5282
sS'4>'
p5282
I5262
sS'poverti'
p5283
I5284
sS'kindr'
p5284
I2129
sS'plate'
p5285
I4275
sS'again"'
p5286
I3100
sS'class'
p5287
I5288
sS'june'
p5288
I5121
sS'consequenti'
p5289
I3992
sS'"la"'
p5290
I4127
sS'xvi'
p5291
I4685
sS'females"'
p5292
I5293
sS'ground'
p5293
I2048
sS'_ought_'
p5294
I5294
sS'remarks"'
p5295
I5295
sS'illconsequ'
p5296
I5296
sS'"had'
p5297
I5061
sS'gulf'
p5298
I5298
sS'humbl'
p5299
I5299
sS'in"'
p5300
I5300
sS'appoint'
p5301
I387
sS'mercenari'
p5302
I5302
sS'shall"'
p5303
I5203
sS'"the'
p5304
I5318
sS'"anoth'
p5305
I5305
sS'sentiment'
p5306
I4451
sS'acquiesc'
p5307
I5307
sS'neglected"'
p5308
I5223
sS'humour"'
p5309
I5309
sS'jewel'
p5310
I5310
sS'comfortless'
p5311
I2086
sS'entirely"'
p5312
I5312
sS'syllabl'
p5313
I5263
sS'portion'
p5314
I5271
sS'emerg'
p5315
I5315
sS'laiti'
p5316
I4847
sS'"is'
p5317
I3036
sS'undecid'
p5318
I5317
sS'invari'
p5319
I5304
sS'47>'
p5320
I5319
sS'sash'
p5321
I1915
sS'sincer'
p5322
I5321
s.