(dp0
S'fawn'
p1
I0
sS'writingt'
p2
I1
sS'fawk'
p3
I2
sS'yellow'
p4
I3
sS'interchang'
p5
I4
sS'four'
p6
I5
sS'nature\x97'
p7
I6
sS'nature\x92'
p8
I7
sS'houyhnhnm'
p9
I8
sS'scold'
p10
I9
sS'lordin'
p11
I10
sS'lore'
p12
I11
sS'lord'
p13
I12
sS'her\x97'
p14
I13
sS'her\x94'
p15
I14
sS'foul'
p16
I15
sS'fur'
p17
I5099
sS'disturb'
p18
I18
sS'prize'
p19
I150
sS'wooden'
p20
I20
sS'wednesday'
p21
I21
sS'say\x97but'
p22
I22
sS'brutish'
p23
I23
sS'rustl'
p24
I24
sS'budget'
p25
I1294
sS'second'
p26
I26
sS'glassi'
p27
I27
sS'sooth'
p28
I28
sS'valiant'
p29
I29
sS'glasshous'
p30
I30
sS'dialogu'
p31
I31
sS'thunder'
p32
I32
sS'litig'
p33
I5103
sS'decre'
p34
I34
sS'waley\x92'
p35
I35
sS'succumb'
p36
I36
sS'avers'
p37
I37
sS'hero'
p38
I38
sS'gayer'
p39
I39
sS'splinter'
p40
I40
sS'gloom'
p41
I5846
sS'accus'
p42
I3713
sS'here'
p43
I42
sS'herd'
p44
I43
sS'china'
p45
I44
sS'dori'
p46
I45
sS'strewn'
p47
I46
sS'writing\x94'
p48
I47
sS'militari'
p49
I48
sS'k'
p50
I49
sS'robin'
p51
I1296
sS'parklik'
p52
I51
sS'synchronis'
p53
I52
sS'fumbl'
p54
I53
sS'hairdressing\x94'
p55
I54
sS'golden'
p56
I55
sS'fretwork'
p57
I56
sS'summons'
p58
I57
sS'brought'
p59
I58
sS'discommod'
p60
I59
sS'stern'
p61
I60
sS'unit'
p62
I61
sS'sternest'
p63
I62
sS'spoke'
p64
I63
sS'\x93noth'
p65
I64
sS'music'
p66
I65
sS'telegraph'
p67
I66
sS'centr'
p68
I5111
sS'strike'
p69
I68
sS'frockcoat'
p70
I69
sS'until'
p71
I70
sS'\x93when'
p72
I71
sS'threemast'
p73
I72
sS'relat'
p74
I73
sS'notic'
p75
I75
sS'hurt'
p76
I76
sS'99'
p77
I77
sS'glass'
p78
I78
sS'beaut\xe9'
p79
I79
sS'hurl'
p80
I80
sS'palpit'
p81
I488
sS'90'
p82
I82
sS'midst'
p83
I83
sS'92'
p84
I493
sS'bartolus'
p85
I495
sS'94'
p86
I498
sS'97'
p87
I87
sS'96'
p88
I88
sS'accid'
p89
I89
sS'apoplexi'
p90
I90
sS'blade'
p91
I91
sS'sennight'
p92
I6352
sS'toady\x97\x94'
p93
I93
sS'locket'
p94
I94
sS'obliqu'
p95
I95
sS'omelett'
p96
I96
sS'household'
p97
I97
sS'bitterest'
p98
I98
sS'malign'
p99
I100
sS'want'
p100
I101
sS'shuffl'
p101
I102
sS'carous'
p102
I103
sS'hon'
p103
I104
sS'travel'
p104
I105
sS'which\x97heaven'
p105
I106
sS'how'
p106
I107
sS'hot'
p107
I108
sS'hor'
p108
I109
sS'hop'
p109
I110
sS'almshous'
p110
I111
sS'place'
p111
I6358
sS'perspect'
p112
I113
sS'\x91ing\x92'
p113
I114
sS'ptarmigan'
p114
I115
sS'birdcag'
p115
I116
sS'wrong'
p116
I117
sS'beauti'
p117
I118
sS'endang'
p118
I119
sS'refug'
p119
I6362
sS'crevic'
p120
I121
sS'speckl'
p121
I122
sS'revolv'
p122
I123
sS'tulip'
p123
I124
sS'wing'
p124
I125
sS'wind'
p125
I126
sS'wine'
p126
I127
sS'clumsi'
p127
I6365
sS'govern'
p128
I3728
sS'peut'
p129
I130
sS'butcher'
p130
I131
sS'affect'
p131
I3730
sS'vari'
p132
I133
sS'wrought'
p133
I134
sS'stockstil'
p134
I135
sS'fit'
p135
I136
sS'voir'
p136
I3731
sS'fix'
p137
I138
sS'fig'
p138
I139
sS'hillsid'
p139
I140
sS'hidden'
p140
I141
sS'hawthorn'
p141
I142
sS'recours'
p142
I143
sS'p\x92s'
p143
I818
sS'effectu'
p144
I145
sS'colourless'
p145
I146
sS'interrupt'
p146
I147
sS'sixteen'
p147
I148
sS'silver'
p148
I149
sS'scholar'
p149
I19
sS'rumour'
p150
I151
sS'arrog'
p151
I152
sS'arrow'
p152
I154
sS'whig'
p153
I898
sS'crocus'
p154
I156
sS'turnip'
p155
I157
sS'fortnight'
p156
I158
sS'commiss'
p157
I159
sS'whip'
p158
I160
sS'heav'
p159
I6434
sS'adapt'
p160
I161
sS'navig'
p161
I163
sS'given'
p162
I6371
sS'immort'
p163
I165
sS'christma'
p164
I2551
sS'ate'
p165
I168
sS'unabl'
p166
I170
sS'it\x97sh'
p167
I172
sS'confus'
p168
I173
sS'stripe'
p169
I5129
sS'ma\x92am'
p170
I175
sS'don\x92t'
p171
I1082
sS'mingl'
p172
I177
sS'wasp'
p173
I178
sS'wast'
p174
I179
sS'wash'
p175
I180
sS'instruct'
p176
I181
sS'179'
p177
I182
sS'178'
p178
I183
sS'177'
p179
I184
sS'176'
p180
I185
sS'175'
p181
I1111
sS'174'
p182
I187
sS'173'
p183
I188
sS'172'
p184
I189
sS'171'
p185
I190
sS'170'
p186
I191
sS'bitten'
p187
I192
sS'well\x94'
p188
I1133
sS'tangl'
p189
I194
sS'adject'
p190
I6378
sS'master'
p191
I196
sS'bethought'
p192
I197
sS'bitter'
p193
I198
sS'listen'
p194
I199
sS'palsi'
p195
I200
sS'wisdom'
p196
I201
sS'\x93sir'
p197
I1192
sS'unent'
p198
I203
sS'sulphur'
p199
I204
sS'technic'
p200
I205
sS'tree'
p201
I206
sS'shower'
p202
I207
sS'sheen'
p203
I208
sS'sure\x94'
p204
I209
sS'hartopp'
p205
I210
sS'runner'
p206
I211
sS'reassur'
p207
I212
sS'crammed\x97ther'
p208
I213
sS'hug'
p209
I6383
sS'pomp'
p210
I214
sS'tale'
p211
I3464
sS'misshop'
p212
I3740
sS'dozen'
p213
I216
sS'irrevoc'
p214
I217
sS'that'
p215
I218
sS'divan'
p216
I219
sS'hum'
p217
I6385
sS'stirrup'
p218
I221
sS'shall'
p219
I222
sS'object'
p220
I223
sS'victoria'
p221
I224
sS'mouth'
p222
I225
sS'addict'
p223
I226
sS'letter'
p224
I227
sS'wellf'
p225
I228
sS'expound'
p226
I229
sS'grove'
p227
I230
sS'unpleas'
p228
I231
sS'professor'
p229
I232
sS'camp'
p230
I233
sS'empbi'
p231
I234
sS'hospit'
p232
I235
sS'nineteenth'
p233
I236
sS'scream'
p234
I237
sS'came'
p235
I238
sS'marvel'
p236
I239
sS'roseat'
p237
I240
sS'fenner'
p238
I241
sS'forsooth\x97th'
p239
I242
sS'undul'
p240
I243
sS'abreast'
p241
I244
sS'semblanc'
p242
I245
sS'cupid'
p243
I246
sS'bush'
p244
I247
sS'busi'
p245
I248
sS'\x93contempl'
p246
I249
sS'rich'
p247
I250
sS'mend'
p248
I251
sS'milton'
p249
I6395
sS'plate'
p250
I253
sS'fluid\x97her'
p251
I254
sS'seclud'
p252
I255
sS'vener'
p253
I256
sS'ceil'
p254
I257
sS'pocket'
p255
I258
sS'cushion'
p256
I259
sS'relish'
p257
I260
sS'seclus'
p258
I261
sS'alone\x97had'
p259
I262
sS'patch'
p260
I263
sS'sauc'
p261
I264
sS'hasten'
p262
I265
sS'fait'
p263
I266
sS'green\x94'
p264
I267
sS'blew'
p265
I268
sS'fair'
p266
I269
sS'melliflu'
p267
I270
sS'result'
p268
I271
sS'respons'
p269
I272
sS'fail'
p270
I273
sS'bess'
p271
I274
sS'hammer'
p272
I275
sS'best'
p273
I276
sS'definit'
p274
I277
sS'heterogen'
p275
I278
sS'iri'
p276
I279
sS'figur'
p277
I280
sS'score'
p278
I281
sS'herb'
p279
I282
sS'scorn'
p280
I283
sS'them\x94'
p281
I1720
sS'men\x94'
p282
I285
sS'auror'
p283
I286
sS'word\x97on'
p284
I6401
sS'men\x92'
p285
I287
sS'jollyfac'
p286
I288
sS'medallion'
p287
I289
sS'gwyn'
p288
I290
sS'toler'
p289
I291
sS'debt'
p290
I292
sS'life\x97h'
p291
I293
sS'normandi'
p292
I294
sS'108'
p293
I3762
sS'piti'
p294
I296
sS'pith'
p295
I297
sS'tingl'
p296
I298
sS'countri'
p297
I299
sS'seri'
p298
I6404
sS'passed\x94'
p299
I301
sS'elephantfoot'
p300
I302
sS'vain'
p301
I303
sS'102'
p302
I3765
sS'ineff'
p303
I306
sS'assum'
p304
I307
sS'duplic'
p305
I308
sS'plumag'
p306
I309
sS'watercraft'
p307
I310
sS'union'
p308
I311
sS'shriek'
p309
I312
sS'fri'
p310
I313
sS'fro'
p311
I314
sS'pologn'
p312
I315
sS'much'
p313
I316
sS'interpret'
p314
I3771
sS'advers'
p315
I318
sS'hesit'
p316
I319
sS'palmerston'
p317
I320
sS'life'
p318
I321
sS'distast'
p319
I322
sS'louise\x92'
p320
I323
sS'eastern'
p321
I324
sS'wish'
p322
I5678
sS'lift'
p323
I325
sS'child'
p324
I326
sS'was\x97on'
p325
I327
sS'spin'
p326
I328
sS'persuas'
p327
I5158
sS'chill'
p328
I330
sS'sandcolour'
p329
I331
sS'marriag'
p330
I332
sS'rent'
p331
I6414
sS'silken'
p332
I5159
sS'eighteen'
p333
I335
sS'madonna'
p334
I336
sS'smoothest'
p335
I337
sS'harmoni'
p336
I338
sS'it\x97\x97\x97\x94'
p337
I339
sS'jame'
p338
I3776
sS'indescrib'
p339
I341
sS'simil'
p340
I342
sS'split'
p341
I343
sS'horsesho'
p342
I344
sS'topp'
p343
I345
sS'aeroplan'
p344
I346
sS'supper'
p345
I347
sS'haggard'
p346
I348
sS'tune'
p347
I349
sS'\x91department\x92'
p348
I350
sS'molehil'
p349
I351
sS'unhook'
p350
I352
sS'outstar'
p351
I1342
sS'\x93damn'
p352
I354
sS'unwieldi'
p353
I1610
sS'plight'
p354
I356
sS'brandish'
p355
I357
sS'previous'
p356
I358
sS'ham'
p357
I359
sS'duffer'
p358
I2185
sS'had'
p359
I361
sS'hag'
p360
I362
sS'ewer'
p361
I363
sS'endur'
p362
I2207
sS'falter'
p363
I365
sS'has'
p364
I366
sS'hat'
p365
I367
sS'haw'
p366
I368
sS'sanit'
p367
I369
sS'preserv'
p368
I370
sS'twinkl'
p369
I371
sS'birth'
p370
I372
sS'shadow'
p371
I373
sS'lavolta'
p372
I374
sS'stylist'
p373
I1347
sS'measur'
p374
I376
sS'to\x97what'
p375
I377
sS'remind'
p376
I2273
sS'pavement'
p377
I379
sS'stepp'
p378
I380
sS'oncom'
p379
I381
sS'tombston'
p380
I382
sS'attorney'
p381
I383
sS'right'
p382
I384
sS'old'
p383
I385
sS'crowd'
p384
I386
sS'stealthili'
p385
I387
sS'crown'
p386
I388
sS'witti'
p387
I389
sS'for'
p388
I390
sS'bottom'
p389
I391
sS'unravish'
p390
I392
sS'inhuman'
p391
I393
sS'fox'
p392
I394
sS'foe'
p393
I395
sS'fog'
p394
I396
sS'sitwel'
p395
I397
sS'condit'
p396
I398
sS'molecatch'
p397
I399
sS'sensibl'
p398
I400
sS'\x93must'
p399
I401
sS'antechamb'
p400
I402
sS'shaken'
p401
I403
sS'rebuk'
p402
I404
sS'slither'
p403
I405
sS'lackey'
p404
I406
sS'recollect'
p405
I407
sS'riffraff'
p406
I408
sS'despair'
p407
I409
sS'coars'
p408
I410
sS'greenishcolour'
p409
I411
sS'bath'
p410
I6129
sS'sob'
p411
I413
sS'gamekeep'
p412
I414
sS'popinjay'
p413
I415
sS'son'
p414
I416
sS'clatter'
p415
I6431
sS'wrap'
p416
I418
sS'east'
p417
I419
sS'america'
p418
I420
sS'fabric'
p419
I421
sS'suffici'
p420
I422
sS'panorama'
p421
I423
sS'support'
p422
I424
sS'happi'
p423
I425
sS'avail'
p424
I426
sS'\x93look'
p425
I427
sS'spring'
p426
I428
sS'jane'
p427
I429
sS'call'
p428
I3791
sS'headach'
p429
I431
sS'waistcoat'
p430
I433
sS'offer'
p431
I434
sS'armi'
p432
I3793
sS'sukey\x92'
p433
I436
sS'beech'
p434
I437
sS'servants\x92'
p435
I439
sS'duel'
p436
I440
sS'\x93perhap'
p437
I441
sS'insidi'
p438
I442
sS'rattl'
p439
I3795
sS'\x93were'
p440
I1275
sS'rosettabook'
p441
I445
sS'\x93wherea'
p442
I446
sS'151'
p443
I447
sS'150'
p444
I448
sS'153'
p445
I449
sS'proud'
p446
I450
sS'155'
p447
I451
sS'154'
p448
I452
sS'157'
p449
I453
sS'156'
p450
I454
sS'159'
p451
I455
sS'158'
p452
I456
sS'textbook'
p453
I457
sS'exist'
p454
I458
sS'dropsi'
p455
I459
sS'curious'
p456
I460
sS'dealer'
p457
I461
sS'clifford\x92'
p458
I462
sS'lytton'
p459
I463
sS'it\x97thus'
p460
I464
sS'smelt'
p461
I465
sS'floor'
p462
I466
sS'actor'
p463
I467
sS'flood'
p464
I468
sS'sunset'
p465
I469
sS'presum'
p466
I470
sS'smell'
p467
I471
sS'roll'
p468
I472
sS'devot'
p469
I473
sS'greeneri'
p470
I162
sS'intens'
p471
I475
sS'intent'
p472
I476
sS'diadem'
p473
I477
sS'98'
p474
I478
sS'house\x97it'
p475
I479
sS'carriag'
p476
I480
sS'time'
p477
I481
sS'push'
p478
I482
sS'grandfath'
p479
I3801
sS'peacock'
p480
I484
sS'holi'
p481
I485
sS'chain'
p482
I486
sS'reverber'
p483
I487
sS'91'
p484
I81
sS'skate'
p485
I489
sS'chair'
p486
I490
sS'bewild'
p487
I491
sS'decid'
p488
I492
sS'hold'
p489
I84
sS'teehe'
p490
I494
sS'95'
p491
I85
sS'pen'
p492
I496
sS'vex'
p493
I497
sS'obdur'
p494
I86
sS'oversight'
p495
I499
sS'gloomi'
p496
I500
sS'jerk'
p497
I501
sS'dragonfli'
p498
I502
sS'embark'
p499
I503
sS'mourn'
p500
I504
sS'\x93becaus'
p501
I505
sS'exact'
p502
I506
sS'undeni'
p503
I507
sS'tear'
p504
I508
sS'changed\x97sh'
p505
I509
sS'disembodi'
p506
I510
sS'team'
p507
I511
sS'eggcup'
p508
I512
sS'prevent'
p509
I513
sS'meadow'
p510
I514
sS'attic'
p511
I515
sS'sigh'
p512
I516
sS'sign'
p513
I517
sS'crescent'
p514
I518
sS'mudcak'
p515
I519
sS'ship\x97it'
p516
I520
sS'servitud'
p517
I521
sS'jointur'
p518
I523
sS'current'
p519
I524
sS'mell'
p520
I525
sS'fifti'
p521
I2601
sS'glass\x97thi'
p522
I527
sS'berkeley\x92'
p523
I528
sS'amalgam'
p524
I709
sS'carpenter\x92'
p525
I531
sS'address'
p526
I532
sS'along'
p527
I533
sS'cullend'
p528
I534
sS'\x93there'
p529
I535
sS'child\x92'
p530
I536
sS'half\x97how'
p531
I537
sS'brilliant'
p532
I538
sS'wayfar'
p533
I539
sS'sawn'
p534
I540
sS'ourselv'
p535
I541
sS'love'
p536
I542
sS'rambl'
p537
I543
sS'prefer'
p538
I544
sS'rosewood'
p539
I545
sS'bloodi'
p540
I546
sS'climat'
p541
I3815
sS'lighthous'
p542
I548
sS'turret'
p543
I549
sS'masthead\x94'
p544
I550
sS'wicket'
p545
I551
sS'groundbreak'
p546
I552
sS'vigour'
p547
I553
sS'increas'
p548
I5504
sS'sackvill'
p549
I554
sS'angri'
p550
I555
sS'afford'
p551
I556
sS'peopl'
p552
I557
sS'refrain'
p553
I558
sS'enhanc'
p554
I559
sS'divinest'
p555
I560
sS'avaunt'
p556
I561
sS'thirdperson'
p557
I562
sS'pretend'
p558
I563
sS'pretenc'
p559
I564
sS'\xa340885'
p560
I565
sS'lewdest'
p561
I566
sS'hide\x94'
p562
I568
sS'snowdon\x92'
p563
I569
sS'whatev'
p564
I570
sS'stole'
p565
I571
sS'winter'
p566
I572
sS'undertook'
p567
I574
sS'spot'
p568
I575
sS'jacqu'
p569
I576
sS'misshapen'
p570
I577
sS'laundri'
p571
I578
sS'date'
p572
I579
sS'such'
p573
I580
sS'suck'
p574
I581
sS'dove'
p575
I582
sS'stress'
p576
I583
sS'conscious'
p577
I584
sS'st'
p578
I585
sS'so'
p579
I586
sS'swollen'
p580
I587
sS'dungbedraggl'
p581
I588
sS'drunken'
p582
I589
sS'horrifi'
p583
I590
sS'footstep'
p584
I3505
sS'trull'
p585
I592
sS'tore'
p586
I593
sS'jib'
p587
I3540
sS'thumb'
p588
I595
sS'antipathi'
p589
I596
sS'nymph'
p590
I597
sS'torn'
p591
I598
sS'tori'
p592
I599
sS'solitari'
p593
I600
sS'suspicion'
p594
I601
sS'thump'
p595
I602
sS'palpabl'
p596
I603
sS'ascrib'
p597
I604
sS'into'
p598
I605
sS'poem\x94'
p599
I606
sS'apron'
p600
I607
sS'\x93what'
p601
I608
sS'3'
p602
I2643
sS'nation'
p603
I610
sS'temer'
p604
I611
sS'caracol'
p605
I612
sS'twilight'
p606
I613
sS'plung'
p607
I614
sS'hiccough'
p608
I615
sS'separ'
p609
I616
sS'reveri'
p610
I617
sS'confid'
p611
I3830
sS'petrifact'
p612
I619
sS'dead\x94'
p613
I621
sS'scienc'
p614
I6796
sS'neighbourhood'
p615
I622
sS'troll'
p616
I623
sS'boars\x92'
p617
I624
sS'intermin'
p618
I625
sS'giddi'
p619
I626
sS'intermix'
p620
I628
sS'apparit'
p621
I629
sS'domest'
p622
I630
sS'lachrymos'
p623
I3757
sS'seventh'
p624
I632
sS'seventi'
p625
I633
sS'twitchett\x92'
p626
I634
sS'substanc'
p627
I3831
sS'disrespect'
p628
I636
sS'spaniard'
p629
I6475
sS'messuag'
p630
I638
sS'milton\x92'
p631
I640
sS'departur'
p632
I641
sS'modest'
p633
I642
sS'ostrich'
p634
I643
sS'recov'
p635
I644
sS'neglect'
p636
I645
sS'touch\x94'
p637
I646
sS'spoken'
p638
I647
sS'onc'
p639
I648
sS'\x93the'
p640
I649
sS'one'
p641
I650
sS'symmetri'
p642
I651
sS'spanish'
p643
I652
sS'open'
p644
I653
sS'intermarriag'
p645
I654
sS'law\x92'
p646
I655
sS'audac'
p647
I656
sS'wrath'
p648
I657
sS'convent'
p649
I658
sS'bite'
p650
I659
sS'eighteenthcenturi'
p651
I661
sS'loyalti'
p652
I3833
sS'citi'
p653
I663
sS'shiver'
p654
I664
sS'flowers\x92'
p655
I6260
sS'conveni'
p656
I665
sS'winter\x92'
p657
I666
sS'yet\x97let'
p658
I667
sS'romanovitch'
p659
I668
sS'reiter'
p660
I444
sS'peregrin'
p661
I669
sS'shawl'
p662
I670
sS'shawm'
p663
I671
sS'snatch'
p664
I672
sS'tapster'
p665
I673
sS'medlars\x97al'
p666
I674
sS'iceberg'
p667
I675
sS'rival'
p668
I676
sS'stammer'
p669
I677
sS'conglomer'
p670
I678
sS'crumpl'
p671
I679
sS'greasestain'
p672
I4006
sS'russia'
p673
I681
sS'prospect'
p674
I682
sS'influenti'
p675
I683
sS'sumptuous'
p676
I684
sS'1927'
p677
I6483
sS'greyhound'
p678
I4031
sS'argument'
p679
I686
sS'alley'
p680
I687
sS'sad'
p681
I688
sS'say'
p682
I689
sS'emet'
p683
I690
sS'borough'
p684
I691
sS'saw'
p685
I692
sS'sat'
p686
I693
sS'fertil'
p687
I694
sS'wink'
p688
I695
sS'menserv'
p689
I696
sS'note'
p690
I697
sS'take'
p691
I698
sS'destroy'
p692
I699
sS'massi'
p693
I700
sS'moonspid'
p694
I4117
sS'rosina'
p695
I702
sS'ruffl'
p696
I703
sS'knew'
p697
I704
sS'buffet'
p698
I705
sS'butterfli'
p699
I706
sS'abus'
p700
I707
sS'knee'
p701
I708
sS'everlast'
p702
I710
sS'lawn'
p703
I711
sS'enamel'
p704
I712
sS'jonson\x97thos'
p705
I713
sS'uncle\x92'
p706
I6487
sS'drive'
p707
I4193
sS'cocoanut'
p708
I716
sS'bade'
p709
I717
sS'salt'
p710
I718
sS'man\x92'
p711
I719
sS'man\x94'
p712
I720
sS'merit'
p713
I721
sS'bright'
p714
I722
sS'unfinish'
p715
I723
sS'saw\x97but'
p716
I6489
sS'slow'
p717
I725
sS'slop'
p718
I726
sS'transact'
p719
I727
sS'activ'
p720
I728
sS'cloak'
p721
I729
sS'uppermost'
p722
I730
sS'robe'
p723
I731
sS'clank'
p724
I732
sS'estimate\x97of'
p725
I733
sS'see\x97her'
p726
I734
sS'etcetera'
p727
I735
sS'requir'
p728
I736
sS'letharg'
p729
I4396
sS'phantasmagoria'
p730
I738
sS'pimp'
p731
I739
sS'artist'
p732
I740
sS'whipcord'
p733
I741
sS'priest'
p734
I742
sS'roger'
p735
I743
sS'privileg'
p736
I3846
sS'where'
p737
I745
sS'16th'
p738
I746
sS'vision'
p739
I747
sS'gout'
p740
I748
sS'sukey'
p741
I749
sS'cogit'
p742
I750
sS'already\x97it'
p743
I751
sS'flagon'
p744
I752
sS'steelblu'
p745
I753
sS'dexter'
p746
I754
sS'overdon'
p747
I755
sS'ubiquit'
p748
I756
sS'literature\x94and'
p749
I757
sS'mope'
p750
I758
sS'screen'
p751
I759
sS'dome'
p752
I760
sS'adept'
p753
I761
sS'gentl'
p754
I3849
sS'spare'
p755
I763
sS'beguil'
p756
I764
sS'spark'
p757
I765
sS'oust'
p758
I766
sS'parapet'
p759
I767
sS'thame'
p760
I768
sS's'
p761
I769
sS'mani'
p762
I770
sS'gaieti'
p763
I771
sS'loveliest'
p764
I772
sS'exagger'
p765
I773
sS'twin'
p766
I774
sS'prue'
p767
I775
sS'hercul'
p768
I776
sS'extinct'
p769
I777
sS'twig'
p770
I778
sS'boat'
p771
I779
sS'curs'
p772
I780
sS'1588'
p773
I781
sS'stretch'
p774
I782
sS'west'
p775
I783
sS'1586'
p776
I784
sS'venic'
p777
I785
sS'breath'
p778
I786
sS'cards\x97seem'
p779
I787
sS'thousand'
p780
I788
sS'resolut'
p781
I789
sS'rememb'
p782
I791
sS'former'
p783
I792
sS'point\x97sh'
p784
I793
sS'gamest'
p785
I794
sS'snuffbox'
p786
I795
sS'discolour'
p787
I796
sS'brow'
p788
I797
sS'ivi'
p789
I798
sS'\x93upon'
p790
I799
sS'pursu'
p791
I800
sS'fame'
p792
I801
sS'\x93addison'
p793
I802
sS'inscrib'
p794
I803
sS'moustach'
p795
I804
sS'romanlook'
p796
I805
sS'drawingroom'
p797
I806
sS'phantom'
p798
I807
sS'deft'
p799
I808
sS'concis'
p800
I5807
sS'defi'
p801
I810
sS'defo'
p802
I811
sS'starvat'
p803
I6505
sS'temptat'
p804
I813
sS'twitchett'
p805
I814
sS'\x93you'
p806
I815
sS'cheltenham'
p807
I5018
sS'manifold'
p808
I817
sS'rest'
p809
I819
sS'\x93xenophila'
p810
I7325
sS'steamer'
p811
I820
sS'laughabl'
p812
I821
sS'pride\x97for'
p813
I822
sS'concentr'
p814
I823
sS'indulg'
p815
I5062
sS'haymarket'
p816
I5762
sS'exclus'
p817
I5823
sS'littd'
p818
I827
sS'it\x97and'
p819
I828
sS'littl'
p820
I829
sS'instrument'
p821
I830
sS'exercis'
p822
I831
sS'haystack'
p823
I832
sS'rejoic'
p824
I833
sS'around'
p825
I834
sS'dart'
p826
I835
sS'dark'
p827
I836
sS'traffic'
p828
I837
sS'darn'
p829
I838
sS'darl'
p830
I839
sS'world'
p831
I840
sS'dare'
p832
I841
sS'duti'
p833
I6514
sS'stranger'
p834
I843
sS'\x93hang'
p835
I844
sS'goose\x94'
p836
I5782
sS'raindarken'
p837
I846
sS'\x93there\x92r'
p838
I847
sS'liked\x97th'
p839
I848
sS'clay'
p840
I849
sS'tart'
p841
I850
sS'kennel'
p842
I851
sS'clap'
p843
I852
sS'spectat'
p844
I853
sS'crabbed'
p845
I854
sS'participl'
p846
I855
sS'muscl'
p847
I856
sS'\x93whom\x94'
p848
I857
sS'constitut'
p849
I858
sS'serpentine\x94'
p850
I859
sS'room\x97sh'
p851
I860
sS'noon'
p852
I861
sS'exil'
p853
I862
sS'seaman'
p854
I863
sS'nook'
p855
I864
sS'evapor'
p856
I865
sS'notabl'
p857
I866
sS'refer'
p858
I867
sS'power'
p859
I868
sS'ration'
p860
I869
sS'sprung'
p861
I870
sS'marchio'
p862
I871
sS'frenchman'
p863
I872
sS'headdress'
p864
I2016
sS'stone'
p865
I873
sS'authority\x97ha'
p866
I874
sS'fiftytwo'
p867
I3869
sS'stoni'
p868
I5351
sS'side'
p869
I3870
sS'\x93here'
p870
I878
sS'acr'
p871
I879
sS'age\x97h'
p872
I880
sS'mean'
p873
I3872
sS'mosqu'
p874
I882
sS'effici'
p875
I883
sS'\x91like'
p876
I884
sS'pyramus\x94'
p877
I885
sS'together\x97but'
p878
I886
sS'surviv'
p879
I887
sS'chivalri'
p880
I888
sS'shapeli'
p881
I889
sS'hansom'
p882
I890
sS'purplish'
p883
I891
sS'benight'
p884
I892
sS'her'
p885
I893
sS'gleam'
p886
I894
sS'emaci'
p887
I895
sS'hee'
p888
I896
sS'gift\x97'
p889
I897
sS'garment'
p890
I155
sS'hen'
p891
I899
sS'premedit'
p892
I900
sS'bottl'
p893
I901
sS'dissembl'
p894
I902
sS'conclud'
p895
I903
sS'bundl'
p896
I904
sS'shrunk'
p897
I1873
sS'liberry\x94\x97orlando'
p898
I905
sS'with'
p899
I906
sS'conclus'
p900
I907
sS'pull'
p901
I908
sS'rush'
p902
I909
sS'darken'
p903
I910
sS'dirti'
p904
I911
sS'rage'
p905
I912
sS'pule'
p906
I913
sS'peroration\x97h'
p907
I914
sS'taught'
p908
I3877
sS'puls'
p909
I916
sS'darker'
p910
I917
sS'gone'
p911
I918
sS'gong'
p912
I919
sS'him\x97wherea'
p913
I920
sS'creat'
p914
I921
sS'certain'
p915
I922
sS'am'
p916
I923
sS'an'
p917
I924
sS'as'
p918
I925
sS'au'
p919
I926
sS'at'
p920
I927
sS'aw'
p921
I928
sS'creak'
p922
I929
sS'tranquil'
p923
I930
sS'slobber'
p924
I931
sS'cream'
p925
I932
sS'angelica'
p926
I933
sS'wit\x92'
p927
I934
sS'dawns\x97what'
p928
I935
sS'puppi'
p929
I936
sS'words\x97boy\x92'
p930
I937
sS'tight'
p931
I938
sS'them\x97what'
p932
I3880
sS'immens'
p933
I940
sS'sculptur'
p934
I941
sS'he\x94'
p935
I942
sS'slant'
p936
I944
sS'streamofconsci'
p937
I945
sS'vocabulari'
p938
I946
sS'\x93everyth'
p939
I3881
sS'\x93like'
p940
I948
sS'inexplic'
p941
I949
sS'omnibus'
p942
I950
sS'another\x92'
p943
I951
sS'thorn'
p944
I952
sS'groom'
p945
I953
sS'mast'
p946
I954
sS'mass'
p947
I955
sS'adam'
p948
I956
sS'finally*'
p949
I957
sS'bluejacket'
p950
I958
sS'consider'
p951
I959
sS'illustr'
p952
I960
sS'masqu'
p953
I961
sS'incap'
p954
I962
sS'girl\x97who'
p955
I963
sS'tain'
p956
I964
sS'to'
p957
I965
sS'tail'
p958
I966
sS'smile'
p959
I967
sS'plays\x97saw'
p960
I968
sS'rapac'
p961
I969
sS'introduc'
p962
I970
sS'tatter'
p963
I971
sS'diari'
p964
I972
sS'absentmind'
p965
I973
sS'candid'
p966
I974
sS'offal'
p967
I975
sS'strang'
p968
I976
sS'strand'
p969
I977
sS'duski'
p970
I978
sS'harri'
p971
I979
sS'\x93poor'
p972
I980
sS'sang'
p973
I981
sS'sand'
p974
I982
sS'fecund'
p975
I5264
sS'small'
p976
I984
sS'sank'
p977
I985
sS'quicker'
p978
I986
sS'195'
p979
I987
sS'194'
p980
I988
sS'196'
p981
I989
sS'191'
p982
I990
sS'milord'
p983
I991
sS'193'
p984
I992
sS'192'
p985
I993
sS'past'
p986
I994
sS'effigi'
p987
I1434
sS'burnish'
p988
I996
sS'pass'
p989
I997
sS'quicken'
p990
I998
sS'richard'
p991
I999
sS'clock'
p992
I1000
sS'orangeri'
p993
I1001
sS'plianci'
p994
I1002
sS'method'
p995
I1003
sS'burgundi'
p996
I1004
sS'full'
p997
I1005
sS'cliffs\x92'
p998
I1006
sS'eighthour'
p999
I1007
sS'hast'
p1000
I1008
sS'legend'
p1001
I1009
sS'mouldi'
p1002
I1010
sS'wyith'
p1003
I1011
sS'spine'
p1004
I1348
sS'brutal'
p1005
I1012
sS'pick'
p1006
I1013
sS'action'
p1007
I1014
sS'welter'
p1008
I1015
sS'shorthand'
p1009
I1016
sS'beheld'
p1010
I1017
sS'gratuit'
p1011
I1018
sS'casket'
p1012
I1019
sS'\x93faithless\x94'
p1013
I1020
sS'belonged\x97it'
p1014
I1021
sS'morn'
p1015
I1022
sS'6'
p1016
I1023
sS'ballad'
p1017
I1024
sS'more'
p1018
I1025
sS'door'
p1019
I1026
sS'tester'
p1020
I1027
sS'hundr'
p1021
I1028
sS'spoilt'
p1022
I1029
sS'diningroom'
p1023
I1030
sS'worri'
p1024
I2688
sS'compani'
p1025
I1032
sS'doom'
p1026
I1033
sS'onesyl'
p1027
I1034
sS'gravel'
p1028
I1035
sS'hopes\x97for'
p1029
I1036
sS'thickest'
p1030
I1037
sS'knocker'
p1031
I1038
sS'midstream'
p1032
I1039
sS'mall'
p1033
I1040
sS'all\x97th'
p1034
I1041
sS'learn'
p1035
I1042
sS'salt\x94'
p1036
I1043
sS'grope'
p1037
I1044
sS'male'
p1038
I1045
sS'gallow'
p1039
I1046
sS'gallop'
p1040
I1047
sS'scab'
p1041
I1048
sS'illustri'
p1042
I1049
sS'tapestri'
p1043
I1050
sS'scrupul'
p1044
I1051
sS'autumn'
p1045
I1052
sS'masculin'
p1046
I1053
sS'keepin\x92'
p1047
I1054
sS'dress'
p1048
I1055
sS'huge'
p1049
I1056
sS'landscape\x97al'
p1050
I1057
sS'ardour'
p1051
I1058
sS'cling'
p1052
I1059
sS'footman'
p1053
I1060
sS'simpl'
p1054
I1061
sS't\x92other'
p1055
I1062
sS'plant'
p1056
I1063
sS'pinnacl'
p1057
I1064
sS'anoint'
p1058
I1065
sS'plane'
p1059
I1066
sS'lanki'
p1060
I1067
sS'waver'
p1061
I1068
sS'impetuosity\x97lov'
p1062
I1069
sS'plank'
p1063
I1070
sS'circumst'
p1064
I1071
sS'pucker'
p1065
I1072
sS'pigmi'
p1066
I1073
sS'embassi'
p1067
I1074
sS'pant'
p1068
I1075
sS'instep'
p1069
I1076
sS'meadowsweet'
p1070
I1077
sS'trade'
p1071
I1078
sS'paper'
p1072
I1079
sS'scott'
p1073
I1080
sS'brim'
p1074
I1081
sS'nigel'
p1075
I176
sS'brig'
p1076
I1083
sS'woolf'
p1077
I1084
sS'gerald'
p1078
I1085
sS'coarser'
p1079
I1086
sS'alli'
p1080
I1087
sS'wri'
p1081
I1088
sS'1\x92\xe9t\xe9'
p1082
I1089
sS'sublime\x94'
p1083
I1090
sS'superflu'
p1084
I1091
sS'rapier'
p1085
I1092
sS'harrog'
p1086
I1093
sS'farewel'
p1087
I1094
sS'magic'
p1088
I1095
sS'\x93st'
p1089
I1096
sS'achiev'
p1090
I1097
sS'dowag'
p1091
I1098
sS'found'
p1092
I1099
sS'erudit'
p1093
I6567
sS'blue\x94'
p1094
I1101
sS'lantern'
p1095
I1102
sS'england'
p1096
I1103
sS'interstic'
p1097
I1104
sS'eyelash'
p1098
I1105
sS'truth\x94'
p1099
I1106
sS'terrifi'
p1100
I1107
sS'realli'
p1101
I1108
sS'measures\x97'
p1102
I1109
sS'scribe'
p1103
I1110
sS'subtleti'
p1104
I186
sS'ditch'
p1105
I3230
sS'bonham'
p1106
I1113
sS'cossack'
p1107
I1114
sS'clouded\x97lik'
p1108
I1115
sS'research'
p1109
I1116
sS'bubbl'
p1110
I1117
sS'occurr'
p1111
I1118
sS'highway'
p1112
I1119
sS'belief'
p1113
I1120
sS'risen'
p1114
I1121
sS'someon'
p1115
I2701
sS'cockpit'
p1116
I1123
sS'all\x94'
p1117
I1124
sS'believ'
p1118
I1125
sS'murmur'
p1119
I1126
sS'aulis\x94'
p1120
I5816
sS'bartholomew'
p1121
I1127
sS'prefac'
p1122
I1128
sS'albatross'
p1123
I1129
sS'struggl'
p1124
I1130
sS'sicken'
p1125
I1131
sS'penetr'
p1126
I1132
sS'iniqu'
p1127
I6649
sS'it\x97'
p1128
I1134
sS'it\x94'
p1129
I1135
sS'clump'
p1130
I1136
sS'major'
p1131
I1137
sS'wilder'
p1132
I1138
sS'number'
p1133
I1139
sS'unwast'
p1134
I1140
sS'slipper'
p1135
I1141
sS'horribl'
p1136
I1142
sS'glitter'
p1137
I1143
sS'\x93bonthrop\x94'
p1138
I1144
sS'differ'
p1139
I1145
sS'fuller'
p1140
I1146
sS'guest'
p1141
I1147
sS'benedict'
p1142
I1148
sS'arlington'
p1143
I1149
sS'veget'
p1144
I1872
sS'saint'
p1145
I1150
sS'illeg'
p1146
I1151
sS'mizzen'
p1147
I1152
sS'ermin'
p1148
I1153
sS'relationship'
p1149
I1154
sS'gladston'
p1150
I1155
sS'consult'
p1151
I1156
sS'rampant'
p1152
I1157
sS'grace'
p1153
I1158
sS'rustum\x92'
p1154
I1159
sS'satirist'
p1155
I5708
sS'rustum\x94'
p1156
I1160
sS'perfum'
p1157
I1161
sS'vocal'
p1158
I1162
sS'poetry\x97for'
p1159
I1163
sS'arrang'
p1160
I1164
sS'filthiest'
p1161
I1165
sS'waft'
p1162
I1167
sS'macaulay'
p1163
I1168
sS'liveri'
p1164
I1169
sS'sell'
p1165
I1170
sS'bloodstain'
p1166
I1171
sS'ragamuffin'
p1167
I4890
sS'tarnish'
p1168
I1173
sS'self'
p1169
I1174
sS'also'
p1170
I1175
sS'append'
p1171
I1176
sS'frail'
p1172
I1177
sS'selv'
p1173
I1178
sS'brace'
p1174
I1179
sS'play'
p1175
I1180
sS'chanceri'
p1176
I1181
sS'admitted\x97h'
p1177
I1182
sS'lavend'
p1178
I1183
sS'yawn'
p1179
I1184
sS'plan'
p1180
I1185
sS'wive'
p1181
I1186
sS'scuffl'
p1182
I1187
sS'covey'
p1183
I1188
sS'\x93christ'
p1184
I1189
sS'cover'
p1185
I1190
sS'coven'
p1186
I1191
sS'barren'
p1187
I1193
sS'barrel'
p1188
I1194
sS'\x93sit'
p1189
I1195
sS'way\x97al'
p1190
I1196
sS'settled\x97what'
p1191
I1197
sS'gold'
p1192
I1198
sS'present\x97wh'
p1193
I1199
sS'afterdinn'
p1194
I1200
sS'fireplac'
p1195
I1201
sS'reput'
p1196
I1202
sS'colloc'
p1197
I1204
sS'soandso'
p1198
I1205
sS'writer'
p1199
I1206
sS'gambler'
p1200
I1207
sS'muscovit'
p1201
I1209
sS'remedi'
p1202
I1210
sS'downpour'
p1203
I1211
sS'dandelion'
p1204
I1212
sS'compass'
p1205
I1213
sS'washhous'
p1206
I1214
sS'gratin'
p1207
I1215
sS'banner'
p1208
I1216
sS'writers\x97ther'
p1209
I1217
sS'tumult'
p1210
I1218
sS'proclaim'
p1211
I1219
sS'enemi'
p1212
I1220
sS'nowher'
p1213
I1221
sS'rivet'
p1214
I1222
sS'set'
p1215
I1223
sS'longwind'
p1216
I1224
sS'\x93here\x92'
p1217
I1225
sS'\x93here\x94'
p1218
I1226
sS'potent'
p1219
I1227
sS'sex'
p1220
I1228
sS'yorkshire\x94\x97which'
p1221
I1229
sS'see'
p1222
I1230
sS'sea'
p1223
I1231
sS'overboard'
p1224
I1232
sS'poverti'
p1225
I1479
sS'outward'
p1226
I1234
sS'spiritu'
p1227
I1235
sS'guinea'
p1228
I1236
sS'\x93children'
p1229
I1237
sS'rite'
p1230
I1238
sS'hauteur'
p1231
I1239
sS'kneel'
p1232
I1240
sS'signatur'
p1233
I1241
sS'hardship'
p1234
I1242
sS'write\x94'
p1235
I1243
sS'pirat'
p1236
I1244
sS'daw'
p1237
I1790
sS'incident'
p1238
I1245
sS'pagan'
p1239
I1246
sS'sceneri'
p1240
I1247
sS'scandopboom'
p1241
I1248
sS'cryptic'
p1242
I1249
sS'last'
p1243
I1250
sS'opac'
p1244
I1251
sS'thou'
p1245
I1252
sS'hint'
p1246
I6607
sS'millioncandl'
p1247
I1254
sS'lash'
p1248
I1255
sS'whole'
p1249
I1256
sS'blaze'
p1250
I1257
sS'episod'
p1251
I1258
sS'frosti'
p1252
I1259
sS'bell'
p1253
I1260
sS'nail\x94'
p1254
I6610
sS'provok'
p1255
I1262
sS'majesti'
p1256
I1263
sS'church'
p1257
I1264
sS'provoc'
p1258
I1266
sS'belt'
p1259
I1267
sS'worthless'
p1260
I1268
sS'devil'
p1261
I1269
sS'filth'
p1262
I1270
sS'octavo'
p1263
I1271
sS'snuffcolour'
p1264
I1272
sS'devic'
p1265
I1273
sS'perpetu'
p1266
I1274
sS'boy\x97a'
p1267
I1276
sS'firm'
p1268
I1278
sS'modern'
p1269
I3929
sS'fire'
p1270
I1280
sS'infect'
p1271
I1281
sS'upstart'
p1272
I1282
sS'notori'
p1273
I6612
sS'remark'
p1274
I1284
sS'gipsies\x92'
p1275
I1285
sS'deport'
p1276
I1286
sS'educ'
p1277
I1287
sS'\x93sad'
p1278
I1288
sS'\x93whose'
p1279
I6613
sS'uncertain'
p1280
I1290
sS'hostess'
p1281
I1291
sS'straight'
p1282
I1292
sS'histor'
p1283
I25
sS'conceit'
p1284
I1295
sS'outskirt'
p1285
I50
sS'real'
p1286
I2727
sS'yet\x97\x97\x94'
p1287
I1298
sS'pound'
p1288
I1299
sS'moth'
p1289
I1300
sS'chast'
p1290
I1301
sS'vow'
p1291
I1302
sS'vanish'
p1292
I1303
sS'chase'
p1293
I1304
sS'decor'
p1294
I1305
sS'irrelev'
p1295
I1306
sS'seek'
p1296
I3935
sS'shorter'
p1297
I1308
sS'wellset'
p1298
I1309
sS'snail'
p1299
I1310
sS'lizard\x92'
p1300
I1311
sS'cigar'
p1301
I1312
sS'alert'
p1302
I1313
sS'leapt'
p1303
I1314
sS'stack'
p1304
I1315
sS'civilis'
p1305
I1316
sS'oddest'
p1306
I1317
sS'eleg'
p1307
I1318
sS'glawr\x94'
p1308
I1319
sS'stewkley'
p1309
I1320
sS'person'
p1310
I1321
sS'begun\x97lik'
p1311
I1322
sS'expens'
p1312
I1323
sS'elev'
p1313
I1324
sS'gift'
p1314
I6076
sS'cajol'
p1315
I1325
sS'plaguey'
p1316
I1326
sS'telegram'
p1317
I1327
sS'emblazon'
p1318
I1328
sS'cried\x93th'
p1319
I1329
sS'suffolk'
p1320
I1330
sS'unti'
p1321
I1331
sS'goblet'
p1322
I1332
sS'eager'
p1323
I1333
sS'horseradish'
p1324
I1334
sS'instantly\x97such'
p1325
I1335
sS'limp'
p1326
I5319
sS'stable\x94'
p1327
I1337
sS'jerkins\x97for'
p1328
I1338
sS'transpar'
p1329
I1339
sS'disciplin'
p1330
I1497
sS'intuit'
p1331
I1341
sS'quest'
p1332
I353
sS'abound'
p1333
I1343
sS'falcon'
p1334
I355
sS'formal'
p1335
I1345
sS'bruis'
p1336
I1346
sS'constantinopl'
p1337
I375
sS'illadvis'
p1338
I378
sS'greene\x92'
p1339
I1349
sS'encount'
p1340
I1350
sS'novelists\x97can'
p1341
I1351
sS'acknowledg'
p1342
I1352
sS'fanshap'
p1343
I1353
sS'yield\x94'
p1344
I1354
sS'palm'
p1345
I1355
sS'sight'
p1346
I1356
sS'greener'
p1347
I1357
sS'ladies\x92'
p1348
I1358
sS'pale'
p1349
I1359
sS'acropoli'
p1350
I1360
sS'religion'
p1351
I1361
sS'recognis'
p1352
I1362
sS'mummi'
p1353
I1363
sS'be'
p1354
I1364
sS'reader\x92'
p1355
I1365
sS'grotesqu'
p1356
I1366
sS'unimped'
p1357
I1367
sS'smithi'
p1358
I1368
sS'santa'
p1359
I1369
sS'barbar'
p1360
I1370
sS'by'
p1361
I1371
sS'revolut'
p1362
I1372
sS'gnatwing'
p1363
I1373
sS'fern'
p1364
I6326
sS'repair'
p1365
I1374
sS'irrit'
p1366
I1375
sS'countrywoman'
p1367
I1376
sS'hemingway'
p1368
I1377
sS'savag'
p1369
I1378
sS'r\x97\x97\x97'
p1370
I1379
sS'volcan'
p1371
I1380
sS'durabl'
p1372
I1381
sS'occupi'
p1373
I1382
sS'\x93loo'
p1374
I1383
sS'settled\x94'
p1375
I1384
sS'submit'
p1376
I1385
sS'custom'
p1377
I1386
sS'suit'
p1378
I1387
sS'spar'
p1379
I1388
sS'spat'
p1380
I1389
sS'link'
p1381
I1390
sS'line'
p1382
I1391
sS'mitig'
p1383
I1392
sS'retinu'
p1384
I1393
sS'illassort'
p1385
I1394
sS'up'
p1386
I1395
sS'us'
p1387
I1396
sS'lieuten'
p1388
I1397
sS'intim'
p1389
I1398
sS'sum'
p1390
I6746
sS'innumer'
p1391
I1399
sS'insignia'
p1392
I1400
sS'm'
p1393
I3954
sS'haunt'
p1394
I1402
sS'char'
p1395
I1403
sS'pedigre'
p1396
I1404
sS'stanilovska'
p1397
I1405
sS'tarn'
p1398
I1406
sS'sunken'
p1399
I1407
sS'tuft'
p1400
I1408
sS'scrape'
p1401
I1409
sS'exud'
p1402
I1410
sS'pater\x97to'
p1403
I1411
sS'swirl'
p1404
I1412
sS'whitehal'
p1405
I1413
sS'gunpowd'
p1406
I1414
sS'trouser'
p1407
I1415
sS'scrub'
p1408
I1416
sS'lucid'
p1409
I1417
sS'effronteri'
p1410
I1418
sS'ago'
p1411
I1419
sS'furthest'
p1412
I1420
sS'lane'
p1413
I1421
sS'land'
p1414
I1422
sS'scotch'
p1415
I3958
sS'age'
p1416
I1424
sS'lank'
p1417
I1425
sS'\x93for\x94'
p1418
I1426
sS'train'
p1419
I5337
sS'seawe'
p1420
I1427
sS'fresh'
p1421
I1428
sS'agu'
p1422
I1429
sS'essay'
p1423
I1430
sS'inkhorn'
p1424
I1431
sS'scratch'
p1425
I1432
sS'landscap'
p1426
I6629
sS'that\x94'
p1427
I2105
sS'gossip'
p1428
I1435
sS'that\x92'
p1429
I1436
sS'cat\x92'
p1430
I1437
sS'procur'
p1431
I1438
sS'turkish'
p1432
I1439
sS'truth\x97what'
p1433
I1440
sS'young'
p1434
I1441
sS'send'
p1435
I1442
sS'dickinson'
p1436
I1443
sS'sens'
p1437
I1444
sS'sent'
p1438
I1445
sS'boatload'
p1439
I1446
sS'garden'
p1440
I1447
sS'itself\x97a'
p1441
I1448
sS'disast'
p1442
I1449
sS'poitier'
p1443
I1450
sS'wipe'
p1444
I1451
sS'tri'
p1445
I1452
sS'recit'
p1446
I1453
sS'inclin'
p1447
I1454
sS'eve'
p1448
I1455
sS'anxious'
p1449
I1456
sS'this'
p1450
I1457
sS'race'
p1451
I1458
sS'marri'
p1452
I1459
sS'rack'
p1453
I1460
sS'vehicl'
p1454
I1461
sS'impli'
p1455
I1462
sS'natur'
p1456
I1463
sS'mediterranean'
p1457
I1464
sS'agreeabl'
p1458
I1465
sS'crook'
p1459
I1466
sS'hyde'
p1460
I2657
sS'negus'
p1461
I1468
sS'archduchess'
p1462
I2754
sS'\x93you\x92r'
p1463
I1470
sS'odd'
p1464
I1471
sS'twine'
p1465
I1472
sS'himself\x97ther'
p1466
I1473
sS'richmond'
p1467
I1474
sS'indel'
p1468
I1475
sS'surmis'
p1469
I1476
sS'indec'
p1470
I1477
sS'bird'
p1471
I1478
sS'led'
p1472
I1233
sS'leg'
p1473
I1480
sS'punch'
p1474
I1481
sS'hands\x97sh'
p1475
I1482
sS'let'
p1476
I1483
sS'starling\x92'
p1477
I2757
sS'fifteen'
p1478
I1485
sS'cumberland'
p1479
I3966
sS'lyingin'
p1480
I1487
sS'great'
p1481
I1488
sS'derbi'
p1482
I1489
sS'scatter'
p1483
I1490
sS'defeat'
p1484
I1491
sS'handsbreadth'
p1485
I1492
sS'opinion'
p1486
I1493
sS'maker'
p1487
I1494
sS'raverat'
p1488
I1495
sS'emot'
p1489
I1496
sS'[hors'
p1490
I1340
sS'repugn'
p1491
I1498
sS'bust'
p1492
I1499
sS'archbishop'
p1493
I1500
sS'doubl'
p1494
I1501
sS'next'
p1495
I1502
sS'eleven'
p1496
I1503
sS'doubt'
p1497
I1504
sS'tantalis'
p1498
I1506
sS'lodgment'
p1499
I1507
sS'midday'
p1500
I1508
sS'fineri'
p1501
I1509
sS'babe'
p1502
I1510
sS'lugubri'
p1503
I3894
sS'sharpli'
p1504
I1512
sS'babi'
p1505
I1513
sS'chariti'
p1506
I1514
sS'quadrangl'
p1507
I1515
sS'farmyard'
p1508
I1516
sS'poems\x97address'
p1509
I1517
sS'pout'
p1510
I1518
sS'testimoni'
p1511
I2763
sS'pour'
p1512
I1519
sS'host\x92'
p1513
I7580
sS'thin'
p1514
I1520
sS'sabl'
p1515
I1521
sS'coffin'
p1516
I1522
sS'begon'
p1517
I2842
sS'slid'
p1518
I1523
sS'bent'
p1519
I1524
sS'process'
p1520
I1525
sS'lock'
p1521
I1526
sS'slim'
p1522
I1527
sS'rode'
p1523
I1528
sS'high'
p1524
I1529
sS'bend'
p1525
I1530
sS'slip'
p1526
I1531
sS'newt\x92'
p1527
I1532
sS'martyr'
p1528
I1533
sS'trumpet'
p1529
I1534
sS'weaken'
p1530
I1535
sS'reedi'
p1531
I1536
sS'tableau'
p1532
I1537
sS'delay'
p1533
I1538
sS'paler'
p1534
I1540
sS'lamb'
p1535
I1541
sS'stow'
p1536
I4155
sS'singular'
p1537
I1543
sS'minister\x92'
p1538
I1544
sS'marrow'
p1539
I1545
sS'hawk'
p1540
I1546
sS'essenti'
p1541
I1548
sS'counter'
p1542
I1550
sS'element'
p1543
I1551
sS'issu'
p1544
I1552
sS'allot'
p1545
I1553
sS'allow'
p1546
I1554
sS'counten'
p1547
I1555
sS'thigh'
p1548
I1556
sS'tribe'
p1549
I6654
sS'move'
p1550
I1558
sS'outlook'
p1551
I2771
sS'state\x97which'
p1552
I1560
sS'tenpound'
p1553
I1561
sS'perfect'
p1554
I1562
sS'decay'
p1555
I1563
sS'chosen'
p1556
I1564
sS'hobbl'
p1557
I1565
sS'yawn\x97'
p1558
I1566
sS'remorseless'
p1559
I1567
sS'decad'
p1560
I1568
sS'therefor'
p1561
I1569
sS'\x93let'
p1562
I1570
sS'recept'
p1563
I1571
sS'prosper'
p1564
I1572
sS'innermost'
p1565
I1573
sS'earn'
p1566
I1574
sS'dock'
p1567
I1575
sS'billiard'
p1568
I1576
sS'snake'
p1569
I1577
sS'kiss'
p1570
I1578
sS'snaki'
p1571
I1579
sS'cage'
p1572
I1580
sS'betti'
p1573
I1581
sS'anyth'
p1574
I1582
sS'excresc'
p1575
I1583
sS'brain\x97which'
p1576
I1584
sS'truth'
p1577
I1585
sS'persia'
p1578
I1586
sS'beneath'
p1579
I1587
sS'scorch'
p1580
I1588
sS'strode'
p1581
I1589
sS'metr'
p1582
I1590
sS'societi'
p1583
I1591
sS'footmen'
p1584
I1592
sS'bump'
p1585
I1593
sS'salver'
p1586
I1594
sS'scanti'
p1587
I1595
sS'bartholomew\x94'
p1588
I1596
sS'tenth'
p1589
I1597
sS'wander'
p1590
I1598
sS'your'
p1591
I2987
sS'archbishop\x92'
p1592
I1600
sS'nag\x92'
p1593
I5529
sS'venom'
p1594
I1601
sS'troop'
p1595
I3989
sS'shut'
p1596
I1603
sS'thrush'
p1597
I1604
sS'perish'
p1598
I1605
sS'twentysix'
p1599
I1606
sS'templ'
p1600
I1607
sS'graze'
p1601
I1608
sS'gawain'
p1602
I1609
sS'tempt'
p1603
I1962
sS'thrust'
p1604
I1611
sS'embarrass'
p1605
I1612
sS'greedi'
p1606
I1613
sS'chilli'
p1607
I1614
sS'profusion\x97had'
p1608
I1615
sS'could'
p1609
I1616
sS'length'
p1610
I1617
sS'enforc'
p1611
I1618
sS'outsid'
p1612
I1619
sS'scarc'
p1613
I1620
sS'scare'
p1614
I1621
sS'scarf'
p1615
I2023
sS'spilt'
p1616
I1623
sS'manuscript'
p1617
I1624
sS'blown'
p1618
I1625
sS'maidserv'
p1619
I2045
sS'unobserv'
p1620
I1627
sS'fatigu'
p1621
I2058
sS'pranc'
p1622
I1629
sS'scent'
p1623
I1630
sS'prank'
p1624
I2070
sS'sculleri'
p1625
I1632
sS'system'
p1626
I1633
sS'happily\x94'
p1627
I1634
sS'termin'
p1628
I1635
sS'baronet'
p1629
I1636
sS'\x93heaven'
p1630
I1637
sS'now\x97aft'
p1631
I1638
sS'ragbag'
p1632
I1639
sS'\x93we'
p1633
I1640
sS'maladi'
p1634
I1641
sS'accompani'
p1635
I1642
sS'steel'
p1636
I1643
sS'wet'
p1637
I1644
sS'bother'
p1638
I1645
sS'potpourri'
p1639
I6661
sS'stricter'
p1640
I1646
sS'steep'
p1641
I1647
sS'torrent'
p1642
I1648
sS'misunderstand'
p1643
I1649
sS'beggar'
p1644
I1650
sS'terribl'
p1645
I1651
sS'liner'
p1646
I5372
sS'tonight'
p1647
I2208
sS'\x91tis'
p1648
I6662
sS'milkpail'
p1649
I1655
sS'cecil'
p1650
I1656
sS'agony\x97and'
p1651
I1657
sS'dearest\x94'
p1652
I1658
sS'soak'
p1653
I1659
sS'messeng'
p1654
I1660
sS'disassembl'
p1655
I1661
sS'lili'
p1656
I1662
sS'accuraci'
p1657
I1663
sS'orlando\x97kiss'
p1658
I1664
sS'discrep'
p1659
I1665
sS'soar'
p1660
I1666
sS'courtesi'
p1661
I1667
sS'\x93everyon'
p1662
I1668
sS'sir\x94'
p1663
I1669
sS'manor'
p1664
I1670
sS'fidel'
p1665
I1671
sS'raindrop'
p1666
I1672
sS'medal'
p1667
I1673
sS'fervent'
p1668
I1674
sS'instig'
p1669
I1675
sS'bred'
p1670
I1676
sS'stronger'
p1671
I1677
sS'face'
p1672
I1678
sS'brew'
p1673
I1679
sS'tailor\x92'
p1674
I3996
sS'fact'
p1675
I1681
sS'bring'
p1676
I1683
sS'bedroom'
p1677
I1684
sS'rough'
p1678
I1685
sS'trivial'
p1679
I1686
sS'brink'
p1680
I1687
sS'footbal'
p1681
I2402
sS'nois'
p1682
I1689
sS'jay'
p1683
I1690
sS'jaw'
p1684
I1692
sS'jar'
p1685
I1693
sS'should'
p1686
I1694
sS'gestur'
p1687
I1695
sS'jam'
p1688
I2420
sS'suppos'
p1689
I2421
sS'drolleri'
p1690
I1698
sS'intrigu'
p1691
I1699
sS'flinch'
p1692
I1700
sS'hope'
p1693
I1701
sS'meant'
p1694
I1702
sS'satisfact'
p1695
I1703
sS'familiar'
p1696
I2452
sS'impression\x97her'
p1697
I1705
sS'cheroot'
p1698
I1706
sS'equabl'
p1699
I1707
sS'antagonist'
p1700
I1708
sS'smash'
p1701
I1709
sS'connaiss'
p1702
I1710
sS'h'
p1703
I1711
sS'summon'
p1704
I1712
sS'lordships\x92'
p1705
I1713
sS'stuff'
p1706
I1714
sS'rein'
p1707
I1715
sS'unimport'
p1708
I1716
sS'bucket'
p1709
I1717
sS'heartburn'
p1710
I2559
sS'packet'
p1711
I1719
sS'iridesc'
p1712
I1721
sS'particl'
p1713
I1722
sS'wire'
p1714
I1723
sS'wherri'
p1715
I1724
sS'cowardic'
p1716
I1725
sS'destini'
p1717
I2617
sS'pistol'
p1718
I1727
sS'dislik'
p1719
I1728
sS'courtyard'
p1720
I1729
sS'le'
p1721
I1730
sS'printer\x92'
p1722
I1731
sS'workbox'
p1723
I2663
sS'undoubt'
p1724
I1733
sS'lawsuit'
p1725
I1734
sS'drum'
p1726
I1735
sS'etc'
p1727
I1736
sS'doorway'
p1728
I1737
sS'puff'
p1729
I2704
sS'ticktock'
p1730
I1739
sS'extent'
p1731
I1740
sS'death\x94\x97rang'
p1732
I1741
sS'snakelik'
p1733
I1742
sS'incess'
p1734
I1743
sS'mottl'
p1735
I1744
sS'sanger'
p1736
I1745
sS'jonson'
p1737
I1746
sS'\xa9'
p1738
I1747
sS'quotat'
p1739
I1748
sS'obstacl'
p1740
I1749
sS'drank'
p1741
I1750
sS'feather'
p1742
I1751
sS'immedi'
p1743
I1752
sS'sheepish'
p1744
I1753
sS'paul\x92'
p1745
I1754
sS'neighbour'
p1746
I1755
sS'togeth'
p1747
I1756
sS'ador'
p1748
I1757
sS'banish'
p1749
I1758
sS'watchfir'
p1750
I1759
sS'manycolour'
p1751
I1760
sS'boxal'
p1752
I1761
sS'decept'
p1753
I1762
sS'now\x97cal'
p1754
I2871
sS'ripe'
p1755
I1764
sS'lust'
p1756
I1765
sS'archiv'
p1757
I1766
sS'\x93thirtysix'
p1758
I2907
sS'tattoo'
p1759
I1768
sS'denial'
p1760
I1769
sS'\x93this\x94'
p1761
I1770
sS'buffoon'
p1762
I1771
sS'entail'
p1763
I1772
sS'inlaid'
p1764
I1773
sS'balm'
p1765
I1774
sS'ball'
p1766
I1775
sS'raymond'
p1767
I1776
sS'dusk'
p1768
I1777
sS'sadi'
p1769
I1778
sS'wisest'
p1770
I2977
sS'upon'
p1771
I1780
sS'spenser'
p1772
I1781
sS'coffe'
p1773
I1782
sS'dust'
p1774
I1783
sS'expand'
p1775
I1784
sS'bumpkin'
p1776
I2806
sS'off'
p1777
I1786
sS'diversifi'
p1778
I1787
sS'devilri'
p1779
I1788
sS'feebl'
p1780
I1789
sS'exampl'
p1781
I2567
sS'command'
p1782
I1791
sS'shelmerdine\x97but'
p1783
I1792
sS'lest'
p1784
I1793
sS'paus'
p1785
I1794
sS'less'
p1786
I2011
sS'roomi'
p1787
I1796
sS'glum'
p1788
I1797
sS'gentlest'
p1789
I1798
sS'web'
p1790
I1799
sS'generous'
p1791
I1800
sS'wed'
p1792
I1801
sS'pompous'
p1793
I1802
sS'crack'
p1794
I1804
sS'compet'
p1795
I1844
sS'bombazin'
p1796
I1806
sS'phosphoresc'
p1797
I1807
sS'piec'
p1798
I3160
sS'\x93not'
p1799
I1809
sS'five'
p1800
I3167
sS'magnifi'
p1801
I1811
sS'tick'
p1802
I1812
sS'pier'
p1803
I1813
sS'resid'
p1804
I1814
sS'sledg'
p1805
I1816
sS'crisi'
p1806
I1817
sS'incens'
p1807
I1818
sS'\x93r'
p1808
I1819
sS'intoler'
p1809
I1820
sS'\x93i'
p1810
I3240
sS'flush'
p1811
I1822
sS'\x93a'
p1812
I1823
sS'transport'
p1813
I3253
sS'huzza'
p1814
I1825
sS'cruelest'
p1815
I1826
sS'innocent\x94'
p1816
I1827
sS'avoid'
p1817
I1828
sS'shone'
p1818
I3273
sS'going\x94'
p1819
I1830
sS'passion'
p1820
I1831
sS'illlit'
p1821
I3283
sS'forgiven'
p1822
I1833
sS'avoir'
p1823
I1834
sS'stairway'
p1824
I3298
sS'voluptu'
p1825
I1836
sS'mantl'
p1826
I1837
sS'cumber'
p1827
I1838
sS'we\x94'
p1828
I1839
sS'belat'
p1829
I1840
sS'stage'
p1830
I1841
sS'iris'
p1831
I1842
sS'sister'
p1832
I1843
sS'seedi'
p1833
I3345
sS'peal'
p1834
I1203
sS'moment\x94'
p1835
I1847
sS'cadenc'
p1836
I1848
sS'rustum'
p1837
I1849
sS'matur'
p1838
I2748
sS'birdsnar'
p1839
I1850
sS'auster'
p1840
I1851
sS'strumpet'
p1841
I1852
sS'grimsditch'
p1842
I1853
sS'lung'
p1843
I1855
sS'mere'
p1844
I1856
sS'phlegmat'
p1845
I1857
sS'mathematicalinstruments\x97'
p1846
I1858
sS'watchman'
p1847
I1859
sS'killed\x97h'
p1848
I1860
sS'trees\x94'
p1849
I1861
sS'magnanim'
p1850
I1862
sS'd\x92un'
p1851
I1863
sS'ladyships\x92'
p1852
I1864
sS'shyness'
p1853
I1865
sS'washerwoman'
p1854
I1866
sS'grate'
p1855
I1867
sS'stablemen'
p1856
I4027
sS'bonthrop\x92'
p1857
I1869
sS'count'
p1858
I1870
sS'us\x97al'
p1859
I1871
sS'in\x94'
p1860
I2314
sS'nurse\x92'
p1861
I3666
sS'smooth'
p1862
I1874
sS'triumphant'
p1863
I1875
sS'monument'
p1864
I1876
sS'trepid'
p1865
I1877
sS'otherwis'
p1866
I1878
sS'problem'
p1867
I1879
sS'cordial'
p1868
I1881
sS'irish'
p1869
I1882
sS'dupper'
p1870
I1883
sS'novemb'
p1871
I3574
sS'inn'
p1872
I1885
sS'\x91age\x92'
p1873
I1886
sS'ink'
p1874
I1887
sS'chubb'
p1875
I3601
sS'bartholomew\x92'
p1876
I1889
sS'varieti'
p1877
I1890
sS'behold'
p1878
I1891
sS'r\x92s'
p1879
I1892
sS'\x93is'
p1880
I1893
sS'repeat'
p1881
I1894
sS'monday'
p1882
I1895
sS'\x93it'
p1883
I1896
sS'\x91visiting\x92'
p1884
I1897
sS'\x93if'
p1885
I1898
sS'quarto'
p1886
I1899
sS'veil'
p1887
I1900
sS'\x93in'
p1888
I1901
sS'vein'
p1889
I1902
sS'ghost'
p1890
I1903
sS'meetingplac'
p1891
I1904
sS'rule'
p1892
I1905
sS'syllabl'
p1893
I1906
sS'pension'
p1894
I1907
sS'eyri'
p1895
I1908
sS'sincer'
p1896
I1909
sS'ridden'
p1897
I7559
sS'165'
p1898
I1911
sS'mansion'
p1899
I1912
sS'odysseus\x94\x97in'
p1900
I1599
sS'others\x94'
p1901
I1913
sS'forebor'
p1902
I1914
sS'doing\x97for'
p1903
I4039
sS'forebod'
p1904
I1916
sS'edward'
p1905
I1917
sS'162'
p1906
I1918
sS'daze'
p1907
I1919
sS'hedg'
p1908
I1920
sS'worth'
p1909
I1921
sS'wreath'
p1910
I3095
sS'tudor'
p1911
I1923
sS'compassion'
p1912
I1924
sS'blanket'
p1913
I1925
sS'distort'
p1914
I1926
sS'less\x94'
p1915
I1927
sS'chapel'
p1916
I1928
sS'pope\x92'
p1917
I1929
sS'pinch'
p1918
I1930
sS'nondescript'
p1919
I1931
sS'oblong'
p1920
I1602
sS'triumph'
p1921
I1932
sS'scurril'
p1922
I1933
sS'speck'
p1923
I1934
sS'horn'
p1924
I1935
sS'preacher'
p1925
I1936
sS'consequ'
p1926
I1937
sS'hors'
p1927
I1938
sS'blasphemi'
p1928
I1940
sS'clorinda'
p1929
I1941
sS'amus'
p1930
I1942
sS'near'
p1931
I4049
sS'121'
p1932
I6302
sS'nobleman\x97for'
p1933
I1944
sS'told'
p1934
I1945
sS'\x93life\x94'
p1935
I1946
sS'sixtyeight'
p1936
I1947
sS'pursuit'
p1937
I1948
sS'impercept'
p1938
I1949
sS'they\x92r'
p1939
I1950
sS'pleasur'
p1940
I1951
sS'dwellingplac'
p1941
I1952
sS'\x91em\x97who'
p1942
I1953
sS'daughter'
p1943
I1954
sS'tankard'
p1944
I1956
sS'smoke'
p1945
I1957
sS'upbraid'
p1946
I1958
sS'studi'
p1947
I1959
sS'you\x92ll'
p1948
I1960
sS'envious'
p1949
I1961
sS'newspap'
p1950
I4102
sS'attitud'
p1951
I1963
sS'total'
p1952
I1964
sS'plot'
p1953
I1965
sS'gloss'
p1954
I1966
sS'insult'
p1955
I1967
sS'plod'
p1956
I1968
sS'cottag'
p1957
I1969
sS'reced'
p1958
I1970
sS'bombast'
p1959
I1971
sS'unescap'
p1960
I1972
sS'wineblu'
p1961
I1973
sS'reign'
p1962
I1974
sS'boat\x94'
p1963
I1975
sS'word'
p1964
I1976
sS'wore'
p1965
I1977
sS'restor'
p1966
I1978
sS'neglig'
p1967
I6717
sS'work'
p1968
I1980
sS'worm'
p1969
I1981
sS'pierc'
p1970
I1982
sS'wors'
p1971
I1983
sS'tinder'
p1972
I1984
sS'elbow'
p1973
I1985
sS'overspread'
p1974
I1986
sS'quiver'
p1975
I1987
sS'kentish'
p1976
I1988
sS'eyebal'
p1977
I1989
sS'repos'
p1978
I1990
sS'flung'
p1979
I1991
sS'india'
p1980
I1992
sS'exquisit'
p1981
I1993
sS'mytholog'
p1982
I1994
sS'replet'
p1983
I1995
sS'liter'
p1984
I6719
sS'indit'
p1985
I4341
sS'gigant'
p1986
I1998
sS'bloodsh'
p1987
I1999
sS'ordinari'
p1988
I2000
sS'egyptian'
p1989
I6720
sS'foulest'
p1990
I4395
sS'minuet'
p1991
I2003
sS'disappoint'
p1992
I2004
sS'beach'
p1993
I2005
sS'fever'
p1994
I2006
sS'recogn'
p1995
I2007
sS'lad'
p1996
I2008
sS'chines'
p1997
I2009
sS'after'
p1998
I2010
sS'lay'
p1999
I2012
sS'burghley'
p2000
I2013
sS'law'
p2001
I2014
sS'lap'
p2002
I2015
sS'averag'
p2003
I1265
sS'sepulchr'
p2004
I2017
sS'darling\x94'
p2005
I2018
sS'retort'
p2006
I2019
sS'greet'
p2007
I2020
sS'greek'
p2008
I2021
sS'green'
p2009
I2022
sS'fiftyf'
p2010
I1622
sS'hasti'
p2011
I2024
sS'greec'
p2012
I2025
sS'order'
p2013
I2026
sS'tipto'
p2014
I2027
sS'consent'
p2015
I2028
sS'offici'
p2016
I2029
sS'ramadan'
p2017
I2030
sS'typewrit'
p2018
I2031
sS'modesti'
p2019
I2032
sS'incid'
p2020
I2033
sS'flexibl'
p2021
I2034
sS'midden'
p2022
I2035
sS'sheaf'
p2023
I2036
sS'fix\x94'
p2024
I2037
sS'selfstart'
p2025
I2038
sS'offic'
p2026
I2039
sS'then'
p2027
I2040
sS'them'
p2028
I2041
sS'woken'
p2029
I2042
sS'fellow\x94'
p2030
I2043
sS'safe'
p2031
I2044
sS'scene'
p2032
I1626
sS'break'
p2033
I2046
sS'stranger\x92'
p2034
I2047
sS'bang'
p2035
I2048
sS'scrupl'
p2036
I2049
sS'they'
p2037
I2050
sS'\x93fame\x94'
p2038
I2051
sS'bank'
p2039
I2052
sS'bread'
p2040
I2053
sS'inexpress'
p2041
I2054
sS'l'
p2042
I2055
sS'coranto'
p2043
I2056
sS'rocki'
p2044
I2057
sS'cobweb'
p2045
I1628
sS'slaveri'
p2046
I2059
sS'patro'
p2047
I2060
sS'list'
p2048
I6729
sS'it\x97that'
p2049
I2062
sS'possible\x97memori'
p2050
I2063
sS'maledomin'
p2051
I2064
sS'flock'
p2052
I2065
sS'palat'
p2053
I2066
sS'secrets\x97a'
p2054
I2067
sS'palac'
p2055
I2068
sS'unkempt'
p2056
I2069
sS'jonson\x97ben'
p2057
I1631
sS'forth'
p2058
I2071
sS'forti'
p2059
I2072
sS'windowsil'
p2060
I2073
sS'something\x97it'
p2061
I2074
sS'fring'
p2062
I2075
sS'drench'
p2063
I2076
sS'angl'
p2064
I2077
sS'shrubberi'
p2065
I2078
sS'sprig'
p2066
I2079
sS'subtl'
p2067
I2080
sS'caprici'
p2068
I2081
sS'laps'
p2069
I2082
sS'render'
p2070
I2083
sS'ninetyseven'
p2071
I2084
sS'larboard'
p2072
I2085
sS'chopper'
p2073
I2086
sS'thick'
p2074
I2087
sS'mirabili'
p2075
I2088
sS'world\x97bi'
p2076
I2089
sS'ten'
p2077
I6734
sS'airi'
p2078
I2091
sS'neck'
p2079
I3446
sS'margin\x97but'
p2080
I2092
sS'john'
p2081
I2093
sS'luncheon'
p2082
I2094
sS'faulkner\x92'
p2083
I6737
sS'paltri'
p2084
I2096
sS'happili'
p2085
I2097
sS'canopi'
p2086
I7484
sS'provid'
p2087
I2098
sS'merci'
p2088
I2099
sS'iron'
p2089
I2100
sS'minut'
p2090
I2101
sS'swift\x92s\x97and'
p2091
I2102
sS'sportsmen'
p2092
I2103
sS'manner'
p2093
I2104
sS'subsid'
p2094
I2106
sS'anchorag'
p2095
I2107
sS'ponder'
p2096
I2108
sS'strength'
p2097
I2109
sS'luxuri'
p2098
I2110
sS'terrif'
p2099
I2111
sS'laden'
p2100
I2112
sS'casual'
p2101
I2113
sS'roumania'
p2102
I2114
sS'street\x97wa'
p2103
I2115
sS'maiden'
p2104
I2116
sS'circlet'
p2105
I2117
sS'\x93la\x94'
p2106
I2118
sS'\x93mine'
p2107
I2119
sS'silverhead'
p2108
I2120
sS'dog\x92'
p2109
I2121
sS'grave'
p2110
I2122
sS'ducal'
p2111
I2123
sS'excus'
p2112
I2124
sS'fitter'
p2113
I5228
sS'bracken'
p2114
I2126
sS'besieg'
p2115
I2127
sS'bracket'
p2116
I2128
sS'aunt'
p2117
I2129
sS'ducat'
p2118
I2130
sS'notion'
p2119
I5259
sS'impolit'
p2120
I2132
sS'opposit'
p2121
I2133
sS'perenni'
p2122
I2134
sS'wrung'
p2123
I2135
sS'nephew'
p2124
I2136
sS'toast'
p2125
I2137
sS'consolid'
p2126
I2138
sS'deepest'
p2127
I2139
sS'predecessor'
p2128
I2140
sS'do'
p2129
I2141
sS'spain\x94'
p2130
I2142
sS'spain\x92'
p2131
I2143
sS'dh'
p2132
I2144
sS'somersetshir'
p2133
I2145
sS'de'
p2134
I2146
sS'gentilhomm'
p2135
I2147
sS'indissolubl'
p2136
I2148
sS'agincourt'
p2137
I2149
sS'roundabout'
p2138
I2150
sS'dy'
p2139
I2151
sS'du'
p2140
I2152
sS'dr'
p2141
I2153
sS'gauz'
p2142
I2154
sS'secretari'
p2143
I2155
sS'diana\x92'
p2144
I2156
sS'rung'
p2145
I2157
sS'won\x92t'
p2146
I2158
sS'septemb'
p2147
I2159
sS'steal'
p2148
I2160
sS'steam'
p2149
I2161
sS'dustbin'
p2150
I2162
sS'scourg'
p2151
I2163
sS'christian'
p2152
I6754
sS'93'
p2153
I2165
sS'impur'
p2154
I2166
sS'aversion\x94'
p2155
I2167
sS'awar'
p2156
I2168
sS'away'
p2157
I2169
sS'afloat'
p2158
I2170
sS'gentleman'
p2159
I2171
sS'unparallel'
p2160
I2172
sS'a\x97\x97\x94'
p2161
I2173
sS'languag'
p2162
I4092
sS'contraband'
p2163
I2568
sS'drawn'
p2164
I2176
sS'd\x92'
p2165
I2177
sS'accord'
p2166
I2125
sS'wb'
p2167
I2179
sS'falmouth'
p2168
I2180
sS'thus\x97for'
p2169
I2181
sS'o\x92brien'
p2170
I2182
sS'intox'
p2171
I2183
sS'kitchen'
p2172
I2184
sS'easi'
p2173
I360
sS'cow'
p2174
I2186
sS'ill'
p2175
I2187
sS'canut'
p2176
I2188
sS'steer'
p2177
I2189
sS'coo'
p2178
I2190
sS'tough'
p2179
I1691
sS'tong'
p2180
I2192
sS'peacock\x92'
p2181
I2193
sS'beefeat'
p2182
I2194
sS'circassian'
p2183
I2195
sS'infirm'
p2184
I2197
sS'betook'
p2185
I2198
sS'paradis'
p2186
I2199
sS'sombr'
p2187
I2200
sS'guid'
p2188
I2201
sS'speak'
p2189
I2202
sS'degener'
p2190
I2203
sS'girls\x97'
p2191
I2204
sS'girls\x92'
p2192
I2205
sS'warmth'
p2193
I2206
sS'prison'
p2194
I364
sS'\x93women'
p2195
I5174
sS'ident'
p2196
I2209
sS'keeney'
p2197
I5467
sS'properti'
p2198
I2211
sS'air'
p2199
I2212
sS'aim'
p2200
I2213
sS'abrupt'
p2201
I2214
sS'stubb'
p2202
I2215
sS'it\x97thought'
p2203
I2216
sS'dizzi'
p2204
I2217
sS'plover'
p2205
I2218
sS'now\x97into'
p2206
I2219
sS'feet\x97al'
p2207
I2220
sS'sting'
p2208
I2221
sS'coni'
p2209
I2222
sS'stint'
p2210
I2223
sS'descent'
p2211
I2224
sS'perform'
p2212
I2225
sS'amount'
p2213
I2226
sS'descend'
p2214
I2227
sS'hodden'
p2215
I2228
sS'monarch'
p2216
I2229
sS'unconcern'
p2217
I5850
sS'wheel'
p2218
I2231
sS'waxwork'
p2219
I2232
sS'known\x94'
p2220
I2233
sS'evid'
p2221
I2234
sS'nib'
p2222
I2235
sS'swell'
p2223
I2236
sS'quentin'
p2224
I2237
sS'hang'
p2225
I2238
sS'evil'
p2226
I2239
sS'hand'
p2227
I2240
sS'rais'
p2228
I2241
sS'kept'
p2229
I2242
sS'drip'
p2230
I2243
sS'magnitud'
p2231
I6762
sS'client'
p2232
I2244
sS'the'
p2233
I2245
sS'kinship'
p2234
I2246
sS'indign'
p2235
I2247
sS'farther'
p2236
I2248
sS'dignifi'
p2237
I2249
sS'extol'
p2238
I2250
sS'oldfashion'
p2239
I2251
sS'\x93whi'
p2240
I2252
sS'\x93who'
p2241
I2253
sS'exalt'
p2242
I2254
sS'shout'
p2243
I2255
sS'spread'
p2244
I2256
sS'board'
p2245
I2257
sS'hand\x97in'
p2246
I2259
sS'arab'
p2247
I2260
sS'cape'
p2248
I2261
sS'riddl'
p2249
I2262
sS'night'
p2250
I2263
sS'childbear'
p2251
I2264
sS'plantagenet'
p2252
I2265
sS'untruthful\x94'
p2253
I2266
sS'flatter'
p2254
I2267
sS'10th'
p2255
I5914
sS'born'
p2256
I2268
sS'flatten'
p2257
I2269
sS'bori'
p2258
I2270
sS'skelter'
p2259
I2271
sS'bore'
p2260
I2272
sS'forepaw'
p2261
I2681
sS'guffawed\x97long'
p2262
I2274
sS'eleph'
p2263
I2275
sS'colloquy'
p2264
I2276
sS'overcom'
p2265
I2277
sS'peel'
p2266
I2279
sS'posi'
p2267
I2280
sS'where\x97y'
p2268
I2281
sS'semicircl'
p2269
I2282
sS'confer'
p2270
I2283
sS'repositori'
p2271
I2284
sS'peer'
p2272
I2285
sS'post'
p2273
I2286
sS'poss'
p2274
I2287
sS'pli'
p2275
I2288
sS'jerkin'
p2276
I6767
sS'chafe'
p2277
I2290
sS'chronolog'
p2278
I2291
sS'coral'
p2279
I2292
sS'hutchinson'
p2280
I2293
sS'vacil'
p2281
I2294
sS'literatur'
p2282
I2295
sS'god\x94'
p2283
I2296
sS'opin'
p2284
I2297
sS'horizon'
p2285
I2298
sS'cherish'
p2286
I2299
sS'miracul'
p2287
I2300
sS'croak'
p2288
I2301
sS'dilemma'
p2289
I2302
sS'bounc'
p2290
I2303
sS'float'
p2291
I2304
sS'jesus\x94'
p2292
I2305
sS'bound'
p2293
I2306
sS'verbiag'
p2294
I300
sS'payn'
p2295
I2308
sS'bed\x94'
p2296
I2309
sS'opportun'
p2297
I2310
sS'wag'
p2298
I2311
sS'lintel'
p2299
I7138
sS'frill'
p2300
I2312
sS'fight'
p2301
I2313
sS'way'
p2302
I2315
sS'wax'
p2303
I2316
sS'was'
p2304
I2317
sS'war'
p2305
I2318
sS'wap'
p2306
I2319
sS'experiments\x97non'
p2307
I2320
sS'broussa'
p2308
I2321
sS'royalties\x94'
p2309
I2322
sS'derest'
p2310
I2323
sS'maxim'
p2311
I4126
sS'nauseat'
p2312
I2891
sS'nuts\x92twa'
p2313
I2326
sS'snowi'
p2314
I2327
sS'true'
p2315
I2328
sS'absent'
p2316
I2329
sS'crystal'
p2317
I2330
sS'vagari'
p2318
I2331
sS'retir'
p2319
I2332
sS'gather'
p2320
I5484
sS'ragtag'
p2321
I2334
sS'is\x97a'
p2322
I2335
sS'abstract'
p2323
I2336
sS'wintri'
p2324
I2337
sS'moll'
p2325
I2338
sS'prayer'
p2326
I2339
sS'ionian'
p2327
I2340
sS'stake'
p2328
I2341
sS'jone'
p2329
I2342
sS'test'
p2330
I2343
sS'frolic'
p2331
I2344
sS'heyday'
p2332
I2345
sS'realiti'
p2333
I2346
sS'hurri'
p2334
I2347
sS'inkstand'
p2335
I2348
sS'tottenham'
p2336
I2349
sS'boudoir'
p2337
I2351
sS'same\x94'
p2338
I2352
sS'turbul'
p2339
I2353
sS'banquett'
p2340
I2354
sS'errandboy'
p2341
I6775
sS'flying\x97but'
p2342
I2355
sS'undisturb'
p2343
I2356
sS'brotherinlaw'
p2344
I2357
sS'consum'
p2345
I2358
sS'horseback'
p2346
I2359
sS'middl'
p2347
I2360
sS'grape'
p2348
I2361
sS'mallet'
p2349
I2362
sS'hump'
p2350
I2363
sS'flash'
p2351
I2364
sS'formid'
p2352
I2365
sS'chaplain'
p2353
I6778
sS'terror'
p2354
I2368
sS'southwest'
p2355
I2369
sS'brown'
p2356
I2370
sS'ensu'
p2357
I6779
sS'unchast'
p2358
I2372
sS'diminish'
p2359
I7388
sS'kitten'
p2360
I2373
sS'octob'
p2361
I2374
sS'blast'
p2362
I2375
sS'\x93that\x92'
p2363
I2376
sS'eden'
p2364
I6780
sS'i\x92ll'
p2365
I2378
sS'gum'
p2366
I2379
sS'p'
p2367
I2380
sS'burgeon'
p2368
I2382
sS'guy'
p2369
I2383
sS'woven'
p2370
I2384
sS'upper'
p2371
I2385
sS'plummet'
p2372
I2386
sS'regret'
p2373
I2387
sS'creatur'
p2374
I4142
sS'bravo'
p2375
I2389
sS'\x93puriti'
p2376
I2390
sS'cosi'
p2377
I2391
sS'cost'
p2378
I2392
sS'tempest'
p2379
I2393
sS'precipit'
p2380
I2394
sS'appear'
p2381
I2395
sS'scaffold'
p2382
I2396
sS'uniform'
p2383
I2397
sS'indiffer'
p2384
I2398
sS'appeal'
p2385
I2399
sS'defici'
p2386
I2400
sS'roundhead'
p2387
I2401
sS'\x93mr'
p2388
I790
sS'satisfi'
p2389
I2403
sS'lustrous'
p2390
I2404
sS'\x93mi'
p2391
I2405
sS'peeler'
p2392
I2406
sS'merriment'
p2393
I2407
sS'undon'
p2394
I7116
sS'chesterfield'
p2395
I2408
sS'pillow'
p2396
I2409
sS'unreason'
p2397
I2410
sS'nose\x94'
p2398
I2411
sS'regardless'
p2399
I2412
sS'astir'
p2400
I4151
sS'exasper'
p2401
I2414
sS'firearm'
p2402
I2415
sS'market'
p2403
I2416
sS'falsiti'
p2404
I7238
sS'prove'
p2405
I2417
sS'finger\x97so\x97they'
p2406
I2906
sS'live'
p2407
I2419
sS'tape'
p2408
I1697
sS'club'
p2409
I2422
sS'unconsci'
p2410
I2423
sS'virtue\x97but'
p2411
I2424
sS'ascet'
p2412
I2425
sS'car'
p2413
I2426
sS'prepar'
p2414
I2427
sS'tranc'
p2415
I2428
sS'caw'
p2416
I2429
sS'cat'
p2417
I2430
sS'can'
p2418
I2431
sS'cab'
p2419
I2432
sS'natasha'
p2420
I2433
sS'heart'
p2421
I2434
sS'practition'
p2422
I2435
sS'puriti'
p2423
I2436
sS'him\x97th'
p2424
I6786
sS'chit'
p2425
I2438
sS'heard'
p2426
I2439
sS'chin'
p2427
I2440
sS'o'
p2428
I2441
sS'ma\x92am\x94'
p2429
I2442
sS'cardin'
p2430
I2443
sS'mouse\x92'
p2431
I2444
sS'multipl'
p2432
I2445
sS'unwritten'
p2433
I4612
sS'gwyn\x92'
p2434
I2447
sS'economi'
p2435
I2448
sS'write'
p2436
I2449
sS'raptur'
p2437
I5499
sS'flank'
p2438
I2451
sS'memory\x97th'
p2439
I1704
sS'writh'
p2440
I2453
sS'afternoon'
p2441
I4156
sS'bawd'
p2442
I2455
sS'superintend'
p2443
I2456
sS'dive'
p2444
I2457
sS'brazen'
p2445
I2458
sS'groves\x94'
p2446
I2459
sS'\x93orlando\x94'
p2447
I2911
sS'flourish'
p2448
I2461
sS'wainscot'
p2449
I2462
sS'beam'
p2450
I5502
sS'favorit'
p2451
I2463
sS'ephemer'
p2452
I2464
sS'mindwhich'
p2453
I2465
sS'crept'
p2454
I2466
sS'offend'
p2455
I2467
sS'offenc'
p2456
I2468
sS'harpstr'
p2457
I2469
sS'\x93reality\x94'
p2458
I2470
sS'swiftest'
p2459
I5503
sS'approv'
p2460
I2472
sS'ribband'
p2461
I2473
sS'brain'
p2462
I2474
sS'genteel'
p2463
I2475
sS'bedchamb'
p2464
I2476
sS'cold'
p2465
I2477
sS'still'
p2466
I2478
sS'edific'
p2467
I2479
sS'sprinkl'
p2468
I2480
sS'willow'
p2469
I2481
sS'window'
p2470
I2482
sS'norway'
p2471
I2483
sS'recal'
p2472
I2484
sS'halt'
p2473
I2485
sS'fling'
p2474
I2486
sS'nod'
p2475
I2487
sS'contriv'
p2476
I4162
sS'rake'
p2477
I2489
sS'disloc'
p2478
I2490
sS'centenari'
p2479
I2491
sS'hale'
p2480
I2492
sS'half'
p2481
I2493
sS'not'
p2482
I2494
sS'now'
p2483
I2495
sS'hall'
p2484
I2496
sS'nor'
p2485
I2497
sS'wont'
p2486
I2498
sS'servant'
p2487
I2499
sS'drop'
p2488
I2500
sS'animals\x92'
p2489
I2501
sS'januari'
p2490
I2502
sS'courag'
p2491
I2503
sS'el'
p2492
I2504
sS'outrigg'
p2493
I2505
sS'en'
p2494
I2506
sS'snelgrov'
p2495
I2507
sS'replac'
p2496
I2508
sS'now\x94\x97her'
p2497
I6473
sS'yeat'
p2498
I2509
sS'supplant'
p2499
I2510
sS'year'
p2500
I2511
sS'marriage\x97clorinda'
p2501
I6800
sS'happen'
p2502
I2513
sS'darkplum'
p2503
I4246
sS'accomplish'
p2504
I2515
sS'absorpt'
p2505
I2516
sS'space'
p2506
I2517
sS'icicl'
p2507
I2518
sS'cresset'
p2508
I2519
sS'busybodi'
p2509
I2520
sS'housemaid'
p2510
I2521
sS'ironi'
p2511
I2522
sS'hastili'
p2512
I2523
sS'carp'
p2513
I2524
sS'carv'
p2514
I2525
sS'argu'
p2515
I2526
sS'cart'
p2516
I2527
sS'rebel'
p2517
I2528
sS'card'
p2518
I2529
sS'care'
p2519
I2530
sS'\x93about'
p2520
I2531
sS'\x93onc'
p2521
I2532
sS'unwil'
p2522
I2533
sS'british'
p2523
I2534
sS'honest'
p2524
I2535
sS'walked\x97they'
p2525
I2536
sS'scents\x97sh'
p2526
I6708
sS'profess'
p2527
I2537
sS'despise\x94'
p2528
I7021
sS'blind'
p2529
I2539
sS'organgrind'
p2530
I2540
sS'yourself'
p2531
I2541
sS'crafts\x97and'
p2532
I2542
sS'expir'
p2533
I6932
sS'ring'
p2534
I2543
sS'drove'
p2535
I2544
sS'tomorrow'
p2536
I2545
sS'size'
p2537
I2546
sS'sheep'
p2538
I2547
sS'\x93rattigan'
p2539
I2548
sS'sheer'
p2540
I2549
sS'sheet'
p2541
I2550
sS'silent'
p2542
I167
sS'imit'
p2543
I4169
sS'caught'
p2544
I2553
sS'breed'
p2545
I2554
sS'silenc'
p2546
I2555
sS'tragic'
p2547
I2556
sS'breez'
p2548
I2557
sS'desmond'
p2549
I2558
sS'frame'
p2550
I1718
sS'friend'
p2551
I2560
sS'thaw'
p2552
I2561
sS'grenvill'
p2553
I2562
sS'especi'
p2554
I2563
sS'peck'
p2555
I2564
sS'than'
p2556
I2565
sS'appleb'
p2557
I2566
sS'extinguish'
p2558
I2569
sS'delia'
p2559
I2570
sS'delic'
p2560
I2571
sS'angel'
p2561
I2572
sS'grotto'
p2562
I2573
sS'anywher'
p2563
I2574
sS'slap'
p2564
I2575
sS'slam'
p2565
I2576
sS'deliv'
p2566
I2577
sS'anger'
p2567
I2578
sS'breakfast'
p2568
I2579
sS'groundless'
p2569
I1539
sS'engin'
p2570
I2581
sS'hookah'
p2571
I2582
sS'lovers\x92'
p2572
I2583
sS'begin'
p2573
I2584
sS'prick'
p2574
I2585
sS'plainer'
p2575
I2586
sS'creation\x97heavens\x94'
p2576
I2587
sS'rescu'
p2577
I2589
sS'dream'
p2578
I2590
sS'mrs'
p2579
I2591
sS'meanwhil'
p2580
I2592
sS'profus'
p2581
I2593
sS'\x93lord\x94'
p2582
I2594
sS'steadi'
p2583
I2595
sS'\x93came'
p2584
I2596
sS'german'
p2585
I2597
sS'geographi'
p2586
I2598
sS'talbot'
p2587
I2599
sS'fletcher'
p2588
I2600
sS'ground'
p2589
I526
sS'gnat'
p2590
I2602
sS'onli'
p2591
I2603
sS'gnaw'
p2592
I2604
sS'stair'
p2593
I2606
sS'androgyni'
p2594
I2607
sS'hurt\x94'
p2595
I2608
sS'cucumb'
p2596
I2609
sS'busili'
p2597
I2610
sS'bonthrop'
p2598
I2611
sS'jermyn'
p2599
I2612
sS'stain'
p2600
I2613
sS'fort'
p2601
I4181
sS'shrill'
p2602
I2615
sS'waddl'
p2603
I2616
sS'cloudless'
p2604
I1726
sS'porridg'
p2605
I2618
sS'cannon'
p2606
I2619
sS'on\x97her'
p2607
I2620
sS'loath'
p2608
I2621
sS'cannot'
p2609
I2622
sS'querul'
p2610
I2623
sS'stroll'
p2611
I2624
sS'culpabl'
p2612
I2625
sS'leather'
p2613
I2626
sS'seldom'
p2614
I2627
sS'ploughmen'
p2615
I2629
sS'entomb'
p2616
I2630
sS'husband'
p2617
I2631
sS'concert'
p2618
I2632
sS'burst'
p2619
I2633
sS'advantage\x97how'
p2620
I2634
sS'unfit'
p2621
I2635
sS'asleep'
p2622
I2636
sS'sport'
p2623
I2637
sS'concern'
p2624
I2638
sS'glaze'
p2625
I2639
sS'whippet'
p2626
I2640
sS'ambl'
p2627
I2641
sS'opposite\x97had'
p2628
I2642
sS'estat'
p2629
I609
sS'complexion'
p2630
I2644
sS'between'
p2631
I2645
sS'import'
p2632
I2646
sS'manuscript\x94'
p2633
I2647
sS'folly\x97than'
p2634
I2648
sS'hurtl'
p2635
I2649
sS'obscen'
p2636
I2941
sS'pluck'
p2637
I2651
sS'blame'
p2638
I2652
sS'bruge'
p2639
I2653
sS'widow\x92'
p2640
I4186
sS'rippl'
p2641
I2655
sS'monk'
p2642
I2656
sS'masthead\x97\x94'
p2643
I2658
sS'them\x97sasha'
p2644
I2659
sS'exploit'
p2645
I2660
sS'152'
p2646
I2661
sS'sulki'
p2647
I2662
sS'disput'
p2648
I1732
sS'\x93horrid'
p2649
I2664
sS'merriest'
p2650
I2665
sS'damag'
p2651
I2666
sS'loth'
p2652
I1696
sS'\x93oh'
p2653
I2668
sS'jerki'
p2654
I2669
sS'rubi'
p2655
I2670
sS'jacobi'
p2656
I6829
sS'paul\x92s\x94'
p2657
I2672
sS'apiec'
p2658
I2673
sS'delici'
p2659
I2944
sS'vehem'
p2660
I2675
sS'crumb'
p2661
I2676
sS'these'
p2662
I2677
sS'valeri'
p2663
I2678
sS'trick'
p2664
I2679
sS'archduk'
p2665
I2682
sS'hen\x92'
p2666
I2683
sS'trice'
p2667
I2684
sS'sawdust'
p2668
I2685
sS'soil'
p2669
I2686
sS'henc'
p2670
I2687
sS'uncov'
p2671
I1031
sS'equal'
p2672
I5531
sS'lightheart'
p2673
I2690
sS'develop'
p2674
I2691
sS'pester'
p2675
I2692
sS'gentlemen'
p2676
I2693
sS'poetic'
p2677
I2694
sS'moment\x97for'
p2678
I2695
sS'document'
p2679
I2696
sS'medit'
p2680
I2697
sS'highwaymen'
p2681
I2698
sS'finish'
p2682
I2699
sS'foam'
p2683
I2700
sS'nobli'
p2684
I1122
sS'0795310021'
p2685
I2702
sS'fruit'
p2686
I2703
sS'volley'
p2687
I1738
sS'charger'
p2688
I2705
sS'pervad'
p2689
I2706
sS'suppliant'
p2690
I2707
sS'\x93prais'
p2691
I2708
sS'numbskulls\x97brev'
p2692
I2709
sS'abund'
p2693
I2710
sS'staircas'
p2694
I2711
sS'fester'
p2695
I5541
sS'armour'
p2696
I2713
sS'touch'
p2697
I2714
sS'speed'
p2698
I2715
sS'again\x97so'
p2699
I2716
sS'death'
p2700
I2717
sS'europ'
p2701
I2718
sS'skittl'
p2702
I2719
sS'senseless'
p2703
I2720
sS'sinuous'
p2704
I2721
sS'identif'
p2705
I2722
sS'venison'
p2706
I4202
sS'struck'
p2707
I2725
sS'momentum'
p2708
I2726
sS'earli'
p2709
I1297
sS'crepuscular'
p2710
I2728
sS'hover'
p2711
I2729
sS'frown'
p2712
I99
sS'read'
p2713
I2731
sS'ruler'
p2714
I2732
sS'stung'
p2715
I2733
sS'ladi'
p2716
I2734
sS'disbeliev'
p2717
I1832
sS'basest'
p2718
I2735
sS'earnest'
p2719
I2736
sS'reap'
p2720
I2737
sS'purified\x97whil'
p2721
I2738
sS'commend'
p2722
I5542
sS'bell\x97but'
p2723
I2740
sS'treacher'
p2724
I2741
sS'engross'
p2725
I2742
sS'benefit'
p2726
I2743
sS't'
p2727
I2744
sS'cascad'
p2728
I2745
sS'downward'
p2729
I2746
sS'falsehood'
p2730
I2747
sS'monosyllab'
p2731
I4207
sS'\x93there\x92'
p2732
I4208
sS'noblemen'
p2733
I6687
sS'write\x97it'
p2734
I2750
sS'am\x94'
p2735
I2751
sS'\x93still\x97they'
p2736
I2752
sS'uneasi'
p2737
I2753
sS'wheat'
p2738
I1469
sS'sixti'
p2739
I2755
sS'sixth'
p2740
I2756
sS'throe'
p2741
I2230
sS'bazaar'
p2742
I2758
sS'throw'
p2743
I2759
sS'standstil'
p2744
I2760
sS'comparison'
p2745
I2761
sS'wolv'
p2746
I2762
sS'discomposur'
p2747
I474
sS'hiatus'
p2748
I2764
sS'chop'
p2749
I2765
sS'degre'
p2750
I2766
sS'journey'
p2751
I2767
sS'wolf'
p2752
I2768
sS'eforeword'
p2753
I2769
sS'unmarri'
p2754
I2770
sS'\x91works\x92'
p2755
I1559
sS'indol'
p2756
I2772
sS'nurs'
p2757
I2773
sS'cat]'
p2758
I2774
sS'stare'
p2759
I2775
sS'jowl'
p2760
I2776
sS'log'
p2761
I2777
sS'starl'
p2762
I2778
sS'loo'
p2763
I2779
sS'stark'
p2764
I2780
sS'cato'
p2765
I2781
sS'start'
p2766
I2782
sS'fascin'
p2767
I2783
sS'starv'
p2768
I2784
sS'low'
p2769
I2785
sS'lot'
p2770
I2786
sS'submiss'
p2771
I2787
sS'groan'
p2772
I2788
sS'uproari'
p2773
I2789
sS'satur'
p2774
I2790
sS'hire'
p2775
I2791
sS'fraud'
p2776
I2792
sS'toycupboard'
p2777
I2794
sS'default'
p2778
I2795
sS'so\x97th'
p2779
I2796
sS'charlatan'
p2780
I2798
sS'oxen'
p2781
I2799
sS'encumbr'
p2782
I2800
sS'pole'
p2783
I6516
sS'nerv'
p2784
I2801
sS'tentlik'
p2785
I2802
sS'momentarili'
p2786
I2803
sS'merest'
p2787
I2804
sS'counterbal'
p2788
I2805
sS'reclin'
p2789
I1785
sS'marketplac'
p2790
I2807
sS'thither'
p2791
I2808
sS'\x97we'
p2792
I2809
sS'you'
p2793
I2810
sS'charles\x92'
p2794
I2811
sS'poor'
p2795
I2812
sS'pear'
p2796
I2813
sS'are\x94'
p2797
I2814
sS'peak'
p2798
I2815
sS'barouch'
p2799
I2816
sS'peac'
p2800
I2817
sS'pool'
p2801
I2818
sS'philosoph'
p2802
I2819
sS'moonlight'
p2803
I2820
sS'inevit'
p2804
I2821
sS'forswear'
p2805
I2822
sS'you\x94'
p2806
I2823
sS'skeleton'
p2807
I2824
sS'gown'
p2808
I2825
sS'him\x94'
p2809
I2826
sS'month'
p2810
I2827
sS'unrest'
p2811
I2828
sS'messr'
p2812
I2829
sS'pope\x94'
p2813
I2830
sS'ryland'
p2814
I2831
sS'carpet'
p2815
I2832
sS'votr'
p2816
I3860
sS'corps'
p2817
I2833
sS'inaud'
p2818
I2834
sS'articl'
p2819
I2835
sS'lovemak'
p2820
I5561
sS'solicit'
p2821
I2837
sS'fountain'
p2822
I2971
sS'sydneyturner\x92'
p2823
I2839
sS'vers'
p2824
I2840
sS'allud'
p2825
I2841
sS'masquerad'
p2826
I1997
sS'horror'
p2827
I2843
sS'sasha'
p2828
I2844
sS'policeman\x92'
p2829
I2845
sS'plaid'
p2830
I5563
sS'vere'
p2831
I2847
sS'minded'
p2832
I2848
sS'verg'
p2833
I2849
sS'veri'
p2834
I2850
sS'heaven'
p2835
I2851
sS'alas\x97a'
p2836
I2852
sS'louis'
p2837
I2853
sS'ceaseless'
p2838
I2854
sS'plain'
p2839
I5564
sS'smith'
p2840
I7551
sS'dimens'
p2841
I2856
sS'ass'
p2842
I2857
sS'thomson\x92'
p2843
I2858
sS'skin'
p2844
I2859
sS'narrat'
p2845
I2860
sS'hamper'
p2846
I2861
sS'pope*'
p2847
I2862
sS'lurch'
p2848
I2863
sS'cannib'
p2849
I2864
sS'snuggl'
p2850
I2865
sS'theatric'
p2851
I2866
sS'sociabl'
p2852
I2867
sS'trunk'
p2853
I2278
sS'strong'
p2854
I2869
sS'modifi'
p2855
I2870
sS'washstand'
p2856
I1763
sS'\x93haunted\x94'
p2857
I2872
sS'ahead'
p2858
I2873
sS'whine'
p2859
I2874
sS'soldier'
p2860
I2875
sS'mantilla'
p2861
I2876
sS'heroin'
p2862
I2877
sS'elizabeth\x92'
p2863
I2878
sS'cobbl'
p2864
I2879
sS'freshcolour'
p2865
I2880
sS'courtier'
p2866
I2881
sS'widecheek'
p2867
I2882
sS'put'
p2868
I2883
sS'famili'
p2869
I2884
sS'seventeenth'
p2870
I2885
sS'earliest'
p2871
I2984
sS'injuri'
p2872
I2887
sS'abloom'
p2873
I2888
sS'fury\x94'
p2874
I2889
sS'18th\x97'
p2875
I2890
sS'taken'
p2876
I2325
sS'\x93shel'
p2877
I2892
sS'5\xbdd'
p2878
I2893
sS'tumbl'
p2879
I2894
sS'fishwiv'
p2880
I2895
sS'precari'
p2881
I2896
sS'broke'
p2882
I2897
sS'fishmonger\x92'
p2883
I2898
sS'grill'
p2884
I2899
sS'daisi'
p2885
I2900
sS'histori'
p2886
I2901
sS'nine'
p2887
I2902
sS'men\x97yet'
p2888
I2903
sS'trousers\x97how'
p2889
I2905
sS'cowl'
p2890
I2418
sS'vw'
p2891
I1767
sS'psychologist\x97ani'
p2892
I2908
sS'lawcourt'
p2893
I2909
sS'phrase'
p2894
I2910
sS'\x93ah'
p2895
I2460
sS'sardines\x97und'
p2896
I2912
sS'\x93am'
p2897
I2913
sS'anoth'
p2898
I2914
sS'ledger'
p2899
I2915
sS'reject'
p2900
I2916
sS'\x93as'
p2901
I2917
sS'gash'
p2902
I2918
sS'rude'
p2903
I2919
sS'horses\x92'
p2904
I2920
sS'propiti'
p2905
I2921
sS'modesty\x94'
p2906
I2922
sS'embrac'
p2907
I2923
sS'gasp'
p2908
I2924
sS'a'
p2909
I2925
sS'stabil'
p2910
I2926
sS'lifetim'
p2911
I2927
sS'fallen'
p2912
I6879
sS'bugl'
p2913
I2929
sS'dread'
p2914
I2930
sS'egg'
p2915
I2931
sS'esquir'
p2916
I2932
sS'help'
p2917
I2933
sS'slouch'
p2918
I2934
sS'soon'
p2919
I2935
sS'held'
p2920
I2936
sS'hierarchi'
p2921
I2937
sS'hell'
p2922
I2938
sS'milman'
p2923
I2939
sS'snowdrop'
p2924
I2940
sS'queerest'
p2925
I2650
sS'\x91ot'
p2926
I2942
sS'astonish'
p2927
I2943
sS'genealog'
p2928
I2674
sS'finer'
p2929
I2945
sS'fool'
p2930
I2946
sS'dear\x94'
p2931
I2947
sS'food'
p2932
I2948
sS'sentenc'
p2933
I2949
sS'inquisit'
p2934
I2950
sS'foot'
p2935
I2951
sS'barrel\x94'
p2936
I2952
sS'apparent\xe9'
p2937
I2953
sS'bless'
p2938
I2954
sS'madame\x94'
p2939
I2955
sS'transfigur'
p2940
I2956
sS'fulli'
p2941
I2957
sS'intervent'
p2942
I2958
sS'duller'
p2943
I2959
sS'muscovitish'
p2944
I4254
sS'restless'
p2945
I2961
sS'prais'
p2946
I5581
sS'heavi'
p2947
I2963
sS'warm\x97blam'
p2948
I2964
sS'talisman'
p2949
I2965
sS'beyond'
p2950
I2966
sS'event'
p2951
I2967
sS'safeti'
p2952
I2968
sS'miss'
p2953
I2996
sS'publish'
p2954
I2970
sS'sustain'
p2955
I2838
sS'trusti'
p2956
I2972
sS'shrivel'
p2957
I2973
sS'testifi'
p2958
I2974
sS'smock'
p2959
I2975
sS'thirtyf'
p2960
I2976
sS'drink'
p2961
I2538
sS'norwich'
p2962
I2978
sS'puf'
p2963
I2979
sS'dung'
p2964
I2980
sS'reason'
p2965
I2981
sS'base'
p2966
I2982
sS'ask'
p2967
I2983
sS'ash'
p2968
I2886
sS'heroic'
p2969
I2985
sS'unaccount'
p2970
I2986
sS'launch'
p2971
I2988
sS'script'
p2972
I6892
sS'curtsey'
p2973
I2989
sS'american'
p2974
I2990
sS'blush'
p2975
I2991
sS'assign'
p2976
I2992
sS'elder'
p2977
I2993
sS'mist'
p2978
I2995
sS'bassinett'
p2979
I2969
sS'eddi'
p2980
I2997
sS'sienne\x94'
p2981
I2998
sS'blossom'
p2982
I2999
sS'townscap'
p2983
I3000
sS'bo\x92sun\x97ah'
p2984
I3001
sS'brocad'
p2985
I3002
sS'minion'
p2986
I3003
sS'station'
p2987
I3004
sS'behind'
p2988
I4530
sS'jordan'
p2989
I3007
sS'winchilsea\x92'
p2990
I3008
sS'grew'
p2991
I3009
sS'tunic'
p2992
I3010
sS'lament'
p2993
I3011
sS'wine\x97and'
p2994
I3012
sS'grey'
p2995
I3013
sS'bride'
p2996
I3014
sS'bridg'
p2997
I3015
sS'kindli'
p2998
I3016
sS'\x93i\x92ll'
p2999
I3017
sS'bridl'
p3000
I3018
sS'consumpt'
p3001
I3019
sS'toward'
p3002
I3020
sS'builder'
p3003
I5589
sS'talker'
p3004
I3022
sS'woolf\x92'
p3005
I3023
sS'heaviest'
p3006
I3024
sS'nightingal'
p3007
I3025
sS'imperfect'
p3008
I6904
sS'motheaten'
p3009
I3027
sS'lid'
p3010
I3028
sS'lie'
p3011
I3029
sS'adrift'
p3012
I3030
sS'redcheek'
p3013
I3031
sS'cave'
p3014
I3032
sS'scotland'
p3015
I3033
sS'lit'
p3016
I3034
sS'labour'
p3017
I3035
sS'lip'
p3018
I3036
sS'useless'
p3019
I3037
sS'\x93iphigenia'
p3020
I3038
sS'alphabet\x94'
p3021
I3039
sS'carlyle\x94\x97h'
p3022
I3208
sS'night\x97in'
p3023
I3041
sS'reparte'
p3024
I3042
sS'clear'
p3025
I3043
sS'cleav'
p3026
I3044
sS'tongu'
p3027
I3045
sS'lordship'
p3028
I3046
sS'skein'
p3029
I3047
sS'surrey'
p3030
I3048
sS'languid'
p3031
I3049
sS'flicker'
p3032
I3050
sS'years\x94'
p3033
I3285
sS'melt'
p3034
I3052
sS'sheepskin'
p3035
I3053
sS'pretti'
p3036
I3054
sS'duncan'
p3037
I3055
sS'\x93anoth'
p3038
I3056
sS'central'
p3039
I3057
sS'outshon'
p3040
I3058
sS'pois'
p3041
I3059
sS'deliber'
p3042
I3060
sS'famous'
p3043
I3061
sS'harwich'
p3044
I3062
sS'\x93with'
p3045
I3063
sS'chimney'
p3046
I3064
sS'composition\x97sh'
p3047
I3065
sS'catcher'
p3048
I3066
sS'withi'
p3049
I3067
sS'chasten'
p3050
I3068
sS'antiqu'
p3051
I3069
sS'forster'
p3052
I3070
sS'courteous'
p3053
I3071
sS'remov'
p3054
I6919
sS'seventeen'
p3055
I3073
sS'we\x92v'
p3056
I3074
sS'\x93shelmerdine\x94'
p3057
I3075
sS'plough'
p3058
I3076
sS'\x93ecstasy\x94'
p3059
I3077
sS'close'
p3060
I153
sS'despatch'
p3061
I3079
sS'noble\x97wa'
p3062
I3080
sS'whatsoev'
p3063
I3081
sS'damp\x97ivi'
p3064
I3082
sS'horrid'
p3065
I3083
sS'tree\x94'
p3066
I3084
sS'grandmoth'
p3067
I3085
sS'tree\x92'
p3068
I3086
sS'won'
p3069
I3087
sS'honour'
p3070
I529
sS'architect'
p3071
I6924
sS'catalogu'
p3072
I3090
sS'bediver'
p3073
I3531
sS'numer'
p3074
I3092
sS'dalli'
p3075
I3093
sS'isol'
p3076
I3094
sS'philanthropist'
p3077
I3096
sS'distinguish'
p3078
I3097
sS'errat'
p3079
I3098
sS'birds\x92'
p3080
I3560
sS'both'
p3081
I3100
sS'window\x97al'
p3082
I3101
sS'danc'
p3083
I6927
sS'fagot\xe9'
p3084
I3103
sS'forgotten'
p3085
I3595
sS'vault'
p3086
I3105
sS'heaven\x92'
p3087
I3106
sS'curios'
p3088
I3107
sS'farmhous'
p3089
I3108
sS'liken'
p3090
I3109
sS'cartwright'
p3091
I3110
sS'vessel'
p3092
I3111
sS'mob\x94'
p3093
I3112
sS'forgiv'
p3094
I3113
sS'lawyer\x92'
p3095
I3114
sS'stamp'
p3096
I3115
sS'damp'
p3097
I3116
sS'territori'
p3098
I3117
sS'empti'
p3099
I3118
sS'unvers'
p3100
I3662
sS'damn'
p3101
I3120
sS'blueness'
p3102
I3121
sS'threaten'
p3103
I3122
sS'be\x97if'
p3104
I3123
sS'walter'
p3105
I3124
sS'box'
p3106
I4286
sS'imag'
p3107
I3126
sS'\x93wondrous'
p3108
I3127
sS'liver'
p3109
I3128
sS'furrow'
p3110
I3129
sS'\x91good'
p3111
I3130
sS'utmost'
p3112
I3131
sS'look'
p3113
I3132
sS'gale'
p3114
I6931
sS'world\x94\x97for'
p3115
I3134
sS'rope'
p3116
I3744
sS'pace'
p3117
I3137
sS'while'
p3118
I3138
sS'read\x94'
p3119
I3756
sS'fleet'
p3120
I3764
sS'loos'
p3121
I3141
sS'loop'
p3122
I3142
sS'pack'
p3123
I3143
sS'asund'
p3124
I3144
sS'readi'
p3125
I3145
sS'petal'
p3126
I3146
sS'confound'
p3127
I3147
sS'spong'
p3128
I3148
sS'\x93confound'
p3129
I3820
sS'grant'
p3130
I3150
sS'belong'
p3131
I3151
sS'silver\x97six'
p3132
I3152
sS'discredit'
p3133
I3153
sS'live\x94'
p3134
I3154
sS'grand'
p3135
I3155
sS'moralis'
p3136
I3156
sS'terrac'
p3137
I3157
sS'conflict'
p3138
I3158
sS'imagin'
p3139
I3159
sS'\x93now'
p3140
I1808
sS'timepiec'
p3141
I3161
sS'priceless'
p3142
I4295
sS'els'
p3143
I6062
sS'older'
p3144
I3163
sS'housebreak'
p3145
I3164
sS'grossli'
p3146
I3165
sS'like\x94'
p3147
I3166
sS'cedar'
p3148
I1810
sS'bog'
p3149
I4756
sS'cockl'
p3150
I809
sS'cour'
p3151
I3170
sS'marqui'
p3152
I3172
sS'briefli'
p3153
I6695
sS'last\x94'
p3154
I4020
sS'nell\x92'
p3155
I3174
sS'soliloquy'
p3156
I3175
sS'march'
p3157
I3176
sS'asylum\x97that'
p3158
I3177
sS'ruff'
p3159
I3178
sS'game'
p3160
I3179
sS'flamingo'
p3161
I5616
sS'jewellers\x92'
p3162
I4088
sS'characterist'
p3163
I3182
sS'outright'
p3164
I3183
sS'signal'
p3165
I4119
sS'father\x92'
p3166
I3185
sS'resolv'
p3167
I3186
sS'manifest'
p3168
I3187
sS'eel'
p3169
I3188
sS'valenc'
p3170
I3189
sS'vibrant'
p3171
I5619
sS'pilgrimag'
p3172
I3191
sS'sketch'
p3173
I3192
sS'creation'
p3174
I3193
sS'some'
p3175
I3194
sS'footfal'
p3176
I3195
sS'urgent'
p3177
I3196
sS'hawhaw'
p3178
I5622
sS'chocol'
p3179
I3198
sS'noblemen\x92'
p3180
I3199
sS'gild'
p3181
I6940
sS'opinion\x97it'
p3182
I3201
sS'slash'
p3183
I3202
sS'nelli'
p3184
I3203
sS'run'
p3185
I3204
sS'rub'
p3186
I3205
sS'benefactor'
p3187
I3206
sS'rug'
p3188
I3207
sS'mixtur'
p3189
I3040
sS'step'
p3190
I3209
sS'stew'
p3191
I3210
sS'bastinado'
p3192
I3211
sS'abroad'
p3193
I3212
sS'rut'
p3194
I3213
sS'wealth'
p3195
I3214
sS'shine'
p3196
I3215
sS'faith'
p3197
I3216
sS'deceas'
p3198
I3217
sS'shini'
p3199
I3218
sS'idl'
p3200
I3219
sS'74'
p3201
I6948
sS'block'
p3202
I3221
sS'within'
p3203
I3223
sS'spiderthin'
p3204
I3224
sS'vineyard'
p3205
I4313
sS'undertaken'
p3206
I7536
sS'visag'
p3207
I3226
sS'amaz'
p3208
I6955
sS'mulberri'
p3209
I3228
sS'himself'
p3210
I3229
sS'frost'
p3211
I3231
sS'reed'
p3212
I3232
sS'branch'
p3213
I7556
sS'russian'
p3214
I3234
sS'azor'
p3215
I3235
sS'reek'
p3216
I3236
sS'reel'
p3217
I3237
sS'dull'
p3218
I3238
sS'skull'
p3219
I3239
sS'soothsay'
p3220
I1821
sS'malis'
p3221
I3241
sS'place\x97culmin'
p3222
I4576
sS'night\x97\x93what'
p3223
I3243
sS'malic'
p3224
I3244
sS'lectur'
p3225
I4596
sS'incomplet'
p3226
I3246
sS'cotton'
p3227
I3247
sS'sullen'
p3228
I3248
sS'pronounc'
p3229
I3249
sS'titl'
p3230
I3250
sS'nan'
p3231
I3251
sS'nap'
p3232
I3252
sS'country\x97hi'
p3233
I1824
sS'draw'
p3234
I3254
sS'clean'
p3235
I3255
sS'evas'
p3236
I3256
sS'sasha\x92'
p3237
I3257
sS'dray'
p3238
I3258
sS'bravado'
p3239
I3259
sS'staircase\x97with'
p3240
I4682
sS'drag'
p3241
I3261
sS'poet\x97a'
p3242
I3262
sS'drab'
p3243
I3263
sS'odious'
p3244
I3264
sS'evad'
p3245
I3265
sS'e'
p3246
I3266
sS'squareshap'
p3247
I3267
sS'heath'
p3248
I3268
sS'depth'
p3249
I3269
sS'incandesc'
p3250
I3270
sS'bribe'
p3251
I3271
sS'turks\x97to'
p3252
I3272
sS'\x93no\x94'
p3253
I1829
sS'aristocrat'
p3254
I1939
sS'fiftyseven'
p3255
I3275
sS'scrope'
p3256
I3276
sS'behold\x97in'
p3257
I3277
sS'arid'
p3258
I3278
sS'geranium'
p3259
I3279
sS'palmerston\x92'
p3260
I3280
sS'aris'
p3261
I3281
sS'pervers'
p3262
I7186
sS'lord\x92'
p3263
I4322
sS'saucepan'
p3264
I3383
sS'nichola'
p3265
I3284
sS'humil'
p3266
I3051
sS'wave'
p3267
I3286
sS'tenpenc'
p3268
I7133
sS'trough'
p3269
I3287
sS'kitti'
p3270
I3288
sS'stiff'
p3271
I3289
sS'gender'
p3272
I3290
sS'button'
p3273
I3291
sS'stifl'
p3274
I3292
sS'rattigan'
p3275
I3293
sS'verdict'
p3276
I3294
sS'sultan\x92'
p3277
I3295
sS'enough\x97inde'
p3278
I3296
sS'mustn\x92t'
p3279
I3297
sS'\x91she\x92'
p3280
I1835
sS'widows\x92'
p3281
I3299
sS'sackcloth'
p3282
I4981
sS'uniqu'
p3283
I4326
sS'jump'
p3284
I3302
sS'booti'
p3285
I3303
sS'booth'
p3286
I3304
sS'go'
p3287
I3274
sS'sturdier'
p3288
I3305
sS'blith'
p3289
I3306
sS'wallet'
p3290
I3307
sS'colonel'
p3291
I3308
sS'experiment'
p3292
I3309
sS'unspeak'
p3293
I3310
sS'\x93spare'
p3294
I3311
sS'whimpl'
p3295
I3312
sS'fifteenth'
p3296
I3313
sS'quell'
p3297
I3314
sS'\xe9tait'
p3298
I3315
sS'becom'
p3299
I3316
sS'galleon'
p3300
I3317
sS'northern'
p3301
I3318
sS'chant'
p3302
I3319
sS'volga'
p3303
I3320
sS'impass'
p3304
I3321
sS'chang'
p3305
I3322
sS'chanc'
p3306
I3323
sS'subservi'
p3307
I3324
sS'danger'
p3308
I3325
sS'win'
p3309
I3326
sS'wit'
p3310
I3327
sS'\x93without'
p3311
I3328
sS'baker\x92'
p3312
I3329
sS'cloud'
p3313
I3330
sS'metaphor'
p3314
I3331
sS'fob\x97wa'
p3315
I3332
sS'hudson'
p3316
I5212
sS'thoroughfar'
p3317
I3334
sS'fibr'
p3318
I3335
sS'implic'
p3319
I3336
sS'generos'
p3320
I3337
sS'crag'
p3321
I3338
sS'crab'
p3322
I3339
sS'peach'
p3323
I7164
sS'gulliver\x92'
p3324
I3340
sS'whiski'
p3325
I3341
sS'salad'
p3326
I3342
sS'perceiv'
p3327
I3343
sS'ride'
p3328
I3344
sS'doublet'
p3329
I7367
sS'moment\x92'
p3330
I1845
sS'meet'
p3331
I3346
sS'control'
p3332
I3347
sS'vulgar\x97al'
p3333
I3348
sS'\x93pleas'
p3334
I3349
sS'sought'
p3335
I3350
sS'skirt'
p3336
I3351
sS'georg'
p3337
I3352
sS'poetri'
p3338
I3353
sS'love\x97back'
p3339
I3354
sS'pink'
p3340
I4343
sS'farc'
p3341
I3356
sS'farm'
p3342
I3357
sS'stream\x97would'
p3343
I3358
sS'timekeep'
p3344
I3359
sS'ungrac'
p3345
I3362
sS'interposit'
p3346
I3363
sS'nativ'
p3347
I3364
sS'craggi'
p3348
I3365
sS'cattl'
p3349
I3366
sS'uphil'
p3350
I3367
sS'was\x97her'
p3351
I3368
sS'seduct'
p3352
I5122
sS'handkerchief\x97that'
p3353
I3369
sS'epigram'
p3354
I3370
sS'draperi'
p3355
I3371
sS'eglantin'
p3356
I3372
sS'brood'
p3357
I3373
sS'outer'
p3358
I3374
sS'wellturn'
p3359
I3375
sS'broom'
p3360
I3376
sS'watchman\x97\x93just'
p3361
I620
sS'princes\x94'
p3362
I3378
sS'pure'
p3363
I4956
sS'swore'
p3364
I3380
sS'handi'
p3365
I3381
sS'tribut'
p3366
I3382
sS'fritillari'
p3367
I3385
sS'placid'
p3368
I3386
sS'broadsheet'
p3369
I3387
sS'front'
p3370
I3388
sS'vulture\x97thi'
p3371
I3390
sS'somewher'
p3372
I3391
sS'sworn'
p3373
I3389
sS'slide'
p3374
I3393
sS'upward'
p3375
I3394
sS'map'
p3376
I4355
sS'globe'
p3377
I3396
sS'sandi'
p3378
I3397
sS'\x97\x97'
p3379
I3398
sS'seesaw'
p3380
I3399
sS'mar'
p3381
I3400
sS'flys'
p3382
I17
sS'mat'
p3383
I4359
sS'gallant'
p3384
I3403
sS'influenc'
p3385
I3404
sS'confess'
p3386
I3405
sS'fathom'
p3387
I3406
sS'discharg'
p3388
I3407
sS'hand\x94'
p3389
I3408
sS'suitabl'
p3390
I3409
sS'scimitar'
p3391
I3410
sS'ain\x92t'
p3392
I3411
sS'wick'
p3393
I3412
sS'umbrella'
p3394
I3413
sS'jilt'
p3395
I3414
sS'undo'
p3396
I3415
sS'sneez'
p3397
I3416
sS'sneer'
p3398
I3417
sS'princess'
p3399
I3418
sS'etern'
p3400
I3419
sS'junketings\x97of'
p3401
I3420
sS'keep'
p3402
I3421
sS'laggardri'
p3403
I3422
sS'stride'
p3404
I3423
sS'no\x97on'
p3405
I3424
sS'mad'
p3406
I4366
sS'when\x94\x97unfortun'
p3407
I3426
sS'pourri'
p3408
I3427
sS'qualiti'
p3409
I3428
sS'58'
p3410
I6075
sS'pitiabl'
p3411
I3429
sS'bitch'
p3412
I3430
sS'conge'
p3413
I3431
sS'watermen'
p3414
I3432
sS'grow'
p3415
I4368
sS'attach'
p3416
I3434
sS'attack'
p3417
I3435
sS'privaci'
p3418
I3436
sS'fairest'
p3419
I3437
sS'beard'
p3420
I3438
sS'sing\x94'
p3421
I3439
sS'punish'
p3422
I3440
sS'story\x97that'
p3423
I3441
sS'trowel\x94'
p3424
I3442
sS'tissu'
p3425
I3443
sS'herself'
p3426
I3444
sS'banknot'
p3427
I3445
sS'waist'
p3428
I660
sS'stupend'
p3429
I3447
sS'iliana'
p3430
I3448
sS'bloat'
p3431
I5967
sS'beg'
p3432
I3450
sS'bed'
p3433
I3451
sS'bee'
p3434
I3452
sS'claim'
p3435
I3453
sS'firework'
p3436
I3454
sS'signifi'
p3437
I5771
sS'bet'
p3438
I3456
sS'are'
p3439
I6996
sS'exhibit'
p3440
I3458
sS'54'
p3441
I6087
sS'julian'
p3442
I3459
sS'uninhabit'
p3443
I3460
sS'torment'
p3444
I3461
sS'tabl'
p3445
I3462
sS'need'
p3446
I3463
sS'fluent'
p3447
I4375
sS'thessalian'
p3448
I3465
sS'bonfir'
p3449
I3466
sS'went\x97sh'
p3450
I3467
sS'mountaintop'
p3451
I3468
sS'singl'
p3452
I3469
sS'pursuer'
p3453
I3470
sS'textur'
p3454
I3471
sS'adieu'
p3455
I3472
sS'deplor'
p3456
I3473
sS'galleri'
p3457
I3474
sS'discov'
p3458
I3475
sS'awn'
p3459
I3476
sS'unannounc'
p3460
I3477
sS'rigor'
p3461
I3478
sS'madhous'
p3462
I7313
sS'masthead'
p3463
I3479
sS'cockney'
p3464
I3480
sS'urg'
p3465
I3481
sS'spleen'
p3466
I3482
sS'upset'
p3467
I3483
sS'inde'
p3468
I3484
sS'crinoline\x94'
p3469
I3485
sS'indi'
p3470
I3486
sS'affair'
p3471
I3487
sS'mind\x94'
p3472
I3488
sS'indoor'
p3473
I3489
sS'finsteraarhorn'
p3474
I3490
sS'i\x92v'
p3475
I3491
sS'\x93'
p3476
I3492
sS'i\x92m'
p3477
I3493
sS'spare\x94'
p3478
I3494
sS'now\x97sh'
p3479
I3495
sS'tire'
p3480
I3496
sS'winner'
p3481
I3497
sS'upstair'
p3482
I3498
sS'rash'
p3483
I3499
sS'dispers'
p3484
I3500
sS'brighter'
p3485
I3501
sS'envi'
p3486
I3502
sS'brightey'
p3487
I3503
sS'bobtail'
p3488
I3504
sS'deiti'
p3489
I591
sS'specterpal'
p3490
I3088
sS'120'
p3491
I3506
sS'joint'
p3492
I3507
sS'122'
p3493
I3508
sS'123'
p3494
I3509
sS'124'
p3495
I3510
sS'125'
p3496
I3511
sS'126'
p3497
I3512
sS'127'
p3498
I3513
sS'128'
p3499
I3514
sS'129'
p3500
I3515
sS'enabl'
p3501
I3516
sS'tobacco'
p3502
I3517
sS'gust'
p3503
I3518
sS'\x93ah\x94'
p3504
I3519
sS'topaz'
p3505
I3520
sS'she'
p3506
I3521
sS'contain'
p3507
I3522
sS'shi'
p3508
I3523
sS'conduct'
p3509
I5758
sS'widow'
p3510
I3524
sS'sh\x97'
p3511
I3525
sS'shake'
p3512
I4384
sS'immov'
p3513
I3527
sS'dinner\x97such'
p3514
I3528
sS'statu'
p3515
I3529
sS'southwark'
p3516
I3530
sS'huntsmen'
p3517
I3091
sS'state'
p3518
I3532
sS'glumphoboo'
p3519
I3533
sS'tens'
p3520
I3534
sS'antler'
p3521
I3535
sS'tent'
p3522
I3536
sS'merri'
p3523
I3537
sS'key'
p3524
I3538
sS'kew'
p3525
I3539
sS'disconnect'
p3526
I594
sS'precious'
p3527
I3541
sS'eclips'
p3528
I3542
sS'me\x94\x97wer'
p3529
I3543
sS'thank'
p3530
I4389
sS'career'
p3531
I3545
sS'admit'
p3532
I3546
sS'admir'
p3533
I3547
sS'known\x97john'
p3534
I3548
sS'plop\x97a'
p3535
I3549
sS'hussi'
p3536
I3550
sS'christen'
p3537
I3551
sS'tuesday'
p3538
I3552
sS'\x93\xc6thelbert'
p3539
I7012
sS'peroration\x97and'
p3540
I3554
sS'poem'
p3541
I3555
sS'slowli'
p3542
I3556
sS'quip'
p3543
I3557
sS'reptil'
p3544
I3558
sS'were\x97lay'
p3545
I3559
sS'diplomatist\x92'
p3546
I3099
sS'cent'
p3547
I3561
sS'treat'
p3548
I3562
sS'garter'
p3549
I3563
sS'poet'
p3550
I3564
sS'eloqu'
p3551
I3565
sS'forestal'
p3552
I3566
sS'crinolin'
p3553
I3567
sS'pie'
p3554
I5691
sS'spaniel'
p3555
I3569
sS'furnitur'
p3556
I3570
sS'titter'
p3557
I3571
sS'ingredi'
p3558
I3572
sS'novel'
p3559
I3573
sS'gentlemen\x97\x93ther'
p3560
I1884
sS'fitzgerald'
p3561
I6593
sS'harder'
p3562
I3575
sS'ripen'
p3563
I3576
sS'chalk'
p3564
I3577
sS'lamb\x92'
p3565
I3578
sS'therefore\x97sinc'
p3566
I3579
sS'sleepingroom'
p3567
I3580
sS'engag'
p3568
I3581
sS'buckl'
p3569
I3582
sS'parsonag'
p3570
I3583
sS'tragedy\x94'
p3571
I3584
sS'reviv'
p3572
I3585
sS'welcom'
p3573
I3586
sS'parti'
p3574
I3587
sS'balloon'
p3575
I3588
sS'together\x97'
p3576
I3589
sS'when'
p3577
I6173
sS'speaker'
p3578
I3590
sS'northwest'
p3579
I3591
sS'sixtyf'
p3580
I3592
sS'flesh'
p3581
I1795
sS'absorb'
p3582
I3593
sS'interrog'
p3583
I3594
sS'buzz'
p3584
I3104
sS'ankl'
p3585
I3596
sS'effect'
p3586
I3597
sS'denis\x92'
p3587
I3598
sS'i'
p3588
I3599
sS'\x93well'
p3589
I3600
sS'rosecolour'
p3590
I1888
sS'well'
p3591
I3602
sS'drone'
p3592
I3603
sS'king\x92'
p3593
I3605
sS'orlando\x97but'
p3594
I3606
sS'inextric'
p3595
I3607
sS'taller'
p3596
I3608
sS'distanc'
p3597
I3609
sS'murmuring\x97'
p3598
I3610
sS'basketweav'
p3599
I3611
sS'sofia'
p3600
I3612
sS'euphrosyne\x97to'
p3601
I3613
sS'mistaken'
p3602
I3614
sS'dose'
p3603
I3615
sS'distant'
p3604
I3616
sS'laurel'
p3605
I3617
sS'skill'
p3606
I3618
sS'cinder'
p3607
I3619
sS'parchment'
p3608
I3620
sS'madam\x94'
p3609
I3621
sS'trudg'
p3610
I3622
sS'warrant'
p3611
I3623
sS'kick'
p3612
I3624
sS'oar'
p3613
I5706
sS'rafter'
p3614
I3625
sS'banquet'
p3615
I6981
sS'fate'
p3616
I3626
sS'trousers\x97young'
p3617
I3627
sS'burden'
p3618
I3628
sS'lost'
p3619
I3629
sS'necessari'
p3620
I3630
sS'lose'
p3621
I3631
sS'candl'
p3622
I3632
sS'page'
p3623
I3633
sS'shed'
p3624
I3634
sS'glare'
p3625
I3635
sS'skies\x97which'
p3626
I3636
sS'morrel'
p3627
I3637
sS'twitter'
p3628
I3638
sS'words\x97in'
p3629
I3639
sS'\x93show'
p3630
I3640
sS'home'
p3631
I3641
sS'peter'
p3632
I3642
sS'librari'
p3633
I3643
sS'broad'
p3634
I3644
sS'estim'
p3635
I3645
sS'enrag'
p3636
I4412
sS'encourag'
p3637
I3647
sS'but\x97\x97\x94'
p3638
I3648
sS'journal'
p3639
I3649
sS'nutshel'
p3640
I3650
sS'instinct'
p3641
I3651
sS'shriller'
p3642
I3652
sS'quarter'
p3643
I618
sS'neck\x97al'
p3644
I7640
sS'cackl'
p3645
I3653
sS'freedom'
p3646
I3655
sS'dominion'
p3647
I3656
sS'tortur'
p3648
I3657
sS'cocoa'
p3649
I3658
sS'birdscar'
p3650
I3659
sS'doubtless'
p3651
I3661
sS'noses\x97'
p3652
I3119
sS'museum'
p3653
I3663
sS'pathway\x97'
p3654
I3664
sS'north'
p3655
I3665
sS'agre'
p3656
I3904
sS'gain'
p3657
I3667
sS'behov'
p3658
I3668
sS'eas'
p3659
I3669
sS'highest'
p3660
I3670
sS'rioter'
p3661
I3671
sS'he'
p3662
I3672
sS'cruet'
p3663
I3673
sS'cruel'
p3664
I3674
sS'limit'
p3665
I3675
sS'indefinit'
p3666
I3676
sS'pippin'
p3667
I3677
sS'dame'
p3668
I3678
sS'display'
p3669
I3679
sS'indefatig'
p3670
I3680
sS'\x93now\x94'
p3671
I3681
sS'balconi'
p3672
I3682
sS'twist'
p3673
I3683
sS'penni'
p3674
I3684
sS'folio'
p3675
I3685
sS'dissolut'
p3676
I3686
sS'arra'
p3677
I3687
sS'futur'
p3678
I3688
sS'cardboard'
p3679
I4500
sS'eyes\x94'
p3680
I3690
sS'star'
p3681
I3691
sS'alexandra\x92'
p3682
I3692
sS'duster'
p3683
I3693
sS'stay'
p3684
I3694
sS'stag'
p3685
I3695
sS'foil'
p3686
I3696
sS'appoint'
p3687
I3697
sS'spectacl'
p3688
I3698
sS'\x93sheet'
p3689
I3699
sS'adulteress'
p3690
I3700
sS'chalki'
p3691
I3701
sS'epublish'
p3692
I5093
sS'pardon'
p3693
I3703
sS'perhaps\x97into'
p3694
I3704
sS'knelt'
p3695
I3705
sS'unfurl'
p3696
I3706
sS'\x93ecstasi'
p3697
I3707
sS'protest'
p3698
I3708
sS'asian'
p3699
I3709
sS'rampart'
p3700
I3710
sS'captain'
p3701
I3711
sS'whose'
p3702
I3712
sS'foreignlook'
p3703
I41
sS'accur'
p3704
I3714
sS'swam'
p3705
I3715
sS'sorri'
p3706
I3716
sS'swan'
p3707
I3717
sS'sweetest'
p3708
I3718
sS'me\x94'
p3709
I3719
sS'me\x97'
p3710
I3720
sS'sway'
p3711
I3721
sS'vermin'
p3712
I5721
sS'appal'
p3713
I3723
sS'weald'
p3714
I3724
sS'voic'
p3715
I3725
sS'gover'
p3716
I3726
sS'loom'
p3717
I3727
sS'usual\x97open'
p3718
I129
sS'[presum'
p3719
I3729
sS'appar'
p3720
I132
sS'you\x92r'
p3721
I137
sS'vast'
p3722
I3732
sS'pilgrim'
p3723
I3733
sS'\x91perhaps\x92'
p3724
I3734
sS'frigat'
p3725
I3735
sS'herbert'
p3726
I3736
sS'death\x97th'
p3727
I3737
sS'\x93she'
p3728
I3738
sS'quilt'
p3729
I3739
sS'up\x94'
p3730
I215
sS'illumin'
p3731
I3741
sS'quill'
p3732
I3742
sS'even'
p3733
I3743
sS'horror\x97a'
p3734
I3136
sS'men\x97that'
p3735
I3745
sS'wreck'
p3736
I3746
sS'asid'
p3737
I3747
sS'lightn'
p3738
I3748
sS'haze'
p3739
I3749
sS'nez'
p3740
I3750
sS'horserac'
p3741
I3751
sS'new'
p3742
I3752
sS'was\x97and'
p3743
I2258
sS'ever'
p3744
I3754
sS'hazi'
p3745
I3755
sS'jaundic'
p3746
I3139
sS'million'
p3747
I631
sS'envelop'
p3748
I3758
sS'men'
p3749
I284
sS'drew'
p3750
I3760
sS'met'
p3751
I3761
sS'mew'
p3752
I295
sS'109'
p3753
I3763
sS'cheesemak'
p3754
I3140
sS'duke\x92'
p3755
I304
sS'103'
p3756
I3766
sS'100'
p3757
I3767
sS'101'
p3758
I3768
sS'106'
p3759
I3769
sS'107'
p3760
I3770
sS'104'
p3761
I317
sS'105'
p3762
I3772
sS'sedul'
p3763
I3773
sS'taper'
p3764
I3774
sS'dri'
p3765
I3775
sS'credit'
p3766
I340
sS'howbeit'
p3767
I3777
sS'permit'
p3768
I3778
sS'jami'
p3769
I3779
sS'counti'
p3770
I3780
sS'moray'
p3771
I3781
sS'aveng'
p3772
I3782
sS'hunch'
p3773
I3783
sS'campaign'
p3774
I3784
sS'avenu'
p3775
I3785
sS'moral'
p3776
I3786
sS'overhear'
p3777
I3787
sS'cough'
p3778
I3788
sS'leaki'
p3779
I3789
sS'calv'
p3780
I3790
sS'overhead'
p3781
I430
sS'calm'
p3782
I3792
sS'recommend'
p3783
I435
sS'type'
p3784
I443
sS'tell'
p3785
I3796
sS'calf'
p3786
I3797
sS'snowden'
p3787
I3798
sS'frenzi'
p3788
I3799
sS'warm'
p3789
I3800
sS'oarsmen'
p3790
I483
sS'ward'
p3791
I3802
sS'ware'
p3792
I3803
sS'sped'
p3793
I3804
sS'\x93four'
p3794
I3805
sS'rook'
p3795
I3806
sS'room'
p3796
I3807
sS'hebrid'
p3797
I3808
sS'rood'
p3798
I3809
sS'roof'
p3799
I3810
sS'root'
p3800
I3811
sS'defer'
p3801
I3812
sS'vodka'
p3802
I3813
sS'instantly\x97brought'
p3803
I3814
sS'fresher'
p3804
I547
sS'give'
p3805
I3816
sS'helter'
p3806
I3817
sS'assent'
p3807
I3818
sS'honey'
p3808
I3819
sS'loo\x94'
p3809
I3149
sS'solitud'
p3810
I3821
sS'quot'
p3811
I3822
sS'anguish'
p3812
I7066
sS'aren\x92t'
p3813
I3824
sS'confin'
p3814
I3825
sS'scrambl'
p3815
I3826
sS'answer'
p3816
I3827
sS'home\x97which'
p3817
I3828
sS'negoti'
p3818
I3829
sS'polit'
p3819
I1815
sS'vicious'
p3820
I635
sS'majesty\x92'
p3821
I3832
sS'refluent'
p3822
I662
sS'attempt'
p3823
I3834
sS'third'
p3824
I3835
sS'maintain'
p3825
I3836
sS'dalloway'
p3826
I3837
sS'sukey\x97or'
p3827
I3839
sS'deck'
p3828
I3840
sS'toadi'
p3829
I3841
sS'is\x97'
p3830
I3842
sS'is\x94'
p3831
I3843
sS'skating\x97\x97'
p3832
I3844
sS'censer'
p3833
I3845
sS'\x93ride'
p3834
I744
sS'\x97'
p3835
I3847
sS'copyright'
p3836
I3848
sS'personag'
p3837
I762
sS'crew'
p3838
I3850
sS'better'
p3839
I3851
sS'prepared\x97but'
p3840
I3852
sS'persist'
p3841
I3853
sS'anim'
p3842
I3854
sS'\x93yes\x94'
p3843
I3855
sS'promin'
p3844
I3856
sS'unthink'
p3845
I3857
sS'promis'
p3846
I3858
sS'for\x97her'
p3847
I3859
sS'downright'
p3848
I825
sS'rebels\x92'
p3849
I3861
sS'\x93armour'
p3850
I3862
sS'meat'
p3851
I3863
sS'thenc'
p3852
I3864
sS'faraway'
p3853
I3865
sS'luca'
p3854
I3866
sS'roast'
p3855
I3867
sS'went'
p3856
I3868
sS'oblig'
p3857
I875
sS'meal'
p3858
I877
sS'bone'
p3859
I3871
sS'luck'
p3860
I881
sS'enorm'
p3861
I3873
sS'words\x97\x97\x94'
p3862
I3874
sS'impetuos'
p3863
I3875
sS'better\x97and'
p3864
I3876
sS'ajax\x94'
p3865
I915
sS'forgot'
p3866
I3878
sS'dawn'
p3867
I3879
sS'then\x94'
p3868
I939
sS'velvet'
p3869
I947
sS'redflannel'
p3870
I3882
sS'down\x94'
p3871
I3883
sS'content'
p3872
I3884
sS'reader'
p3873
I3885
sS'languish'
p3874
I3886
sS'sluggish'
p3875
I3887
sS'whiff'
p3876
I3888
sS'parenthesi'
p3877
I3889
sS'lineag'
p3878
I3890
sS'bestow'
p3879
I3891
sS'\x93je'
p3880
I6055
sS'mistress'
p3881
I3892
sS'sunshin'
p3882
I3893
sS'doesn\x92t'
p3883
I3895
sS'steward'
p3884
I3896
sS'startl'
p3885
I3897
sS'isl'
p3886
I3898
sS'loud'
p3887
I3899
sS'\x93come\x94'
p3888
I3900
sS'life\x97and'
p3889
I3901
sS'hook'
p3890
I3902
sS'unlik'
p3891
I3903
sS'massiv'
p3892
I1112
sS'hoof'
p3893
I3905
sS'hood'
p3894
I3906
sS'acquaint'
p3895
I3907
sS'historian'
p3896
I3908
sS'sometim'
p3897
I3909
sS'2'
p3898
I3910
sS'dwell'
p3899
I3911
sS'hour\x97or'
p3900
I3912
sS'\x93done\x94'
p3901
I3913
sS'task'
p3902
I5134
sS'then\x97it'
p3903
I3914
sS'\x93impossible\x94'
p3904
I3915
sS'somewhat'
p3905
I3916
sS'keeping\x97lik'
p3906
I3917
sS'peculiar'
p3907
I3918
sS'symptom'
p3908
I3919
sS'sweating\x94'
p3909
I3920
sS'silli'
p3910
I3921
sS'archduke\x92'
p3911
I4460
sS'matter'
p3912
I3923
sS'street'
p3913
I5748
sS'queen\x92'
p3914
I4462
sS'bidder'
p3915
I3926
sS'which\x97sh'
p3916
I3927
sS'fathomless'
p3917
I3928
sS'minc'
p3918
I1279
sS'mind'
p3919
I3930
sS'mine'
p3920
I3931
sS'amiss'
p3921
I995
sS'seen'
p3922
I3932
sS'seem'
p3923
I3933
sS'churn'
p3924
I3934
sS'seamstress'
p3925
I1307
sS'unfasten'
p3926
I3936
sS'perruqu'
p3927
I3937
sS'\x93how'
p3928
I3938
sS'halflight'
p3929
I3939
sS'chest'
p3930
I3940
sS'chees'
p3931
I7084
sS'trundl'
p3932
I3942
sS'davidson'
p3933
I3943
sS'crippl'
p3934
I3944
sS'slenderest'
p3935
I3945
sS'hawk\x92'
p3936
I3946
sS'girl\x92'
p3937
I3947
sS'regular'
p3938
I3948
sS'hide'
p3939
I5752
sS'tradit'
p3940
I3950
sS'simplic'
p3941
I3951
sS'don'
p3942
I3952
sS'alarm'
p3943
I3953
sS'obtus'
p3944
I1401
sS'dog'
p3945
I3955
sS'doe'
p3946
I3956
sS'constrict'
p3947
I3957
sS'sunbeam'
p3948
I1423
sS'dot'
p3949
I3959
sS'ashor'
p3950
I3960
sS'hunger'
p3951
I3961
sS'probe'
p3952
I3962
sS'\x93life'
p3953
I3963
sS'inaugur'
p3954
I3964
sS'acquit'
p3955
I3965
sS'acquir'
p3956
I1486
sS'despis'
p3957
I3967
sS'explain'
p3958
I3968
sS'hoars'
p3959
I3969
sS'sugar'
p3960
I3970
sS'despic'
p3961
I3971
sS'sailors\x92'
p3962
I3972
sS'chamberlain'
p3963
I3973
sS'11'
p3964
I4470
sS'swaddl'
p3965
I3975
sS'stop'
p3966
I3976
sS'\x93these'
p3967
I3977
sS'compli'
p3968
I3978
sS'coast'
p3969
I3979
sS'smug'
p3970
I3980
sS'defac'
p3971
I3981
sS'earl'
p3972
I3982
sS'coiffur'
p3973
I3983
sS'bat'
p3974
I3984
sS'bar'
p3975
I3985
sS'bay'
p3976
I3986
sS'bag'
p3977
I3987
sS'bad'
p3978
I3988
sS'lookingglass'
p3979
I2350
sS'enchant'
p3980
I3990
sS'prophesi'
p3981
I3992
sS'subject'
p3982
I3993
sS'snuff'
p3983
I3994
sS'said'
p3984
I3995
sS'scrap'
p3985
I1680
sS'sail'
p3986
I3997
sS'tantamount'
p3987
I3998
sS'invalu'
p3988
I3999
sS'attribut'
p3989
I4000
sS'warrior'
p3990
I4001
sS'gentri'
p3991
I4002
sS'lazi'
p3992
I4003
sS'cousin'
p3993
I4004
sS'weari'
p3994
I4005
sS'folli'
p3995
I680
sS'conch'
p3996
I4007
sS'against'
p3997
I4008
sS'une'
p3998
I4009
sS'ethel'
p3999
I4010
sS'lowli'
p4000
I4011
sS'height'
p4001
I4012
sS'conspiraci'
p4002
I4486
sS'apprentic'
p4003
I4015
sS'illusions\x94'
p4004
I4016
sS'accustom'
p4005
I4017
sS'joyce\x92'
p4006
I4018
sS'tint'
p4007
I4019
sS'antimacassar'
p4008
I3173
sS'loveli'
p4009
I4021
sS'three'
p4010
I4022
sS'erect'
p4011
I4023
sS'specul'
p4012
I4024
sS'you\x94\x97that'
p4013
I4025
sS'interest'
p4014
I4026
sS'basin'
p4015
I1868
sS'threw'
p4016
I4028
sS'deeper'
p4017
I4029
sS'hundredweight'
p4018
I4030
sS'suppress'
p4019
I4271
sS'hist\x97they'
p4020
I4032
sS'168'
p4021
I4033
sS'169'
p4022
I4034
sS'164'
p4023
I4035
sS'deepen'
p4024
I4036
sS'166'
p4025
I4037
sS'167'
p4026
I4038
sS'160'
p4027
I1915
sS'161'
p4028
I4040
sS'encyclopaedia'
p4029
I4041
sS'163'
p4030
I4042
sS'ugli'
p4031
I4043
sS'dreaded\x97wa'
p4032
I4044
sS'servil'
p4033
I4045
sS'servic'
p4034
I4046
sS'i\x94'
p4035
I4047
sS'calcul'
p4036
I1943
sS'neat'
p4037
I4050
sS'occas'
p4038
I4051
sS'ridinghabit'
p4039
I4052
sS'anchor'
p4040
I4053
sS'onlook'
p4041
I4054
sS'seven'
p4042
I4055
sS'cane'
p4043
I4056
sS'\x93all'
p4044
I4057
sS'is'
p4045
I4058
sS'it'
p4046
I4059
sS'shame'
p4047
I4060
sS'splendour'
p4048
I4061
sS'jest'
p4049
I4062
sS'in'
p4050
I4063
sS'now\x94'
p4051
I4064
sS'sever'
p4052
I2002
sS'if'
p4053
I4066
sS'grown'
p4054
I4067
sS'gerri'
p4055
I4068
sS'growl'
p4056
I4069
sS'receiv'
p4057
I4070
sS'parish'
p4058
I4071
sS'make'
p4059
I4072
sS'ingenu'
p4060
I4073
sS'ordur'
p4061
I4074
sS'kit'
p4062
I4075
sS'delight'
p4063
I4076
sS'sweetmann'
p4064
I4077
sS'inherit'
p4065
I4078
sS'rome'
p4066
I4079
sS'emissari'
p4067
I4080
sS'damnabl'
p4068
I4081
sS'higgledypiggledi'
p4069
I4082
sS'left'
p4070
I4083
sS'bluejacket\x94'
p4071
I4084
sS'\x91three\x92'
p4072
I4085
sS'just'
p4073
I4086
sS'nowaday'
p4074
I4087
sS'wiser'
p4075
I3181
sS'human'
p4076
I4089
sS'yes'
p4077
I4090
sS'yet'
p4078
I4091
sS'yew'
p4079
I2174
sS'royal'
p4080
I4093
sS'osbert'
p4081
I4094
sS'prattl'
p4082
I4095
sS'sensat'
p4083
I4096
sS'squad'
p4084
I4497
sS'greensward'
p4085
I4098
sS'31'
p4086
I4099
sS'save'
p4087
I4100
sS'applic'
p4088
I4101
sS'dreami'
p4089
I4103
sS'nightjar'
p4090
I4104
sS'coron'
p4091
I4105
sS'vanessa'
p4092
I4106
sS'vaniti'
p4093
I4107
sS'it\x97for'
p4094
I4108
sS'discreet'
p4095
I4109
sS'background'
p4096
I4110
sS'involuntari'
p4097
I4111
sS'air\x97a'
p4098
I4112
sS'shoulder'
p4099
I4113
sS'nudg'
p4100
I4114
sS'vilest'
p4101
I4115
sS'builders\x97thus'
p4102
I4116
sS'noth'
p4103
I701
sS'digniti'
p4104
I4118
sS'pillar'
p4105
I3184
sS'plumcolour'
p4106
I4120
sS'marousha'
p4107
I4121
sS'deal'
p4108
I4122
sS'interv'
p4109
I4123
sS'disord'
p4110
I4124
sS'deaf'
p4111
I4125
sS'somehow'
p4112
I2324
sS'dead'
p4113
I4127
sS'rever'
p4114
I4128
sS'revel'
p4115
I4129
sS'\x93jour'
p4116
I4130
sS'dear'
p4117
I4131
sS'it\x97noth'
p4118
I4501
sS'sardon'
p4119
I4133
sS'janissari'
p4120
I4134
sS'sprawl'
p4121
I4135
sS'mohun'
p4122
I4136
sS'trace'
p4123
I4137
sS'uproar'
p4124
I7105
sS'sailor\x92'
p4125
I4139
sS'feet\x94'
p4126
I4140
sS'flounder'
p4127
I4141
sS'brightcheek'
p4128
I2388
sS'conced'
p4129
I4143
sS'bold'
p4130
I4144
sS'insecur'
p4131
I4145
sS'burn'
p4132
I4146
sS'buri'
p4133
I4147
sS'said\x97noth'
p4134
I4148
sS'protagonist'
p4135
I4149
sS'bolt'
p4136
I4150
sS'keeper'
p4137
I2413
sS'describ'
p4138
I5776
sS'wept'
p4139
I4153
sS'conceal'
p4140
I4154
sS'crucifix'
p4141
I2454
sS'commit'
p4142
I4157
sS'window\x97now'
p4143
I4158
sS'marshal'
p4144
I4159
sS'capric'
p4145
I4160
sS'salisburi'
p4146
I4161
sS'doors\x97a'
p4147
I2488
sS'down'
p4148
I4163
sS'lieu'
p4149
I4164
sS'armada'
p4150
I4165
sS'chime'
p4151
I4166
sS'cormor'
p4152
I4167
sS'spongebag'
p4153
I4168
sS'lampoon'
p4154
I2552
sS'editor'
p4155
I4170
sS'fraction'
p4156
I4171
sS'aureol'
p4157
I4172
sS'jealousi'
p4158
I4173
sS'analysi'
p4159
I4174
sS'form'
p4160
I4175
sS'forc'
p4161
I4176
sS'indulging\x97wit'
p4162
I4177
sS'wittic'
p4163
I4178
sS'forg'
p4164
I4179
sS'arbour'
p4165
I4180
sS'ever\x97accid'
p4166
I2614
sS'pavilion'
p4167
I4182
sS'vouchsaf'
p4168
I4183
sS'extravag'
p4169
I5780
sS'unbecom'
p4170
I4185
sS'whisker'
p4171
I2654
sS'temper'
p4172
I4187
sS'featur'
p4173
I4188
sS'shin'
p4174
I4189
sS'classic'
p4175
I4190
sS'toss'
p4176
I4191
sS'liberry\x94'
p4177
I4192
sS'sale'
p4178
I715
sS'scrawl'
p4179
I4194
sS'glanc'
p4180
I4195
sS'ship'
p4181
I4196
sS'eliot\x92'
p4182
I4197
sS'meagr'
p4183
I4198
sS'vista'
p4184
I4199
sS'intang'
p4185
I4200
sS'excel'
p4186
I4201
sS'maledict'
p4187
I2723
sS'congeal'
p4188
I4203
sS'communic'
p4189
I4204
sS'scene\x97sh'
p4190
I4205
sS'for\x94'
p4191
I4206
sS'literature\x97on'
p4192
I412
sS'character\x97someth'
p4193
I2749
sS'garland'
p4194
I4209
sS'felt'
p4195
I4210
sS'diet'
p4196
I4211
sS'fell'
p4197
I4212
sS'jones'
p4198
I4213
sS'femal'
p4199
I4214
sS'brougham'
p4200
I4215
sS'what\x92'
p4201
I4216
sS'purity\x94'
p4202
I4217
sS'jacket'
p4203
I4218
sS'ignor'
p4204
I4219
sS'teeth'
p4205
I4220
sS'meander'
p4206
I4221
sS'daili'
p4207
I4222
sS'overscor'
p4208
I4223
sS'skip'
p4209
I4224
sS'invent'
p4210
I4225
sS'mild'
p4211
I4226
sS'mile'
p4212
I4227
sS'skim'
p4213
I4228
sS'disconsol'
p4214
I4229
sS'milk'
p4215
I4230
sS'depend'
p4216
I4231
sS'swoon'
p4217
I4232
sS'father'
p4218
I4233
sS'burnous'
p4219
I4234
sS'deject'
p4220
I4235
sS'\x93chastiti'
p4221
I4236
sS'chequ'
p4222
I4237
sS'frontispiec'
p4223
I2904
sS'shoot'
p4224
I5790
sS'string'
p4225
I4240
sS'minist'
p4226
I4241
sS'here\x92'
p4227
I4242
sS'us\x97w'
p4228
I4243
sS'here\x94'
p4229
I4244
sS'figment'
p4230
I4245
sS'ma'
p4231
I5791
sS'us\x97a'
p4232
I4248
sS'pious'
p4233
I4249
sS'stiffen'
p4234
I4250
sS'dim'
p4235
I4251
sS'did'
p4236
I4252
sS'die'
p4237
I4253
sS'dig'
p4238
I2960
sS'iter'
p4239
I4255
sS'brindl'
p4240
I4256
sS'item'
p4241
I4257
sS'brownish'
p4242
I4258
sS'signif'
p4243
I4259
sS'dip'
p4244
I4260
sS'round'
p4245
I4261
sS'shave'
p4246
I4262
sS'victory\x94\x97even'
p4247
I4263
sS'asham'
p4248
I4264
sS'worn'
p4249
I4265
sS'corner'
p4250
I4522
sS'serrat'
p4251
I5794
sS'favour'
p4252
I4268
sS'fillet'
p4253
I4269
sS'suspect'
p4254
I4270
sS'deris'
p4255
I4272
sS'\x93take'
p4256
I4273
sS'dweller'
p4257
I4274
sS'wail'
p4258
I4275
sS'guardian'
p4259
I4276
sS'clerk'
p4260
I4277
sS'french'
p4261
I4278
sS'detest'
p4262
I4279
sS'derid'
p4263
I4280
sS'deceit'
p4264
I4281
sS'deceiv'
p4265
I4282
sS'involuntarili'
p4266
I4283
sS'waiv'
p4267
I4284
sS'wait'
p4268
I4285
sS'invis'
p4269
I3125
sS'boy'
p4270
I4287
sS'fancygood'
p4271
I4288
sS'invit'
p4272
I4289
sS'shift'
p4273
I4290
sS'odour'
p4274
I4291
sS'mortim'
p4275
I4292
sS'bow'
p4276
I4293
sS'fortress'
p4277
I5798
sS'extrem'
p4278
I3162
sS'bob'
p4279
I4296
sS'quarrel'
p4280
I5799
sS'prismat'
p4281
I4298
sS'hither'
p4282
I4299
sS'elect'
p4283
I4300
sS'business\x97thi'
p4284
I4301
sS'modul'
p4285
I4302
sS'stiletto'
p4286
I4303
sS'surmount'
p4287
I4304
sS'eccentr'
p4288
I4305
sS'pera'
p4289
I4306
sS'franci'
p4290
I4307
sS'serpent'
p4291
I4308
sS'sake'
p4292
I4309
sS'saddl'
p4293
I4310
sS'univers'
p4294
I4311
sS'visit'
p4295
I4312
sS'everybodi'
p4296
I3225
sS'peru'
p4297
I4314
sS'samphir'
p4298
I4315
sS'sharpen'
p4299
I4316
sS'vous'
p4300
I4317
sS'malay'
p4301
I4318
sS'indic'
p4302
I4319
sS'examin'
p4303
I4320
sS'effort'
p4304
I4321
sS'yellowslash'
p4305
I3282
sS'demolish'
p4306
I4323
sS'man\x94\x97orlando'
p4307
I4324
sS'lord\x94'
p4308
I4325
sS'soul'
p4309
I3301
sS'imper'
p4310
I4327
sS'fli'
p4311
I4328
sS'another\x97or'
p4312
I4329
sS'sour'
p4313
I4330
sS'imped'
p4314
I4332
sS'incarnate\x94'
p4315
I4333
sS'nearest'
p4316
I4334
sS'favourit'
p4317
I4335
sS'predict'
p4318
I4336
sS'sleeve\x97for'
p4319
I4337
sS'greenest'
p4320
I4338
sS'drawer'
p4321
I4339
sS'\x91works\x92\x97th'
p4322
I4340
sS'predica'
p4323
I4342
sS'purs'
p4324
I3355
sS'pinc'
p4325
I4344
sS'parch'
p4326
I4345
sS'pine'
p4327
I4346
sS'till'
p4328
I4347
sS'sunday'
p4329
I4348
sS'sword'
p4330
I3379
sS'looselip'
p4331
I4350
sS'greydom'
p4332
I5016
sS'pathway'
p4333
I4353
sS'146'
p4334
I4354
sS'147'
p4335
I3395
sS'144'
p4336
I4356
sS'145'
p4337
I4357
sS'142'
p4338
I4358
sS'143'
p4339
I3402
sS'140'
p4340
I4360
sS'141'
p4341
I4361
sS'may'
p4342
I4362
sS'fed'
p4343
I7240
sS'148'
p4344
I4363
sS'149'
p4345
I4364
sS'intrus'
p4346
I4365
sS'mankind'
p4347
I3425
sS'cream\x94'
p4348
I4367
sS'mal'
p4349
I3433
sS'man'
p4350
I4369
sS'relinquish'
p4351
I4370
sS'omen'
p4352
I4371
sS'johnson'
p4353
I4372
sS'repuls'
p4354
I4373
sS'\x93littl'
p4355
I4374
sS'q'
p4356
I2381
sS'basket'
p4357
I4376
sS'tall'
p4358
I4377
sS'talk'
p4359
I4378
sS'shield'
p4360
I4379
sS'goes\x94'
p4361
I4380
sS'gradual'
p4362
I4381
sS'\x93and'
p4363
I4382
sS'lyric'
p4364
I4383
sS'pitch'
p4365
I3526
sS'pointer'
p4366
I4385
sS'\x93ani'
p4367
I4386
sS'interspers'
p4368
I4387
sS'group'
p4369
I4388
sS'chiefest'
p4370
I3544
sS'grous'
p4371
I4390
sS'satyr'
p4372
I4391
sS'maid'
p4373
I4392
sS'\x93except'
p4374
I4393
sS'main'
p4375
I4394
sS'prime'
p4376
I737
sS'truest'
p4377
I4397
sS'shatter'
p4378
I4398
sS'sooner'
p4379
I4399
sS'lunch'
p4380
I4400
sS'pleasaunc'
p4381
I4401
sS'agoni'
p4382
I4402
sS'possess'
p4383
I4403
sS'scrollop'
p4384
I4404
sS'housetop'
p4385
I4406
sS'feverish'
p4386
I4407
sS'chastity\x94'
p4387
I4408
sS'oliv'
p4388
I4409
sS'convention\x92'
p4389
I4410
sS'peasant'
p4390
I4411
sS'careless'
p4391
I3646
sS'arrowi'
p4392
I4413
sS'rock'
p4393
I4414
sS'girt'
p4394
I4415
sS'eyelid'
p4395
I4416
sS'surfeit'
p4396
I3660
sS'agil'
p4397
I4418
sS'continu'
p4398
I4419
sS'unlock'
p4399
I4420
sS'aloof'
p4400
I4421
sS'girl'
p4401
I4422
sS'brassbound'
p4402
I4423
sS'agit'
p4403
I4424
sS'1712'
p4404
I4425
sS'announc'
p4405
I7135
sS'stitch'
p4406
I4427
sS'swans\x92'
p4407
I4428
sS'twelv'
p4408
I4429
sS'dutch'
p4409
I4430
sS'correct'
p4410
I4431
sS'romanc'
p4411
I4432
sS'diseas'
p4412
I4433
sS'monster'
p4413
I4434
sS'romant'
p4414
I4435
sS'ajar'
p4415
I4436
sS'ore'
p4416
I4437
sS'orb'
p4417
I4438
sS'\x93thus\x94'
p4418
I4439
sS'waiter'
p4419
I4440
sS'thing'
p4420
I4441
sS'greenhous'
p4421
I4442
sS'think'
p4422
I4443
sS'frequent'
p4423
I4444
sS'first'
p4424
I4445
sS'carri'
p4425
I4446
sS'housekeep'
p4426
I4447
sS'acquisit'
p4427
I4448
sS'fast'
p4428
I7139
sS'fieri'
p4429
I4450
sS'arch'
p4430
I4451
sS'slept'
p4431
I4452
sS'fierc'
p4432
I4453
sS'girl\x92s\x97fur'
p4433
I4454
sS'demonstr'
p4434
I4455
sS'escort'
p4435
I4456
sS'deciph'
p4436
I4457
sS'penelop'
p4437
I4458
sS'archduke\x94'
p4438
I4459
sS'melbourn'
p4439
I3922
sS'minaret'
p4440
I4461
sS'mermaid'
p4441
I3925
sS'speaker\x92'
p4442
I4463
sS'conflagr'
p4443
I4464
sS'alone\x94'
p4444
I4465
sS'weblik'
p4445
I4466
sS'domin'
p4446
I4467
sS'singsong'
p4447
I4468
sS'splendid'
p4448
I5817
sS'dukedom'
p4449
I3974
sS'10'
p4450
I4471
sS'13'
p4451
I4472
sS'12'
p4452
I4473
sS'15'
p4453
I4474
sS'14'
p4454
I4475
sS'17'
p4455
I4476
sS'16'
p4456
I4477
sS'19'
p4457
I4478
sS'18'
p4458
I4479
sS'victorian'
p4459
I4480
sS'remors'
p4460
I4481
sS'were'
p4461
I4482
sS'plaidlik'
p4462
I4483
sS'crackl'
p4463
I4484
sS'maypol'
p4464
I4485
sS'lick'
p4465
I4014
sS'pastri'
p4466
I4487
sS'hearer'
p4467
I4488
sS'victoria\x92'
p4468
I4489
sS'dash'
p4469
I4490
sS'portrait'
p4470
I3078
sS'griselda'
p4471
I4491
sS'unadorn'
p4472
I4492
sS'squat'
p4473
I4493
sS'squar'
p4474
I4494
sS'advic'
p4475
I4495
sS'o\x92dar'
p4476
I4496
sS'wretch'
p4477
I4097
sS'but\x94'
p4478
I4498
sS'channel'
p4479
I4499
sS'pain'
p4480
I4132
sS'pail'
p4481
I4502
sS'normal'
p4482
I4503
sS'track'
p4483
I4504
sS'paid'
p4484
I4505
sS'aloud'
p4485
I4506
sS'assault'
p4486
I4507
sS'inspirit'
p4487
I4508
sS'tract'
p4488
I4509
sS'pair'
p4489
I4510
sS'napkin'
p4490
I4511
sS'peeress'
p4491
I4512
sS'undistinguish'
p4492
I4513
sS'shop'
p4493
I4514
sS'shot'
p4494
I4515
sS'show'
p4495
I4516
sS'blast\x97'
p4496
I4517
sS'curlew'
p4497
I4518
sS'duli'
p4498
I3171
sS'shoe'
p4499
I4520
sS'threshold'
p4500
I4521
sS'come\x97night'
p4501
I4266
sS'contemporari'
p4502
I4523
sS'cheapsid'
p4503
I4524
sS'dice'
p4504
I4525
sS'fenc'
p4505
I4526
sS'\x93can'
p4506
I4527
sS'incongru'
p4507
I4528
sS'plume'
p4508
I4529
sS'enough'
p4509
I4563
sS'black'
p4510
I4531
sS'muffin'
p4511
I4532
sS'enthusiasm'
p4512
I4533
sS'plump'
p4513
I4534
sS'get'
p4514
I4535
sS'orang'
p4515
I5832
sS'gem'
p4516
I4537
sS'nouveau'
p4517
I4538
sS'acclam'
p4518
I4539
sS'beseech'
p4519
I4540
sS'pascal'
p4520
I4541
sS'yield'
p4521
I4542
sS'stupid'
p4522
I4543
sS'nostril'
p4523
I4544
sS'inhospit'
p4524
I4545
sS'tallow'
p4525
I4546
sS'summari'
p4526
I4547
sS'freespoken'
p4527
I4548
sS'eighteenth'
p4528
I4549
sS'seat'
p4529
I4550
sS'lethargi'
p4530
I4551
sS'honesti'
p4531
I4552
sS'seam'
p4532
I4553
sS'seal'
p4533
I4554
sS'cauliflow'
p4534
I4555
sS'calendar'
p4535
I4556
sS'wonder'
p4536
I4557
sS'infinit'
p4537
I4558
sS'snelgrove\x92'
p4538
I4559
sS'steadfast'
p4539
I4560
sS'ornament'
p4540
I4561
sS'label'
p4541
I4562
sS'innoc'
p4542
I4603
sS'volatil'
p4543
I4564
sS'plateglass'
p4544
I4565
sS'across'
p4545
I4566
sS'august'
p4546
I4567
sS'vocifer'
p4547
I4568
sS'trees\x97for'
p4548
I4569
sS'nicolson'
p4549
I6700
sS'\x92em'
p4550
I4570
sS'halfadozen'
p4551
I4571
sS'whitest'
p4552
I4572
sS'childbirth'
p4553
I4573
sS'piccadilli'
p4554
I4574
sS'tug'
p4555
I4575
sS'chelsea'
p4556
I3242
sS'fire\x97ani'
p4557
I4577
sS'improv'
p4558
I4578
sS'tumultu'
p4559
I7156
sS'praised\x94'
p4560
I4579
sS'among'
p4561
I4580
sS'acceler'
p4562
I4581
sS'undocu'
p4563
I4582
sS'grasshopp'
p4564
I4583
sS'slain'
p4565
I4584
sS'luckless'
p4566
I4585
sS'ultim'
p4567
I4586
sS'irk'
p4568
I4587
sS'welltrain'
p4569
I4588
sS'marl'
p4570
I4589
sS'mari'
p4571
I4590
sS'mark'
p4572
I4591
sS'workshop'
p4573
I4592
sS'porpois'
p4574
I5840
sS'suscept'
p4575
I4594
sS'wake'
p4576
I4595
sS'repres'
p4577
I3245
sS'those'
p4578
I4597
sS'sound'
p4579
I4598
sS'slumber'
p4580
I4599
sS'imperm'
p4581
I4600
sS'imperi'
p4582
I4601
sS'invok'
p4583
I4602
sS'cock'
p4584
I4604
sS'advantag'
p4585
I4605
sS'bant'
p4586
I4606
sS'marked\x97'
p4587
I4607
sS'strait'
p4588
I4608
sS'ferni'
p4589
I4609
sS'destin'
p4590
I4610
sS'strain'
p4591
I567
sS'sudden'
p4592
I573
sS'outrag'
p4593
I4613
sS'pat'
p4594
I4614
sS'harsh'
p4595
I4615
sS'doctor'
p4596
I4616
sS'pay'
p4597
I4617
sS'woodland'
p4598
I4618
sS'demur'
p4599
I4619
sS'same'
p4600
I4620
sS'tobacco\x97to'
p4601
I7162
sS'\x91oak'
p4602
I4622
sS'fragment'
p4603
I4623
sS'speech'
p4604
I4624
sS'marlow'
p4605
I6810
sS'pan'
p4606
I4625
sS'exhaust'
p4607
I4626
sS'assist'
p4608
I4627
sS'companion'
p4609
I4628
sS'mar\x94'
p4610
I4629
sS'capabl'
p4611
I4630
sS'disguis'
p4612
I4631
sS'thousands\x97that'
p4613
I4632
sS'profund'
p4614
I4633
sS'goldenhilt'
p4615
I4634
sS'drain'
p4616
I4635
sS'miracle\x97again'
p4617
I4636
sS'band'
p4618
I4637
sS'parodi'
p4619
I4638
sS'soundproof'
p4620
I4639
sS'englishwoman'
p4621
I4640
sS'addition\x97in'
p4622
I4641
sS'money'
p4623
I4642
sS'imprint'
p4624
I4643
sS'aspect'
p4625
I4644
sS'statesmen'
p4626
I4645
sS'sprang'
p4627
I4646
sS'wherefor'
p4628
I4647
sS'london\x94'
p4629
I4648
sS'parad'
p4630
I4649
sS'pile'
p4631
I4650
sS'4'
p4632
I4651
sS'heavier'
p4633
I4652
sS'grip'
p4634
I4653
sS'jake'
p4635
I4654
sS'out\x94'
p4636
I4655
sS'secreci'
p4637
I5118
sS'mop'
p4638
I4657
sS'mow'
p4639
I5124
sS'seren'
p4640
I4659
sS'mob'
p4641
I4660
sS'grin'
p4642
I4661
sS'unattain'
p4643
I4662
sS'juxtaposit'
p4644
I4663
sS'shadows\x92'
p4645
I4664
sS'chamber'
p4646
I4665
sS'either'
p4647
I5193
sS'fulfil'
p4648
I4667
sS'afflict'
p4649
I4668
sS'cornwal'
p4650
I4669
sS'alabast'
p4651
I4670
sS'granit'
p4652
I4671
sS'spasm'
p4653
I4672
sS'confirm'
p4654
I4673
sS'\x93lawk'
p4655
I4674
sS'lunat'
p4656
I4675
sS'knife'
p4657
I4676
sS'sasha\x94'
p4658
I4677
sS'housemaid\x92'
p4659
I4678
sS'gratitud'
p4660
I4679
sS'maidenhood'
p4661
I4680
sS'broken'
p4662
I4681
sS'william'
p4663
I3260
sS'roar'
p4664
I4683
sS'island'
p4665
I5344
sS'inscrut'
p4666
I4685
sS'tupper'
p4667
I4686
sS'roam'
p4668
I4687
sS'allianc'
p4669
I4688
sS'road'
p4670
I4689
sS'imagination\x97ar'
p4671
I4690
sS'whiter'
p4672
I4691
sS'strip'
p4673
I4692
sS'princess\x92'
p4674
I4693
sS'brute'
p4675
I4694
sS'daytim'
p4676
I4695
sS'gors'
p4677
I4696
sS'shroud'
p4678
I4697
sS'corso'
p4679
I4698
sS'gori'
p4680
I4699
sS'spice'
p4681
I4700
sS'strawberri'
p4682
I4701
sS'romantic'
p4683
I4702
sS'possibl'
p4684
I4703
sS'unusu'
p4685
I4704
sS'magnolia'
p4686
I1803
sS'conqueror'
p4687
I4706
sS'embed'
p4688
I4707
sS'powerless'
p4689
I4708
sS'deer'
p4690
I4709
sS'deep'
p4691
I4710
sS'general'
p4692
I4711
sS'file'
p4693
I4712
sS'generat'
p4694
I4713
sS'deed'
p4695
I4714
sS'hound'
p4696
I4715
sS'eliot'
p4697
I4716
sS'fill'
p4698
I4717
sS'tedious'
p4699
I4718
sS'again'
p4700
I4719
sS'morning\x94'
p4701
I4720
sS'black\x97a'
p4702
I4721
sS'repent'
p4703
I4722
sS'field'
p4704
I4723
sS'\xa317250'
p4705
I4724
sS'architectur'
p4706
I4725
sS'brandi'
p4707
I4726
sS'memory\x97but'
p4708
I4727
sS'condens'
p4709
I4728
sS'shelter'
p4710
I4729
sS'aster'
p4711
I4730
sS'chlori'
p4712
I4731
sS'figleav'
p4713
I4732
sS'downfal'
p4714
I4733
sS'descript'
p4715
I4734
sS'castl'
p4716
I4735
sS'god'
p4717
I5859
sS'escap'
p4718
I4737
sS'tobacco\x97'
p4719
I4738
sS'sickl'
p4720
I4739
sS'pheasant'
p4721
I4740
sS'forget'
p4722
I4741
sS'founder'
p4723
I4742
sS'foolscap'
p4724
I4743
sS'forbidden'
p4725
I4744
sS'malmsey'
p4726
I4745
sS'vigour\x97'
p4727
I4746
sS'emili'
p4728
I4747
sS'sunk'
p4729
I4748
sS'slung'
p4730
I4749
sS'important\x97wa'
p4731
I5749
sS'children'
p4732
I4751
sS'slunk'
p4733
I4752
sS'cri'
p4734
I7615
sS'resum'
p4735
I4753
sS'aristocrat\x97'
p4736
I4754
sS'laid'
p4737
I5861
sS'undert\x97'
p4738
I4757
sS'crimson'
p4739
I4758
sS'hideous'
p4740
I4759
sS'indisput'
p4741
I4760
sS'parcel'
p4742
I4761
sS'straightforward'
p4743
I4762
sS'scour'
p4744
I4763
sS'fall'
p4745
I4764
sS'knighthood'
p4746
I4765
sS'norfolk'
p4747
I4766
sS'knife\x92'
p4748
I4767
sS'angus'
p4749
I4768
sS'creature\x94'
p4750
I4769
sS'drugget'
p4751
I4770
sS'20th'
p4752
I4771
sS'o\x92clock'
p4753
I4772
sS'gracieus'
p4754
I4773
sS'mother\x92'
p4755
I4774
sS'clinch'
p4756
I4775
sS'strung'
p4757
I4776
sS'recaptur'
p4758
I4777
sS'lawyer'
p4759
I4778
sS'further'
p4760
I4779
sS'ribbon'
p4761
I4780
sS'excit'
p4762
I4781
sS'dial'
p4763
I4782
sS'stood'
p4764
I4783
sS'excis'
p4765
I4784
sS'abl'
p4766
I4785
sS'trinket'
p4767
I4786
sS'stoop'
p4768
I4787
sS'coronet'
p4769
I4788
sS'bedfellow'
p4770
I4789
sS'public'
p4771
I4790
sS'movement'
p4772
I4791
sS'compact'
p4773
I4792
sS'twang'
p4774
I4793
sS'vale'
p4775
I4794
sS'mule'
p4776
I4795
sS'harridan'
p4777
I4796
sS'valu'
p4778
I4797
sS'search'
p4779
I4798
sS'miseri'
p4780
I4799
sS'margin'
p4781
I4800
sS'worm\x92'
p4782
I4801
sS'\x93better'
p4783
I4802
sS'enmiti'
p4784
I4803
sS'blackfriar'
p4785
I4804
sS'narrow'
p4786
I5014
sS'euphrosyn'
p4787
I4806
sS'thirtysix'
p4788
I4807
sS'lawrenc'
p4789
I4808
sS'eat\x94'
p4790
I4809
sS'eat\x92'
p4791
I4810
sS'readili'
p4792
I4811
sS'ship\x97but'
p4793
I4812
sS'sanction'
p4794
I4813
sS'\x91appears\x92'
p4795
I4814
sS'memor'
p4796
I4815
sS'eye'
p4797
I4816
sS'distinct'
p4798
I4817
sS'liber'
p4799
I4818
sS'regist'
p4800
I4819
sS'two'
p4801
I4820
sS'galata'
p4802
I4821
sS'splash'
p4803
I4822
sS'raft'
p4804
I4823
sS'diamond'
p4805
I4824
sS'desir'
p4806
I4825
sS'brisk'
p4807
I4826
sS'leonard'
p4808
I4827
sS'convinc'
p4809
I4828
sS'strachey'
p4810
I4829
sS'particular'
p4811
I4830
sS'magnific'
p4812
I4831
sS'nineteen'
p4813
I4832
sS'town'
p4814
I4833
sS'dictat'
p4815
I4834
sS'none'
p4816
I4835
sS'hour'
p4817
I4836
sS'hous'
p4818
I4837
sS'des'
p4819
I4838
sS'remain'
p4820
I4839
sS'suckl'
p4821
I4840
sS'den'
p4822
I4841
sS'abandon'
p4823
I4842
sS'explod'
p4824
I4843
sS'sixtyseven'
p4825
I4844
sS'pray\x92rs\x97or'
p4826
I4845
sS'ignobl'
p4827
I4846
sS'share'
p4828
I4847
sS'biographi'
p4829
I4848
sS'sphere'
p4830
I4849
sS'attain'
p4831
I4850
sS'explor'
p4832
I4851
sS'junket'
p4833
I4852
sS'sharp'
p4834
I4853
sS'robinson'
p4835
I4854
sS'dream\x94\x97but'
p4836
I4855
sS'muchscor'
p4837
I4856
sS'lady\x92'
p4838
I4857
sS'siren'
p4839
I4858
sS'awkward'
p4840
I4859
sS'secur'
p4841
I4860
sS'comfort'
p4842
I4861
sS'kettl'
p4843
I4862
sS'narrowli'
p4844
I4863
sS'incalcul'
p4845
I4864
sS'stir'
p4846
I4866
sS'needl'
p4847
I4867
sS'nothing\x94'
p4848
I4868
sS'nothing\x97'
p4849
I4869
sS'faculti'
p4850
I4870
sS'blacken'
p4851
I4871
sS'\x91he\x92\x97her'
p4852
I4873
sS'ambassador'
p4853
I3169
sS'blood'
p4854
I4874
sS'toothach'
p4855
I4875
sS'associ'
p4856
I4876
sS'shelmerdin'
p4857
I2588
sS'paw'
p4858
I4878
sS'electron'
p4859
I7199
sS'blunder'
p4860
I4880
sS'coal'
p4861
I4881
sS'ecstasy\x97ecstasy\x94'
p4862
I4882
sS'strike\x97so'
p4863
I4883
sS'\x93wretch'
p4864
I4884
sS'rotat'
p4865
I4885
sS'glowworm'
p4866
I4886
sS'derbyshir'
p4867
I4887
sS'circumfer'
p4868
I4888
sS'through'
p4869
I4889
sS'suffer'
p4870
I4891
sS'24'
p4871
I4892
sS'25'
p4872
I4893
sS'26'
p4873
I4894
sS'27'
p4874
I4895
sS'20'
p4875
I4896
sS'21'
p4876
I4897
sS'22'
p4877
I4898
sS'23'
p4878
I4899
sS'tyrconnel'
p4879
I4900
sS'28'
p4880
I4901
sS'29'
p4881
I4902
sS'late'
p4882
I4903
sS'pend'
p4883
I4904
sS'clamor'
p4884
I4905
sS'good'
p4885
I4906
sS'lover\x94'
p4886
I4907
sS'goos'
p4887
I4908
sS'compound'
p4888
I4909
sS'oxford'
p4889
I4910
sS'adventur'
p4890
I4911
sS'complain'
p4891
I4912
sS'wallac'
p4892
I4913
sS'holiest'
p4893
I4914
sS'drake'
p4894
I4915
sS'mysteri'
p4895
I4916
sS'easili'
p4896
I4917
sS'token'
p4897
I4918
sS'habitu'
p4898
I4919
sS'twentyfirst'
p4899
I4920
sS'stripl'
p4900
I193
sS'harm'
p4901
I4921
sS'surli'
p4902
I4922
sS'unequ'
p4903
I4923
sS'fish'
p4904
I4924
sS'hard'
p4905
I4925
sS'idea'
p4906
I4926
sS'of\x97that'
p4907
I4927
sS'countrymen'
p4908
I4928
sS'connect'
p4909
I4929
sS'fist'
p4910
I4930
sS'portland'
p4911
I4931
sS'horsemanship'
p4912
I4932
sS'orient'
p4913
I4933
sS'flower'
p4914
I4935
sS'admiss'
p4915
I4936
sS'suprem'
p4916
I4937
sS'seastain'
p4917
I4938
sS'pigeon'
p4918
I4939
sS'breweri'
p4919
I4940
sS'princ'
p4920
I4941
sS'print'
p4921
I4942
sS'henceforward'
p4922
I4943
sS'difficulti'
p4923
I4944
sS'suspici'
p4924
I4945
sS'pleasant'
p4925
I4946
sS'intric'
p4926
I4947
sS'bedroom\x97shon'
p4927
I4949
sS'prophet'
p4928
I4950
sS'estate\x97which'
p4929
I4951
sS'omit'
p4930
I4952
sS'omin'
p4931
I4953
sS'wither'
p4932
I4954
sS'perman'
p4933
I4955
sS'copper'
p4934
I4957
sS'fortyseven'
p4935
I4958
sS'perturb'
p4936
I4959
sS'exchang'
p4937
I4960
sS'barbarian'
p4938
I4961
sS'botani'
p4939
I4962
sS'done'
p4940
I4964
sS'shoal'
p4941
I4965
sS'stabl'
p4942
I4966
sS'donn'
p4943
I4967
sS'least'
p4944
I4968
sS'182'
p4945
I4969
sS'paint'
p4946
I4970
sS'leash'
p4947
I4971
sS'181'
p4948
I4972
sS'186'
p4949
I4973
sS'187'
p4950
I4974
sS'statement'
p4951
I4975
sS'185'
p4952
I4976
sS'twenti'
p4953
I4977
sS'188'
p4954
I4978
sS'189'
p4955
I4979
sS'pare'
p4956
I4980
sS'muffl'
p4957
I3300
sS'park'
p4958
I4982
sS'covered\x94'
p4959
I7351
sS'part'
p4960
I4983
sS'rogu'
p4961
I4984
sS'anabaptist'
p4962
I4985
sS'contrari'
p4963
I4986
sS'age\x94'
p4964
I4987
sS'youth'
p4965
I4988
sS'oillamp'
p4966
I4989
sS'peerag'
p4967
I4991
sS'cowman'
p4968
I4992
sS'dreamili'
p4969
I4993
sS'mountain'
p4970
I4994
sS'built'
p4971
I4995
sS'them\x97which'
p4972
I4996
sS'troublesom'
p4973
I4997
sS'couch'
p4974
I4998
sS'caesar'
p4975
I4999
sS'build'
p4976
I5000
sS'doctor\x92'
p4977
I5001
sS'hecatomb'
p4978
I5002
sS'halfconsci'
p4979
I5003
sS'fluti'
p4980
I5004
sS'flute'
p4981
I5005
sS'most'
p4982
I5006
sS'charm'
p4983
I5007
sS'charl'
p4984
I5008
sS'chare'
p4985
I5010
sS'charg'
p4986
I5011
sS'sibyl'
p4987
I5012
sS'faithless'
p4988
I5013
sS'artific'
p4989
I5015
sS'sanctiti'
p4990
I5017
sS'summer'
p4991
I816
sS'fini'
p4992
I5019
sS'desperation\x97a'
p4993
I5020
sS'fine'
p4994
I5021
sS'find'
p4995
I5022
sS'paynim'
p4996
I5023
sS'ambit'
p4997
I5024
sS'nervous'
p4998
I5025
sS'ruin'
p4999
I5026
sS'tempestu'
p5000
I5027
sS'fume'
p5001
I5028
sS'8'
p5002
I5029
sS'sheep\x92'
p5003
I5030
sS'unhappi'
p5004
I5031
sS'boulder'
p5005
I5032
sS'express'
p5006
I5033
sS'cheaper'
p5007
I5034
sS'spi'
p5008
I7258
sS'ferret'
p5009
I5035
sS'batter'
p5010
I5036
sS'breast'
p5011
I5037
sS'salut'
p5012
I5038
sS'silk'
p5013
I5039
sS'uncomfort'
p5014
I5040
sS'devil\x92'
p5015
I5041
sS'homag'
p5016
I5042
sS'tavern'
p5017
I5043
sS'common'
p5018
I5044
sS'beetlebrow'
p5019
I5045
sS'unloos'
p5020
I5046
sS'commod'
p5021
I5047
sS'vine'
p5022
I5048
sS'lion'
p5023
I5049
sS'tender'
p5024
I5050
sS'reserv'
p5025
I5051
sS'hole'
p5026
I5052
sS'expert'
p5027
I5053
sS'debar'
p5028
I5054
sS'sittingroom'
p5029
I5055
sS'debat'
p5030
I5056
sS'smallest'
p5031
I5057
sS'myriad'
p5032
I5058
sS'experi'
p5033
I5059
sS'altern'
p5034
I5060
sS'apostrophis'
p5035
I5061
sS'sceptr'
p5036
I824
sS'pagoda'
p5037
I5063
sS'druri'
p5038
I5064
sS'experiments\x97'
p5039
I5065
sS'purpl'
p5040
I5066
sS'popul'
p5041
I5067
sS'disillusion'
p5042
I1688
sS'rasher'
p5043
I5068
sS'sultan'
p5044
I5069
sS'annual'
p5045
I5070
sS'alon'
p5046
I5071
sS'melancholi'
p5047
I5072
sS'foreign'
p5048
I5073
sS'travelstained\x97th'
p5049
I5074
sS'blackfriar\x92'
p5050
I5075
sS'simpli'
p5051
I5076
sS'point'
p5052
I5077
sS'smother'
p5053
I5078
sS'pamphlet'
p5054
I5079
sS'dancer'
p5055
I5080
sS'suppli'
p5056
I5081
sS'chaplain\x92'
p5057
I5082
sS'cathedr'
p5058
I5083
sS'handkerchief'
p5059
I5920
sS'husband\x92'
p5060
I5085
sS'secret'
p5061
I5086
sS'husband\x94'
p5062
I5087
sS'toyboat'
p5063
I5088
sS'addison'
p5064
I5089
sS'clasped\x97yet'
p5065
I5090
sS'gay'
p5066
I5091
sS'gas'
p5067
I5092
sS'understand'
p5068
I5094
sS'repetit'
p5069
I5095
sS'chatter'
p5070
I5096
sS'cruelti'
p5071
I5097
sS'convers'
p5072
I5098
sS'politician'
p5073
I16
sS'rossetti'
p5074
I5100
sS'solid'
p5075
I5101
sS'bill'
p5076
I5102
sS'cluster'
p5077
I4611
sS'insens'
p5078
I33
sS'\x93meleager\x94'
p5079
I5104
sS'rigour'
p5080
I5105
sS'fun'
p5081
I5106
sS'anonym'
p5082
I5107
sS'everyon'
p5083
I5108
sS'lull'
p5084
I5109
sS'propag'
p5085
I5110
sS'mystic'
p5086
I67
sS'\x93come'
p5087
I5112
sS'astound'
p5088
I5113
sS'itself'
p5089
I5114
sS'centuri'
p5090
I4405
sS'truncheon'
p5091
I5116
sS'roughandreadi'
p5092
I5117
sS'ewe'
p5093
I5119
sS'benign'
p5094
I5120
sS'itali'
p5095
I5121
sS'corridor'
p5096
I144
sS'salvat'
p5097
I5123
sS'zephyr'
p5098
I4658
sS'leopard'
p5099
I5125
sS'quieter'
p5100
I5126
sS'moment'
p5101
I5127
sS'belfri'
p5102
I5128
sS'keyn'
p5103
I174
sS'candles\x94'
p5104
I5130
sS'goats\x94'
p5105
I5131
sS'unveil'
p5106
I5132
sS'timid'
p5107
I5133
sS'motionless'
p5108
I202
sS'ampl'
p5109
I5135
sS'entri'
p5110
I5136
sS'spent'
p5111
I5137
sS'instant\x92'
p5112
I5138
sS'instant\x94'
p5113
I5139
sS'landmark'
p5114
I5140
sS'coddl'
p5115
I5141
sS'tast'
p5116
I5142
sS'spend'
p5117
I5143
sS'howl'
p5118
I5144
sS'conscienti'
p5119
I5145
sS'explan'
p5120
I5146
sS'adventuress'
p5121
I5147
sS'obscur'
p5122
I5148
sS'shape'
p5123
I5149
sS'timber'
p5124
I5150
sS'wage'
p5125
I5151
sS'cut'
p5126
I5152
sS'cur'
p5127
I5153
sS'cup'
p5128
I5154
sS'persuad'
p5129
I5155
sS'dixon'
p5130
I5156
sS'snap'
p5131
I5157
sS'bridal'
p5132
I329
sS'bin'
p5133
I334
sS'big'
p5134
I5160
sS'bid'
p5135
I5161
sS'christina'
p5136
I5162
sS'thoma'
p5137
I5931
sS'blasted\x94'
p5138
I5164
sS'bit'
p5139
I5165
sS'knock'
p5140
I5166
sS'glove'
p5141
I5167
sS'neatest'
p5142
I5168
sS'foolish'
p5143
I5169
sS'downstair'
p5144
I5170
sS'often'
p5145
I5171
sS'four\x97it'
p5146
I432
sS'back'
p5147
I5173
sS'martial'
p5148
I5175
sS'mirror'
p5149
I5176
sS'punctili'
p5150
I5177
sS'scald'
p5151
I5178
sS'scale'
p5152
I5179
sS'pelt'
p5153
I5180
sS'pew'
p5154
I5181
sS'write\x97but'
p5155
I5182
sS'per'
p5156
I5183
sS'pell'
p5157
I5184
sS'substitut'
p5158
I5185
sS'mathemat'
p5159
I5186
sS'larg'
p5160
I5187
sS'lard'
p5161
I5188
sS'lark'
p5162
I5189
sS'carpent'
p5163
I5190
sS'epic'
p5164
I5191
sS'reproduc'
p5165
I5192
sS'nose'
p5166
I4666
sS'ladder'
p5167
I5194
sS'tavistock'
p5168
I5195
sS'curzon'
p5169
I530
sS'croni'
p5170
I5197
sS'patienc'
p5171
I5198
sS'sinecur'
p5172
I5199
sS'\x93ravishing\x94'
p5173
I5200
sS'impos'
p5174
I5201
sS'quadrill'
p5175
I5202
sS'shrinkag'
p5176
I5203
sS'tradesmen\x92'
p5177
I5204
sS'elucid'
p5178
I5205
sS'constraint'
p5179
I5206
sS'\x93forgiv'
p5180
I5207
sS'manag'
p5181
I5208
sS'drama'
p5182
I5209
sS'bluster'
p5183
I5210
sS'landown'
p5184
I5211
sS'solidif'
p5185
I3333
sS'dispens'
p5186
I5213
sS'steven'
p5187
I5214
sS'lesson'
p5188
I5215
sS'germ'
p5189
I7243
sS'errand'
p5190
I5217
sS'includ'
p5191
I5218
sS'forward'
p5192
I5219
sS'errant'
p5193
I5220
sS'is\x97ala'
p5194
I5221
sS'vivac'
p5195
I5222
sS'translat'
p5196
I5223
sS'underlinen'
p5197
I5224
sS'nonfict'
p5198
I5225
sS'\x93none'
p5199
I5226
sS'couchant'
p5200
I5227
sS'jumbl'
p5201
I5229
sS'curv'
p5202
I5230
sS'summer\x92'
p5203
I7248
sS'flop'
p5204
I5939
sS'constant'
p5205
I5233
sS'shape\x97such'
p5206
I5234
sS'flow'
p5207
I5940
sS'thereabout'
p5208
I5236
sS'fluenci'
p5209
I5237
sS'scarlet'
p5210
I5239
sS'curb'
p5211
I5240
sS'curl'
p5212
I5241
sS'prevail'
p5213
I5242
sS'countryinn'
p5214
I5243
sS'commonest'
p5215
I5244
sS'crypt'
p5216
I5245
sS'boy\x92'
p5217
I5246
sS'caterwaul'
p5218
I5941
sS'boy\x97'
p5219
I5248
sS'impress'
p5220
I7252
sS'ulyss'
p5221
I5250
sS'overladen'
p5222
I5251
sS'cymbal'
p5223
I5252
sS'oystercolour'
p5224
I5253
sS'darkness\x94'
p5225
I5254
sS'desert'
p5226
I5255
sS'deserv'
p5227
I5256
sS'chivalr'
p5228
I5257
sS'downcast'
p5229
I5258
sS'oppress'
p5230
I2131
sS'2002'
p5231
I5260
sS'perfumed\x97and'
p5232
I5261
sS'rabbit'
p5233
I7253
sS'yorkshir'
p5234
I5263
sS'gone\x97and'
p5235
I983
sS'literari'
p5236
I5265
sS'privat'
p5237
I5266
sS'mew\x94'
p5238
I5267
sS'parrakeet'
p5239
I5268
sS'graver'
p5240
I5269
sS'sensit'
p5241
I5270
sS'\x93ra\x97un\x94'
p5242
I5271
sS'papist'
p5243
I5272
sS'becam'
p5244
I5273
sS'other\x92'
p5245
I5274
sS'alight'
p5246
I5947
sS'fatal'
p5247
I5275
sS'seacaptain'
p5248
I5276
sS'queen'
p5249
I5949
sS'armada\x94'
p5250
I5278
sS'rhyme'
p5251
I5279
sS'mous'
p5252
I5280
sS'volum'
p5253
I5281
sS'untouch'
p5254
I5282
sS'knight'
p5255
I5283
sS'shock'
p5256
I5284
sS'gipsi'
p5257
I5285
sS'kinsmen'
p5258
I5286
sS'tom/in'
p5259
I5287
sS'fortun'
p5260
I5288
sS'buckram'
p5261
I5289
sS'crow'
p5262
I5290
sS'\x93to'
p5263
I5291
sS'crop'
p5264
I5292
sS'joe\x92'
p5265
I5293
sS'croi'
p5266
I5294
sS'woodwork\x97'
p5267
I5295
sS'avalanch'
p5268
I5296
sS'resembl'
p5269
I5297
sS'wildest'
p5270
I7260
sS'deduc'
p5271
I5299
sS'involv'
p5272
I5300
sS'bodi'
p5273
I5301
sS'sink'
p5274
I5302
sS'miasma'
p5275
I5303
sS'tremor'
p5276
I5304
sS'\x93it\x92'
p5277
I5305
sS'bode'
p5278
I5306
sS'sinc'
p5279
I5307
sS'39'
p5280
I5308
sS'38'
p5281
I5309
sS'33'
p5282
I5310
sS'32'
p5283
I5311
sS'conceiv'
p5284
I5312
sS'30'
p5285
I5313
sS'37'
p5286
I5314
sS'36'
p5287
I5315
sS'35'
p5288
I5316
sS'34'
p5289
I5317
sS'climb'
p5290
I5318
sS'proof'
p5291
I7261
sS'liqueur'
p5292
I1336
sS'foundat'
p5293
I5320
sS'find\x97th'
p5294
I5321
sS'connection\x97that'
p5295
I5322
sS'prestig'
p5296
I5323
sS'limb'
p5297
I5324
sS'scandal'
p5298
I5325
sS'crowd\x97sh'
p5299
I5326
sS'gateway'
p5300
I5327
sS'wardrob'
p5301
I5328
sS'lordship\x92'
p5302
I5329
sS'duel\x97should'
p5303
I5330
sS'butler'
p5304
I5331
sS'soilur'
p5305
I5332
sS'transienc'
p5306
I5333
sS'trait'
p5307
I5334
sS'billet'
p5308
I5335
sS'trail'
p5309
I5336
sS'girth'
p5310
I4805
sS'harvest'
p5311
I5338
sS'account'
p5312
I5339
sS'f'
p5313
I5340
sS'tunnel'
p5314
I5341
sS'northumberland'
p5315
I5342
sS'obvious'
p5316
I5343
sS'smear'
p5317
I4684
sS'miracle\x97som'
p5318
I5345
sS'scribbl'
p5319
I5346
sS'fetch'
p5320
I5347
sS'aliv'
p5321
I5348
sS'contempl'
p5322
I5349
sS'downhil'
p5323
I5350
sS'slender'
p5324
I876
sS'spruce'
p5325
I5352
sS'contempt'
p5326
I5353
sS'everywher'
p5327
I5354
sS'surfac'
p5328
I5355
sS'lame'
p5329
I5356
sS'dinnert'
p5330
I5357
sS'lamp'
p5331
I5358
sS'forest'
p5332
I5359
sS'aft'
p5333
I5360
sS'wittiest'
p5334
I5361
sS'nasti'
p5335
I5362
sS'figure\x97wa'
p5336
I5363
sS'stock'
p5337
I5364
sS'act'
p5338
I5365
sS'wateri'
p5339
I5366
sS'bluff'
p5340
I5367
sS'philosophi'
p5341
I5368
sS'terrier'
p5342
I5369
sS'drape'
p5343
I5370
sS'bind'
p5344
I5371
sS'unvisit'
p5345
I1652
sS'sidelong'
p5346
I5373
sS'linen'
p5347
I5374
sS'chief'
p5348
I5375
sS'poacher'
p5349
I5376
sS'backbit'
p5350
I5377
sS'furious'
p5351
I5378
sS'furnish'
p5352
I5379
sS'kingfish'
p5353
I5380
sS'austrian'
p5354
I5381
sS'bunch'
p5355
I5382
sS'unrival'
p5356
I5383
sS'movabl'
p5357
I5384
sS'la'
p5358
I5385
sS'decorum'
p5359
I5386
sS'vivant'
p5360
I5387
sS'hardbitten'
p5361
I5388
sS'greater'
p5362
I5389
sS'later'
p5363
I6436
sS'toppl'
p5364
I5390
sS'dan'
p5365
I5391
sS'spell'
p5366
I5392
sS'dai'
p5367
I5393
sS'landau'
p5368
I5394
sS'mention'
p5369
I5395
sS'spelt'
p5370
I5396
sS'plaintiv'
p5371
I5397
sS'now\x97if'
p5372
I3392
sS'day'
p5373
I5399
sS'slacken'
p5374
I5400
sS'sin'
p5375
I7281
sS'februari'
p5376
I5402
sS'circular'
p5377
I5403
sS'radianc'
p5378
I5404
sS'\x91his\x92'
p5379
I5405
sS'intellig'
p5380
I5406
sS'illegitim'
p5381
I5407
sS'colefax'
p5382
I5408
sS'morning\x97it'
p5383
I5409
sS'topheavi'
p5384
I5410
sS'sexual'
p5385
I5411
sS'pantri'
p5386
I5412
sS'defend'
p5387
I5413
sS'defenc'
p5388
I5414
sS'mate'
p5389
I5415
sS'stuf'
p5390
I5416
sS'barley'
p5391
I5417
sS'red'
p5392
I5418
sS'thereupon'
p5393
I5419
sS'franc'
p5394
I5420
sS'harold'
p5395
I5421
sS'insid'
p5396
I5422
sS'frank'
p5397
I5423
sS'fourteen'
p5398
I5424
sS'que'
p5399
I5425
sS'qui'
p5400
I5426
sS'afterward'
p5401
I5427
sS'purposely\x97such'
p5402
I5428
sS'highgat'
p5403
I5429
sS'yard'
p5404
I5430
sS'horn\x94'
p5405
I5431
sS'mortal'
p5406
I5432
sS'retain'
p5407
I5433
sS'stuck'
p5408
I6373
sS'south'
p5409
I5434
sS'ghast'
p5410
I5435
sS'finest'
p5411
I5436
sS'continue\x97orlando'
p5412
I5437
sS'sack'
p5413
I5438
sS'betroth'
p5414
I5439
sS'cruelmouth'
p5415
I5440
sS'sacr'
p5416
I5441
sS'facil'
p5417
I5442
sS'ancient'
p5418
I5443
sS'monkey'
p5419
I5444
sS'elizabethan'
p5420
I5445
sS'vulgar'
p5421
I5446
sS'messag'
p5422
I5447
sS'dissever'
p5423
I5449
sS'sixteenth'
p5424
I5450
sS'gear'
p5425
I5451
sS'lions\x92'
p5426
I5452
sS'negro'
p5427
I5453
sS'ogr'
p5428
I5454
sS'ogl'
p5429
I5455
sS'nobodi'
p5430
I5456
sS'nun'
p5431
I5976
sS'embodi'
p5432
I5458
sS'charact'
p5433
I5459
sS'sweden'
p5434
I5460
sS'boyish'
p5435
I5461
sS'circumspect'
p5436
I5462
sS'lover'
p5437
I5463
sS'looking\x92'
p5438
I5464
sS'shakespear'
p5439
I5465
sS'tide'
p5440
I5466
sS'love\x94'
p5441
I2210
sS'have'
p5442
I5468
sS'love\x92'
p5443
I5469
sS'throat'
p5444
I5470
sS'waken'
p5445
I5471
sS'mix'
p5446
I5472
sS'sedat'
p5447
I5473
sS'unless'
p5448
I5474
sS'upon\x94'
p5449
I5475
sS'hazel'
p5450
I5476
sS'eight'
p5451
I5477
sS'handbag'
p5452
I5478
sS'attun'
p5453
I5479
sS'profoundest'
p5454
I5480
sS'd\x92oeuvr'
p5455
I5481
sS'afresh'
p5456
I5482
sS'gullet'
p5457
I5483
sS'tribute\x94'
p5458
I2333
sS'clive'
p5459
I5485
sS'absurd'
p5460
I5486
sS'occasion'
p5461
I5487
sS'text'
p5462
I2367
sS'hamlet'
p5463
I5489
sS'empir'
p5464
I5490
sS'thicker'
p5465
I5491
sS'desires\x94'
p5466
I5492
sS'betsi'
p5467
I5493
sS'pleasantest'
p5468
I5494
sS'fumbler'
p5469
I5495
sS'prolong'
p5470
I5496
sS'sparkl'
p5471
I5497
sS'inferior'
p5472
I5498
sS'beat'
p5473
I2450
sS'disagre'
p5474
I5500
sS'bear'
p5475
I5501
sS'awak'
p5476
I2175
sS'beak'
p5477
I2471
sS'bead'
p5478
I3794
sS'turkey\x94'
p5479
I5505
sS'reluct'
p5480
I5506
sS'organ'
p5481
I5507
sS'cicero'
p5482
I5508
sS'eyebrow'
p5483
I5509
sS'integu'
p5484
I5510
sS'dearest'
p5485
I7309
sS'palanquin'
p5486
I7310
sS'madam'
p5487
I5513
sS'we'
p5488
I2178
sS'complac'
p5489
I5516
sS'reform'
p5490
I5517
sS'pattern'
p5491
I5518
sS'boundari'
p5492
I5519
sS'deffand'
p5493
I5520
sS'disappeared\x97\x91it\x92'
p5494
I5521
sS'progress'
p5495
I5522
sS'badger'
p5496
I7318
sS'janet'
p5497
I5523
sS'sorrow'
p5498
I5525
sS'eschew'
p5499
I4705
sS'ramif'
p5500
I5526
sS'adventures\x97which'
p5501
I5527
sS'exclaim'
p5502
I5528
sS'instant'
p5503
I2446
sS'joke'
p5504
I5530
sS'\x92ot\x94'
p5505
I2689
sS'volubl'
p5506
I5532
sS'unbutton'
p5507
I5533
sS'instanc'
p5508
I5534
sS'rust'
p5509
I5535
sS'swim'
p5510
I5536
sS'freeli'
p5511
I5537
sS'swallow'
p5512
I5538
sS'glorious'
p5513
I5539
sS'comment'
p5514
I5540
sS'vent'
p5515
I2712
sS'set\x94'
p5516
I2739
sS'laugh'
p5517
I5543
sS'manhood'
p5518
I5544
sS'\x93some'
p5519
I5545
sS'walnut'
p5520
I5546
sS'ad'
p5521
I5547
sS'gaze'
p5522
I5548
sS'ah'
p5523
I5549
sS'curtain'
p5524
I5550
sS'muddi'
p5525
I5551
sS'muddl'
p5526
I5552
sS'hyacinth'
p5527
I5553
sS'villier'
p5528
I5554
sS'hob'
p5529
I5555
sS'bulk'
p5530
I3384
sS'bull'
p5531
I5557
sS'bulb'
p5532
I5558
sS'fellow'
p5533
I5559
sS'bulg'
p5534
I5560
sS'hippolytus\x94'
p5535
I2836
sS'entomolog'
p5536
I5562
sS'cypher'
p5537
I2846
sS'as\x97to'
p5538
I2855
sS'defin'
p5539
I5565
sS'\x93don\x92t'
p5540
I5566
sS'drove\x97ther'
p5541
I5567
sS'howev'
p5542
I5568
sS'almost'
p5543
I5569
sS'pantil'
p5544
I5570
sS'prosi'
p5545
I5571
sS'prose'
p5546
I5572
sS'partner'
p5547
I5573
sS'squir'
p5548
I5574
sS'whirl'
p5549
I5575
sS'knickerbock'
p5550
I5576
sS'twelfth'
p5551
I5578
sS'whirr'
p5552
I5579
sS'garish'
p5553
I5580
sS'tighten'
p5554
I2962
sS'addison\x92'
p5555
I5582
sS'bumboat'
p5556
I5583
sS'addison\x94'
p5557
I5584
sS'breech'
p5558
I5585
sS'never'
p5559
I3759
sS'judgment'
p5560
I5586
sS'tighter'
p5561
I5587
sS'nevertheless'
p5562
I5588
sS'weapon'
p5563
I3021
sS'pickpocket'
p5564
I5590
sS'thought'
p5565
I5591
sS'choos'
p5566
I5592
sS'posset'
p5567
I5593
sS'starboard'
p5568
I5594
sS'usual'
p5569
I5595
sS'paduasoy\x97'
p5570
I5596
sS'unarm'
p5571
I5597
sS'fingerprint'
p5572
I6594
sS'abas'
p5573
I5600
sS'surpass'
p5574
I5601
sS'widen'
p5575
I2191
sS'lake'
p5576
I5603
sS'bench'
p5577
I5604
sS'add'
p5578
I5605
sS'citizen'
p5579
I5606
sS'ado'
p5580
I5607
sS'is\x97but'
p5581
I5608
sS'match'
p5582
I5609
sS'raven'
p5583
I5610
sS'royalti'
p5584
I5611
sS'punctual'
p5585
I5612
sS'punctuat'
p5586
I5613
sS'footstool'
p5587
I7329
sS'realis'
p5588
I5615
sS'bloom'
p5589
I6374
sS'feel\x97it'
p5590
I3180
sS'like'
p5591
I5617
sS'success'
p5592
I5618
sS'sofa'
p5593
I3190
sS'unintellig'
p5594
I5620
sS'atho'
p5595
I5621
sS'doctrin'
p5596
I3197
sS'heed'
p5597
I5623
sS'soft'
p5598
I5624
sS'heel'
p5599
I5625
sS'italian'
p5600
I5626
sS'hail'
p5601
I5627
sS'hair'
p5602
I5628
sS'\x94'
p5603
I5629
sS'convey'
p5604
I5630
sS'proper'
p5605
I5631
sS'novelist'
p5606
I5632
sS'shrug'
p5607
I5633
sS'incant'
p5608
I5634
sS'shrub'
p5609
I5635
sS'desol'
p5610
I5636
sS'muff'
p5611
I5637
sS'regain'
p5612
I5638
sS'hose'
p5613
I5639
sS'slight'
p5614
I5640
sS'brawl'
p5615
I6224
sS'host'
p5616
I5641
sS'although'
p5617
I5642
sS'vengeanc'
p5618
I5643
sS'panel'
p5619
I5644
sS'about'
p5620
I5645
sS'actual'
p5621
I5646
sS'jupiter\x94'
p5622
I5647
sS'mastiff'
p5623
I5648
sS'justic'
p5624
I5649
sS'withdrew'
p5625
I5650
sS'out\x97al'
p5626
I5651
sS'flake'
p5627
I5652
sS'tomb'
p5628
I5653
sS'lion\x92'
p5629
I5654
sS'gazett'
p5630
I5655
sS'desper'
p5631
I5656
sS'guard'
p5632
I5657
sS'writers\x97'
p5633
I7338
sS'demeanour'
p5634
I5659
sS'pictur'
p5635
I5660
sS'beer'
p5636
I6013
sS'glimmer'
p5637
I5662
sS'biggest'
p5638
I5663
sS'maze'
p5639
I5664
sS'glib'
p5640
I5665
sS'buy'
p5641
I5666
sS'unexpect'
p5642
I5667
sS'sequel'
p5643
I5668
sS'but'
p5644
I5669
sS'ivori'
p5645
I5670
sS'himself\x97captain'
p5646
I5671
sS'strident'
p5647
I5672
sS'bud'
p5648
I5673
sS'death\x94'
p5649
I5674
sS'wise'
p5650
I5675
sS'open\x97sh'
p5651
I5676
sS'death\x92'
p5652
I5677
sS'seiz'
p5653
I2667
sS'j'
p5654
I5679
sS'thrice'
p5655
I5680
sS'misti'
p5656
I5681
sS'glori'
p5657
I5682
sS'lynx'
p5658
I5683
sS'rosebowl'
p5659
I5684
sS'prince\x92'
p5660
I5685
sS'pin'
p5661
I5686
sS'dunstabl'
p5662
I5687
sS'whisper'
p5663
I4013
sS'dure'
p5664
I5689
sS'circus'
p5665
I5690
sS'\x93gentl'
p5666
I3568
sS'83'
p5667
I7343
sS'pit'
p5668
I5693
sS'probabl'
p5669
I5694
sS'redder'
p5670
I5695
sS'48'
p5671
I5696
sS'49'
p5672
I5697
sS'46'
p5673
I5698
sS'47'
p5674
I3604
sS'44'
p5675
I5700
sS'45'
p5676
I5701
sS'42'
p5677
I5702
sS'43'
p5678
I5703
sS'40'
p5679
I5704
sS'41'
p5680
I5705
sS'special'
p5681
I3401
sS'out'
p5682
I7349
sS'nelson'
p5683
I5448
sS'pineappl'
p5684
I5709
sS'quietest'
p5685
I1653
sS'draught'
p5686
I5710
sS'bride\x94'
p5687
I5711
sS'shrank'
p5688
I5712
sS'sentiment'
p5689
I5713
sS'acquiesc'
p5690
I5714
sS'sunk\x92'
p5691
I5715
sS'baker'
p5692
I5716
sS'limbs\x97a'
p5693
I5717
sS'general\x92'
p5694
I5718
sS'digit\x94'
p5695
I5719
sS'methink'
p5696
I5720
sS'hatr'
p5697
I3722
sS'sleek'
p5698
I5722
sS'sleev'
p5699
I5723
sS'sleep'
p5700
I5724
sS'hate'
p5701
I5725
sS'wobbl'
p5702
I6407
sS'vile'
p5703
I5726
sS'thinnest'
p5704
I5727
sS'under'
p5705
I5728
sS'pride'
p5706
I5729
sS'merchant'
p5707
I5730
sS'lure'
p5708
I5731
sS'lantern\x97for'
p5709
I5732
sS'everi'
p5710
I5733
sS'physician'
p5711
I5734
sS'frailti'
p5712
I5735
sS'rise'
p5713
I5736
sS'pinchbeck'
p5714
I5737
sS'verit'
p5715
I5738
sS'parrot'
p5716
I5739
sS'muscovi'
p5717
I5740
sS'atlant'
p5718
I5741
sS'huddl'
p5719
I5742
sS'harriet'
p5720
I5743
sS'enjoy'
p5721
I5744
sS'almond'
p5722
I5745
sS'direct'
p5723
I5746
sS'nail'
p5724
I5747
sS'louder'
p5725
I3924
sS'ransack'
p5726
I5750
sS'blue'
p5727
I5751
sS'admiration\x97'
p5728
I3949
sS'christ'
p5729
I5753
sS'solemn'
p5730
I5754
sS'beaten'
p5731
I5755
sS'poison'
p5732
I5756
sS'worser'
p5733
I5757
sS'blur'
p5734
I5238
sS'symmetr'
p5735
I5759
sS'liberti'
p5736
I5760
sS'poetry\x97but'
p5737
I5761
sS'lodg'
p5738
I5763
sS'path'
p5739
I5764
sS'\x93orlando'
p5740
I5765
sS'vagu'
p5741
I5766
sS'ravish'
p5742
I5767
sS'precis'
p5743
I5768
sS'raviss'
p5744
I5769
sS'york'
p5745
I7361
sS'tremend'
p5746
I5770
sS'dictionari'
p5747
I7362
sS'stray'
p5748
I5773
sS'straw'
p5749
I5774
sS'pyramid'
p5750
I6026
sS'glumphoboo\x94'
p5751
I4152
sS'would'
p5752
I5777
sS'injunct'
p5753
I5778
sS'burdett'
p5754
I5779
sS'vultur'
p5755
I4184
sS'party\x97for'
p5756
I5781
sS'flower\x97a'
p5757
I5783
sS'muse'
p5758
I5784
sS'grief'
p5759
I5785
sS'writer\x92'
p5760
I5786
sS'jangl'
p5761
I5787
sS'berner'
p5762
I5788
sS'must'
p5763
I5789
sS'me'
p5764
I4239
sS'join'
p5765
I4247
sS'g'
p5766
I7364
sS'candelabra'
p5767
I5792
sS'telescop'
p5768
I5793
sS'grenadi'
p5769
I4267
sS'mr'
p5770
I5795
sS'ernest'
p5771
I5796
sS'my'
p5772
I5797
sS'both\x94'
p5773
I4294
sS'shook'
p5774
I4297
sS'dolphin'
p5775
I5800
sS'\x93he'
p5776
I5801
sS'fortyf'
p5777
I5802
sS'attract'
p5778
I5803
sS'end'
p5779
I5804
sS'rosett'
p5780
I5805
sS'ceremoni'
p5781
I5806
sS'gentian'
p5782
I4872
sS'gate'
p5783
I5808
sS'ancestor'
p5784
I5809
sS'collaps'
p5785
I5810
sS'awestruck'
p5786
I5811
sS'elizabeth'
p5787
I5812
sS'famish'
p5788
I5813
sS'lump'
p5789
I5814
sS'befor'
p5790
I5815
sS'delicaci'
p5791
I166
sS'off\x94'
p5792
I4469
sS'amid'
p5793
I5818
sS'spout'
p5794
I5819
sS'patent'
p5795
I5820
sS'environ'
p5796
I5821
sS'enter'
p5797
I5822
sS'plagu'
p5798
I826
sS'broider'
p5799
I5824
sS'carnat'
p5800
I5825
sS'composit'
p5801
I5826
sS'deform'
p5802
I5827
sS'clapper'
p5803
I5828
sS'sprout'
p5804
I2605
sS'over'
p5805
I5830
sS'clench'
p5806
I5831
sS'day\x92'
p5807
I4536
sS'becaus'
p5808
I5833
sS'london'
p5809
I5834
sS'oven'
p5810
I5835
sS'disposed\x97so\x97about'
p5811
I5836
sS'womanhood'
p5812
I5837
sS'fade'
p5813
I5839
sS'swingdoor'
p5814
I4593
sS'comprehens'
p5815
I5841
sS'plaster'
p5816
I5842
sS'roost'
p5817
I5843
sS'go\x94'
p5818
I5844
sS'hitherto'
p5819
I7370
sS'choic'
p5820
I4656
sS'eusebius'
p5821
I5847
sS'went\x97'
p5822
I5848
sS'herald'
p5823
I5849
sS'each'
p5824
I5851
sS'prohibit'
p5825
I5852
sS'diana'
p5826
I5853
sS'behaviour\x97sh'
p5827
I5854
sS'saturday'
p5828
I5855
sS'depress'
p5829
I5856
sS'fraught'
p5830
I5857
sS'goe'
p5831
I5858
sS'up\x97which'
p5832
I4736
sS'pepita'
p5833
I5860
sS'boswel'
p5834
I4755
sS'lain'
p5835
I5862
sS'got'
p5836
I5863
sS'bald'
p5837
I1779
sS'steepl'
p5838
I5864
sS'rail'
p5839
I5865
sS'free'
p5840
I5866
sS'\x93permit'
p5841
I5867
sS'doublehead'
p5842
I5868
sS'whereupon'
p5843
I5869
sS'rain'
p5844
I5870
sS'fret'
p5845
I5871
sS'pianofort'
p5846
I5872
sS'puzzl'
p5847
I5873
sS'filter'
p5848
I5874
sS'hopeless'
p5849
I5875
sS'soda'
p5850
I5876
sS'rang'
p5851
I5877
sS'puce'
p5852
I5878
sS'mountebank'
p5853
I5879
sS'accent'
p5854
I7376
sS'rank'
p5855
I5881
sS'necess'
p5856
I5882
sS'restrict'
p5857
I5883
sS'alreadi'
p5858
I5884
sS'sober'
p5859
I5885
sS'fantast'
p5860
I5886
sS'toy'
p5861
I5887
sS'corpul'
p5862
I4948
sS'top'
p5863
I5889
sS'twentyf'
p5864
I5890
sS'tot'
p5865
I5891
sS'fiction'
p5866
I5892
sS'sarcast'
p5867
I5893
sS'kinder'
p5868
I5894
sS'too'
p5869
I5895
sS'tom'
p5870
I5896
sS'bethink'
p5871
I5897
sS'paduasoy'
p5872
I5898
sS'unbroken'
p5873
I5899
sS'toe'
p5874
I5900
sS'urban'
p5875
I5901
sS'frailest'
p5876
I5902
sS'murder'
p5877
I5903
sS'conson'
p5878
I5904
sS'doublefac'
p5879
I5905
sS'took'
p5880
I5906
sS'embellish'
p5881
I5907
sS'190'
p5882
I5908
sS'groundfloor'
p5883
I5909
sS'north\x94'
p5884
I5910
sS'final'
p5885
I5911
sS'flame'
p5886
I5912
sS'petul'
p5887
I5913
sS'prone'
p5888
I2196
sS'countess'
p5889
I5915
sS'bluejacket\x97if'
p5890
I5916
sS'rag'
p5891
I5917
sS'donkey'
p5892
I5918
sS'fashion'
p5893
I5919
sS'marmaduk'
p5894
I5084
sS'ran'
p5895
I5921
sS'taint'
p5896
I5922
sS'rat'
p5897
I5923
sS'six\x97sh'
p5898
I5924
sS'rap'
p5899
I5925
sS'spade'
p5900
I5926
sS'ray'
p5901
I5927
sS'snow'
p5902
I5928
sS'then\x97louis'
p5903
I5929
sS'contact'
p5904
I5930
sS'snob'
p5905
I5163
sS'cleft'
p5906
I5932
sS'plenti'
p5907
I5933
sS'though'
p5908
I5934
sS'coil'
p5909
I5935
sS'coin'
p5910
I5936
sS'jay\x92'
p5911
I5937
sS'glow'
p5912
I5938
sS'cathol'
p5913
I5232
sS'metal'
p5914
I5235
sS'declar'
p5915
I5247
sS'treati'
p5916
I5942
sS'popc'
p5917
I5943
sS'chariot'
p5918
I5944
sS'pope'
p5919
I5945
sS'endear'
p5920
I5946
sS'stool'
p5921
I627
sS'baiz'
p5922
I5948
sS'random'
p5923
I5277
sS'queer'
p5924
I5950
sS'earth'
p5925
I5951
sS'miasma\x97a'
p5926
I5952
sS'absolut'
p5927
I5953
sS'spite'
p5928
I5954
sS'stanza'
p5929
I5955
sS'booksel'
p5930
I5956
sS'disgust'
p5931
I5957
sS'tropic'
p5932
I5958
sS'haven\x92t'
p5933
I5959
sS'watch'
p5934
I5960
sS'fluid'
p5935
I5961
sS'said\x97but'
p5936
I5962
sS'report'
p5937
I5963
sS'ben'
p5938
I5964
sS'out\x97heaven'
p5939
I5965
sS'unlatch'
p5940
I5966
sS'stank\x97orlando'
p5941
I5968
sS'plush'
p5942
I5969
sS'twice'
p5943
I5970
sS'erupt'
p5944
I5971
sS'contrast'
p5945
I5972
sS'swept'
p5946
I5973
sS'habit'
p5947
I5974
sS'nut'
p5948
I5975
sS'resist'
p5949
I5457
sS'othello'
p5950
I7118
sS'corrupt'
p5951
I5977
sS'orlando\x92'
p5952
I5978
sS'orlando\x94'
p5953
I5979
sS'smutti'
p5954
I5980
sS'postboy'
p5955
I5981
sS'unaccustom'
p5956
I5982
sS'discoveri'
p5957
I5983
sS'mud'
p5958
I5984
sS'mug'
p5959
I5985
sS'figtre'
p5960
I5986
sS'finger'
p5961
I5987
sS'365'
p5962
I5988
sS'approach'
p5963
I5989
sS'multicolour'
p5964
I5990
sS'elk'
p5965
I6057
sS'weak'
p5966
I5992
sS'contort'
p5967
I5993
sS'devour'
p5968
I5994
sS'wear'
p5969
I5995
sS'news'
p5970
I5996
sS'protect'
p5971
I5997
sS'masterwork'
p5972
I5998
sS'about\x97'
p5973
I5999
sS'irregular'
p5974
I6000
sS'fault'
p5975
I6001
sS'dryden'
p5976
I6002
sS'desequestr'
p5977
I6003
sS'snow\x97it'
p5978
I6004
sS'jelli'
p5979
I6005
sS'trust'
p5980
I6006
sS'nake'
p5981
I6007
sS'aback'
p5982
I6008
sS'beef'
p5983
I6009
sS'nonsens'
p5984
I6010
sS'been'
p5985
I6011
sS'accumul'
p5986
I6012
sS'o\x92reilli'
p5987
I5661
sS'communion'
p5988
I6014
sS'foulli'
p5989
I6015
sS'mountainsid'
p5990
I6016
sS'uncommon'
p5991
I6017
sS'craft'
p5992
I6018
sS'cherri'
p5993
I6019
sS'catch'
p5994
I6020
sS'teapot'
p5995
I6021
sS'strangest'
p5996
I6022
sS'fallow'
p5997
I6023
sS'ugliest'
p5998
I6024
sS'viscountess'
p5999
I6025
sS'quincey'
p6000
I5775
sS'broth'
p6001
I6027
sS'tress'
p6002
I6028
sS'agelong'
p6003
I6029
sS'manyroom'
p6004
I6030
sS'congeri'
p6005
I6031
sS'inventori'
p6006
I6032
sS'suggest'
p6007
I6033
sS'wound'
p6008
I6034
sS'myrtl'
p6009
I6035
sS'forehead'
p6010
I6036
sS'complex'
p6011
I6037
sS'sanitari'
p6012
I6038
sS'complet'
p6013
I6039
sS'screw'
p6014
I6040
sS'lustr'
p6015
I6041
sS'portal'
p6016
I6042
sS'eyes\x97th'
p6017
I6043
sS'tassel'
p6018
I6044
sS'hearti'
p6019
I6045
sS'land\x97ladi'
p6020
I6046
sS'ocean'
p6021
I6047
sS'greatest'
p6022
I6048
sS'mother'
p6023
I6049
sS'everyth'
p6024
I6050
sS'rout'
p6025
I7400
sS'small\x97a'
p6026
I6052
sS'was\x97what'
p6027
I6053
sS'depart'
p6028
I6054
sS'enlighten'
p6029
I639
sS'\x93for'
p6030
I6056
sS'p\x97re\x94'
p6031
I5991
sS'greenwich'
p6032
I6058
sS'expos'
p6033
I6059
sS'elm'
p6034
I6060
sS'brillianc'
p6035
I3168
sS'primit'
p6036
I6061
sS'conjur'
p6037
I1549
sS'transit'
p6038
I6063
sS'gave'
p6039
I6064
sS'scarecrow\x94'
p6040
I6065
sS'peasantborn'
p6041
I6066
sS'africa'
p6042
I3838
sS'sussex'
p6043
I6068
sS'quicksand'
p6044
I6069
sS'burnt'
p6045
I6070
sS'apart'
p6046
I6071
sS'colour'
p6047
I6072
sS'ditti'
p6048
I6073
sS'59'
p6049
I6074
sS'ditto'
p6050
I2307
sS'gervas'
p6051
I5398
sS'arbitrari'
p6052
I6077
sS'55'
p6053
I6078
sS'contradict'
p6054
I1166
sS'57'
p6055
I6080
sS'56'
p6056
I522
sS'orlando'
p6057
I6082
sS'50'
p6058
I6083
sS'53'
p6059
I6084
sS'mongrel'
p6060
I5598
sS'distasteful\x97of'
p6061
I6086
sS'fixiti'
p6062
I6079
sS'hung'
p6063
I6088
sS'amor'
p6064
I6089
sS'\x93ignor'
p6065
I6090
sS'hunt'
p6066
I6081
sS'51'
p6067
I6092
sS'office\x94'
p6068
I6093
sS'manychamb'
p6069
I6094
sS'52'
p6070
I6085
sS'spongi'
p6071
I6095
sS'intellect'
p6072
I6096
sS'nobleman'
p6073
I6097
sS'ici'
p6074
I6098
sS'osier'
p6075
I6099
sS'establish'
p6076
I6100
sS'ice'
p6077
I6101
sS'cord'
p6078
I6102
sS'damask'
p6079
I6103
sS'androgyn'
p6080
I943
sS'hampstead'
p6081
I3654
sS'cori'
p6082
I6106
sS'corp'
p6083
I6107
sS'\x93greenwich'
p6084
I6108
sS'chapter'
p6085
I6109
sS'censur'
p6086
I6110
sS'carpenters\x92'
p6087
I6111
sS'steadili'
p6088
I6112
sS'plum'
p6089
I6113
sS'curri'
p6090
I6114
sS'surround'
p6091
I6115
sS'unfortun'
p6092
I6116
sS'festiv'
p6093
I6117
sS'dinner'
p6094
I6118
sS'plus'
p6095
I6119
sS'gloir'
p6096
I6120
sS'twitch'
p6097
I6121
sS'denounced\x97and'
p6098
I6122
sS'produc'
p6099
I6123
sS'duke'
p6100
I6124
sS'butterfly\x92'
p6101
I6125
sS'froze'
p6102
I6126
sS'civil'
p6103
I6127
sS'innkeeper\x92'
p6104
I6128
sS'abey'
p6105
I3222
sS'henroost'
p6106
I6130
sS'foot\x92'
p6107
I6091
sS'\x93charact'
p6108
I6131
sS'bodic'
p6109
I6133
sS'pearl'
p6110
I6134
sS'\x93stap'
p6111
I6135
sS'scamper'
p6112
I6136
sS'transform'
p6113
I6137
sS'sunlight'
p6114
I6138
sS'forbad'
p6115
I6139
sS'virgin'
p6116
I6140
sS'fought'
p6117
I6141
sS'scratch\x94'
p6118
I6142
sS'house\x97damp'
p6119
I6143
sS'gin'
p6120
I6144
sS'dustchok'
p6121
I6145
sS'head'
p6122
I6146
sS'altogeth'
p6123
I6147
sS'tunbridg'
p6124
I6148
sS'26th'
p6125
I4934
sS'buckingham'
p6126
I6150
sS'heat'
p6127
I6151
sS'hear'
p6128
I6152
sS'heap'
p6129
I6153
sS'diamondpan'
p6130
I6154
sS'betty\x92'
p6131
I6155
sS'flavour'
p6132
I6156
sS'muster'
p6133
I2680
sS'bluebottl'
p6134
I6158
sS'bargain'
p6135
I6159
sS'fundament'
p6136
I6160
sS'latch'
p6137
I6161
sS'mary\x92'
p6138
I6162
sS'adorn'
p6139
I6163
sS'trim'
p6140
I6164
sS'inordin'
p6141
I6165
sS'furz'
p6142
I6166
sS'leviti'
p6143
I6167
sS'furi'
p6144
I6168
sS'check'
p6145
I6169
sS'assembl'
p6146
I6170
sS'inborn'
p6147
I6171
sS'no'
p6148
I6172
sS'tip'
p6149
I1293
sS'ne'
p6150
I6174
sS'bumptious'
p6151
I6175
sS'stagnant'
p6152
I6176
sS'tie'
p6153
I6177
sS'teed'
p6154
I6178
sS'evergreen'
p6155
I6179
sS'wombat'
p6156
I6180
sS'toad'
p6157
I6181
sS'woman\x97lord'
p6158
I6182
sS'consid'
p6159
I6183
sS'dullest'
p6160
I6184
sS'snow\x97for'
p6161
I6185
sS'longer'
p6162
I6186
sS'bullet'
p6163
I6187
sS'intimaci'
p6164
I6188
sS'jostl'
p6165
I6189
sS'ah\x94'
p6166
I6190
sS'fasten'
p6167
I6191
sS'coach'
p6168
I6192
sS'snif'
p6169
I6193
sS'rob'
p6170
I6194
sS'celebr'
p6171
I6195
sS'rod'
p6172
I6196
sS'snip'
p6173
I6197
sS'poet\x92'
p6174
I7548
sS'signific'
p6175
I6198
sS'stumbl'
p6176
I6199
sS'llc'
p6177
I6200
sS'inexpi'
p6178
I6201
sS'rot'
p6179
I6202
sS'row'
p6180
I6203
sS'elkhound'
p6181
I5688
sS'\x93marmaduk'
p6182
I6204
sS'melon'
p6183
I6205
sS'sing'
p6184
I6206
sS'beautiful\x94'
p6185
I6207
sS'unfamiliar'
p6186
I6208
sS'cook'
p6187
I6209
sS'cool'
p6188
I6210
sS'say\x94'
p6189
I6211
sS'marmara'
p6190
I6212
sS'level'
p6191
I6213
sS'brother'
p6192
I6214
sS'quick'
p6193
I6215
sS'seraph'
p6194
I1880
sS'asked\x97but'
p6195
I6217
sS'bake'
p6196
I6218
sS'port'
p6197
I6219
sS'hymn'
p6198
I6220
sS'repli'
p6199
I6221
sS'spire'
p6200
I6222
sS'stateli'
p6201
I6223
sS'nigger\x92'
p6202
I6104
sS'corn'
p6203
I6105
sS'taut'
p6204
I6226
sS'\x93morn'
p6205
I6227
sS'coffeehous'
p6206
I6228
sS'water'
p6207
I6229
sS'entertain'
p6208
I6230
sS'witch'
p6209
I6231
sS'bosch\x94'
p6210
I6232
sS'shove'
p6211
I6233
sS'ring\x94'
p6212
I1542
sS'thirti'
p6213
I6234
sS'healthi'
p6214
I6235
sS'leicest'
p6215
I6236
sS'dumb'
p6216
I6995
sS'charm\x97al'
p6217
I6237
sS'humour'
p6218
I6238
sS'brighten'
p6219
I6239
sS'uneduc'
p6220
I6240
sS'visibl'
p6221
I6241
sS'shelley'
p6222
I6242
sS'peep'
p6223
I6243
sS'concoct'
p6224
I6244
sS'vivid'
p6225
I6245
sS'memori'
p6226
I6246
sS'scan'
p6227
I6247
sS'baser'
p6228
I6248
sS'percept'
p6229
I6249
sS'prey'
p6230
I6250
sS'no\x97for'
p6231
I6251
sS'today'
p6232
I6252
sS'trustworthi'
p6233
I6253
sS'capit'
p6234
I6254
sS'riot'
p6235
I6255
sS'altar'
p6236
I6256
sS'love\x97a'
p6237
I6257
sS'drown'
p6238
I6258
sS'dismal'
p6239
I6259
sS'accept'
p6240
I3005
sS'coutts\x92'
p6241
I6261
sS'alexand'
p6242
I6262
sS'ventur'
p6243
I6263
sS'religi'
p6244
I6264
sS'judi'
p6245
I6265
sS'suffoc'
p6246
I6266
sS'juda'
p6247
I6267
sS'judg'
p6248
I6268
sS'miladi'
p6249
I6269
sS'dogs\x94'
p6250
I6270
sS'purpos'
p6251
I6271
sS'laughter'
p6252
I6272
sS'slightest'
p6253
I6273
sS'streak'
p6254
I6274
sS'overpass'
p6255
I6275
sS'diuturnity\x97orlando'
p6256
I6276
sS'stream'
p6257
I6277
sS'news\x97that'
p6258
I6278
sS'explos'
p6259
I6279
sS'favilla'
p6260
I7437
sS'\x93i\x92m'
p6261
I6281
sS'critic'
p6262
I6282
sS'\x93i\x92v'
p6263
I6283
sS'lady\x94'
p6264
I6284
sS'trophi'
p6265
I4865
sS'briefer'
p6266
I6286
sS'sidney'
p6267
I6287
sS'skater'
p6268
I4349
sS'1'
p6269
I6288
sS'alway'
p6270
I6289
sS'vital'
p6271
I6290
sS'anyon'
p6272
I6291
sS'fourth'
p6273
I6292
sS'myself\x94'
p6274
I6293
sS'tippet'
p6275
I6294
sS'ballroom'
p6276
I6295
sS'seafar'
p6277
I6296
sS'and\x97'
p6278
I6297
sS'that\x92ll'
p6279
I3449
sS'eighth'
p6280
I6299
sS'practic'
p6281
I6300
sS'liquid'
p6282
I6301
sS'gratifi'
p6283
I2793
sS'unseason'
p6284
I6303
sS'inform'
p6285
I6304
sS'preced'
p6286
I6305
sS'combin'
p6287
I6306
sS'practis'
p6288
I6307
sS'hilltop'
p6289
I6308
sS'stonemason'
p6290
I6309
sS'sonnet'
p6291
I6310
sS'anticip'
p6292
I6311
sS'midnight'
p6293
I6312
sS'blare'
p6294
I6313
sS'microscop'
p6295
I6314
sS'worship'
p6296
I6315
sS'canari'
p6297
I6316
sS'86'
p6298
I7346
sS'passag'
p6299
I6317
sS'comic'
p6300
I6318
sS'platform'
p6301
I6319
sS'speaking\x97a'
p6302
I6320
sS'farmer'
p6303
I6321
sS'underneath'
p6304
I6322
sS'loneli'
p6305
I6323
sS'hamilton'
p6306
I2628
sS'anecdot'
p6307
I6325
sS'monast'
p6308
I4352
sS'term'
p6309
I6327
sS'unscrupul'
p6310
I3361
sS'opera'
p6311
I6329
sS'clutch'
p6312
I6330
sS'biograph'
p6313
I6331
sS'\x93this'
p6314
I6332
sS'gape'
p6315
I6333
sS'torch'
p6316
I6334
sS'persian'
p6317
I6335
sS'before\x97someth'
p6318
I6336
sS'begun'
p6319
I6337
sS'bustl'
p6320
I6338
sS'antipathet'
p6321
I6339
sS'beams\x94\x97thus'
p6322
I6340
sS'dispos'
p6323
I6341
sS'\x93la'
p6324
I6342
sS'conservatori'
p6325
I6343
sS'profit'
p6326
I6344
sS'nothing\x92'
p6327
I6345
sS'kent'
p6328
I6346
sS'uncl'
p6329
I6347
sS'swear\x94'
p6330
I6285
sS'factori'
p6331
I6348
sS'rumin'
p6332
I6349
sS'glimps'
p6333
I6350
sS'tuner'
p6334
I6351
sS'prescrib'
p6335
I92
sS'flare'
p6336
I6353
sS'refus'
p6337
I6354
sS'shopman'
p6338
I6355
sS'motion'
p6339
I6356
sS'turn'
p6340
I6357
sS'turk'
p6341
I112
sS'swine'
p6342
I6359
sS'swing'
p6343
I6360
sS'turf'
p6344
I6361
sS'unborn'
p6345
I120
sS'imposs'
p6346
I6363
sS'origin'
p6347
I6364
sS'merrili'
p6348
I128
sS'suspend'
p6349
I6366
sS'insist'
p6350
I6512
sS'opul'
p6351
I6367
sS'malacca'
p6352
I6368
sS'eighti'
p6353
I6369
sS'duchess\x92'
p6354
I6370
sS'etc]\x97al'
p6355
I164
sS'chastiti'
p6356
I6372
sS'bounti'
p6357
I169
sS'seductive\x97a'
p6358
I171
sS'flutter'
p6359
I6376
sS'assort'
p6360
I6377
sS'necessarili'
p6361
I195
sS'circl'
p6362
I6379
sS'white'
p6363
I6380
sS'hue'
p6364
I6381
sS'spright'
p6365
I6382
sS'funer'
p6366
I2724
sS'applejohn'
p6367
I6384
sS'season'
p6368
I220
sS'copi'
p6369
I6386
sS'specifi'
p6370
I6387
sS'eagl'
p6371
I6388
sS'hut'
p6372
I6389
sS'enclos'
p6373
I6390
sS'tempera'
p6374
I6391
sS'wwwrosettabookscom/orlando'
p6375
I6392
sS'grunt'
p6376
I6393
sS'photograph'
p6377
I6394
sS'swansdown'
p6378
I252
sS'serv'
p6379
I6396
sS'wide'
p6380
I6397
sS'r'
p6381
I6398
sS'mate\x94'
p6382
I6399
sS'balanc'
p6383
I6400
sS'coat'
p6384
I4877
sS'posit'
p6385
I6402
sS'oath'
p6386
I6403
sS'powder'
p6387
I438
sS'and'
p6388
I6405
sS'eggshel'
p6389
I6406
sS'twentyeight'
p6390
I305
sS'rend'
p6391
I6408
sS'hogarth'
p6392
I6409
sS'ann'
p6393
I6410
sS'pri'
p6394
I6411
sS'ani'
p6395
I6412
sS'ant'
p6396
I6413
sS'style'
p6397
I6821
sS'jamesons\x97al'
p6398
I333
sS'dryness'
p6399
I6415
sS'\x91twas'
p6400
I6416
sS'techniqu'
p6401
I6417
sS'moreov'
p6402
I6418
sS'windowseat'
p6403
I6419
sS'blunt'
p6404
I6420
sS'assidu'
p6405
I6421
sS'earth\x92'
p6406
I6422
sS'surg'
p6407
I6423
sS'sure'
p6408
I6424
sS'multipli'
p6409
I6425
sS'cigarett'
p6410
I6426
sS'witty\x94'
p6411
I6427
sS'inki'
p6412
I6428
sS'reflected\x97and'
p6413
I6429
sS'return\x97'
p6414
I6430
sS'net'
p6415
I3753
sS'asper'
p6416
I417
sS'\x93but'
p6417
I6432
sS'saunter'
p6418
I6433
sS'heinous'
p6419
I6149
sS'annul'
p6420
I6435
sS'adopt'
p6421
I1955
sS'quantiti'
p6422
I6437
sS'obedi'
p6423
I6438
sS'annus'
p6424
I6439
sS'hungri'
p6425
I6440
sS'slope'
p6426
I6441
sS'perch'
p6427
I6442
sS'convoy'
p6428
I6443
sS'clammi'
p6429
I6444
sS'cheat'
p6430
I6445
sS'priest\x92'
p6431
I6446
sS'cheap'
p6432
I6447
sS'trod'
p6433
I6448
sS'permiss'
p6434
I6449
sS'hack'
p6435
I6450
sS'pursuanc'
p6436
I6451
sS'trot'
p6437
I6452
sS'gulf'
p6438
I6453
sS'word\x94'
p6439
I7467
sS'brigg'
p6440
I6455
sS'gull'
p6441
I6456
sS'written'
p6442
I6457
sS'crime'
p6443
I6458
sS'gulp'
p6444
I6459
sS'wood'
p6445
I6460
sS'wool'
p6446
I6461
sS'clumsili'
p6447
I6462
sS'lighten'
p6448
I6463
sS'nell'
p6449
I6464
sS'treacheri'
p6450
I6465
sS'nobl'
p6451
I6466
sS'festoon'
p6452
I6467
sS'tailor'
p6453
I6468
sS'neither'
p6454
I6469
sS'reveal'
p6455
I6470
sS'fame\x97fame\x94'
p6456
I6471
sS'naked'
p6457
I6472
sS'seventysix'
p6458
I6157
sS'nettl'
p6459
I6474
sS'fainter'
p6460
I637
sS'pane'
p6461
I6476
sS'conscienc'
p6462
I6477
sS'labori'
p6463
I6478
sS'1922'
p6464
I6479
sS'1923'
p6465
I6480
sS'1924'
p6466
I6481
sS'1925'
p6467
I6482
sS'serpentin'
p6468
I5009
sS'1928'
p6469
I6484
sS'1929'
p6470
I6485
sS'detect'
p6471
I6486
sS'age\x97if'
p6472
I714
sS'review'
p6473
I6488
sS'hist'
p6474
I724
sS'fulsom'
p6475
I6490
sS'hiss'
p6476
I6491
sS'turbot'
p6477
I6492
sS'absenc'
p6478
I6493
sS'longer\x97let'
p6479
I6494
sS'ale'
p6480
I6495
sS'comb'
p6481
I6496
sS'come'
p6482
I6497
sS'is\x97for'
p6483
I6498
sS'berri'
p6484
I6499
sS'wittili'
p6485
I6500
sS'region'
p6486
I6501
sS'quiet'
p6487
I6502
sS'contract'
p6488
I6503
sS'space\x97'
p6489
I6504
sS'railway'
p6490
I812
sS'cutlass'
p6491
I6506
sS'pox'
p6492
I6507
sS'armchair'
p6493
I6508
sS'pot'
p6494
I6509
sS'inspir'
p6495
I6510
sS'period'
p6496
I6511
sS'pop'
p6497
I4963
sS'bosom'
p6498
I6513
sS'60'
p6499
I842
sS'61'
p6500
I6515
sS'62'
p6501
I845
sS'63'
p6502
I6517
sS'64'
p6503
I6518
sS'65'
p6504
I6519
sS'66'
p6505
I6520
sS'67'
p6506
I6521
sS'68'
p6507
I6522
sS'69'
p6508
I6523
sS'dear\x97\x94'
p6509
I6524
sS'turkey'
p6510
I6525
sS'lifes'
p6511
I6526
sS'coupl'
p6512
I6527
sS'howard'
p6513
I6528
sS'person\x92'
p6514
I6529
sS'infidel'
p6515
I5515
sS'gaiter'
p6516
I6530
sS'schoolboy'
p6517
I6531
sS'barrelorgan'
p6518
I6532
sS'cardcas'
p6519
I6533
sS'taffeta'
p6520
I6534
sS'came\x97a'
p6521
I6535
sS'andrew'
p6522
I6536
sS'tiger'
p6523
I6537
sS'irrever'
p6524
I6538
sS'dahlia'
p6525
I6539
sS'impati'
p6526
I6540
sS'spirit'
p6527
I6541
sS'robber'
p6528
I6542
sS'case'
p6529
I6543
sS'myself'
p6530
I6544
sS'amend'
p6531
I6545
sS'mount'
p6532
I6546
sS'cask'
p6533
I6547
sS'\x93modesti'
p6534
I6548
sS'cast'
p6535
I6549
sS'mound'
p6536
I6550
sS'drank\x97but'
p6537
I6551
sS'tuningfork'
p6538
I6552
sS'\x91must\x92'
p6539
I6553
sS'jacket\x97h'
p6540
I6554
sS'frizzl'
p6541
I6555
sS'exult'
p6542
I2730
sS'clutter'
p6543
I6556
sS'sackvillewest\x92'
p6544
I6557
sS'farthingal'
p6545
I6558
sS'helmet'
p6546
I6559
sS'author'
p6547
I6560
sS'obfusc'
p6548
I6561
sS'fender'
p6549
I6562
sS'bowl'
p6550
I6563
sS'trip'
p6551
I6564
sS'grain'
p6552
I7486
sS'sedit'
p6553
I6566
sS'hermit'
p6554
I1100
sS'week'
p6555
I6568
sS'life\x94'
p6556
I6569
sS'life\x92'
p6557
I6570
sS'nest'
p6558
I6571
sS'confidenti'
p6559
I6572
sS'driver'
p6560
I6573
sS'weed'
p6561
I6574
sS'driven'
p6562
I6575
sS'devoid'
p6563
I6576
sS'petticoat'
p6564
I6577
sS'footprint'
p6565
I6578
sS'weep'
p6566
I6579
sS'handsom'
p6567
I6580
sS'giber'
p6568
I6581
sS'moder'
p6569
I6582
sS'reliev'
p6570
I6583
sS'justifi'
p6571
I6584
sS'hustl'
p6572
I6585
sS'without'
p6573
I6586
sS'relief'
p6574
I6587
sS'model'
p6575
I6588
sS'satir'
p6576
I6589
sS'vexat'
p6577
I6590
sS'violenc'
p6578
I6591
sS'loudly\x97for'
p6579
I6592
sS'keepsak'
p6580
I1208
sS'ninth'
p6581
I6595
sS'lavish'
p6582
I6596
sS'violent'
p6583
I6597
sS'pariah'
p6584
I6598
sS'kill'
p6585
I6599
sS'polish'
p6586
I6600
sS'satin'
p6587
I6601
sS'twentythre'
p6588
I6602
sS'halfway'
p6589
I6603
sS'blow'
p6590
I6604
sS'blot'
p6591
I6605
sS'rosi'
p6592
I6606
sS'dulli'
p6593
I1253
sS'rose'
p6594
I6608
sS'regent'
p6595
I6609
sS'except'
p6596
I1261
sS'blob'
p6597
I1277
sS'hind'
p6598
I1283
sS'vain\x94'
p6599
I1289
sS'disrupt'
p6600
I6614
sS'kingdom'
p6601
I6615
sS'virginia'
p6602
I6616
sS'motherinlaw'
p6603
I6617
sS'saniti'
p6604
I6618
sS'snore'
p6605
I1344
sS'serious'
p6606
I6696
sS'tower'
p6607
I6620
sS'captious'
p6608
I6621
sS'refin'
p6609
I6622
sS'freez'
p6610
I6623
sS'slice'
p6611
I6624
sS'mood'
p6612
I6625
sS'plain\x97orlando'
p6613
I6626
sS'defenceless'
p6614
I6627
sS'\x93so'
p6615
I6628
sS'legal'
p6616
I1433
sS'moon'
p6617
I6630
sS'moor'
p6618
I6631
sS'me\x97a'
p6619
I6632
sS'complic'
p6620
I6633
sS'porter'
p6621
I6634
sS'woman\x94'
p6622
I6635
sS'immun'
p6623
I6636
sS'woman\x92'
p6624
I6637
sS'quit'
p6625
I6638
sS'garbag'
p6626
I6639
sS'slaughter'
p6627
I6640
sS'carcas'
p6628
I6641
sS'unfathom'
p6629
I1505
sS'tread'
p6630
I6643
sS'mantelpiec'
p6631
I6644
sS'on'
p6632
I6645
sS'oh'
p6633
I6646
sS'of'
p6634
I6647
sS'murmur\x97\x97'
p6635
I6648
sS'stand'
p6636
I6650
sS'doze'
p6637
I6651
sS'or'
p6638
I6652
sS'amber'
p6639
I6653
sS'routin'
p6640
I1557
sS'even\x97transitori'
p6641
I6655
sS'pretender\x94'
p6642
I7497
sS'there'
p6643
I6657
sS'strict'
p6644
I6658
sS'budg'
p6645
I6659
sS'valley'
p6646
I6660
sS'hare'
p6647
I5577
sS'drapers\x92'
p6648
I1654
sS'relic'
p6649
I6663
sS'jug'
p6650
I6664
sS'regard'
p6651
I6665
sS'sword\x92'
p6652
I6666
sS'cabinet'
p6653
I6667
sS'befel'
p6654
I6668
sS'illus'
p6655
I6669
sS'faster'
p6656
I6670
sS'stanhop'
p6657
I6671
sS'subterran'
p6658
I6672
sS'grasp'
p6659
I6673
sS'subterfug'
p6660
I6674
sS'grass'
p6661
I6675
sS'ruffian'
p6662
I6676
sS'taylor'
p6663
I6677
sS'frighten'
p6664
I6678
sS'britain'
p6665
I6679
sS'bishop'
p6666
I6680
sS'hair\x97which'
p6667
I6681
sS'jingl'
p6668
I6682
sS'heather'
p6669
I6683
sS'idiot'
p6670
I6684
sS'compel'
p6671
I6685
sS'rubber'
p6672
I6686
sS'5'
p6673
I1805
sS'trash'
p6674
I6688
sS'ottolin'
p6675
I6689
sS'discours'
p6676
I6690
sS'oneself'
p6677
I6691
sS'symbol'
p6678
I6692
sS'midair'
p6679
I6693
sS'\x93truth'
p6680
I6694
sS'dishonour'
p6681
I1846
sS'word\x97it'
p6682
I1854
sS'brass'
p6683
I6697
sS'towel'
p6684
I6619
sS'oriel'
p6685
I6698
sS'wife'
p6686
I6699
sS'\x93no'
p6687
I4351
sS'cabbag'
p6688
I6701
sS'apparel'
p6689
I6702
sS'degrad'
p6690
I6703
sS'all'
p6691
I6704
sS'alm'
p6692
I6705
sS'lace'
p6693
I6706
sS'docil'
p6694
I6707
sS'lack'
p6695
I1922
sS'ala'
p6696
I6709
sS'dish'
p6697
I6710
sS'follow'
p6698
I6711
sS'settlement'
p6699
I6712
sS'alp'
p6700
I6713
sS'mayfair'
p6701
I6714
sS'thursday'
p6702
I6715
sS'humili'
p6703
I6716
sS'crest'
p6704
I1979
sS'must\x94'
p6705
I6718
sS'woman'
p6706
I1996
sS'song'
p6707
I2001
sS'far'
p6708
I6721
sS'fat'
p6709
I6722
sS'psychologist'
p6710
I6723
sS'fan'
p6711
I6724
sS'ticket'
p6712
I6725
sS'flodden'
p6713
I6726
sS'stimulus'
p6714
I6727
sS'when\x97'
p6715
I6728
sS'gerrard'
p6716
I2061
sS'purlieus'
p6717
I6730
sS'thought\x97but'
p6718
I6731
sS'flick'
p6719
I6732
sS'illventil'
p6720
I6733
sS'rooks\x92'
p6721
I2090
sS'extraordinari'
p6722
I6735
sS'tea'
p6723
I6736
sS'tee'
p6724
I2095
sS'teg'
p6725
I6738
sS'rate'
p6726
I6739
sS'pressur'
p6727
I6740
sS'design'
p6728
I6741
sS'whenc'
p6729
I6742
sS'obeis'
p6730
I6743
sS'what'
p6731
I6744
sS'sun'
p6732
I6745
sS'scullion\x92'
p6733
I2797
sS'crust'
p6734
I6747
sS'brief'
p6735
I6748
sS'crush'
p6736
I6749
sS'tickl'
p6737
I6750
sS'deepli'
p6738
I6751
sS'discern'
p6739
I6752
sS'prosaic'
p6740
I6753
sS'themselv'
p6741
I2164
sS'\x91two\x92'
p6742
I6755
sS'tragedi'
p6743
I6756
sS'behaviour'
p6744
I6757
sS'berkeley'
p6745
I6758
sS'goodby'
p6746
I6759
sS'naval'
p6747
I6760
sS'1840'
p6748
I6761
sS'and\x97and\x97her'
p6749
I5838
sS'acorn'
p6750
I6763
sS'snuf'
p6751
I6764
sS'voyag'
p6752
I6765
sS'herring'
p6753
I6766
sS'proceed'
p6754
I2289
sS'faint'
p6755
I6768
sS'rustic'
p6756
I6769
sS'minor'
p6757
I6770
sS'waxen'
p6758
I6771
sS'flat'
p6759
I6772
sS'flaw'
p6760
I6773
sS'flay'
p6761
I6774
sS'\x91em'
p6762
I5488
sS'stick'
p6763
I6776
sS'known'
p6764
I6777
sS'glad'
p6765
I2366
sS'youth\x97sh'
p6766
I2371
sS'valuabl'
p6767
I2377
sS'outlin'
p6768
I6781
sS'say\x97\x93i'
p6769
I6782
sS'sentri'
p6770
I6783
sS'intercours'
p6771
I6784
sS'poni'
p6772
I6785
sS'\x93what\x92'
p6773
I2437
sS'marriage\x94\x97but'
p6774
I6787
sS'swung'
p6775
I6788
sS'horse\x92'
p6776
I6789
sS'cours'
p6777
I6790
sS'court'
p6778
I6791
sS'divid'
p6779
I6792
sS'rather'
p6780
I6793
sS'bawdi'
p6781
I6794
sS'divin'
p6782
I6795
sS'odder'
p6783
I2994
sS'goat'
p6784
I6797
sS'mould'
p6785
I6798
sS'sandwich'
p6786
I6799
sS'resourc'
p6787
I2512
sS'w'
p6788
I6801
sS'embalm'
p6789
I6802
sS'reflect'
p6790
I6803
sS'lady\x97\x97which'
p6791
I6804
sS'short'
p6792
I6805
sS'blackamoor'
p6793
I6806
sS'it\x92'
p6794
I6807
sS'jove'
p6795
I6808
sS'ambigu'
p6796
I6809
sS'caus'
p6797
I2580
sS'shore'
p6798
I6811
sS'chiefli'
p6799
I6812
sS'shade'
p6800
I6813
sS'\x93haunt'
p6801
I6814
sS'shorn'
p6802
I6815
sS'began'
p6803
I6816
sS'before\x93look'
p6804
I6817
sS'flaunt'
p6805
I6818
sS'dusting\x94'
p6806
I6819
sS'story\x97sk'
p6807
I6820
sS'croon'
p6808
I1467
sS'glide'
p6809
I6822
sS'pray'
p6810
I6823
sS'inward'
p6811
I6824
sS'abbey'
p6812
I6825
sS'mattress'
p6813
I6826
sS'scot'
p6814
I6827
sS'surprisingly\x97sasha'
p6815
I6828
sS'stephen'
p6816
I2671
sS'might'
p6817
I6830
sS'alter'
p6818
I6831
sS'there\x97al'
p6819
I5888
sS'prodigi'
p6820
I6832
sS'return'
p6821
I6833
sS'hunter'
p6822
I6834
sS'somebodi'
p6823
I6835
sS'bigger'
p6824
I6836
sS'intricaci'
p6825
I6837
sS'virtu'
p6826
I5115
sS'voice\x97\x93tel'
p6827
I6838
sS'policeman'
p6828
I6839
sS'l\x92s'
p6829
I6840
sS'tactless'
p6830
I6841
sS'ceas'
p6831
I6842
sS'oldish'
p6832
I6843
sS'friendship'
p6833
I6844
sS'truncat'
p6834
I6845
sS'weight'
p6835
I6846
sS'colder'
p6836
I6847
sS'gun'
p6837
I6848
sS'duchess'
p6838
I6849
sS'expect'
p6839
I6850
sS'inflict'
p6840
I6851
sS'indistinguish'
p6841
I6852
sS'englishwoman\x97her'
p6842
I6853
sS'm\x92lady\x94'
p6843
I6854
sS'disquiet'
p6844
I6855
sS'unknown'
p6845
I7375
sS'loll'
p6846
I6856
sS'candour'
p6847
I6857
sS'health'
p6848
I6858
sS'hill'
p6849
I6859
sS'reverenc'
p6850
I6860
sS'name\x97a'
p6851
I6861
sS'd\x92you'
p6852
I6862
sS'monotoni'
p6853
I6863
sS'advanc'
p6854
I6864
sS'friday'
p6855
I6865
sS'guess'
p6856
I6866
sS'james\x92'
p6857
I6867
sS'james\x94'
p6858
I6868
sS'tenderest'
p6859
I6869
sS'teach'
p6860
I6870
sS'say\x97someth'
p6861
I6871
sS'ecstasy\x94'
p6862
I6872
sS'thrown'
p6863
I6873
sS'thread'
p6864
I6874
sS'didn\x92t'
p6865
I6875
sS'perhap'
p6866
I6876
sS'circuit'
p6867
I6877
sS'midwif'
p6868
I6878
sS'waggon'
p6869
I6216
sS'fritillaries\x97admir'
p6870
I2928
sS'feed'
p6871
I6880
sS'sympathi'
p6872
I6881
sS'dine'
p6873
I6882
sS'feel'
p6874
I6883
sS'woolgath'
p6875
I6884
sS'feet'
p6876
I6885
sS'sailor'
p6877
I6886
sS'dint'
p6878
I6887
sS'now\x97ther'
p6879
I6888
sS'blank'
p6880
I6889
sS'fanci'
p6881
I6890
sS'discompos'
p6882
I6891
sS'183'
p6883
I74
sS'spittoon'
p6884
I6893
sS'180'
p6885
I6894
sS'swarm'
p6886
I6895
sS'stori'
p6887
I6896
sS'storm'
p6888
I6897
sS'sward'
p6889
I6898
sS'perambul'
p6890
I6899
sS'store'
p6891
I6900
sS'necklac'
p6892
I6901
sS'night\x92'
p6893
I6902
sS'\x93glawr\x94'
p6894
I6903
sS'subjunct'
p6895
I3026
sS'184'
p6896
I6905
sS'probiti'
p6897
I6906
sS'splenetick'
p6898
I6907
sS'inkpot'
p6899
I6908
sS'fidget'
p6900
I6909
sS'\x91love\x92'
p6901
I6910
sS'counter\x97and'
p6902
I6911
sS'again\x97i'
p6903
I6912
sS'king'
p6904
I6913
sS'kind'
p6905
I6914
sS'kine'
p6906
I6915
sS'\x93they'
p6907
I6916
sS'whenev'
p6908
I6917
sS'remot'
p6909
I6918
sS'superstiti'
p6910
I3072
sS'knive'
p6911
I6920
sS'landaus'
p6912
I6921
sS'glower'
p6913
I6922
sS'goldhilt'
p6914
I6923
sS'stalk'
p6915
I3089
sS'postur'
p6916
I6925
sS'stale'
p6917
I6926
sS'was\x97wa'
p6918
I3102
sS'atmospher'
p6919
I6928
sS'strengthen'
p6920
I6929
sS'marbl'
p6921
I6930
sS'\x91s\x92'
p6922
I3133
sS'engulf'
p6923
I6132
sS'gall'
p6924
I6933
sS'dedic'
p6925
I6934
sS'oak'
p6926
I6935
sS'floriat'
p6927
I6936
sS'lips\x97which'
p6928
I6937
sS'rhapsodis'
p6929
I6938
sS'gill'
p6930
I6939
sS'disposit'
p6931
I6067
sS'reckon'
p6932
I3200
sS'gile'
p6933
I6941
sS'reach'
p6934
I6942
sS'bonthrop\x97leapt'
p6935
I6943
sS'midsumm'
p6936
I6944
sS'77'
p6937
I6945
sS'76'
p6938
I6946
sS'75'
p6939
I6947
sS'pillar\x97captain'
p6940
I3220
sS'73'
p6941
I6949
sS'72'
p6942
I6950
sS'71'
p6943
I6951
sS'70'
p6944
I6952
sS'gilt'
p6945
I6953
sS'79'
p6946
I6954
sS'78'
p6947
I3227
sS'mateless'
p6948
I6956
sS'woman\x97ther'
p6949
I6957
sS'nobil'
p6950
I6958
sS'ridicul'
p6951
I6959
sS'barter'
p6952
I6960
sS'melodi'
p6953
I6961
sS'fond'
p6954
I6962
sS'editor@rosettabookscom'
p6955
I6963
sS'penalti'
p6956
I6964
sS'anvil'
p6957
I6965
sS'firewood'
p6958
I6966
sS'sheppard'
p6959
I6967
sS'blazing\x97such'
p6960
I6968
sS'\x91one\x92'
p6961
I6969
sS'hip'
p6962
I6970
sS'shepherd'
p6963
I6971
sS'his'
p6964
I6972
sS'can\x92t'
p6965
I6973
sS'equivoc'
p6966
I6974
sS'impervi'
p6967
I6975
sS'obtain'
p6968
I7541
sS'here\x97there\x97there\x97england'
p6969
I6977
sS'false\x94'
p6970
I6978
sS'hid'
p6971
I6979
sS'longest'
p6972
I6980
sS'him'
p6973
I3377
sS'cacophon'
p6974
I6982
sS'\x93would'
p6975
I6983
sS'spirt'
p6976
I6225
sS'opposites\x97of'
p6977
I6984
sS'love\x97but'
p6978
I6985
sS'relentless'
p6979
I6986
sS'wrote'
p6980
I6987
sS'forego'
p6981
I6988
sS'art'
p6982
I6989
sS'dishclout'
p6983
I6990
sS'coagul'
p6984
I6991
sS'machineri'
p6985
I7080
sS'mutabl'
p6986
I6992
sS'birrel'
p6987
I6993
sS'arc'
p6988
I6994
sS'bare'
p6989
I3455
sS'alarming\x97thi'
p6990
I3457
sS'barg'
p6991
I6997
sS'bark'
p6992
I6998
sS'arm'
p6993
I6999
sS'barn'
p6994
I7000
sS'learnt'
p6995
I7001
sS'gentlier'
p6996
I7002
sS'enclosur'
p6997
I7003
sS'various'
p6998
I7004
sS'lopokova'
p6999
I7005
sS'sold'
p7000
I7006
sS'sole'
p7001
I7007
sS'aspir'
p7002
I7008
sS'couldn\x92t'
p7003
I7009
sS'outfit'
p7004
I7010
sS'succeed'
p7005
I7011
sS'rarer'
p7006
I3553
sS'solv'
p7007
I7013
sS'tumbledown'
p7008
I7014
sS'hairi'
p7009
I7015
sS'c'
p7010
I7016
sS'tawni'
p7011
I7549
sS'dabbl'
p7012
I7018
sS'context'
p7013
I7019
sS'nightfal'
p7014
I7020
sS'carniv'
p7015
I7022
sS'cynic'
p7016
I7023
sS'sloth'
p7017
I7024
sS'distress'
p7018
I7025
sS'nettleb'
p7019
I7026
sS'sweet'
p7020
I7027
sS'feathers\x97th'
p7021
I7028
sS'sweep'
p7022
I7029
sS'harbour'
p7023
I7030
sS'peror'
p7024
I7031
sS'confess\x97h'
p7025
I7032
sS'rave'
p7026
I7033
sS'mistak'
p7027
I7034
sS'acrid'
p7028
I7035
sS'hallow\x92d'
p7029
I7036
sS'due'
p7030
I7037
sS'dug'
p7031
I7038
sS'whom'
p7032
I7039
sS'woke'
p7033
I7040
sS'where\x92'
p7034
I7041
sS'flight'
p7035
I7042
sS'gamekeeper\x92'
p7036
I7043
sS'softest'
p7037
I7044
sS'dislodg'
p7038
I7045
sS'people\x92'
p7039
I7046
sS'demand'
p7040
I7047
sS'stolen'
p7041
I7048
sS'workmen'
p7042
I7049
sS'frozen'
p7043
I7050
sS'incognita'
p7044
I7052
sS'bright\x97that'
p7045
I7053
sS'abov'
p7046
I7054
sS'\x93love\x94'
p7047
I7055
sS'incognito'
p7048
I7056
sS'ecstasi'
p7049
I7057
sS'leant'
p7050
I7058
sS'adulter'
p7051
I7059
sS'interlac'
p7052
I7060
sS'rim'
p7053
I7061
sS'him\x97and'
p7054
I7062
sS'there\x94'
p7055
I7063
sS'rig'
p7056
I7064
sS'rid'
p7057
I7065
sS'rib'
p7058
I3823
sS'there\x92'
p7059
I7067
sS'twofold'
p7060
I7068
sS'shirt'
p7061
I7069
sS'higher'
p7062
I7070
sS'chequer'
p7063
I7071
sS'indebt'
p7064
I7072
sS'painless'
p7065
I7073
sS'wherea'
p7066
I7074
sS'birch'
p7067
I7075
sS'impedi'
p7068
I7076
sS'robust'
p7069
I7077
sS'wherev'
p7070
I7078
sS'lower'
p7071
I7079
sS'equival'
p7072
I1172
sS'cheek'
p7073
I7081
sS'disburs'
p7074
I7082
sS'cheer'
p7075
I7083
sS'gunfir'
p7076
I3941
sS'anybodi'
p7077
I7085
sS'propos'
p7078
I7086
sS'pollen'
p7079
I7087
sS'roumanian'
p7080
I7088
sS'unseen'
p7081
I7089
sS'collabor'
p7082
I7090
sS'women\x92'
p7083
I7091
sS'women\x94'
p7084
I7092
sS'meanest'
p7085
I7093
sS'forster\x92'
p7086
I7094
sS'\x93mark'
p7087
I7095
sS'sapphir'
p7088
I7096
sS'moodi'
p7089
I7097
sS'\x93sale'
p7090
I7098
sS'awaken'
p7091
I7099
sS'\x91all'
p7092
I7565
sS'apologis'
p7093
I7101
sS'confront'
p7094
I7102
sS'seventytwo'
p7095
I7103
sS'earthquak'
p7096
I7104
sS'collect'
p7097
I4138
sS'arthur'
p7098
I7106
sS'corner\x97a'
p7099
I7107
sS'embroid'
p7100
I7108
sS'lacquer'
p7101
I7109
sS'understood'
p7102
I7110
sS'litter'
p7103
I7111
sS'surpris'
p7104
I7112
sS'saucer'
p7105
I7113
sS'prow'
p7106
I7114
sS'seller'
p7107
I7115
sS'maccartbi'
p7108
I4238
sS'table\x94'
p7109
I7117
sS'sag'
p7110
I685
sS'cumberland\x92'
p7111
I3991
sS'squeez'
p7112
I7119
sS'negress'
p7113
I7120
sS'dormant'
p7114
I7121
sS'cautious'
p7115
I7122
sS'raucous'
p7116
I7123
sS'tortuous'
p7117
I7124
sS'suffus'
p7118
I7125
sS'wineglass'
p7119
I7126
sS'table\x97and'
p7120
I7127
sS'stricken'
p7121
I7128
sS'masterpiec'
p7122
I7129
sS'miracl'
p7123
I7130
sS'emphasi'
p7124
I7131
sS'conquest'
p7125
I7132
sS'holster'
p7126
I4417
sS'vagabond'
p7127
I7134
sS'artifici'
p7128
I4426
sS'mimicri'
p7129
I7136
sS'question'
p7130
I7137
sS'compliment\x97say'
p7131
I6375
sS'long'
p7132
I4449
sS'gainsaid'
p7133
I7140
sS'indomit'
p7134
I7141
sS'shel'
p7135
I7142
sS'vienna'
p7136
I7143
sS'rain\x94'
p7137
I7144
sS'glamour'
p7138
I7145
sS'cloth'
p7139
I7146
sS'crank'
p7140
I7147
sS'orgul'
p7141
I4519
sS'warhors'
p7142
I7149
sS'consist'
p7143
I7150
sS'peppermint'
p7144
I7151
sS'fittingly\x97bi'
p7145
I7152
sS'growth'
p7146
I7578
sS'gallantri'
p7147
I7154
sS'compounded\x94'
p7148
I7155
sS'shabbi'
p7149
I7051
sS'enlarg'
p7150
I7157
sS'tiniest'
p7151
I7158
sS'dismay'
p7152
I7159
sS'unauthent'
p7153
I7160
sS'spontan'
p7154
I7161
sS'whirligig'
p7155
I4621
sS'rainbow'
p7156
I7163
sS'tone'
p7157
I5602
sS'westminst'
p7158
I7165
sS'edward\x97se'
p7159
I7166
sS'nick'
p7160
I7167
sS'nich'
p7161
I7168
sS'caparison'
p7162
I7169
sS'ferment'
p7163
I7170
sS'shelmerdine\x94'
p7164
I7171
sS'mock'
p7165
I7172
sS'nice'
p7166
I7173
sS'somethingnoth'
p7167
I7174
sS'mustard'
p7168
I7175
sS'smitten'
p7169
I7176
sS'\x93are'
p7170
I7177
sS'elsewher'
p7171
I7178
sS'insect'
p7172
I7179
sS'weigh'
p7173
I7180
sS'vigil'
p7174
I7181
sS'happier'
p7175
I7182
sS'vice'
p7176
I7183
sS'be\x97no'
p7177
I7184
sS'scroll'
p7178
I7185
sS'trifl'
p7179
I4750
sS'edg'
p7180
I7187
sS'dispel'
p7181
I7188
sS'nothing\x97sh'
p7182
I7189
sS'sparrow'
p7183
I7190
sS'sex\x94'
p7184
I7191
sS'pyrotechni'
p7185
I7192
sS'breach'
p7186
I7193
sS'one\x97al'
p7187
I7194
sS'whichev'
p7188
I7195
sS'it\x97except'
p7189
I7196
sS'duffl'
p7190
I7197
sS'angleterr'
p7191
I7198
sS'spoon'
p7192
I4879
sS'ones\x94'
p7193
I7200
sS'tentshap'
p7194
I7201
sS'disgrac'
p7195
I7202
sS'glawr'
p7196
I7203
sS'illpav'
p7197
I7204
sS'mirag'
p7198
I7205
sS'pleas'
p7199
I7206
sS'smaller'
p7200
I7207
sS'dagmar'
p7201
I7208
sS'battl'
p7202
I7209
sS'fold'
p7203
I7210
sS'sciatica'
p7204
I7211
sS'ladyship'
p7205
I7212
sS'compar'
p7206
I7213
sS'twentynin'
p7207
I7214
sS'worshipp'
p7208
I7215
sS'loggerhead'
p7209
I7216
sS'vibrat'
p7210
I7217
sS'chose'
p7211
I7218
sS'giant'
p7212
I7219
sS'astrid'
p7213
I7220
sS'coverlet'
p7214
I7221
sS'waiter\x92'
p7215
I7222
sS'survivor'
p7216
I7223
sS'larger'
p7217
I7224
sS'asphodel'
p7218
I7225
sS'wind\x92'
p7219
I7226
sS'\x93bi'
p7220
I7227
sS'deck\x97a'
p7221
I7228
sS'wind\x94'
p7222
I7229
sS'hardi'
p7223
I7230
sS'shovel'
p7224
I7231
sS'crumpet'
p7225
I7232
sS'redupl'
p7226
I7233
sS'appli'
p7227
I7234
sS'politest'
p7228
I7235
sS'apt'
p7229
I7236
sS'motor'
p7230
I7237
sS'duck'
p7231
I5172
sS'ape'
p7232
I7239
sS'use'
p7233
I5196
sS'from'
p7234
I7241
sS'&'
p7235
I7242
sS'unburi'
p7236
I5216
sS'few'
p7237
I7244
sS'purpledark'
p7238
I7245
sS'dishevel'
p7239
I7246
sS'before\x97a'
p7240
I7247
sS'sort'
p7241
I5231
sS'parliament'
p7242
I7249
sS'porch'
p7243
I7250
sS'detail'
p7244
I7251
sS'heir'
p7245
I5249
sS'crusad'
p7246
I5262
sS'inconst'
p7247
I7254
sS'women'
p7248
I7255
sS'annoy'
p7249
I7256
sS'started\x97and'
p7250
I7257
sS'denounc'
p7251
I1547
sS'stroke'
p7252
I7259
sS'lumber'
p7253
I5298
sS'grassi'
p7254
I5524
sS'condescens'
p7255
I7262
sS'tap'
p7256
I7263
sS'pennyalin'
p7257
I7264
sS'rapt'
p7258
I7265
sS'condescend'
p7259
I7266
sS'\x93madam\x94'
p7260
I7267
sS'creamcolour'
p7261
I7268
sS'rape'
p7262
I7269
sS'sir'
p7263
I7270
sS'sip'
p7264
I7271
sS'sit'
p7265
I7272
sS'six'
p7266
I7273
sS'parlour'
p7267
I7274
sS'briar'
p7268
I7275
sS'occur'
p7269
I7276
sS'swear'
p7270
I7607
sS'instead'
p7271
I7278
sS'occup'
p7272
I7279
sS'panic'
p7273
I7280
sS'memoir'
p7274
I5401
sS'insurrect'
p7275
I7282
sS'tension'
p7276
I7283
sS'cupboard'
p7277
I7284
sS'attend'
p7278
I7285
sS'hazard'
p7279
I7286
sS'us\x97'
p7280
I7287
sS'discomfort'
p7281
I7288
sS'us\x94'
p7282
I7289
sS'wrist'
p7283
I7290
sS'attent'
p7284
I7291
sS'\x93tell'
p7285
I7292
sS'footpath'
p7286
I7293
sS'lover\x94\x97a'
p7287
I7294
sS'fratern'
p7288
I7295
sS'villag'
p7289
I7296
sS'light'
p7290
I7297
sS'arduous'
p7291
I7298
sS'it\x97wa'
p7292
I7299
sS'feeling\x97on'
p7293
I7300
sS'hereabout'
p7294
I7301
sS'wrinkl'
p7295
I7302
sS'tenderheart'
p7296
I7303
sS'audley'
p7297
I7304
sS'month\x97which'
p7298
I7305
sS'133'
p7299
I7306
sS'132'
p7300
I7307
sS'131'
p7301
I7308
sS'130'
p7302
I5511
sS'137'
p7303
I5512
sS'136'
p7304
I7311
sS'135'
p7305
I7312
sS'134'
p7306
I5514
sS'139'
p7307
I7314
sS'138'
p7308
I7315
sS'ambiti'
p7309
I7316
sS'armchair\x97h'
p7310
I7317
sS'earlier'
p7311
I6642
sS'superior'
p7312
I7319
sS'restrain'
p7313
I7320
sS'glisten'
p7314
I7374
sS'turban'
p7315
I7321
sS'crash'
p7316
I7322
sS'flew'
p7317
I7323
sS'him\x97went'
p7318
I7324
sS'emerald'
p7319
I5599
sS'flee'
p7320
I7326
sS'fled'
p7321
I7327
sS'billi'
p7322
I7328
sS'amiabl'
p7323
I5614
sS'profound'
p7324
I7330
sS'edit'
p7325
I7331
sS'feast'
p7326
I7332
sS'trap'
p7327
I7334
sS'ambassador\x92'
p7328
I7335
sS'tray'
p7329
I7336
sS'world\x92'
p7330
I7337
sS'ambassadori'
p7331
I5658
sS'world\x94'
p7332
I7339
sS'88'
p7333
I7340
sS'89'
p7334
I7341
sS'82'
p7335
I7342
sS'our'
p7336
I5692
sS'80'
p7337
I7344
sS'81'
p7338
I7345
sS'bill\x94'
p7339
I5699
sS'87'
p7340
I7347
sS'84'
p7341
I7348
sS'85'
p7342
I5707
sS'nowadays\x94'
p7343
I7350
sS'goatskin'
p7344
I1484
sS'vehement'
p7345
I7352
sS'terrorstricken'
p7346
I7353
sS'disappear'
p7347
I4065
sS'impart'
p7348
I7354
sS'excess'
p7349
I2868
sS'utensil'
p7350
I7357
sS'wretch\x94'
p7351
I7358
sS'ship\x92'
p7352
I7359
sS'tenement'
p7353
I7360
sS'bawl'
p7354
I4990
sS'\x93was'
p7355
I5772
sS'river'
p7356
I7363
sS'mirrle'
p7357
I1511
sS'waterlog'
p7358
I7365
sS'illicit'
p7359
I7366
sS'vin\x97'
p7360
I3135
sS'adrian'
p7361
I7368
sS'isbn'
p7362
I7369
sS'echo'
p7363
I5845
sS'bonnet'
p7364
I7371
sS'eleventh'
p7365
I7372
sS'heartless'
p7366
I7645
sS'shapeliest'
p7367
I7373
sS'droop'
p7368
I6611
sS'seventeen\x97and'
p7369
I6298
sS'trembl'
p7370
I5880
sS'capac'
p7371
I7377
sS'\x91mot'
p7372
I7378
sS'their'
p7373
I7379
sS'battlement'
p7374
I7380
sS'whitefac'
p7375
I7381
sS'boil'
p7376
I7382
sS'shell'
p7377
I7383
sS'juli'
p7378
I7384
sS'shallow'
p7379
I7385
sS'snow\x97so'
p7380
I7386
sS'roof\x97for'
p7381
I7387
sS'shelv'
p7382
I7355
sS'rariti'
p7383
I7389
sS'clip'
p7384
I7390
sS'fowl'
p7385
I7391
sS'dernier\x94'
p7386
I7392
sS'fetter'
p7387
I7393
sS'westward'
p7388
I7394
sS'addison\x97thos'
p7389
I7395
sS'pallor'
p7390
I7396
sS'sconc'
p7391
I7397
sS'afraid'
p7392
I7398
sS'florid'
p7393
I7399
sS'bough'
p7394
I6051
sS'rous'
p7395
I7401
sS'lope'
p7396
I7402
sS'which'
p7397
I7403
sS'roug'
p7398
I7404
sS'divert'
p7399
I7405
sS'shel\x94'
p7400
I7406
sS'divers'
p7401
I7407
sS'wondered\x97but'
p7402
I7408
sS'who'
p7403
I7409
sS'whi'
p7404
I7410
sS'multitud'
p7405
I7411
sS'class'
p7406
I7412
sS'clasp'
p7407
I7413
sS'consort'
p7408
I7414
sS'honour\x97and'
p7409
I7415
sS'pipe'
p7410
I7416
sS'deni'
p7411
I7417
sS'\x93time'
p7412
I7418
sS'determin'
p7413
I7419
sS'someth'
p7414
I7420
sS'niec'
p7415
I7421
sS'mistook'
p7416
I7422
sS'whistl'
p7417
I7423
sS'upright'
p7418
I7148
sS'bellfor'
p7419
I7424
sS'utter'
p7420
I7425
sS'fear'
p7421
I7426
sS'darkest'
p7422
I7427
sS'kneebreech'
p7423
I7428
sS'culmin'
p7424
I7429
sS'nearer'
p7425
I7430
sS'ear'
p7426
I7431
sS'brushwood'
p7427
I7432
sS'eat'
p7428
I7433
sS'piano'
p7429
I7434
sS'isham'
p7430
I7435
sS'vigor'
p7431
I7436
sS'nicholas\x92'
p7432
I6280
sS'sued'
p7433
I7438
sS'nicholas\x94'
p7434
I7439
sS'contribut'
p7435
I7440
sS'wordi'
p7436
I7441
sS'made'
p7437
I7628
sS'\x93that'
p7438
I7442
sS'spur'
p7439
I7443
sS'humours\x97of'
p7440
I7444
sS'temp'
p7441
I7629
sS'\x91beautiful\x92'
p7442
I7446
sS'\x93after'
p7443
I7447
sS'leviathan'
p7444
I7448
sS'compliment'
p7445
I7449
sS'ascertain'
p7446
I7450
sS'view'
p7447
I7451
sS'unison'
p7448
I7452
sS'ostler'
p7449
I5556
sS'disastr'
p7450
I7453
sS'expel'
p7451
I7454
sS'knowledg'
p7452
I7455
sS'troubl'
p7453
I7631
sS'violet'
p7454
I7457
sS'vie\x94'
p7455
I7458
sS'closer'
p7456
I7459
sS'entranc'
p7457
I7460
sS'braid'
p7458
I7461
sS'veil\x97but'
p7459
I7462
sS'closet'
p7460
I7463
sS'enamour'
p7461
I7464
sS'monstrous'
p7462
I7465
sS'superb'
p7463
I7466
sS'genius'
p7464
I6454
sS'one\x92'
p7465
I7468
sS'crude'
p7466
I7469
sS'bought'
p7467
I7470
sS'entic'
p7468
I7471
sS'jot'
p7469
I7472
sS'amen'
p7470
I7473
sS'joy'
p7471
I7474
sS'sackvillewest'
p7472
I7475
sS'job'
p7473
I7476
sS'entir'
p7474
I7477
sS'joe'
p7475
I7478
sS'spoil'
p7476
I7479
sS'exclam'
p7477
I7480
sS'swift'
p7478
I7481
sS'addit'
p7479
I7482
sS'nonent'
p7480
I7483
sS'crumbl'
p7481
I5829
sS'april'
p7482
I7485
sS'bront'
p7483
I6565
sS'bronz'
p7484
I7487
sS'articul'
p7485
I7488
sS'wale'
p7486
I7489
sS'wall'
p7487
I7490
sS'arriv'
p7488
I7491
sS'walk'
p7489
I7492
sS'respect'
p7490
I7493
sS'withdrawn'
p7491
I7494
sS'decent'
p7492
I7495
sS'daphn'
p7493
I7496
sS'compos'
p7494
I6656
sS'for\x97ne'
p7495
I7498
sS'reindeer'
p7496
I7499
sS'besid'
p7497
I7500
sS'decenc'
p7498
I7501
sS'treasur'
p7499
I7502
sS'presenc'
p7500
I7503
sS'present'
p7501
I7504
sS'either\x97of'
p7502
I7505
sS'kerchief'
p7503
I7506
sS'restaur'
p7504
I7507
sS'will'
p7505
I7508
sS'wild'
p7506
I7509
sS'observ'
p7507
I7510
sS'thus'
p7508
I7511
sS'sardin'
p7509
I7512
sS'thud'
p7510
I7513
sS'apprehens'
p7511
I7514
sS'butcher\x92'
p7512
I7515
sS'wordsworth'
p7513
I7516
sS'cross'
p7514
I7517
sS'midwint'
p7515
I7518
sS'member'
p7516
I7519
sS'inch'
p7517
I7520
sS'tightlybutton'
p7518
I7521
sS'difficult'
p7519
I7522
sS'parthenon'
p7520
I7523
sS'slave'
p7521
I7524
sS'diplomat'
p7522
I7638
sS'beast'
p7523
I7526
sS'halfcrown'
p7524
I7527
sS'whale'
p7525
I7528
sS'collar'
p7526
I7529
sS'gutter'
p7527
I7530
sS'composur'
p7528
I7531
sS'\x93lord'
p7529
I7639
sS'harpi'
p7530
I7532
sS'camphor'
p7531
I7533
sS'english'
p7532
I7534
sS'dignitari'
p7533
I7535
sS'conquer'
p7534
I6324
sS'dressingt'
p7535
I7537
sS'rocket'
p7536
I7538
sS'camel'
p7537
I7539
sS'wren'
p7538
I7540
sS'affright'
p7539
I6976
sS'heavili'
p7540
I7542
sS'biologist'
p7541
I7543
sS'simultan'
p7542
I7544
sS'azalea'
p7543
I7545
sS'distend'
p7544
I7546
sS'\x91the'
p7545
I7547
sS'rapid'
p7546
I1910
sS'but\x97girl'
p7547
I7017
sS'drunk'
p7548
I7550
sS'sky'
p7549
I4331
sS'discuss'
p7550
I7552
sS'other'
p7551
I7643
sS'boom'
p7552
I7644
sS'knob'
p7553
I7555
sS'meteor'
p7554
I3689
sS'mine\x94'
p7555
I7557
sS'consumm'
p7556
I7558
sS'assert'
p7557
I1682
sS'know'
p7558
I7560
sS'knot'
p7559
I7561
sS'press'
p7560
I7562
sS'hollow'
p7561
I7563
sS'acts\x94'
p7562
I7564
sS'name'
p7563
I6328
sS'strange\x97it'
p7564
I7100
sS'incred'
p7565
I7566
sS'carlyle\x92'
p7566
I7567
sS'broadcloth'
p7567
I7568
sS'tennyson'
p7568
I7569
sS'persia\x94'
p7569
I7356
sS'scuttl'
p7570
I7571
sS'exceed'
p7571
I7572
sS'scottish'
p7572
I7573
sS'coronet\x94'
p7573
I7574
sS'115'
p7574
I7575
sS'114'
p7575
I7576
sS'117'
p7576
I7577
sS'116'
p7577
I7153
sS'111'
p7578
I7579
sS'110'
p7579
I4048
sS'113'
p7580
I7581
sS'112'
p7581
I7582
sS'seleuchi'
p7582
I7650
sS'119'
p7583
I7584
sS'118'
p7584
I7585
sS'wellesley'
p7585
I7586
sS'leaf'
p7586
I7587
sS'lead'
p7587
I7588
sS'leak'
p7588
I7589
sS'lean'
p7589
I7590
sS'lear'
p7590
I7591
sS'leap'
p7591
I7592
sS'leav'
p7592
I7593
sS'settl'
p7593
I7594
sS'troup'
p7594
I7595
sS'stewkley\x92'
p7595
I7596
sS'investig'
p7596
I7597
sS'obey'
p7597
I7598
sS'superstit'
p7598
I7599
sS'twangl'
p7599
I7653
sS'once\x97to'
p7600
I7600
sS'throne'
p7601
I7601
sS'pike'
p7602
I7602
sS'rare'
p7603
I7603
sS'linger'
p7604
I7604
sS'column'
p7605
I7605
sS'biscuit'
p7606
I7606
sS'carrier'
p7607
I7277
sS'hawkin'
p7608
I7608
sS'disabl'
p7609
I7609
sS'owl'
p7610
I7610
sS'own'
p7611
I7611
sS'owe'
p7612
I7612
sS'automat'
p7613
I7613
sS'crowing\x97al'
p7614
I7614
sS'weather'
p7615
I7333
sS'brush'
p7616
I7616
sS'o\x92er'
p7617
I7617
sS'topboom'
p7618
I7618
sS'shakespeare\x92'
p7619
I7619
sS'transfer'
p7620
I7620
sS'*'
p7621
I7621
sS'spiral'
p7622
I7622
sS'humbl'
p7623
I7660
sS'misjudg'
p7624
I7623
sS'appl'
p7625
I7624
sS'nourish'
p7626
I7625
sS'mutter'
p7627
I7626
sS'banquetinghal'
p7628
I7627
sS'not\x97heaven'
p7629
I3006
sS'puddl'
p7630
I7445
sS'whether'
p7631
I7630
sS'distract'
p7632
I7456
sS'venetian'
p7633
I7632
sS'record'
p7634
I7633
sS'below'
p7635
I7634
sS'cake'
p7636
I7635
sS'goldmount'
p7637
I7636
sS'fourinhand'
p7638
I7637
sS'seem\x97her'
p7639
I7525
sS'breathing\x97and'
p7640
I7570
sS'glint'
p7641
I3360
sS'boot'
p7642
I7641
sS'\x91her\x92'
p7643
I7642
sS'book'
p7644
I7553
sS'gannet'
p7645
I7554
sS'sick'
p7646
I3233
sS'verdigri'
p7647
I7646
sS'credul'
p7648
I7647
sS'withstood'
p7649
I7648
sS'nelson\x94'
p7650
I7649
sS'quietud'
p7651
I7583
sS'rhapsodi'
p7652
I7651
sS'june'
p7653
I7652
sS'shown'
p7654
I2514
sS'captain\x92'
p7655
I7654
sS'margaret'
p7656
I7655
sS'counterpan'
p7657
I7656
sS'this\x94'
p7658
I7657
sS'squeak'
p7659
I7658
sS'kindl'
p7660
I7659
sS'decemb'
p7661
I3702
sS'fickl'
p7662
I7661
sS'cliff'
p7663
I7662
sS'insipid'
p7664
I7663
sS'thigh\x97i'
p7665
I7664
sS'jewel'
p7666
I7665
sS'vane'
p7667
I7666
sS'invari'
p7668
I7667
s.