(dp0
S'how\xe2\x80\x99'
p1
I0
sS'yellow'
p2
I1
sS'four'
p3
I2
sS'two\xe2\x80\x94\xe2\x80\x9d'
p4
I3
sS'midafternoon'
p5
I4
sS'surprise\xe2\x80\x94h'
p6
I5
sS'lord'
p7
I6
sS'let\xe2\x80\x99'
p8
I7
sS'digit'
p9
I8
sS'deli'
p10
I9
sS'design\xe2\x80\x9d'
p11
I10
sS'disturb'
p12
I11
sS'heartshap'
p13
I12
sS'prize'
p14
I110
sS'wooden'
p15
I14
sS'wednesday'
p16
I15
sS'\xe2\x80\x9ceighteen'
p17
I16
sS'crotch'
p18
I17
sS'oooh'
p19
I18
sS'miller'
p20
I19
sS'bacon'
p21
I20
sS'budget'
p22
I21
sS'second'
p23
I22
sS'276'
p24
I23
sS'didn\xe2\x80\x99t\xe2\x80\x9d'
p25
I24
sS'intellectu'
p26
I25
sS'crouch'
p27
I220
sS'here'
p28
I27
sS'china'
p29
I28
sS'dorm'
p30
I245
sS'dori'
p31
I30
sS'fine\xe2\x80\x9d'
p32
I31
sS'k'
p33
I32
sS'pastur'
p34
I33
sS'suckedoff'
p35
I34
sS'fumbl'
p36
I35
sS'golden'
p37
I36
sS'reichel'
p38
I37
sS'brought'
p39
I38
sS'marina'
p40
I39
sS'\xe2\x80\x9ctimmi'
p41
I40
sS'stern'
p42
I41
sS'unit'
p43
I42
sS'symphoni'
p44
I43
sS'\xe2\x80\x9creturn'
p45
I315
sS'music'
p46
I45
sS'strike'
p47
I46
sS'until'
p48
I47
sS'buddi'
p49
I2730
sS'\xe2\x80\x9charry\xe2\x80\x9d'
p50
I49
sS'relax'
p51
I50
sS'payroll\xe2\x80\x9d'
p52
I51
sS'notic'
p53
I52
sS'hurt'
p54
I53
sS'glass'
p55
I54
sS'though\xe2\x80\x94i'
p56
I55
sS'holi'
p57
I56
sS'hurl'
p58
I57
sS'midst'
p59
I379
sS'hold'
p60
I59
sS'accid'
p61
I60
sS'lovelost'
p62
I61
sS'blade'
p63
I62
sS'somethin\xe2\x80\x99'
p64
I63
sS'rework'
p65
I64
sS'obliqu'
p66
I65
sS'cookeri'
p67
I66
sS'\xe2\x80\x9ckeep'
p68
I67
sS'want'
p69
I68
sS'____review\xe2\x80\x94w'
p70
I69
sS'hoe'
p71
I70
sS'hoo'
p72
I71
sS'travel'
p73
I72
sS'how'
p74
I73
sS'hot'
p75
I74
sS'playback'
p76
I75
sS'overpopul'
p77
I76
sS'wrong'
p78
I77
sS'beauti'
p79
I78
sS'stravinski'
p80
I79
sS'\xe2\x80\x9cboy'
p81
I80
sS'typer'
p82
I81
sS'ginsberg'
p83
I82
sS'revolt'
p84
I83
sS'revolv'
p85
I84
sS'wing'
p86
I85
sS'wind'
p87
I86
sS'wine'
p88
I87
sS'what\xe2\x80\x99ll'
p89
I88
sS'\xe2\x80\x9clook'
p90
I89
sS'surrend'
p91
I90
sS'tired\xe2\x80\x9d'
p92
I91
sS'handcuff'
p93
I92
sS'\xe2\x80\x98what'
p94
I93
sS'wrought'
p95
I94
sS'\xe2\x80\x9cgoddamn'
p96
I95
sS'dreamer'
p97
I96
sS'\xe2\x80\x9csex\xe2\x80\x9d'
p98
I97
sS'fit'
p99
I98
sS'fix'
p100
I99
sS'inan'
p101
I100
sS'poems\xe2\x80\x9d'
p102
I101
sS'business\xe2\x80\x9d'
p103
I2737
sS'hidden'
p104
I103
sS'easier'
p105
I104
sS'ok\xe2\x80\x9d'
p106
I105
sS'\xe2\x80\x9cyou'
p107
I106
sS'around\xe2\x80\x9d'
p108
I107
sS'interrupt'
p109
I108
sS'silver'
p110
I109
sS'whitman'
p111
I13
sS'mighty\xe2\x80\x9d'
p112
I111
sS'barton'
p113
I112
sS'hemorrhag'
p114
I113
sS'\xe2\x80\x9couch\xe2\x80\x9d'
p115
I114
sS'laboratori'
p116
I115
sS'spider'
p117
I116
sS'producer\xe2\x80\x99'
p118
I117
sS'fuck\xe2\x80\x9d'
p119
I118
sS'commiss'
p120
I119
sS'ring'
p121
I120
sS'whip'
p122
I121
sS'wristwatch\xe2\x80\x9d'
p123
I122
sS'\xe2\x80\x9cvenice\xe2\x80\x9d'
p124
I123
sS'delight\xe2\x80\x94feel'
p125
I124
sS'\xe2\x80\x9ceverybodi'
p126
I125
sS'$225'
p127
I126
sS'nightmar'
p128
I127
sS'sunland'
p129
I4732
sS'immort'
p130
I129
sS'\xe2\x80\x9cvenic'
p131
I130
sS'ass\xe2\x80\x9d'
p132
I131
sS'ate'
p133
I132
sS'takeout'
p134
I133
sS'unabl'
p135
I134
sS'confus'
p136
I135
sS'anywhere\xe2\x80\x9d'
p137
I136
sS'thumbtack'
p138
I137
sS'wasp'
p139
I138
sS'clariti'
p140
I139
sS'wast'
p141
I140
sS'wash'
p142
I141
sS'instruct'
p143
I142
sS'175'
p144
I143
sS'pulsat'
p145
I144
sS'$6000'
p146
I145
sS'her\xe2\x80\x9d'
p147
I146
sS'master'
p148
I147
sS'recent'
p149
I984
sS'bitter'
p150
I149
sS'listen'
p151
I150
sS'unend'
p152
I151
sS'wisdom'
p153
I152
sS'task'
p154
I153
sS'\xe2\x80\x9ceven'
p155
I154
sS'crawl'
p156
I155
sS'technic'
p157
I913
sS'coward'
p158
I157
sS'tree'
p159
I158
sS'synanon'
p160
I159
sS'shower'
p161
I925
sS'right\xe2\x80\x94ther'
p162
I161
sS'moneyless'
p163
I162
sS'napalm'
p164
I163
sS'runner'
p165
I164
sS'bricks\xe2\x80\x9d'
p166
I165
sS'dozen'
p167
I166
sS'kayo'
p168
I167
sS'that'
p169
I168
sS'ingrown'
p170
I169
sS'season'
p171
I4742
sS'canist'
p172
I171
sS'shall'
p173
I172
sS'object'
p174
I173
sS'\xe2\x80\x9c$500'
p175
I174
sS'mouth'
p176
I175
sS'letter'
p177
I177
sS'unexplain'
p178
I178
sS'tast'
p179
I3776
sS'professor'
p180
I180
sS'camp'
p181
I181
sS'hospit'
p182
I182
sS'\xe2\x80\x9clet'
p183
I183
sS'doesn\xe2\x80\x99t'
p184
I184
sS'scream'
p185
I185
sS'came'
p186
I186
sS'marvel'
p187
I187
sS'bomb'
p188
I188
sS'dickey'
p189
I189
sS'hungari'
p190
I1066
sS'pincay'
p191
I191
sS'floridabr'
p192
I192
sS'ulcer'
p193
I193
sS'menu'
p194
I194
sS'releas'
p195
I1441
sS'restaur'
p196
I195
sS'bust'
p197
I196
sS'bush'
p198
I197
sS'busi'
p199
I198
sS'rich'
p200
I199
sS'buse'
p201
I200
sS'plate'
p202
I201
sS'horserac'
p203
I2745
sS'ceil'
p204
I203
sS'pocket'
p205
I204
sS'cosmos\xe2\x80\x99'
p206
I205
sS'new'
p207
I2746
sS'hooked\xe2\x80\x94h'
p208
I207
sS'sandwich'
p209
I208
sS'professor\xe2\x80\x9d'
p210
I209
sS'respond'
p211
I210
sS'blew'
p212
I211
sS'nice\xe2\x80\x99\xe2\x80\x9d'
p213
I212
sS'\xe2\x80\x9cthose'
p214
I213
sS'fair'
p215
I214
sS'melliflu'
p216
I215
sS'bled'
p217
I216
sS'result'
p218
I217
sS'respons'
p219
I218
sS'fail'
p220
I219
sS'hero'
p221
I26
sS'dollars\xe2\x80\x9d'
p222
I221
sS'hammer'
p223
I222
sS'best'
p224
I223
sS'\xe2\x80\x9cpleas'
p225
I224
sS'for\xe2\x80\x9d'
p226
I225
sS'figur'
p227
I226
sS'yogurt'
p228
I227
sS'\xe2\x80\x9cseventyf'
p229
I228
sS'never'
p230
I2753
sS'painful\xe2\x80\x9d'
p231
I230
sS'extens'
p232
I231
sS'toler'
p233
I232
sS'advertis'
p234
I233
sS'roller'
p235
I234
sS'accident'
p236
I235
sS'piti'
p237
I236
sS'logic'
p238
I237
sS'countri'
p239
I238
sS'nixon\xe2\x80\x99'
p240
I239
sS'postoffic'
p241
I1329
sS'assup'
p242
I241
sS'assur'
p243
I242
sS'vain'
p244
I243
sS'legs\xe2\x80\x9d'
p245
I244
sS'cult'
p246
I29
sS'idea\xe2\x80\x94thanks\xe2\x80\x9d'
p247
I246
sS'union'
p248
I247
sS'fri'
p249
I248
sS'mercy\xe2\x80\x9d'
p250
I249
sS'cue'
p251
I250
sS'much'
p252
I251
sS'\xe2\x80\x9care'
p253
I252
sS'tallest'
p254
I253
sS'life'
p255
I254
sS'regul'
p256
I255
sS'spit'
p257
I256
sS'caf\xc3\xa9'
p258
I257
sS'bitter\xe2\x80\x9d'
p259
I258
sS'joust'
p260
I259
sS'lift'
p261
I260
sS'child'
p262
I261
sS'spin'
p263
I262
sS'bookstor'
p264
I263
sS'cunt'
p265
I264
sS'$2000'
p266
I1414
sS'ghetto\xe2\x80\x9d'
p267
I266
sS'commerci'
p268
I267
sS'swatter\xe2\x80\x9d'
p269
I268
sS'marriag'
p270
I269
sS'lost\xe2\x80\x9d'
p271
I270
sS'dream\xe2\x80\x9d'
p272
I271
sS'eighteen'
p273
I272
sS'\xe2\x80\x9cput'
p274
I273
sS'credit'
p275
I2762
sS'split'
p276
I275
sS'european'
p277
I276
sS'frenchmen'
p278
I277
sS'refil'
p279
I278
sS'nibbl'
p280
I279
sS'lawnmow'
p281
I280
sS'women\xe2\x80\x94even'
p282
I281
sS'forsaken'
p283
I282
sS'hell\xe2\x80\x94that'
p284
I283
sS'sleepi'
p285
I284
sS'ham'
p286
I285
sS'han'
p287
I1604
sS'had'
p288
I287
sS'ooooh'
p289
I1615
sS'endur'
p290
I1620
sS'har'
p291
I290
sS'east'
p292
I1622
sS'hat'
p293
I292
sS'with\xe2\x80\x94\xe2\x80\x9d'
p294
I293
sS'shadow'
p295
I294
sS'measur'
p296
I295
sS'loaded\xe2\x80\x9d'
p297
I296
sS'specif'
p298
I297
sS'\xe2\x80\x9cfair'
p299
I298
sS'remind'
p300
I299
sS'bobbi'
p301
I300
sS'right'
p302
I301
sS'old'
p303
I302
sS'crowd'
p304
I303
sS'czech'
p305
I304
sS'\xe2\x80\x9cdid'
p306
I305
sS'hoover'
p307
I4762
sS'billboard'
p308
I307
sS'for'
p309
I308
sS'bottom'
p310
I309
sS'constip'
p311
I310
sS'inhuman'
p312
I311
sS'fog'
p313
I312
sS'sensibl'
p314
I313
sS'colleg'
p315
I314
sS'spoke'
p316
I44
sS'place\xe2\x80\x9d'
p317
I317
sS'despair'
p318
I318
sS'sob'
p319
I319
sS'homo\xe2\x80\x9d'
p320
I320
sS'gamble\xe2\x80\x9d'
p321
I321
sS'son'
p322
I322
sS'creativ'
p323
I323
sS'wrap'
p324
I324
sS'scattered\xe2\x80\x9d'
p325
I1001
sS'fabric'
p326
I326
sS'inches\xe2\x80\x9d'
p327
I327
sS'support'
p328
I328
sS'tame'
p329
I329
sS'spring'
p330
I1002
sS'call'
p331
I2771
sS'headach'
p332
I332
sS'offer'
p333
I333
sS'$200'
p334
I334
sS'antisoci'
p335
I335
sS'\xe2\x80\x9caha\xe2\x80\x9d'
p336
I336
sS'heard\xe2\x80\x9d'
p337
I337
sS'duel'
p338
I338
sS'type'
p339
I2775
sS'pest'
p340
I340
sS'sampl'
p341
I341
sS'lucill'
p342
I342
sS'proud'
p343
I343
sS'anklelength'
p344
I1005
sS'textbook'
p345
I345
sS'exist'
p346
I346
sS'dealer'
p347
I347
sS'leer'
p348
I348
sS'floor'
p349
I349
sS'\xe2\x80\x9cfurthermor'
p350
I350
sS'actor'
p351
I351
sS'flood'
p352
I352
sS'role'
p353
I353
sS'knuckl'
p354
I3686
sS'presum'
p355
I355
sS'smell'
p356
I356
sS'roll'
p357
I357
sS'\xe2\x80\x9ci\xe2\x80\x99d'
p358
I358
sS'intend'
p359
I359
sS'ointment'
p360
I360
sS'\xe2\x80\x9ci\xe2\x80\x99m'
p361
I361
sS'\xe2\x80\x9ci\xe2\x80\x99v'
p362
I362
sS'intent'
p363
I363
sS'\xe2\x80\x9canyth'
p364
I364
sS'types\xe2\x80\x9d'
p365
I365
sS'\xe2\x80\x9cwell'
p366
I366
sS'fight\xe2\x80\x9d'
p367
I367
sS'\xe2\x80\x98we\xe2\x80\x99ll'
p368
I368
sS'hungri'
p369
I4770
sS'time'
p370
I369
sS'push'
p371
I370
sS'mahler\xe2\x80\x9d'
p372
I371
sS'piano\xe2\x80\x9d'
p373
I372
sS'kook\xe2\x80\x9d'
p374
I373
sS'chain'
p375
I374
sS'whoever'
p376
I375
sS'\xe2\x80\x9cpaddy\xe2\x80\x9d'
p377
I376
sS'\xe2\x80\x9cfresh'
p378
I377
sS'chair'
p379
I378
sS'hole'
p380
I58
sS'decid'
p381
I380
sS'religion'
p382
I1007
sS'to\xe2\x80\x9d'
p383
I4772
sS'marriage\xe2\x80\x9d'
p384
I383
sS'mourn'
p385
I384
sS'exact'
p386
I385
sS'trenchcoat'
p387
I386
sS'tear'
p388
I387
sS'teas'
p389
I388
sS'skewer'
p390
I389
sS'\xe2\x80\x9chate'
p391
I1009
sS'attic'
p392
I391
sS'sigh'
p393
I392
sS'compens'
p394
I393
sS'sign'
p395
I394
sS'\xe2\x80\x9csilly\xe2\x80\x9d'
p396
I395
sS'heavyweight'
p397
I396
sS'\xef\xbb\xbfgod'
p398
I397
sS'\xe2\x80\x9chow'
p399
I398
sS'percentagewise\xe2\x80\x9d'
p400
I399
sS'sixpack'
p401
I400
sS'fifti'
p402
I401
sS'unbunch'
p403
I1010
sS'meld'
p404
I403
sS'whirlaway'
p405
I404
sS'aircondit'
p406
I405
sS'better\xe2\x80\x9d'
p407
I406
sS'splice'
p408
I407
sS'address'
p409
I408
sS'along'
p410
I409
sS'brilliant'
p411
I410
sS'ourselv'
p412
I411
sS'love'
p413
I412
sS'prefer'
p414
I413
sS'fake'
p415
I414
sS'bloodi'
p416
I415
sS'gulp'
p417
I416
sS'$125000'
p418
I417
sS'fire\xe2\x80\x9d'
p419
I418
sS'tdc\xe2\x80\x99s'
p420
I419
sS'\xe2\x80\x9cright'
p421
I420
sS'angri'
p422
I421
sS'\xe2\x80\x9cummm'
p423
I422
sS'afford'
p424
I423
sS'peopl'
p425
I424
sS'ooooooh'
p426
I425
sS'enhanc'
p427
I426
sS'\xe2\x80\x9cregular'
p428
I427
sS'boomerang\xe2\x80\x9d'
p429
I428
sS'beershit'
p430
I429
sS'lumberjack'
p431
I430
sS'pretend'
p432
I431
sS'have\xe2\x80\x9d'
p433
I432
sS'vega'
p434
I433
sS'whatev'
p435
I434
sS'webster'
p436
I435
sS'broadsid'
p437
I436
sS'tirad'
p438
I437
sS'230'
p439
I438
sS'winter'
p440
I439
sS'enderbi'
p441
I440
sS'filthi'
p442
I441
sS'voice\xe2\x80\x9d'
p443
I442
sS'us\xe2\x80\x9d'
p444
I443
sS'laundri'
p445
I444
sS'date'
p446
I445
sS'such'
p447
I446
sS'suck'
p448
I447
sS'solitud'
p449
I2792
sS'blooooooop'
p450
I449
sS'so'
p451
I450
sS'drunken'
p452
I451
sS'husband\xe2\x80\x99'
p453
I452
sS'footstep'
p454
I453
sS'\xe2\x80\x98god'
p455
I454
sS'look\xe2\x80\x9d'
p456
I455
sS'\xe2\x80\x9chey\xe2\x80\x9d'
p457
I456
sS'tore'
p458
I457
sS'disconnect'
p459
I458
sS'thumb'
p460
I459
sS'torn'
p461
I460
sS'solitari'
p462
I461
sS'into'
p463
I462
sS'935'
p464
I463
sS'twohour'
p465
I464
sS'civilian'
p466
I465
sS'insomnia'
p467
I466
sS'exot'
p468
I467
sS'nation'
p469
I468
sS'\xe2\x80\x9canoth'
p470
I469
sS'tipoff'
p471
I470
sS'revers'
p472
I471
sS'separ'
p473
I472
sS'spiritualist'
p474
I473
sS'quarter'
p475
I474
sS'lowkey'
p476
I475
sS'prostitut'
p477
I476
sS'\xe2\x80\x9cyour'
p478
I477
sS'intermix'
p479
I478
sS'\xe2\x80\x9cmexican'
p480
I479
sS'he\xe2\x80\x99'
p481
I480
sS'million'
p482
I481
sS'vicious'
p483
I2801
sS'crazier'
p484
I483
sS'conman'
p485
I484
sS'exhusband'
p486
I485
sS'horrormovi'
p487
I486
sS'carstairs\xe2\x80\x9d'
p488
I487
sS'punk'
p489
I488
sS'modest'
p490
I489
sS'recov'
p491
I490
sS'oper'
p492
I491
sS'spoken'
p493
I492
sS'onc'
p494
I493
sS'\xe2\x80\x9cdoe'
p495
I494
sS'one'
p496
I495
sS'vote'
p497
I496
sS'dostoyevski'
p498
I497
sS'\xe2\x80\x9ctalk'
p499
I498
sS'open'
p500
I499
sS'urin'
p501
I500
sS'boulevard'
p502
I501
sS'convent'
p503
I502
sS'bite'
p504
I503
sS'loyalti'
p505
I2803
sS'citi'
p506
I506
sS'2'
p507
I2866
sS'conveni'
p508
I508
sS'cutti'
p509
I509
sS'floppi'
p510
I510
sS'i\xe2\x80\x99ll'
p511
I511
sS'backstabb'
p512
I512
sS'\xe2\x80\x9che\xe2\x80\x99'
p513
I513
sS'want\xe2\x80\x9d'
p514
I514
sS'\xe2\x80\x9cspeak\xe2\x80\x9d'
p515
I515
sS'\xe2\x80\x9canybodi'
p516
I516
sS'unproduct'
p517
I517
sS'box\xe2\x80\x9d'
p518
I518
sS'typographi'
p519
I2951
sS'\xe2\x80\x9cank\xe2\x80\x9d'
p520
I520
sS'san'
p521
I521
sS'\xe2\x80\x9cshe\xe2\x80\x99'
p522
I522
sS'sag'
p523
I523
sS'argument'
p524
I524
sS'alley'
p525
I525
sS'sad'
p526
I526
sS'spender'
p527
I527
sS'nonhippi'
p528
I528
sS'saw'
p529
I529
sS'sat'
p530
I530
sS'\xe2\x80\x9ci\xe2\x80\x99ll'
p531
I531
sS'asshole\xe2\x80\x9d'
p532
I532
sS'zoo'
p533
I533
sS'note'
p534
I534
sS'take'
p535
I535
sS'peeper'
p536
I1027
sS'destroy'
p537
I537
sS'matchmak'
p538
I538
sS'noth'
p539
I539
sS'webb\xe2\x80\x9d'
p540
I540
sS'ruffl'
p541
I541
sS'knew'
p542
I542
sS'butterfli'
p543
I543
sS'abus'
p544
I544
sS'knee'
p545
I545
sS'gambler\xe2\x80\x9d'
p546
I546
sS'nonimmacul'
p547
I547
sS'lawn'
p548
I548
sS'drive'
p549
I549
sS'landladi'
p550
I550
sS'salt'
p551
I551
sS'\xe2\x80\x98free'
p552
I552
sS'leg\xe2\x80\x9d'
p553
I553
sS'\xe2\x80\x9ccome'
p554
I554
sS'bright'
p555
I555
sS'\xe2\x80\x9cthe'
p556
I556
sS'who\xe2\x80\x99ll'
p557
I557
sS'slow'
p558
I558
sS'slop'
p559
I559
sS'prime'
p560
I560
sS'artist'
p561
I561
sS'borrow'
p562
I562
sS'priest'
p563
I563
sS'roger'
p564
I564
sS'landlord'
p565
I565
sS'where'
p566
I566
sS'vision'
p567
I567
sS'hepat'
p568
I568
sS'herodima'
p569
I569
sS'gangster'
p570
I570
sS'deadlin'
p571
I571
sS'bugler'
p572
I572
sS'dexter'
p573
I3314
sS'televis'
p574
I574
sS'uncalcul'
p575
I575
sS'20\xe2\x80\x99s'
p576
I576
sS'\xe2\x80\x9ctommy\xe2\x80\x9d'
p577
I577
sS'screen'
p578
I578
sS'supermarket'
p579
I579
sS'spare'
p580
I580
sS'shortag'
p581
I581
sS'writer\xe2\x80\x99'
p582
I582
sS'pantaloon'
p583
I583
sS's'
p584
I584
sS'monsterangel'
p585
I585
sS'mani'
p586
I586
sS'12thfloor'
p587
I3846
sS'exagger'
p588
I588
sS'twin'
p589
I589
sS'3000'
p590
I590
sS'constant'
p591
I591
sS'boat'
p592
I592
sS'almighti'
p593
I593
sS'\xe2\x80\x9cstand'
p594
I594
sS'companionship'
p595
I595
sS'stretch'
p596
I596
sS'west'
p597
I597
sS'venic'
p598
I598
sS'breath'
p599
I599
sS'competent\xe2\x80\x9d'
p600
I600
sS'thousand'
p601
I601
sS'what\xe2\x80\x99d'
p602
I2820
sS'mind\xe2\x80\x9d'
p603
I603
sS'doctor\xe2\x80\x99'
p604
I604
sS'former'
p605
I605
sS'\xe2\x80\x9cdo'
p606
I606
sS'straighten'
p607
I607
sS'goodness\xe2\x80\x9d'
p608
I608
sS'sixround'
p609
I609
sS'on\xe2\x80\x9d'
p610
I610
sS'stockpil'
p611
I611
sS'convinc'
p612
I612
sS'blam'
p613
I613
sS'therapi'
p614
I2823
sS'fame'
p615
I615
sS'housewif'
p616
I616
sS'cubicl'
p617
I617
sS'econom'
p618
I618
sS'narrrrrb'
p619
I619
sS'dick\xe2\x80\x9d'
p620
I620
sS'tinkl'
p621
I621
sS'barber'
p622
I622
sS'welldress'
p623
I623
sS'hummingbird'
p624
I624
sS'open\xe2\x80\x9d'
p625
I625
sS'molestation\xe2\x80\x9d'
p626
I626
sS'vacanc'
p627
I627
sS'parents\xe2\x80\x99'
p628
I628
sS'summer'
p629
I629
sS'slime'
p630
I630
sS'rest'
p631
I631
sS'too\xe2\x80\x94for'
p632
I632
sS'scrape'
p633
I633
sS'concentr'
p634
I634
sS'dempseyfirpo'
p635
I635
sS'tightfit'
p636
I636
sS'500plus'
p637
I637
sS'fool\xe2\x80\x9d'
p638
I638
sS'onethird'
p639
I639
sS'deathhand'
p640
I640
sS'around'
p641
I641
sS'dark'
p642
I642
sS'traffic'
p643
I643
sS'pop'
p644
I644
sS'darl'
p645
I645
sS'world'
p646
I646
sS'60'
p647
I4827
sS'pole'
p648
I4828
sS'shutter'
p649
I649
sS'manag'
p650
I650
sS'clap'
p651
I651
sS'auditorium'
p652
I652
sS'lightswitch'
p653
I2828
sS'\xe2\x80\x9cthey'
p654
I654
sS'everything\xe2\x80\x94especi'
p655
I655
sS'\xe2\x80\x9cthen'
p656
I656
sS'yellowgreen'
p657
I657
sS'cellar'
p658
I658
sS'racial'
p659
I659
sS'cristina'
p660
I660
sS'tote'
p661
I661
sS'noon'
p662
I662
sS'definit'
p663
I3869
sS'nook'
p664
I664
sS'evolv'
p665
I665
sS'exit'
p666
I666
sS'noos'
p667
I667
sS'\xe2\x80\x9cokay'
p668
I668
sS'refer'
p669
I669
sS'dresden'
p670
I670
sS'power'
p671
I671
sS'ration'
p672
I672
sS'\xe2\x80\x9cyeah'
p673
I673
sS'leadership'
p674
I674
sS'stand\xe2\x80\x9d'
p675
I675
sS'turpentin'
p676
I676
sS'be\xe2\x80\x9d'
p677
I677
sS'went'
p678
I2830
sS'stone'
p679
I679
sS'ach'
p680
I680
sS'side'
p681
I2831
sS'acr'
p682
I682
sS'neighbor'
p683
I683
sS'act'
p684
I684
sS'version\xe2\x80\x9d'
p685
I685
sS'industri'
p686
I686
sS'mean'
p687
I2833
sS'reality\xe2\x80\x9d'
p688
I688
sS'effici'
p689
I689
sS'surviv'
p690
I690
sS'overpow'
p691
I691
sS'fire\xe2\x80\x94peopl'
p692
I692
sS'charli'
p693
I693
sS'burglar'
p694
I694
sS'her'
p695
I695
sS'hex'
p696
I696
sS'hey'
p697
I697
sS'mindless'
p698
I698
sS'brazilian'
p699
I699
sS'closers\xe2\x80\x9d'
p700
I700
sS'bottl'
p701
I701
sS'with'
p702
I702
sS'1030'
p703
I1961
sS'conclus'
p704
I704
sS'pull'
p705
I705
sS'tripl'
p706
I706
sS'darken'
p707
I707
sS'dirti'
p708
I708
sS'rust'
p709
I709
sS'aa'
p710
I895
sS'creas'
p711
I711
sS'ad'
p712
I712
sS'creat'
p713
I713
sS'ah'
p714
I3810
sS'forgot'
p715
I2837
sS'am'
p716
I716
sS'al'
p717
I717
sS'an'
p718
I718
sS'as'
p719
I719
sS'1211'
p720
I4838
sS'at'
p721
I721
sS'aw'
p722
I722
sS'tranquil'
p723
I723
sS'cream'
p724
I724
sS'whir'
p725
I725
sS'tight'
p726
I726
sS'immens'
p727
I727
sS'morning\xe2\x80\x9d'
p728
I728
sS'genuin'
p729
I729
sS'man\xe2\x80\x94th'
p730
I730
sS'vocabulari'
p731
I731
sS'\xe2\x80\x9cbehind'
p732
I732
sS'notebook\xe2\x80\x9d'
p733
I733
sS'\xe2\x80\x9cwe\xe2\x80\x99ll'
p734
I734
sS'mash'
p735
I735
sS'groov'
p736
I736
sS'mass'
p737
I737
sS'trickl'
p738
I738
sS'borowski'
p739
I739
sS'recharge\xe2\x80\x94off'
p740
I740
sS'tv'
p741
I741
sS'to'
p742
I742
sS'tail'
p743
I743
sS'\xe2\x80\x9cmeanwhil'
p744
I744
sS'smile'
p745
I745
sS'introduc'
p746
I746
sS'ta'
p747
I4284
sS'mysticoftheword'
p748
I748
sS'absentmind'
p749
I749
sS'bellybutton'
p750
I750
sS'tickets\xe2\x80\x9d'
p751
I751
sS'cindy\xe2\x80\x99s\xe2\x80\x9d'
p752
I752
sS'strang'
p753
I753
sS'strand'
p754
I754
sS'harri'
p755
I755
sS'drabber'
p756
I756
sS'sang'
p757
I757
sS'sand'
p758
I758
sS'sane'
p759
I4342
sS'small'
p760
I760
sS'dodger'
p761
I761
sS'paso'
p762
I762
sS'past'
p763
I763
sS'trashbag'
p764
I764
sS'pass'
p765
I765
sS'pleased\xe2\x80\x9d'
p766
I766
sS'\xe2\x80\x9clisten'
p767
I767
sS'section'
p768
I768
sS'do\xe2\x80\x94get'
p769
I769
sS'method'
p770
I770
sS'full'
p771
I771
sS'kind\xe2\x80\x9d'
p772
I772
sS'down\xe2\x80\x9d'
p773
I773
sS'eighthour'
p774
I774
sS'inher'
p775
I775
sS'dramatist'
p776
I776
sS'legend'
p777
I777
sS'mouldi'
p778
I778
sS'college\xe2\x80\x9d'
p779
I779
sS'\xe2\x80\x9cpardon'
p780
I780
sS'brutal'
p781
I781
sS'persh'
p782
I782
sS'pico'
p783
I783
sS'\xe2\x80\x9ceat'
p784
I784
sS'pick'
p785
I785
sS'action'
p786
I786
sS'icepick'
p787
I787
sS'via'
p788
I788
sS'shorthand'
p789
I4498
sS'driver\xe2\x80\x99'
p790
I790
sS'show\xe2\x80\x9d'
p791
I791
sS'select'
p792
I792
sS'copies\xe2\x80\x94now'
p793
I793
sS'searock'
p794
I2848
sS'police\xe2\x80\x9d'
p795
I795
sS'pearl'
p796
I796
sS'morn'
p797
I797
sS'6'
p798
I4559
sS'more'
p799
I799
sS'door'
p800
I800
sS'hundr'
p801
I801
sS'compani'
p802
I802
sS'ferlinghetti'
p803
I4605
sS'\xe2\x80\x98sinc'
p804
I804
sS'leari'
p805
I805
sS'mall'
p806
I806
sS'learn'
p807
I807
sS'male'
p808
I808
sS'salti'
p809
I809
sS'challeng'
p810
I810
sS'accept'
p811
I811
sS'gallon'
p812
I812
sS'dress'
p813
I813
sS'huge'
p814
I814
sS'\xe2\x80\x9cdrink'
p815
I815
sS'simpl'
p816
I816
sS'plant'
p817
I817
sS'plane'
p818
I818
sS'buses\xe2\x80\x94al'
p819
I819
sS'backyard'
p820
I820
sS'flutter'
p821
I821
sS'circumst'
p822
I822
sS'yet\xe2\x80\x9d'
p823
I823
sS'been\xe2\x80\x9d'
p824
I824
sS'convuls'
p825
I825
sS'conference\xe2\x80\x9d'
p826
I826
sS'snotti'
p827
I827
sS'cigarett'
p828
I828
sS'\xe2\x80\x9ckill'
p829
I829
sS'tolstoy'
p830
I830
sS'mexican'
p831
I831
sS'pant'
p832
I832
sS'\xe2\x80\x9cscotch'
p833
I833
sS'paper'
p834
I834
sS'woolf'
p835
I835
sS'onelin'
p836
I836
sS'\xe2\x80\x9cmarion'
p837
I837
sS'puke\xe2\x80\x9d'
p838
I838
sS'second\xe2\x80\x94shit'
p839
I839
sS'bet\xe2\x80\x9d'
p840
I840
sS'again\xe2\x80\x9d'
p841
I841
sS'\xe2\x80\x9cfine'
p842
I5565
sS'authent'
p843
I842
sS'found'
p844
I843
sS'england'
p845
I844
sS'eyelash'
p846
I845
sS'terrifi'
p847
I846
sS'realli'
p848
I847
sS'reduct'
p849
I848
sS'agre'
p850
I2861
sS'lipstick'
p851
I850
sS'bubbl'
p852
I851
sS'silki'
p853
I852
sS'qualifi'
p854
I853
sS'maranvill'
p855
I854
sS'belief'
p856
I4992
sS'risen'
p857
I856
sS'\xe2\x80\x9clife'
p858
I857
sS'roominghous'
p859
I5530
sS'believ'
p860
I858
sS'weed'
p861
I859
sS'\xe2\x80\x9cralph'
p862
I860
sS'driven'
p863
I4863
sS'one\xe2\x80\x9d'
p864
I862
sS'sicken'
p865
I863
sS'\xe2\x80\x9cexperi'
p866
I864
sS'w'
p867
I865
sS'\xe2\x80\x9cboth'
p868
I866
sS'major'
p869
I867
sS'sinclair'
p870
I868
sS'wilder'
p871
I869
sS'he\xe2\x80\x99ll'
p872
I870
sS'number'
p873
I871
sS'slipper'
p874
I872
sS'horribl'
p875
I873
sS'guess'
p876
I874
sS'fuller'
p877
I875
sS'jew'
p878
I876
sS'jet'
p879
I877
sS'them\xe2\x80\x9d'
p880
I878
sS'sober\xe2\x80\x9d'
p881
I1087
sS'typewriter\xe2\x80\x9d'
p882
I880
sS'relationship'
p883
I881
sS'grace'
p884
I883
sS'vocal'
p885
I884
sS'fishermen'
p886
I885
sS'arrang'
p887
I886
sS'escalant'
p888
I887
sS'comput'
p889
I888
sS'defect'
p890
I889
sS'waft'
p891
I890
sS'packag'
p892
I891
sS'blond'
p893
I892
sS'sell'
p894
I893
sS'madhous'
p895
I894
sS'also'
p896
I896
sS'years\xe2\x80\x9d'
p897
I2869
sS'dehydr'
p898
I898
sS'brace'
p899
I899
sS'play'
p900
I900
sS'yawn'
p901
I901
sS'\xe2\x80\x9charold\xe2\x80\x9d'
p902
I902
sS'wive'
p903
I903
sS'think\xe2\x80\x9d'
p904
I904
sS'belleslettr'
p905
I905
sS'lacross'
p906
I906
sS'cover'
p907
I907
sS'gold'
p908
I908
sS'session'
p909
I909
sS'fireplac'
p910
I910
sS'damage\xe2\x80\x9d'
p911
I911
sS'writer'
p912
I912
sS'gambler'
p913
I4175
sS'resent'
p914
I914
sS'banner'
p915
I915
sS'dreaming\xe2\x80\x9d'
p916
I916
sS'enemi'
p917
I917
sS'm\xe2\x80\x94and'
p918
I918
sS'river'
p919
I5456
sS'set'
p920
I920
sS'sex'
p921
I921
sS'\xe2\x80\x9cdoesn\xe2\x80\x99t'
p922
I922
sS'see'
p923
I923
sS'sea'
p924
I924
sS'project'
p925
I160
sS'spiritu'
p926
I926
sS'matter'
p927
I927
sS'kneel'
p928
I928
sS'signatur'
p929
I929
sS'mildew'
p930
I930
sS'ahead\xe2\x80\x9d'
p931
I931
sS'incident'
p932
I932
sS'last'
p933
I933
sS'\xe2\x80\x9cwe\xe2\x80\x99v'
p934
I934
sS'\xe2\x80\x9cwe\xe2\x80\x99r'
p935
I935
sS'blaze'
p936
I936
sS'load'
p937
I937
sS'loaf'
p938
I938
sS'episod'
p939
I939
sS'bell'
p940
I940
sS'kentuckybr'
p941
I941
sS'schedul'
p942
I942
sS'loan'
p943
I943
sS'\xe2\x80\x9cnow\xe2\x80\x9d'
p944
I944
sS'except'
p945
I945
sS'children\xe2\x80\x9d'
p946
I946
sS'church'
p947
I947
sS'underlay'
p948
I948
sS'communiti'
p949
I949
sS'belt'
p950
I950
sS'devil'
p951
I951
sS'seep'
p952
I2882
sS'perpetu'
p953
I953
sS'\xe2\x80\x9cpoor'
p954
I954
sS'two\xe2\x80\x9d'
p955
I955
sS'devis'
p956
I956
sS'drive\xe2\x80\x9d'
p957
I957
sS'alcoholic\xe2\x80\x99\xe2\x80\x9d'
p958
I2883
sS'champion'
p959
I959
sS'fire'
p960
I960
sS'remark'
p961
I961
sS'fund'
p962
I962
sS'educ'
p963
I963
sS'bitchi'
p964
I964
sS'straight'
p965
I965
sS'pig\xe2\x80\x9d'
p966
I966
sS'\xe2\x80\x9csir'
p967
I967
sS'creature\xe2\x80\x94just'
p968
I968
sS'error'
p969
I969
sS'conceiv'
p970
I970
sS'real'
p971
I2000
sS'pound'
p972
I972
sS'tunneydempsey'
p973
I973
sS'vanish'
p974
I974
sS'chase'
p975
I975
sS'barney'
p976
I976
sS'shorter'
p977
I977
sS'funni'
p978
I978
sS'\xe2\x80\x9ckid'
p979
I979
sS'snail'
p980
I980
sS'cigar'
p981
I981
sS'stack'
p982
I983
sS'slime\xe2\x80\x9d'
p983
I148
sS'person'
p984
I985
sS'expens'
p985
I986
sS'elev'
p986
I987
sS'surfaces\xe2\x80\x9d'
p987
I988
sS'deepset'
p988
I2007
sS'telegram'
p989
I990
sS'belabor'
p990
I991
sS'buke'
p991
I992
sS'40000'
p992
I993
sS'shitti'
p993
I994
sS'format'
p994
I995
sS'foundat'
p995
I996
sS'abound'
p996
I997
sS'formal'
p997
I998
sS'leisur'
p998
I999
sS'baggag'
p999
I1000
sS'mighti'
p1000
I325
sS'goddamn'
p1001
I330
sS'palm'
p1002
I1003
sS'pall'
p1003
I1004
sS'sight'
p1004
I344
sS'pale'
p1005
I1006
sS'recognit'
p1006
I381
sS'machin'
p1007
I1008
sS'be'
p1008
I390
sS'odor'
p1009
I402
sS'fixed\xe2\x80\x9d'
p1010
I1011
sS'santa'
p1011
I1012
sS'carol'
p1012
I1013
sS'by'
p1013
I1014
sS'halfmen'
p1014
I1015
sS'materi'
p1015
I1016
sS'revolut'
p1016
I1017
sS'hemingway'
p1017
I1018
sS'savag'
p1018
I1019
sS'durabl'
p1019
I1020
sS'\xe2\x80\x9ccosmos\xe2\x80\x94\xe2\x80\x9d'
p1020
I1021
sS'much\xe2\x80\x9d'
p1021
I1022
sS'weaklings\xe2\x80\x9d'
p1022
I1023
sS'suit'
p1023
I1024
sS'mouthware\xe2\x80\x9d'
p1024
I1025
sS'jewish'
p1025
I1026
sS'poster'
p1026
I536
sS'atom'
p1027
I1028
sS'line'
p1028
I1029
sS'mom\xe2\x80\x9d'
p1029
I1030
sS'threequart'
p1030
I1031
sS'up'
p1031
I1032
sS'us'
p1032
I1033
sS'uh'
p1033
I1034
sS'oooooh\xe2\x80\x99\xe2\x80\x9d'
p1034
I1035
sS'supervisor'
p1035
I1036
sS'chao'
p1036
I1037
sS'chap'
p1037
I1038
sS'breather'
p1038
I1039
sS'248\xe2\x80\x9d'
p1039
I1040
sS'book\xe2\x80\x9d'
p1040
I1041
sS'\xe2\x80\x98it\xe2\x80\x99'
p1041
I1042
sS'uranium'
p1042
I1043
sS'shortestpr'
p1043
I1044
sS'swirl'
p1044
I1045
sS'childtrain'
p1045
I1046
sS'harry\xe2\x80\x9d'
p1046
I1047
sS'harry\xe2\x80\x99'
p1047
I1048
sS'ago'
p1048
I1049
sS'land'
p1049
I1050
sS'fighter'
p1050
I1051
sS'angeles\xe2\x80\x9d'
p1051
I1052
sS'age'
p1052
I1053
sS'fresh'
p1053
I1054
sS'hello'
p1054
I1055
sS'essay'
p1055
I1056
sS'partial'
p1056
I1057
sS'scratch'
p1057
I1058
sS'escape\xe2\x80\x9d'
p1058
I1059
sS'landscap'
p1059
I4907
sS'roadsid'
p1060
I1061
sS'\xe2\x80\x9ccharles\xe2\x80\x9d'
p1061
I1062
sS'\xe2\x80\x98veri'
p1062
I1063
sS'young'
p1063
I1064
sS'send'
p1064
I1065
sS'sens'
p1065
I1067
sS'\xe2\x80\x9cdetroit\xe2\x80\x9d'
p1066
I1068
sS'sent'
p1067
I1069
sS'unzip'
p1068
I1070
sS'garden'
p1069
I1071
sS'mare'
p1070
I3455
sS'anxiety\xe2\x80\x94what'
p1071
I1072
sS'wipe'
p1072
I1073
sS'tri'
p1073
I1074
sS'magic'
p1074
I1075
sS'harbor'
p1075
I1076
sS'eve'
p1076
I1077
sS'kansa'
p1077
I1078
sS'race'
p1078
I1079
sS'porter'
p1079
I4910
sS'\xe2\x80\x9cthat'
p1080
I1081
sS'marri'
p1081
I1082
sS'mahler'
p1082
I1083
sS'doris\xe2\x80\x9d'
p1083
I1084
sS'dots\xe2\x80\x9d'
p1084
I1085
sS'smucki'
p1085
I1086
sS'fathead'
p1086
I879
sS'natur'
p1087
I1088
sS'crook'
p1088
I1089
sS'video'
p1089
I1090
sS'odd'
p1090
I1091
sS'evacu'
p1091
I1092
sS'indian'
p1092
I1093
sS'bird'
p1093
I1094
sS'led'
p1094
I1095
sS'leg'
p1095
I1096
sS'punch'
p1096
I1097
sS'let'
p1097
I1098
sS'breakfastnook'
p1098
I1099
sS'fifteen'
p1099
I1100
sS'bakersfield'
p1100
I1101
sS'\xe2\x80\x9calway'
p1101
I1102
sS'greas'
p1102
I1103
sS'casino'
p1103
I1104
sS'embassi'
p1104
I1105
sS'defeat'
p1105
I1106
sS'popcorn'
p1106
I1107
sS'opinion'
p1107
I1108
sS'life\xe2\x80\x9d'
p1108
I2915
sS'\xe2\x80\x9cwrite'
p1109
I1110
sS'emot'
p1110
I1111
sS'\xe2\x80\x9cmerci'
p1111
I1112
sS'repugn'
p1112
I1113
sS'threefourth'
p1113
I1114
sS'dumbest'
p1114
I1115
sS'mad\xe2\x80\x99\xe2\x80\x9d'
p1115
I1116
sS'zip'
p1116
I1117
sS'doubl'
p1117
I1118
sS'next'
p1118
I1119
sS'zig'
p1119
I1120
sS'doubt'
p1120
I1121
sS'pencil'
p1121
I1122
sS'babe'
p1122
I1123
sS'babi'
p1123
I1125
sS'chariti'
p1124
I1126
sS'gambl'
p1125
I1127
sS'this'
p1126
I1128
sS'hardboil'
p1127
I1129
sS'pour'
p1128
I1130
sS'thin'
p1129
I1131
sS'slid'
p1130
I1132
sS'bent'
p1131
I1133
sS'process'
p1132
I1134
sS'lock'
p1133
I1135
sS'murderers\xe2\x80\x99'
p1134
I1136
sS'slim'
p1135
I1137
sS'rode'
p1136
I1138
sS'high'
p1137
I1139
sS'slit'
p1138
I1140
sS'bend'
p1139
I1141
sS'slip'
p1140
I1142
sS'crimin'
p1141
I1143
sS'weaken'
p1142
I1144
sS'comedi'
p1143
I1145
sS'pomona'
p1144
I1146
sS'inhal'
p1145
I1147
sS'wristwatch'
p1146
I1148
sS'notebook'
p1147
I1149
sS'jumpstart'
p1148
I1150
sS'coast'
p1149
I2924
sS'tomato'
p1150
I1152
sS'counter'
p1151
I1153
sS'hatefrustr'
p1152
I1154
sS'allot'
p1153
I1155
sS'allow'
p1154
I1156
sS'thigh'
p1155
I1157
sS'movi'
p1156
I1158
sS'dial\xe2\x80\x9d'
p1157
I1159
sS'move'
p1158
I1160
sS'\xe2\x80\x9cbut'
p1159
I1161
sS'\xe2\x80\x9cbuy'
p1160
I1162
sS'perfect'
p1161
I1163
sS'drinking\xe2\x80\x9d'
p1162
I1164
sS'decay'
p1163
I1165
sS'chosen'
p1164
I1166
sS'hobbi'
p1165
I1167
sS'head\xe2\x80\x9d'
p1166
I1168
sS'president\xe2\x80\x99'
p1167
I1169
sS'puerto'
p1168
I1170
sS'decad'
p1169
I1171
sS'therefor'
p1170
I1172
sS'cuss'
p1171
I1173
sS'belch'
p1172
I1174
sS'snake'
p1173
I1175
sS'kiss'
p1174
I1176
sS'pompous'
p1175
I1177
sS'earring'
p1176
I1178
sS'truth'
p1177
I1179
sS'societi'
p1178
I1180
sS'bump'
p1179
I1181
sS'beautiful\xe2\x80\x9d'
p1180
I1182
sS'over\xe2\x80\x9d'
p1181
I1183
sS'wander'
p1182
I1184
sS'tit\xe2\x80\x9d'
p1183
I1185
sS'recross'
p1184
I1186
sS'halfcelebr'
p1185
I1187
sS'stare'
p1186
I2039
sS'shut'
p1187
I1189
sS'perish'
p1188
I1190
sS'difference\xe2\x80\x9d'
p1189
I1191
sS'tempo'
p1190
I1427
sS'templ'
p1191
I1193
sS'disintegr'
p1192
I1439
sS'spill'
p1193
I1195
sS'year\xe2\x80\x9d'
p1194
I1196
sS'could'
p1195
I1197
sS'year\xe2\x80\x99'
p1196
I1198
sS'length'
p1197
I1199
sS'outsid'
p1198
I1200
sS'scare'
p1199
I1490
sS'anita'
p1200
I1202
sS'blown'
p1201
I1502
sS'mars\xe2\x80\x9d'
p1202
I1204
sS'scene'
p1203
I1205
sS'jesus'
p1204
I1206
sS'owner'
p1205
I1207
sS'prank'
p1206
I1208
sS'exhal'
p1207
I1151
sS'start'
p1208
I2042
sS'licens'
p1209
I1210
sS'system'
p1210
I1211
sS'bartend'
p1211
I1212
sS'budg'
p1212
I4931
sS'stomach'
p1213
I1214
sS'\xe2\x80\x9chave'
p1214
I1215
sS'accompani'
p1215
I1216
sS'\xe2\x80\x9cdodger'
p1216
I1217
sS'steel'
p1217
I1218
sS'bother'
p1218
I1219
sS'unmad'
p1219
I1220
sS'psycholog'
p1220
I1221
sS'terribl'
p1221
I1222
sS'tonight'
p1222
I1223
sS'receptionist'
p1223
I1224
sS'savage\xe2\x80\x9d'
p1224
I1225
sS'kidnapped\xe2\x80\x9d'
p1225
I1226
sS'soak'
p1226
I1227
sS'4000'
p1227
I1228
sS'briefcas'
p1228
I1229
sS'\xe2\x80\x98apolitical\xe2\x80\x99'
p1229
I1230
sS'linda'
p1230
I1231
sS'buttermilk\xe2\x80\x9d'
p1231
I1232
sS'soap'
p1232
I1233
sS'lion\xe2\x80\x99'
p1233
I1234
sS'courtesi'
p1234
I1235
sS'segment'
p1235
I1236
sS'life\xe2\x80\x94no'
p1236
I1237
sS'bragging\xe2\x80\x94lik'
p1237
I1238
sS'face'
p1238
I1239
sS'stink\xe2\x80\x9d'
p1239
I1240
sS'childrap'
p1240
I3954
sS'fact'
p1241
I1242
sS'bring'
p1242
I1243
sS'bedroom'
p1243
I1244
sS'rough'
p1244
I1245
sS'trivial'
p1245
I1246
sS'indebted\xe2\x80\x94spiritually\xe2\x80\x94and'
p1246
I1247
sS'footbal'
p1247
I1248
sS'nois'
p1248
I1249
sS'jaw'
p1249
I1250
sS'printeri'
p1250
I1251
sS'should'
p1251
I1252
sS'jam'
p1252
I1253
sS'suppos'
p1253
I1782
sS'\xe2\x80\x9cwriting\xe2\x80\x99'
p1254
I1255
sS'jab'
p1255
I1256
sS'hope'
p1256
I1257
sS'meant'
p1257
I1258
sS'insight'
p1258
I1259
sS'coming\xe2\x80\x9d'
p1259
I1260
sS'cranki'
p1260
I1261
sS'lucki'
p1261
I1262
sS'smash'
p1262
I1263
sS'hemorrhoid'
p1263
I1264
sS'matter\xe2\x80\x9d'
p1264
I1265
sS'stuff'
p1265
I1266
sS'm\xe2\x80\x94\xe2\x80\x99s'
p1266
I1267
sS'frame'
p1267
I1268
sS'temporarili'
p1268
I1269
sS'readymad'
p1269
I1270
sS'wire'
p1270
I1271
sS'does\xe2\x80\x9d'
p1271
I1272
sS'broke\xe2\x80\x9d'
p1272
I1273
sS'nuclear'
p1273
I1274
sS'nationwid'
p1274
I1275
sS'piston'
p1275
I1276
sS'synanon\xe2\x80\x9d'
p1276
I1277
sS'faceless'
p1277
I1278
sS'word\xe2\x80\x9d'
p1278
I1279
sS'dislik'
p1279
I1280
sS'heart\xe2\x80\x99'
p1280
I1281
sS'\xe2\x80\x99im'
p1281
I1282
sS'jones\xe2\x80\x94so'
p1282
I1283
sS'\xe2\x80\x9cstolen\xe2\x80\x9d'
p1283
I1284
sS'8hour'
p1284
I1962
sS'\xe2\x80\x9cone'
p1285
I1286
sS'ramp'
p1286
I1287
sS'drug'
p1287
I1288
sS'marti'
p1288
I1289
sS'doorway'
p1289
I1290
sS'road\xe2\x80\x9d'
p1290
I1291
sS'robert\xe2\x80\x9d'
p1291
I1292
sS'robert\xe2\x80\x99'
p1292
I1293
sS'like\xe2\x80\x9d'
p1293
I1294
sS'carbon'
p1294
I1295
sS'bryan\xe2\x80\x99'
p1295
I1296
sS'drank'
p1296
I3564
sS'feliz'
p1297
I4940
sS'hottest'
p1298
I1299
sS'immedi'
p1299
I1300
sS'louisiana'
p1300
I1301
sS'deliber'
p1301
I1302
sS'togeth'
p1302
I1303
sS'rise\xe2\x80\x9d'
p1303
I1304
sS'spain'
p1304
I1305
sS'bobby\xe2\x80\x9d'
p1305
I1306
sS'bathtub'
p1306
I1307
sS'purchas'
p1307
I2111
sS'20\xe2\x80\x9d'
p1308
I1309
sS'lush'
p1309
I1310
sS'suggestion\xe2\x80\x94w'
p1310
I1311
sS'lust'
p1311
I1312
sS'vs'
p1312
I1313
sS'incom'
p1313
I1314
sS'\xe2\x80\x9cwhich'
p1314
I1315
sS'cohort'
p1315
I1316
sS'ball'
p1316
I1317
sS'bale'
p1317
I1318
sS'bald'
p1318
I2173
sS'upon'
p1319
I1320
sS'coffe'
p1320
I1321
sS'dust'
p1321
I1322
sS'makings\xe2\x80\x9d'
p1322
I1323
sS'cold\xe2\x80\x9d'
p1323
I1324
sS'off'
p1324
I1325
sS'feebl'
p1325
I1326
sS'exampl'
p1326
I1327
sS'lick\xe2\x80\x9d'
p1327
I1328
sS'compromis'
p1328
I240
sS'paus'
p1329
I1330
sS'maggot'
p1330
I2231
sS'guy\xe2\x80\x9d'
p1331
I1332
sS'paul'
p1332
I1333
sS'web'
p1333
I1334
sS'assistant\xe2\x80\x9d'
p1334
I1335
sS'cage'
p1335
I1336
sS'arrest'
p1336
I1337
sS'wet'
p1337
I2269
sS'compet'
p1338
I1339
sS'government'
p1339
I1340
sS'alone\xe2\x80\x9d'
p1340
I1341
sS'seagul'
p1341
I1342
sS'piec'
p1342
I1343
sS'haul'
p1343
I1344
sS'five'
p1344
I1345
sS'desk'
p1345
I1346
sS'tick'
p1346
I2299
sS'pier'
p1347
I1348
sS'resid'
p1348
I1349
sS'onion'
p1349
I1350
sS'corpor'
p1350
I1351
sS'problem\xe2\x80\x9d'
p1351
I1352
sS'anyth'
p1352
I1353
sS'ank\xe2\x80\x94\xe2\x80\x9d'
p1353
I1354
sS'stagger'
p1354
I1355
sS'imprison'
p1355
I1356
sS'fullblast'
p1356
I1357
sS'\xe2\x80\x9charriet'
p1357
I1358
sS'daylight'
p1358
I1359
sS'flush'
p1359
I1360
sS'$400'
p1360
I1361
sS'transport'
p1361
I1362
sS'disbelief'
p1362
I1363
sS'avoid'
p1363
I1364
sS'passion'
p1364
I1365
sS'somethin\xe2\x80\x99\xe2\x80\x9d'
p1365
I4950
sS'\xe2\x80\x9ctheir'
p1366
I4951
sS'stairway'
p1367
I1368
sS'flight\xe2\x80\x9d'
p1368
I1369
sS'stage'
p1369
I1370
sS'sister'
p1370
I1371
sS'documentari'
p1371
I1372
sS'\xe2\x80\x9cfine\xe2\x80\x9d'
p1372
I1373
sS'immortal\xe2\x80\x9d'
p1373
I1374
sS'dear\xe2\x80\x9d'
p1374
I1375
sS'lung'
p1375
I1376
sS'aiken\xe2\x80\x94i\xe2\x80\x99m'
p1376
I1377
sS'pussi'
p1377
I1378
sS'who\xe2\x80\x99d'
p1378
I2485
sS'mere'
p1379
I1380
sS'whiteblond'
p1380
I1381
sS'adobe\xe2\x80\x94they'
p1381
I2494
sS'symbols\xe2\x80\x9d'
p1382
I1383
sS'8x12'
p1383
I1384
sS'function'
p1384
I1385
sS'count'
p1385
I1386
sS'veget'
p1386
I1387
sS'municip'
p1387
I1388
sS'unnot'
p1388
I1389
sS'problem'
p1389
I1390
sS'cordial'
p1390
I1391
sS'blous'
p1391
I1392
sS'closed\xe2\x80\x9d'
p1392
I1393
sS'ink'
p1393
I1394
sS'eastern'
p1394
I1395
sS'gossip'
p1395
I1396
sS'cindy\xe2\x80\x99'
p1396
I1397
sS'repeat'
p1397
I1398
sS'monday'
p1398
I1399
sS'vein'
p1399
I1400
sS'ghost'
p1400
I1401
sS'family\xe2\x80\x9d'
p1401
I1402
sS'rule'
p1402
I1403
sS'sincer'
p1403
I1404
sS'\xe2\x80\x9clady\xe2\x80\x9d'
p1404
I1405
sS'rapid'
p1405
I5613
sS'sasoon'
p1406
I1406
sS'oldest'
p1407
I1407
sS'everywhere\xe2\x80\x9d'
p1408
I1408
sS'spew'
p1409
I1409
sS'edward'
p1410
I1410
sS'anymore\xe2\x80\x9d'
p1411
I1411
sS'daze'
p1412
I1412
sS'hedg'
p1413
I1413
sS'chill'
p1414
I265
sS'worth'
p1415
I1415
sS'blanket'
p1416
I1416
sS'distort'
p1417
I1417
sS'enslav'
p1418
I882
sS'pinch'
p1419
I1419
sS'chew'
p1420
I1420
sS'chez'
p1421
I1421
sS'easy\xe2\x80\x9d'
p1422
I1422
sS'horn'
p1423
I1423
sS'hors'
p1424
I1424
sS'orders\xe2\x80\x94th'
p1425
I1425
sS'told'
p1426
I1426
sS'screenplay\xe2\x80\x9d'
p1427
I1192
sS'richest'
p1428
I1428
sS'pleasur'
p1429
I1429
sS'hotel\xe2\x80\x9d'
p1430
I1430
sS'hairdo'
p1431
I1431
sS'\xe2\x80\x9crape'
p1432
I1432
sS'daughter'
p1433
I1433
sS'\xe2\x80\x9c70000'
p1434
I1434
sS'hundreddollar'
p1435
I1435
sS'smoke'
p1436
I1436
sS'musso\xe2\x80\x99'
p1437
I5431
sS'darlen'
p1438
I1438
sS'cinchi'
p1439
I1194
sS'newspap'
p1440
I1440
sS'madhouses\xe2\x80\x9d'
p1441
I4608
sS'best\xe2\x80\x9d'
p1442
I1442
sS'total'
p1443
I1443
sS'plot'
p1444
I1444
sS'exacta'
p1445
I1445
sS'insult'
p1446
I1446
sS'piss\xe2\x80\x9d'
p1447
I1447
sS'retali'
p1448
I1448
sS'cottag'
p1449
I1449
sS'happen\xe2\x80\x94a'
p1450
I1450
sS'\xe2\x80\x9cdrunken'
p1451
I1451
sS'award'
p1452
I1452
sS'yard'
p1453
I3992
sS'sunnysid'
p1454
I1454
sS'word'
p1455
I1455
sS'wore'
p1456
I1456
sS'work'
p1457
I1457
sS'worm'
p1458
I1458
sS'worn'
p1459
I1459
sS'wors'
p1460
I1460
sS'lines\xe2\x80\x9d'
p1461
I1461
sS'elbow'
p1462
I1462
sS'quiver'
p1463
I1464
sS'flung'
p1464
I1465
sS'woman'
p1465
I4969
sS'basebal'
p1466
I1467
sS'back\xe2\x80\x9d'
p1467
I1468
sS'ordinari'
p1468
I1469
sS'\xe2\x80\x9cchrist\xe2\x80\x9d'
p1469
I1470
sS'disappear'
p1470
I2985
sS'interview'
p1471
I1472
sS'agoni'
p1472
I1473
sS'beach'
p1473
I1474
sS'raggedlook'
p1474
I3250
sS'fever'
p1475
I1476
sS'recogn'
p1476
I1477
sS'else\xe2\x80\x99'
p1477
I1478
sS'less'
p1478
I1331
sS'chines'
p1479
I1479
sS'after'
p1480
I1480
sS'\xe2\x80\x9cit\xe2\x80\x99'
p1481
I1481
sS'lay'
p1482
I1482
sS'law'
p1483
I1483
sS'arch'
p1484
I1484
sS'averag'
p1485
I1485
sS'las'
p1486
I1486
sS'lowermiddleclass'
p1487
I1487
sS'shoot\xe2\x80\x99emup'
p1488
I1488
sS'greet'
p1489
I1489
sS'out\xe2\x80\x9d'
p1490
I1201
sS'green'
p1491
I1491
sS'waitress'
p1492
I3995
sS'greec'
p1493
I1493
sS'order'
p1494
I1494
sS'offici'
p1495
I1495
sS'zen'
p1496
I1497
sS'typewrit'
p1497
I1498
sS'zev'
p1498
I1499
sS'japan'
p1499
I1500
sS'mayor'
p1500
I1501
sS'wobbly\xe2\x80\x9d'
p1501
I1203
sS'offic'
p1502
I1503
sS'mid30'
p1503
I4981
sS'then'
p1504
I1505
sS'them'
p1505
I1506
sS'\xe2\x80\x9cwrong'
p1506
I1507
sS'fragment'
p1507
I1508
sS'safe'
p1508
I1509
sS'break'
p1509
I1510
sS'band'
p1510
I1511
sS'bang'
p1511
I1512
sS'they'
p1512
I1513
sS'bank'
p1513
I1514
sS'sodom'
p1514
I1515
sS'oxygen'
p1515
I1516
sS'l'
p1516
I1517
sS'$50'
p1517
I1518
sS'backstretch'
p1518
I1519
sS'artaud'
p1519
I1520
sS'flock'
p1520
I1521
sS'too\xe2\x80\x94on'
p1521
I1522
sS'drinks\xe2\x80\x9d'
p1522
I1523
sS'cigarette\xe2\x80\x9d'
p1523
I1524
sS'palac'
p1524
I1525
sS'hooker'
p1525
I1526
sS'forth'
p1526
I1527
sS'forti'
p1527
I1528
sS'standard'
p1528
I1529
sS'\xe2\x80\x9ccranston'
p1529
I1530
sS'morass'
p1530
I1531
sS'lousi'
p1531
I1532
sS'afirmado'
p1532
I1533
sS'angl'
p1533
I1534
sS'renew'
p1534
I1535
sS'can\xe2\x80\x99t'
p1535
I1536
sS'america\xe2\x80\x99\xe2\x80\x9d'
p1536
I1537
sS'$130'
p1537
I1538
sS'thick'
p1538
I1539
sS'\xe2\x80\x9chere\xe2\x80\x99'
p1539
I1540
sS'write\xe2\x80\x9d'
p1540
I1541
sS'offhand'
p1541
I1542
sS'luncheon'
p1542
I1543
sS'albert'
p1543
I1544
sS'waster'
p1544
I1545
sS'chaser'
p1545
I1546
sS'hike'
p1546
I1547
sS'madhouses\xe2\x80\x94brain'
p1547
I1548
sS'merci'
p1548
I1549
sS'minut'
p1549
I1550
sS'buys\xe2\x80\x9d'
p1550
I1551
sS'dildo'
p1551
I1552
sS'whitejacket'
p1552
I1553
sS'sweetersmel'
p1553
I1554
sS'bedlight'
p1554
I1555
sS'hamper'
p1555
I1556
sS'ticket\xe2\x80\x9d'
p1556
I1557
sS'poets\xe2\x80\x94specif'
p1557
I1558
sS'\xe2\x80\x9cjenner'
p1558
I1559
sS'middleclass'
p1559
I1560
sS'maiden'
p1560
I1561
sS'bruce'
p1561
I1562
sS'what'
p1562
I4993
sS'gravi'
p1563
I1564
sS'grave'
p1564
I1565
sS'70\xe2\x80\x99s'
p1565
I1566
sS'excus'
p1566
I1567
sS'\xe2\x80\x9cdesert'
p1567
I1568
sS'aunt'
p1568
I1569
sS'\xe2\x80\x9cyou\xe2\x80\x99r'
p1569
I4996
sS'fucked\xe2\x80\x9d'
p1570
I1571
sS'\xe2\x80\x9cthere'
p1571
I1572
sS'musket\xe2\x80\x94insid'
p1572
I1573
sS'doper'
p1573
I1574
sS'involv'
p1574
I1575
sS'drums\xe2\x80\x9d'
p1575
I1576
sS'understand\xe2\x80\x9d'
p1576
I1577
sS'unendur'
p1577
I1578
sS'sharki'
p1578
I1579
sS'do'
p1579
I1580
sS'de'
p1580
I1581
sS'dc'
p1581
I1582
sS'\xe2\x80\x9chard'
p1582
I1583
sS'stalingrad'
p1583
I1584
sS'happiest'
p1584
I1585
sS'dr'
p1585
I1586
sS'rebirth'
p1586
I1587
sS'arm\xe2\x80\x99'
p1587
I1588
sS'secretari'
p1588
I1589
sS'steak'
p1589
I1590
sS'steam'
p1590
I1591
sS'reread'
p1591
I1592
sS'awar'
p1592
I1593
sS'away'
p1593
I1594
sS'threehors'
p1594
I1595
sS'atroc'
p1595
I1596
sS'drawn'
p1596
I1597
sS'we'
p1597
I1598
sS'midstretch'
p1598
I4020
sS'unfold'
p1599
I1600
sS'intox'
p1600
I1601
sS'kitchen'
p1601
I1602
sS'cop'
p1602
I1603
sS'easi'
p1603
I286
sS'cow'
p1604
I1605
sS'coy'
p1605
I1606
sS'howev'
p1606
I1607
sS'brag'
p1607
I1608
sS'con'
p1608
I1609
sS'tough'
p1609
I1610
sS'tong'
p1610
I1611
sS'dullsound'
p1611
I1612
sS'speak'
p1612
I1613
sS'degener'
p1613
I1614
sS'hay'
p1614
I288
sS'convolut'
p1615
I1616
sS'plantat'
p1616
I1617
sS'petti'
p1617
I1618
sS'dollar\xe2\x80\x9d'
p1618
I1619
sS'prison'
p1619
I289
sS'unclutt'
p1620
I1621
sS'has'
p1621
I291
sS'properti'
p1622
I1623
sS'air'
p1623
I1624
sS'thrash'
p1624
I1625
sS'stink'
p1625
I1626
sS'dizzi'
p1626
I1627
sS'sting'
p1627
I1628
sS'brake'
p1628
I1629
sS'\xe2\x80\x9cbastard'
p1629
I1630
sS'unconcern'
p1630
I1631
sS'hank'
p1631
I4327
sS'raid'
p1632
I1633
sS'evid'
p1633
I1634
sS'swell'
p1634
I1635
sS'rail'
p1635
I1636
sS'evil'
p1636
I1637
sS'hand'
p1637
I1638
sS'rais'
p1638
I1639
sS'nip'
p1639
I4365
sS'vermont'
p1640
I1641
sS'kept'
p1641
I1642
sS'scenario'
p1642
I1643
sS'she\xe2\x80\x99d'
p1643
I1644
sS'1600'
p1644
I1645
sS'1974'
p1645
I1646
sS'drip'
p1646
I4389
sS'jackie\xe2\x80\x9d'
p1647
I1648
sS'tho'
p1648
I1649
sS'contact'
p1649
I1650
sS'the'
p1650
I1651
sS'photo'
p1651
I1652
sS'victim'
p1652
I1653
sS'oldfashion'
p1653
I1654
sS'july\xe2\x80\x9d'
p1654
I1655
sS'eyes\xe2\x80\x9d'
p1655
I1656
sS'shout'
p1656
I1657
sS'spread'
p1657
I1658
sS'board'
p1658
I1659
sS'mayb'
p1659
I1660
sS'arab'
p1660
I1661
sS'boxer'
p1661
I1662
sS'nudi'
p1662
I1663
sS'cooler'
p1663
I1664
sS'\xe2\x80\x9cthat\xe2\x80\x99'
p1664
I1665
sS'night'
p1665
I1666
sS'webb'
p1666
I1667
sS'childbear'
p1667
I1669
sS'percentag'
p1668
I1670
sS'born'
p1669
I1671
sS'flatten'
p1670
I1672
sS'bore'
p1671
I1673
sS'ain\xe2\x80\x99t'
p1672
I1674
sS'humor'
p1673
I1675
sS'eleph'
p1674
I1676
sS'peek'
p1675
I1677
sS'columbus'
p1676
I1678
sS'nonuniform'
p1677
I1679
sS'peel'
p1678
I1680
sS'cabbi'
p1679
I1681
sS'pose'
p1680
I1682
sS'semicircl'
p1681
I1683
sS'thousand\xe2\x80\x9d'
p1682
I1684
sS'peer'
p1683
I1685
sS'peep'
p1684
I1686
sS'$73'
p1685
I1687
sS'$75'
p1686
I1688
sS'cell\xe2\x80\x9d'
p1687
I1689
sS'horizon'
p1688
I1690
sS'\xe2\x80\x98angels\xe2\x80\x99'
p1689
I1691
sS'bounc'
p1690
I1692
sS'float'
p1691
I1693
sS'profession'
p1692
I1694
sS'bound'
p1693
I1695
sS'barfli'
p1694
I1696
sS'lewi'
p1695
I1697
sS'bed\xe2\x80\x9d'
p1696
I1698
sS'\xe2\x80\x9958'
p1697
I1699
sS'fight'
p1698
I1700
sS'way'
p1699
I1701
sS'was'
p1700
I1702
sS'war'
p1701
I1703
sS'occupationallydestroy'
p1702
I1704
sS'lowest'
p1703
I1705
sS'deaf'
p1704
I3034
sS'true'
p1705
I1707
sS'\xe2\x80\x9csay'
p1706
I1708
sS'braver'
p1707
I1709
sS'headjob'
p1708
I1710
sS'left\xe2\x80\x9d'
p1709
I1711
sS'plymouth'
p1710
I1712
sS'absenc'
p1711
I1713
sS'\xe2\x80\x9cwould'
p1712
I1714
sS'dostoevski'
p1713
I1715
sS'hotter'
p1714
I1716
sS'alongsid'
p1715
I1717
sS'\xe2\x80\x9cage'
p1716
I1718
sS'moll'
p1717
I1719
sS'mold'
p1718
I1720
sS'racetrack\xe2\x80\x99'
p1719
I1721
sS'racetrack\xe2\x80\x9d'
p1720
I1722
sS'\xe2\x80\x9cyesterday'
p1721
I4889
sS'jone'
p1722
I1724
sS'test'
p1723
I1725
sS'shrink'
p1724
I1726
sS'realiti'
p1725
I1727
sS'\xe2\x80\x9cusual'
p1726
I1728
sS'*****ohio'
p1727
I1729
sS'cheaper'
p1728
I1730
sS'onceaweek'
p1729
I1731
sS'desexifi'
p1730
I1732
sS'consum'
p1731
I1733
sS'damn\xe2\x80\x9d'
p1732
I1734
sS'story\xe2\x80\x9d'
p1733
I1735
sS'middl'
p1734
I1736
sS'grape'
p1735
I1737
sS'dreamer\xe2\x80\x94i'
p1736
I1738
sS'flash'
p1737
I1739
sS'rhythm'
p1738
I1740
sS'terror'
p1739
I1741
sS'\xe2\x80\x9cfuck'
p1740
I1742
sS'brown'
p1741
I1743
sS'blast'
p1742
I1744
sS'gun'
p1743
I1745
sS'gut'
p1744
I1746
sS'guy'
p1745
I1747
sS'upper'
p1746
I1748
sS'brave'
p1747
I1749
sS'regret'
p1748
I1750
sS'\xe2\x80\x9cmine'
p1749
I1751
sS'cost'
p1750
I1752
sS'helpless'
p1751
I1753
sS'rapist'
p1752
I1754
sS'eightroom'
p1753
I1755
sS'wildebeest'
p1754
I1756
sS'uniform'
p1755
I1757
sS'\xe2\x80\x9cnow'
p1756
I1758
sS'1015'
p1757
I1759
sS'\xe2\x80\x9cnot'
p1758
I1760
sS'cranston'
p1759
I1761
sS'\xe2\x80\x9960s'
p1760
I1762
sS'satisfi'
p1761
I1763
sS'goldfish'
p1762
I1764
sS'teacher'
p1763
I1765
sS'buck'
p1764
I1766
sS'mcdonald\xe2\x80\x99s\xe2\x80\x9d'
p1765
I1767
sS'oh\xe2\x80\x9d'
p1766
I1768
sS'chesterfield'
p1767
I1769
sS'fail\xe2\x80\x9d'
p1768
I1770
sS'pillow'
p1769
I1771
sS'promot'
p1770
I1772
sS'infract'
p1771
I1773
sS'extra'
p1772
I1774
sS'\xe2\x80\x9cfrom'
p1773
I1775
sS'nearmonopoli'
p1774
I1776
sS'market'
p1775
I1777
sS'him\xe2\x80\x9d'
p1776
I1778
sS'prove'
p1777
I1779
sS'live'
p1778
I1780
sS'mustdo'
p1779
I1781
sS'tape'
p1780
I1254
sS'campsit'
p1781
I1783
sS'club'
p1782
I1784
sS'pete\xe2\x80\x99'
p1783
I1785
sS'continually\xe2\x80\x94class'
p1784
I5347
sS'prepar'
p1785
I1787
sS'tranc'
p1786
I1788
sS'cat'
p1787
I1789
sS'can'
p1788
I1790
sS'bowleg'
p1789
I1791
sS'cal'
p1790
I1792
sS'cab'
p1791
I1793
sS'heart'
p1792
I1794
sS'chip'
p1793
I1795
sS'heard'
p1794
I1796
sS'chin'
p1795
I1797
sS'frankie\xe2\x80\x99'
p1796
I1798
sS'occur'
p1797
I1799
sS'occup'
p1798
I1800
sS'\xe2\x80\x9cmust'
p1799
I1801
sS'\xe2\x80\x9csend'
p1800
I1802
sS'write'
p1801
I1803
sS'flank'
p1802
I1804
sS'\xe2\x80\x9cpow\xe2\x80\x9d'
p1803
I1805
sS'afternoon'
p1804
I3057
sS'product'
p1805
I1807
sS'sacrifici'
p1806
I1808
sS'dive'
p1807
I1809
sS'ladies\xe2\x80\x99'
p1808
I1810
sS'favorit'
p1809
I1811
sS'pace\xe2\x80\x9d'
p1810
I1812
sS'where\xe2\x80\x99'
p1811
I1813
sS'stilt'
p1812
I1814
sS'home\xe2\x80\x9d'
p1813
I1815
sS'\xe2\x80\x9ccould'
p1814
I1816
sS'haircut'
p1815
I1817
sS'kafka'
p1816
I1818
sS'brain'
p1817
I1819
sS'cold'
p1818
I1820
sS'still'
p1819
I1821
sS'ethic'
p1820
I1822
sS'worse\xe2\x80\x9d'
p1821
I1823
sS'sexiest'
p1822
I1824
sS'window'
p1823
I1825
sS'hand\xe2\x80\x9d'
p1824
I1826
sS'wealthi'
p1825
I1827
sS'nod'
p1826
I1828
sS'1955'
p1827
I1829
sS'aesthet'
p1828
I1830
sS'half'
p1829
I1831
sS'not'
p1830
I1832
sS'taillight'
p1831
I1833
sS'discuss'
p1832
I1834
sS'nor'
p1833
I1835
sS'introduct'
p1834
I1836
sS'\xe2\x80\x9cthis'
p1835
I1837
sS'drop'
p1836
I1838
sS'magazin'
p1837
I1839
sS'courag'
p1838
I1840
sS'el'
p1839
I1841
sS'eh'
p1840
I1842
sS'citat'
p1841
I1843
sS'replac'
p1842
I1844
sS'yeah'
p1843
I1845
sS'bradley'
p1844
I1846
sS'profit\xe2\x80\x94our'
p1845
I1847
sS'replay'
p1846
I1848
sS'year'
p1847
I1849
sS'happen'
p1848
I1850
sS'uhuh'
p1849
I1851
sS'doc\xe2\x80\x99'
p1850
I1852
sS'space'
p1851
I1853
sS'c\xc3\xa9line'
p1852
I1854
sS'thirst'
p1853
I1855
sS'shithead'
p1854
I1856
sS'argu'
p1855
I1857
sS'quart'
p1856
I1858
sS'\xe2\x80\x9cgreat'
p1857
I1859
sS'rebel'
p1858
I1860
sS'carl'
p1859
I1861
sS'\xe2\x80\x9ccash'
p1860
I1862
sS'card'
p1861
I1863
sS'care'
p1862
I1864
sS'seconds\xe2\x80\x9d'
p1863
I1865
sS'\xe2\x80\x9cnice'
p1864
I1866
sS'honest'
p1865
I1867
sS'leave\xe2\x80\x9d'
p1866
I1868
sS'happen\xe2\x80\x9d'
p1867
I1869
sS'profess'
p1868
I1870
sS'blind'
p1869
I1871
sS'hank\xe2\x80\x9d'
p1870
I1872
sS'zag'
p1871
I1873
sS'toetickl'
p1872
I1874
sS'yourself'
p1873
I1875
sS'sand\xe2\x80\x9d'
p1874
I1876
sS'drove'
p1875
I1877
sS'tomorrow'
p1876
I1878
sS'size'
p1877
I1879
sS'sheet'
p1878
I1880
sS'christma'
p1879
I1881
sS'caught'
p1880
I1882
sS'breed'
p1881
I1883
sS'silenc'
p1882
I1884
sS'tragic'
p1883
I1885
sS'breez'
p1884
I1886
sS'friend'
p1885
I1887
sS'especi'
p1886
I1888
sS'fuckin\xe2\x80\x99'
p1887
I1889
sS'than'
p1888
I1890
sS'did\xe2\x80\x9d'
p1889
I1891
sS'$10'
p1890
I1892
sS'delic'
p1891
I1893
sS'angel'
p1892
I1894
sS'slat'
p1893
I1895
sS'anywher'
p1894
I1896
sS'slap'
p1895
I1897
sS'racetrack'
p1896
I2136
sS'13th'
p1897
I1899
sS'slam'
p1898
I1900
sS'anger'
p1899
I1901
sS'breakfast'
p1900
I1902
sS'slab'
p1901
I1903
sS'doorbel'
p1902
I1904
sS'engin'
p1903
I1905
sS'shore'
p1904
I5051
sS'there\xe2\x80\x99l'
p1905
I1907
sS'had\xe2\x80\x9d'
p1906
I1908
sS'begin'
p1907
I1909
sS'prick'
p1908
I1910
sS'price'
p1909
I1911
sS'shitter'
p1910
I1912
sS'suzy\xe2\x80\x9d'
p1911
I1913
sS'america'
p1912
I1914
sS'rescu'
p1913
I1915
sS'egg'
p1914
I1916
sS'peanutbutt'
p1915
I1917
sS'mrs'
p1916
I1918
sS'meanwhil'
p1917
I1919
sS'ko\xe2\x80\x99'
p1918
I1920
sS'\xe2\x80\x9cjesus'
p1919
I1921
sS'schopenhau'
p1920
I1922
sS'steadi'
p1921
I1923
sS'german'
p1922
I1924
sS'hairpin'
p1923
I1925
sS'handwrit'
p1924
I1926
sS'fifth'
p1925
I1927
sS'ground'
p1926
I1928
sS'onli'
p1927
I1929
sS'gnaw'
p1928
I1930
sS'zalegraziano'
p1929
I1931
sS'jolt'
p1930
I1932
sS'stain'
p1931
I1933
sS'cannot'
p1932
I1934
sS'12yearold'
p1933
I1935
sS'cowboyranch'
p1934
I1936
sS'leather'
p1935
I1937
sS'seldom'
p1936
I1938
sS'hostil'
p1937
I1939
sS'husband'
p1938
I1940
sS'king\xe2\x80\x99'
p1939
I3075
sS'asleep'
p1940
I1942
sS'sport'
p1941
I1943
sS'concern'
p1942
I1944
sS'glaze'
p1943
I1945
sS'3'
p1944
I1946
sS'between'
p1945
I1947
sS'import'
p1946
I1948
sS'specials\xe2\x80\x9d'
p1947
I1949
sS'pluck'
p1948
I1950
sS'rippl'
p1949
I1951
sS'monk'
p1950
I1952
sS'nearbi'
p1951
I1953
sS'\xe2\x80\x9cwhatcha'
p1952
I1954
sS'haunch'
p1953
I1955
sS'evict'
p1954
I1956
sS'\xe2\x80\x9clisten\xe2\x80\x9d'
p1955
I1957
sS'damag'
p1956
I1958
sS'nice\xe2\x80\x9d'
p1957
I1959
sS'swallow\xe2\x80\x94tho'
p1958
I1960
sS'rebuilt'
p1959
I703
sS'shirttail'
p1960
I1285
sS'sun\xe2\x80\x9d'
p1961
I1963
sS'these'
p1962
I1964
sS'trick'
p1963
I1965
sS'scuf'
p1964
I1966
sS'$1500'
p1965
I1967
sS'i\xe2\x80\x9d'
p1966
I1968
sS'hell\xe2\x80\x99'
p1967
I1969
sS'hell\xe2\x80\x9d'
p1968
I1970
sS'soil'
p1969
I1971
sS'worri'
p1970
I1972
sS'stewardess'
p1971
I1973
sS'beaver'
p1972
I1974
sS'develop'
p1973
I1975
sS'medic'
p1974
I1976
sS'finki'
p1975
I1977
sS'gentlemen'
p1976
I1978
sS'ya'
p1977
I1979
sS'musket'
p1978
I1980
sS'4weekold'
p1979
I3091
sS'finish'
p1980
I1982
sS'two'
p1981
I1983
sS'madwoman'
p1982
I1984
sS'credit\xe2\x80\x9d'
p1983
I1985
sS'mad\xe2\x80\x9d'
p1984
I1986
sS'battleship'
p1985
I1987
sS'neon'
p1986
I1988
sS'touch'
p1987
I1989
sS'speed'
p1988
I1990
sS'\xe2\x80\x9cwinner'
p1989
I1991
sS'death'
p1990
I1992
sS'europ'
p1991
I1993
sS'upton'
p1992
I1994
sS'senseless'
p1993
I1995
sS'funer'
p1994
I1996
sS'treatment'
p1995
I1997
sS'\xe2\x80\x9cdoug\xe2\x80\x9d'
p1996
I1998
sS'struck'
p1997
I1999
sS'earli'
p1998
I971
sS'ream'
p1999
I2001
sS'read'
p2000
I2002
sS'ladi'
p2001
I2003
sS'sandwich\xe2\x80\x9d'
p2002
I2004
sS'gonna'
p2003
I2005
sS'envis'
p2004
I2006
sS'hour\xe2\x80\x94\xe2\x80\x9d'
p2005
I989
sS'rear'
p2006
I2008
sS'postcard'
p2007
I2009
sS'gun\xe2\x80\x9d'
p2008
I2010
sS'output'
p2009
I2011
sS'\xe2\x80\x9chow\xe2\x80\x99d'
p2010
I2012
sS'fucking\xe2\x80\x9d'
p2011
I2013
sS'trashman\xe2\x80\x9d'
p2012
I2014
sS'fucking\xe2\x80\x99'
p2013
I2015
sS'landslid'
p2014
I2016
sS'\xe2\x80\x9cgive'
p2015
I2017
sS'wonder\xe2\x80\x9d'
p2016
I2018
sS'sixti'
p2017
I2019
sS'sixth'
p2018
I2020
sS'mouseshadow'
p2019
I2021
sS'1937'
p2020
I2022
sS'1938'
p2021
I2023
sS'throw'
p2022
I2024
sS'working\xe2\x80\x9d'
p2023
I2025
sS'comparison'
p2024
I2026
sS'pussy\xe2\x80\x9d'
p2025
I2027
sS'central'
p2026
I2028
sS'id\xe2\x80\x99'
p2027
I2029
sS'chop'
p2028
I2030
sS'fell'
p2029
I3102
sS'wolf'
p2030
I2032
sS'assassin'
p2031
I2033
sS'work\xe2\x80\x94someth'
p2032
I2034
sS'\xe2\x80\x9chow\xe2\x80\x99'
p2033
I2035
sS'whorehous'
p2034
I2036
sS'airlin'
p2035
I2037
sS'your'
p2036
I2038
sS'lob'
p2037
I1188
sS'fast'
p2038
I2040
sS'area'
p2039
I2041
sS'los'
p2040
I1209
sS'fascin'
p2041
I2043
sS'starv'
p2042
I2044
sS'low'
p2043
I2045
sS'lot'
p2044
I2046
sS'lou'
p2045
I2047
sS'\xe2\x80\x9cwomen'
p2046
I2048
sS'rest\xe2\x80\x9d'
p2047
I2049
sS'ap\xe2\x80\x94mor'
p2048
I2050
sS'5/2'
p2049
I2051
sS'hire'
p2050
I2052
sS'fraud'
p2051
I2053
sS'\xe2\x80\x9clinda\xe2\x80\x9d'
p2052
I2055
sS'reappear'
p2053
I2335
sS'libbers\xe2\x80\x9d'
p2054
I2056
sS'mutil'
p2055
I2057
sS'600'
p2056
I2058
sS'sheath'
p2057
I2059
sS'time\xe2\x80\x94lik'
p2058
I2060
sS'braill'
p2059
I2061
sS'valid'
p2060
I2062
sS'\xe2\x80\x9cfollow'
p2061
I2063
sS'you'
p2062
I2064
sS'juic'
p2063
I2065
sS'poor'
p2064
I2066
sS'water\xe2\x80\x9d'
p2065
I5596
sS'drift'
p2066
I2067
sS'hairs\xe2\x80\x9d'
p2067
I2068
sS'peak'
p2068
I2069
sS'462'
p2069
I2070
sS'peac'
p2070
I2071
sS'pool'
p2071
I2072
sS'reduc'
p2072
I2073
sS'philosoph'
p2073
I2074
sS'$39'
p2074
I2075
sS'$34'
p2075
I2076
sS'hardon'
p2076
I2077
sS'moonlight'
p2077
I2078
sS'repay'
p2078
I2079
sS'midtwenti'
p2079
I2080
sS'groundwork'
p2080
I2081
sS'month'
p2081
I1418
sS'stop\xe2\x80\x9d'
p2082
I2083
sS'refocus'
p2083
I2084
sS'kiss\xe2\x80\x9d'
p2084
I2085
sS'articl'
p2085
I2086
sS'\xe2\x80\x9csee'
p2086
I2087
sS'horror'
p2087
I2088
sS'mph'
p2088
I2089
sS'mechan'
p2089
I2090
sS'verg'
p2090
I2091
sS'veri'
p2091
I2092
sS'humor\xe2\x80\x9d'
p2092
I2093
sS'prohip'
p2093
I2094
sS'louis'
p2094
I2095
sS'unlisted\xe2\x80\x9d'
p2095
I5081
sS'urinal\xe2\x80\x9d'
p2096
I2097
sS'casual'
p2097
I2098
sS'learner'
p2098
I2099
sS'skid'
p2099
I3120
sS'5'
p2100
I4945
sS'dailydoubl'
p2101
I2101
sS'trunk'
p2102
I2102
sS'strong'
p2103
I2103
sS'ahead'
p2104
I2105
sS'shouldn\xe2\x80\x99t'
p2105
I2106
sS'first\xe2\x80\x9d'
p2106
I2107
sS'medicin'
p2107
I2108
sS'trainrid'
p2108
I2109
sS'put'
p2109
I2110
sS'layoff'
p2110
I1308
sS'famili'
p2111
I2112
sS'dangl'
p2112
I2113
sS'by\xe2\x80\x9d'
p2113
I2114
sS'massag'
p2114
I2115
sS'taken'
p2115
I2116
sS'grandmother\xe2\x80\x99'
p2116
I2117
sS'blister'
p2117
I2118
sS'hurri'
p2118
I2119
sS'\xe2\x80\x9cto'
p2119
I2120
sS'broke'
p2120
I2121
sS'\xe2\x80\x9cta'
p2121
I2122
sS'histori'
p2122
I2123
sS'nina'
p2123
I2124
sS'nine'
p2124
I2125
sS'flag\xe2\x80\x9d'
p2125
I2126
sS'land\xe2\x80\x94travel'
p2126
I2127
sS'moving\xe2\x80\x9d'
p2127
I2128
sS'anoth'
p2128
I2129
sS'gash'
p2129
I2130
sS'sneak'
p2130
I2131
sS'a'
p2131
I2132
sS'\xe2\x80\x9cmake'
p2132
I2133
sS'sob\xe2\x80\x9d'
p2133
I2134
sS'thing\xe2\x80\x94th'
p2134
I2135
sS'3112'
p2135
I1898
sS'32yearold'
p2136
I2137
sS'4/5'
p2137
I2138
sS'dream'
p2138
I2139
sS'up\xe2\x80\x9d'
p2139
I2140
sS'help'
p2140
I2141
sS'reservoir'
p2141
I2142
sS'soon'
p2142
I2143
sS'held'
p2143
I2144
sS'bitch\xe2\x80\x94\xe2\x80\x9d'
p2144
I2145
sS'hell'
p2145
I2146
sS'woolf\xe2\x80\x9d'
p2146
I2147
sS'\xe2\x80\x9csorry\xe2\x80\x9d'
p2147
I2148
sS'obscen'
p2148
I2149
sS'lightn'
p2149
I2742
sS'astonish'
p2150
I2150
sS'delici'
p2151
I2151
sS'fool'
p2152
I2152
sS'food'
p2153
I2153
sS'sentenc'
p2154
I2154
sS'serious\xe2\x80\x9d'
p2155
I2155
sS'vomit'
p2156
I2156
sS'foot'
p2157
I2157
sS'radiat'
p2158
I2158
sS'bless'
p2159
I2159
sS'fulli'
p2160
I2160
sS'heavi'
p2161
I2161
sS'beyond'
p2162
I2162
sS'allamerican'
p2163
I2163
sS'robert'
p2164
I2164
sS'disease\xe2\x80\x9d'
p2165
I2165
sS'jokes\xe2\x80\x94everyth'
p2166
I2166
sS'publish'
p2167
I2167
sS'fountain'
p2168
I2168
sS'7'
p2169
I2169
sS'shrivel'
p2170
I2170
sS'ass'
p2171
I2171
sS'thirtyf'
p2172
I2172
sS'drink'
p2173
I1319
sS'dirt'
p2174
I2174
sS'puf'
p2175
I2175
sS'reason'
p2176
I2176
sS'base'
p2177
I2177
sS'ask'
p2178
I2178
sS'bash'
p2179
I2179
sS'firstclass'
p2180
I2180
sS'veloc'
p2181
I2181
sS'revolutionari'
p2182
I2182
sS'american'
p2183
I2183
sS'\xe2\x80\x9cwell\xe2\x80\x9d'
p2184
I2184
sS'lifetim'
p2185
I2185
sS'assign'
p2186
I2186
sS'loujon'
p2187
I2187
sS'miss'
p2188
I2188
sS'eddi'
p2189
I2189
sS'station'
p2190
I2190
sS'banana'
p2191
I2191
sS'\xe2\x80\x9cthere\xe2\x80\x99'
p2192
I2192
sS'asshol'
p2193
I2193
sS'velasquez'
p2194
I2194
sS'bower'
p2195
I2195
sS'undergrown'
p2196
I2196
sS'god\xe2\x80\x99'
p2197
I2197
sS'god\xe2\x80\x9d'
p2198
I2198
sS'grey'
p2199
I2199
sS'groceri'
p2200
I2200
sS'toward'
p2201
I2201
sS'mickey'
p2202
I2202
sS'philli'
p2203
I2203
sS'm\xe2\x80\x94'
p2204
I2204
sS'karl'
p2205
I2205
sS'lid'
p2206
I2206
sS'imagin'
p2207
I1668
sS'lib'
p2208
I2208
sS'cave'
p2209
I2209
sS'\xe2\x80\x9cthousand'
p2210
I2210
sS'lit'
p2211
I2211
sS'lip'
p2212
I2212
sS'useless'
p2213
I2213
sS'off\xe2\x80\x9d'
p2214
I2215
sS'eaten'
p2215
I2216
sS'\xe2\x80\x9cwake'
p2216
I2217
sS'clear'
p2217
I2218
sS'cleat'
p2218
I2219
sS'salari'
p2219
I2220
sS'tongu'
p2220
I2365
sS'latest'
p2221
I2222
sS'blend'
p2222
I2223
sS'\xe2\x80\x9cmayb'
p2223
I2224
sS'planeload'
p2224
I2225
sS'\xe2\x80\x9cpick'
p2225
I2226
sS'melt'
p2226
I2227
sS'coerc'
p2227
I2228
sS'pretti'
p2228
I2229
sS'duncan'
p2229
I2230
sS'flesh'
p2230
I2627
sS'juke'
p2231
I2232
sS'\xe2\x80\x9cin'
p2232
I2233
sS'king'
p2233
I5123
sS'\xe2\x80\x9cif'
p2234
I2235
sS'famous'
p2235
I2236
sS'grew'
p2236
I2237
sS'3/5'
p2237
I2238
sS'\xe2\x80\x9cit'
p2238
I2239
sS'\xe2\x80\x9cjoe\xe2\x80\x9d'
p2239
I2240
sS'\xe2\x80\x9cis'
p2240
I2241
sS'unfurnish'
p2241
I2242
sS'jeffer'
p2242
I2243
sS'close'
p2243
I2244
sS'guys\xe2\x80\x9d'
p2244
I2245
sS'wow'
p2245
I2246
sS'grandmoth'
p2246
I2247
sS'particip'
p2247
I2248
sS'won'
p2248
I2249
sS'way\xe2\x80\x9d'
p2249
I2250
sS'piss'
p2250
I2251
sS'bettor'
p2251
I2252
sS'numer'
p2252
I2253
sS'isol'
p2253
I2254
sS'zipper'
p2254
I2255
sS'both'
p2255
I2256
sS'forgotten'
p2256
I2257
sS'stoplight'
p2257
I2258
sS'puritan'
p2258
I2259
sS'suicidedriven'
p2259
I2260
sS'batteri'
p2260
I2261
sS'it\xe2\x80\x94al'
p2261
I2262
sS'stamp'
p2262
I2263
sS'damp'
p2263
I2264
sS'empti'
p2264
I2265
sS'damn'
p2265
I2266
sS'threaten'
p2266
I2267
sS'anthoni'
p2267
I2268
sS'crack'
p2268
I1338
sS'lastminut'
p2269
I2270
sS'drink\xe2\x80\x9d'
p2270
I2271
sS'look'
p2271
I2272
sS'pace'
p2272
I2273
sS'while'
p2273
I2274
sS'ought'
p2274
I2275
sS'loot'
p2275
I2276
sS'leland'
p2276
I2277
sS'loos'
p2277
I2278
sS'loop'
p2278
I2279
sS'pack'
p2279
I2280
sS'dictum'
p2280
I2281
sS'readi'
p2281
I2282
sS'\xe2\x80\x9cjazzsoup'
p2282
I2283
sS'belong'
p2283
I2284
sS'copy\xe2\x80\x9d'
p2284
I2285
sS'62967'
p2285
I2286
sS'sham'
p2286
I2287
sS'castrat'
p2287
I2288
sS'maneuv'
p2288
I2289
sS'dime'
p2289
I2290
sS'overweight'
p2290
I2291
sS'inflat'
p2291
I2292
sS'inflam'
p2292
I2293
sS'older'
p2293
I2294
sS'creeley'
p2294
I2295
sS'grind'
p2295
I2296
sS'vestibul'
p2296
I2297
sS'typefac'
p2297
I2298
sS'password'
p2298
I1347
sS'botch'
p2299
I2300
sS'girls\xe2\x80\x9d'
p2300
I2301
sS'march'
p2301
I2302
sS'bookmak'
p2302
I2303
sS'game'
p2303
I2304
sS'wiser'
p2304
I2305
sS'anarchist'
p2305
I2997
sS'girl\xe2\x80\x99'
p2306
I2306
sS'signal'
p2307
I2307
sS'popular'
p2308
I3052
sS'cruis'
p2309
I2309
sS'12hors'
p2310
I2310
sS'resold'
p2311
I2311
sS'pestil'
p2312
I2312
sS'like\xe2\x80\x94\xe2\x80\x9d'
p2313
I2313
sS'creation'
p2314
I2314
sS'some'
p2315
I2315
sS'undress'
p2316
I2316
sS'yolk'
p2317
I2317
sS'urgent'
p2318
I2318
sS'crottys\xe2\x80\x9d'
p2319
I2319
sS'baby\xe2\x80\x9d'
p2320
I2320
sS'amput'
p2321
I2321
sS'run'
p2322
I2322
sS'\xe2\x80\x9chello\xe2\x80\x9d'
p2323
I2323
sS'rub'
p2324
I2324
sS'reoccur'
p2325
I2325
sS'happen\xe2\x80\x94so'
p2326
I2326
sS'rug'
p2327
I2327
sS'chickenshit'
p2328
I2328
sS'step'
p2329
I2329
sS'stew'
p2330
I2330
sS'only\xe2\x80\x9d'
p2331
I2331
sS'2/5'
p2332
I2332
sS'shine'
p2333
I2333
sS'faith'
p2334
I2334
sS'housegown'
p2335
I4268
sS'block'
p2336
I2336
sS'smelli'
p2337
I2337
sS'within'
p2338
I2338
sS'drain'
p2339
I3416
sS'carlton'
p2340
I2339
sS'suitcas'
p2341
I2340
sS'less\xe2\x80\x9d'
p2342
I2341
sS'everybodi'
p2343
I3168
sS'goldfish\xe2\x80\x9d'
p2344
I2343
sS'amaz'
p2345
I2344
sS'himself'
p2346
I2345
sS'great'
p2347
I2346
sS'crapper'
p2348
I2347
sS'soap\xe2\x80\x9d'
p2349
I3309
sS'haven\xe2\x80\x99t'
p2350
I2349
sS'russian'
p2351
I2350
sS'dull'
p2352
I2351
sS'skull'
p2353
I2352
sS'refrig'
p2354
I2353
sS'similar'
p2355
I2354
sS'noteworthy\xe2\x80\x94it'
p2356
I2355
sS'up\xe2\x80\x94and'
p2357
I2356
sS'bever'
p2358
I2357
sS'lectur'
p2359
I2358
sS'aggrav'
p2360
I2359
sS'titl'
p2361
I2360
sS'nar'
p2362
I2361
sS'profit\xe2\x80\x94w'
p2363
I2362
sS'hollypark'
p2364
I2363
sS'draw'
p2365
I2364
sS'clean'
p2366
I2221
sS'resign'
p2367
I2366
sS'fingerfuck'
p2368
I3460
sS'drag'
p2369
I2368
sS'drab'
p2370
I2369
sS'inoffens'
p2371
I2370
sS'horseplay'
p2372
I2371
sS'later\xe2\x80\x9d'
p2373
I2372
sS'depth'
p2374
I2373
sS'homeless\xe2\x80\x94men'
p2375
I2374
sS'merced'
p2376
I2375
sS'ge'
p2377
I2376
sS'whiskey\xe2\x80\x9d'
p2378
I2377
sS'untangl'
p2379
I2398
sS'poet\xe2\x80\x9d'
p2380
I2379
sS'culinari'
p2381
I2380
sS'\xe2\x80\x9coooh'
p2382
I2381
sS'patricia\xe2\x80\x9d'
p2383
I3535
sS'didn\xe2\x80\x99t'
p2384
I2383
sS'patricia\xe2\x80\x99'
p2385
I3540
sS'halfcrazi'
p2386
I2385
sS'shack'
p2387
I2386
sS'waiting\xe2\x80\x9d'
p2388
I2387
sS'cutrat'
p2389
I2388
sS'aris'
p2390
I2389
sS'wave'
p2391
I2390
sS'stiff'
p2392
I2391
sS'button'
p2393
I2392
sS'beerbottl'
p2394
I2393
sS'twofoot'
p2395
I2394
sS'jump'
p2396
I2395
sS'hose'
p2397
I2396
sS'feet\xe2\x80\x94h'
p2398
I2397
sS'go'
p2399
I3519
sS'chance\xe2\x80\x9d'
p2400
I2399
sS'click'
p2401
I2400
sS'hot\xe2\x80\x9d'
p2402
I2401
sS'poke'
p2403
I2402
sS'darling\xe2\x80\x9d'
p2404
I2403
sS'reclus'
p2405
I2404
sS'valet'
p2406
I2405
sS'cell'
p2407
I2406
sS'rotten'
p2408
I2407
sS'\xe2\x80\x9csuppos'
p2409
I2408
sS'\xe2\x80\x9cok'
p2410
I2409
sS'\xe2\x80\x9coh'
p2411
I2410
sS'\xe2\x80\x9con'
p2412
I2411
sS'\xe2\x80\x9cred'
p2413
I2412
sS'\xe2\x80\x9cof'
p2414
I2413
sS'yourself\xe2\x80\x9d'
p2415
I2414
sS'\xe2\x80\x9cor'
p2416
I2415
sS'becom'
p2417
I2416
sS'convers'
p2418
I3748
sS'vacat'
p2419
I2418
sS'close\xe2\x80\x9d'
p2420
I2419
sS'chang'
p2421
I2420
sS'behead'
p2422
I2421
sS'chanc'
p2423
I2422
sS'clark'
p2424
I2423
sS'nearest'
p2425
I3186
sS'win'
p2426
I2425
sS'wit'
p2427
I2426
sS'infest'
p2428
I2427
sS'cloud'
p2429
I2428
sS'crap'
p2430
I2429
sS'\xe2\x80\x9cbetter'
p2431
I2430
sS'camera'
p2432
I2431
sS'crab'
p2433
I2432
sS'poets\xe2\x80\x9d'
p2434
I2433
sS'tuborg'
p2435
I2434
sS'remaind'
p2436
I2435
sS'1/2'
p2437
I2436
sS'starter'
p2438
I2437
sS'salad'
p2439
I2438
sS'please\xe2\x80\x9d'
p2440
I2439
sS'ride'
p2441
I2440
sS'meet'
p2442
I2441
sS'control'
p2443
I2442
sS'\xe2\x80\x9ccompar'
p2444
I2443
sS'exorbit'
p2445
I2444
sS'skirt'
p2446
I2445
sS'valhalla'
p2447
I2446
sS'they\xe2\x80\x99ll'
p2448
I2447
sS'stole'
p2449
I2448
sS'reestablish'
p2450
I2449
sS'poetri'
p2451
I2450
sS'circular'
p2452
I2451
sS'pink'
p2453
I3192
sS'elus'
p2454
I2453
sS'thirdlowest'
p2455
I2454
sS'businessmen\xe2\x80\x94th'
p2456
I2455
sS'sonor'
p2457
I2456
sS'masturb'
p2458
I2457
sS'bouff'
p2459
I2458
sS'laffit'
p2460
I2459
sS'everwher'
p2461
I2460
sS'\xe2\x80\x9cpull'
p2462
I2461
sS'newsweek'
p2463
I2462
sS'job\xe2\x80\x94not'
p2464
I2463
sS'brood'
p2465
I2464
sS'broom'
p2466
I2465
sS'walnut'
p2467
I2466
sS'punk\xe2\x80\x9d'
p2468
I2467
sS'paperclip'
p2469
I2468
sS'seabiscuit'
p2470
I2469
sS'pure'
p2471
I3196
sS'handl'
p2472
I2471
sS'frontal'
p2473
I2472
sS'broadsheet'
p2474
I2473
sS'front'
p2475
I2474
sS'\xe2\x80\x9cgerda'
p2476
I2475
sS'somewher'
p2477
I2476
sS'bat\xe2\x80\x9d'
p2478
I2477
sS'mode'
p2479
I2478
sS'upward'
p2480
I2479
sS'oughta'
p2481
I4177
sS'chunk'
p2482
I2481
sS'700'
p2483
I2482
sS'sasoon\xe2\x80\x99'
p2484
I2483
sS'waterfal'
p2485
I1379
sS'special'
p2486
I2486
sS'wondrous'
p2487
I2487
sS'spot'
p2488
I2488
sS'\xe2\x80\x9cwell\xe2\x80\x94\xe2\x80\x9d'
p2489
I2489
sS'heartbeat\xe2\x80\x99'
p2490
I2490
sS'sneer'
p2491
I2491
sS'\xe2\x80\x98nothing\xe2\x80\x99'
p2492
I2492
sS'nip\xe2\x80\x9d'
p2493
I2493
sS'yard\xe2\x80\x94\xe2\x80\x9d'
p2494
I1382
sS'wisdomtooth'
p2495
I2495
sS'keep'
p2496
I2496
sS'stride'
p2497
I2497
sS'beersoak'
p2498
I2498
sS'mad'
p2499
I3202
sS'qualiti'
p2500
I2500
sS'yesterday\xe2\x80\x9d'
p2501
I2501
sS'pitiabl'
p2502
I2502
sS'bitch'
p2503
I2503
sS'drinker'
p2504
I2504
sS'\xe2\x80\x9cooooh'
p2505
I2505
sS'attach'
p2506
I2506
sS'attack'
p2507
I2507
sS'privaci'
p2508
I2508
sS'final'
p2509
I2509
sS'beard'
p2510
I2510
sS'booth'
p2511
I3671
sS'dempseywillard'
p2512
I2511
sS'herself'
p2513
I2512
sS'waist'
p2514
I504
sS'photograph'
p2515
I2514
sS'ultimatum'
p2516
I2515
sS'conscious'
p2517
I2516
sS'beg'
p2518
I2517
sS'bed'
p2519
I2518
sS'bare'
p2520
I5181
sS'me\xe2\x80\x94i'
p2521
I2521
sS'bet'
p2522
I2522
sS'mid40'
p2523
I2523
sS'tabl'
p2524
I2524
sS'need'
p2525
I2525
sS'screw'
p2526
I4488
sS'bastard'
p2527
I2527
sS'bukowski\xe2\x80\x9d'
p2528
I2528
sS'jr\xe2\x80\x99s'
p2529
I2529
sS'singl'
p2530
I2530
sS'happi'
p2531
I2531
sS'energet'
p2532
I2532
sS'camper'
p2533
I2533
sS'discov'
p2534
I2534
sS'arcad'
p2535
I2535
sS'tall'
p2536
I3216
sS'heads\xe2\x80\x94\xe2\x80\x9cpsst'
p2537
I2537
sS'lifemean'
p2538
I2538
sS'stereo'
p2539
I4560
sS'upset'
p2540
I2540
sS'inde'
p2541
I2541
sS'future\xe2\x80\x9d'
p2542
I2542
sS'businessman'
p2543
I2543
sS'affair'
p2544
I2544
sS'$500'
p2545
I2545
sS'$19000'
p2546
I2546
sS'anyway'
p2547
I2547
sS'aren\xe2\x80\x99t'
p2548
I2548
sS'molest'
p2549
I2549
sS'tire'
p2550
I2550
sS'\xe2\x80\x9cwhere\xe2\x80\x99'
p2551
I2551
sS'winner'
p2552
I2552
sS'forev'
p2553
I2553
sS'manufactur'
p2554
I2554
sS'fuel'
p2555
I2555
sS'highris'
p2556
I2556
sS'michigan'
p2557
I2557
sS'121'
p2558
I2558
sS'in\xe2\x80\x94walk'
p2559
I2559
sS'buyer'
p2560
I4695
sS'endless'
p2561
I2561
sS'gray'
p2562
I2562
sS'enabl'
p2563
I2563
sS'\xe2\x80\x9calso'
p2564
I2564
sS'she'
p2565
I2565
sS'contain'
p2566
I2566
sS'grab'
p2567
I2567
sS'widow'
p2568
I2568
sS'shake'
p2569
I3222
sS'driveway'
p2570
I2570
sS'miller\xe2\x80\x99'
p2571
I2571
sS'linedup'
p2572
I2572
sS'timmy\xe2\x80\x9d'
p2573
I2573
sS'tend'
p2574
I2574
sS'state'
p2575
I4781
sS'tens'
p2576
I2576
sS'joyc'
p2577
I2577
sS'neither'
p2578
I2578
sS'tent'
p2579
I2579
sS'bleed'
p2580
I2580
sS'complaint\xe2\x80\x9d'
p2581
I2581
sS'literaryhustl'
p2582
I3642
sS'key'
p2583
I2582
sS'precious'
p2584
I2583
sS'beast\xe2\x80\x9d'
p2585
I5190
sS'sniff'
p2586
I2585
sS'career'
p2587
I2586
sS'admit'
p2588
I2587
sS'admir'
p2589
I2588
sS'night\xe2\x80\x94th'
p2590
I4873
sS'peekthrough'
p2591
I2590
sS'tuesday'
p2592
I2591
sS'\xe2\x80\x9cpolitical\xe2\x80\x9d'
p2593
I2592
sS'quit'
p2594
I2895
sS'slowli'
p2595
I2594
sS'die\xe2\x80\x9d'
p2596
I2595
sS'cent'
p2597
I2596
sS'treat'
p2598
I2597
sS'yak'
p2599
I2598
sS'whisper'
p2600
I2599
sS'poet'
p2601
I2600
sS'asinin'
p2602
I2601
sS'\xe2\x80\x9caren\xe2\x80\x99t'
p2603
I2602
sS'\xe2\x80\x9cmr'
p2604
I2603
sS'snivel'
p2605
I2604
sS'\xe2\x80\x9cme'
p2606
I2605
sS'hamburg'
p2607
I2606
sS'\xe2\x80\x9cmi'
p2608
I2607
sS'novel'
p2609
I2608
sS'\xe2\x80\x9cconfessional\xe2\x80\x9d'
p2610
I2609
sS'harder'
p2611
I4988
sS'\xe2\x80\x9cmiss'
p2612
I2611
sS'pulitz'
p2613
I4082
sS'\xe2\x80\x9cbukowski'
p2614
I2612
sS'plate\xe2\x80\x9d'
p2615
I2613
sS'collector\xe2\x80\x99'
p2616
I2614
sS'wins\xe2\x80\x9d'
p2617
I2615
sS'inkwel'
p2618
I2616
sS'pain\xe2\x80\x9d'
p2619
I2617
sS'parti'
p2620
I2618
sS'began'
p2621
I2619
sS'they\xe2\x80\x99d'
p2622
I2620
sS'speaker'
p2623
I2621
sS'northwest'
p2624
I2622
sS'got\xe2\x80\x9d'
p2625
I2623
sS'underground'
p2626
I2624
sS'they\xe2\x80\x99v'
p2627
I2625
sS'they\xe2\x80\x99r'
p2628
I2626
sS'absorb'
p2629
I2628
sS'ankl'
p2630
I2629
sS'effect'
p2631
I2630
sS'unchalleng'
p2632
I2631
sS'writing\xe2\x80\x94and'
p2633
I5101
sS'women\xe2\x80\x99'
p2634
I2633
sS'i'
p2635
I2634
sS'well'
p2636
I5130
sS'\xe2\x80\x9cmoney'
p2637
I2636
sS'taller'
p2638
I2637
sS'distanc'
p2639
I2638
sS'closer\xe2\x80\x9d'
p2640
I2639
sS'distant'
p2641
I2640
sS'virtual'
p2642
I2641
sS'parchment'
p2643
I2642
sS'patricia'
p2644
I2643
sS'kick'
p2645
I2644
sS'canter'
p2646
I2645
sS'utah'
p2647
I2646
sS'265'
p2648
I2648
sS'bukowski'
p2649
I2649
sS'lost'
p2650
I2650
sS'clown'
p2651
I2651
sS'necessari'
p2652
I2652
sS'lose'
p2653
I2653
sS'candl'
p2654
I2654
sS'page'
p2655
I2655
sS'candi'
p2656
I2656
sS'glare'
p2657
I2657
sS'unlov'
p2658
I2658
sS'certain'
p2659
I714
sS'homo'
p2660
I5307
sS'home'
p2661
I5312
sS'librari'
p2662
I2662
sS'pinpoint'
p2663
I2663
sS'broad'
p2664
I2664
sS'right\xe2\x80\x94long'
p2665
I2665
sS'journal'
p2666
I2666
sS'usag'
p2667
I2667
sS'clear\xe2\x80\x94they'
p2668
I2668
sS'forgiv'
p2669
I2669
sS'instinct'
p2670
I2670
sS'3500'
p2671
I2671
sS'freedom'
p2672
I2672
sS'jibberish'
p2673
I2673
sS'cleans'
p2674
I2674
sS'nightclub'
p2675
I2675
sS'say\xe2\x80\x9d'
p2676
I2676
sS'tortur'
p2677
I2677
sS'washington'
p2678
I2678
sS'\xe2\x80\x9cnaw'
p2679
I2679
sS'mississippi'
p2680
I2680
sS'museum'
p2681
I2681
sS'inner'
p2682
I2682
sS'there\xe2\x80\x99'
p2683
I2683
sS'there\xe2\x80\x9d'
p2684
I2684
sS'cricket'
p2685
I2685
sS'north'
p2686
I2686
sS'gone\xe2\x80\x9d'
p2687
I2082
sS'gain'
p2688
I2687
sS'whistl'
p2689
I2688
sS'eas'
p2690
I2689
sS'ha'
p2691
I2690
sS'eat'
p2692
I2691
sS'he'
p2693
I2692
sS'cruel'
p2694
I2693
sS'limit'
p2695
I2694
sS'twist'
p2696
I2695
sS'penni'
p2697
I2696
sS'pussycat'
p2698
I2697
sS'diego'
p2699
I2698
sS'dissolut'
p2700
I2699
sS'contest'
p2701
I2700
sS'coffeepot'
p2702
I2701
sS'\xe2\x80\x9cdon\xe2\x80\x99t\xe2\x80\x9d'
p2703
I2702
sS'\xe2\x80\x9cwait\xe2\x80\x9d'
p2704
I2703
sS'futur'
p2705
I2704
sS'rememb'
p2706
I2705
sS'star'
p2707
I2706
sS'this\xe2\x80\x9d'
p2708
I2707
sS'stay'
p2709
I2708
sS'neeli'
p2710
I2709
sS'stab'
p2711
I2710
sS'masoch'
p2712
I2711
sS'mother\xe2\x80\x99'
p2713
I2712
sS'mother\xe2\x80\x9d'
p2714
I2713
sS'portion'
p2715
I2714
sS'something\xe2\x80\x9d'
p2716
I2715
sS'work\xe2\x80\x9d'
p2717
I2716
sS'\xe2\x80\x9calcohol'
p2718
I2717
sS'pussies\xe2\x80\x9d'
p2719
I2718
sS'pardon'
p2720
I2719
sS'eightyearold'
p2721
I2720
sS'\xe2\x80\x98beautiful\xe2\x80\x99'
p2722
I2721
sS'protest'
p2723
I2722
sS'toenail'
p2724
I2723
sS'move\xe2\x80\x9d'
p2725
I2724
sS'nothing\xe2\x80\x9d'
p2726
I2725
sS'whose'
p2727
I2726
sS'accus'
p2728
I2727
sS'accur'
p2729
I2728
sS'sorri'
p2730
I2729
sS'swap'
p2731
I48
sS'sway'
p2732
I2731
sS'appal'
p2733
I2732
sS'voic'
p2734
I2733
sS'govern'
p2735
I2734
sS'affect'
p2736
I2735
sS'lefthand'
p2737
I2736
sS'vast'
p2738
I102
sS'inbr'
p2739
I2738
sS'fourtoon'
p2740
I2739
sS'even'
p2741
I2741
sS'orchestra'
p2742
I190
sS'poetry\xe2\x80\x9d'
p2743
I2743
sS'haze'
p2744
I2744
sS'jackoff'
p2745
I202
sS'fetish'
p2746
I206
sS'net'
p2747
I2747
sS'ever'
p2748
I2748
sS'hazi'
p2749
I2749
sS'again\xe2\x80\x94thi'
p2750
I2750
sS'lover\xe2\x80\x9d'
p2751
I2751
sS'elimin'
p2752
I2752
sS'men'
p2753
I229
sS'met'
p2754
I2754
sS'100'
p2755
I2755
sS'cardboard'
p2756
I2756
sS'104'
p2757
I2757
sS'105'
p2758
I2758
sS'cindi'
p2759
I2759
sS'\xe2\x80\x9crobert'
p2760
I2760
sS'dri'
p2761
I2761
sS'jame'
p2762
I274
sS'parlanc'
p2763
I2763
sS'menial'
p2764
I2764
sS'henderson\xe2\x80\x99'
p2765
I2765
sS'counti'
p2766
I2766
sS'bayonet'
p2767
I2767
sS'homemad'
p2768
I2768
sS'avenu'
p2769
I2769
sS'moral'
p2770
I2770
sS'overhead'
p2771
I331
sS'calm'
p2772
I2772
sS'typo'
p2773
I2773
sS'armi'
p2774
I2774
sS'rattl'
p2775
I339
sS'tell'
p2776
I2776
sS'highlyregard'
p2777
I3790
sS'lose\xe2\x80\x9d'
p2778
I2777
sS'\xe2\x80\x9cfriend'
p2779
I2778
sS'\xe2\x80\x9ctwo'
p2780
I2779
sS'warn'
p2781
I2780
sS'warm'
p2782
I2781
sS'streets\xe2\x80\x94and'
p2783
I2782
sS'ward'
p2784
I2783
sS'\xe2\x80\x98oh'
p2785
I2784
sS'room'
p2786
I2785
sS'throat\xe2\x80\x9d'
p2787
I2786
sS'roof'
p2788
I2787
sS'root'
p2789
I2788
sS'vodka'
p2790
I2789
sS'give'
p2791
I2790
sS'honey'
p2792
I2791
sS'strop'
p2793
I448
sS'quot'
p2794
I2793
sS'polic'
p2795
I2794
sS'intestin'
p2796
I2795
sS'confin'
p2797
I2796
sS'jiveass'
p2798
I2797
sS'scrambl'
p2799
I2798
sS'answer'
p2800
I2799
sS'polit'
p2801
I2800
sS'substanc'
p2802
I482
sS'waterfront'
p2803
I2802
sS'here\xe2\x80\x94\xe2\x80\x9d'
p2804
I505
sS'plier'
p2805
I2804
sS'attempt'
p2806
I2805
sS'third'
p2807
I2806
sS'maintain'
p2808
I2807
sS'janic'
p2809
I2808
sS'gerda\xe2\x80\x9d'
p2810
I2809
sS'gerda\xe2\x80\x99'
p2811
I2810
sS'toadi'
p2812
I2811
sS'm\xe2\x80\x94was'
p2813
I2812
sS'\xe2\x80\x9csardonically\xe2\x80\x9d'
p2814
I2813
sS'windshield'
p2815
I2814
sS'what\xe2\x80\x99r'
p2816
I2815
sS'gentl'
p2817
I2816
sS'furlong'
p2818
I2817
sS'harmonica'
p2819
I2818
sS'better'
p2820
I2819
sS'persist'
p2821
I602
sS'itself\xe2\x80\x94that'
p2822
I2821
sS'anim'
p2823
I2822
sS'\xe2\x80\x9cmost'
p2824
I614
sS'promis'
p2825
I2824
sS'middling\xe2\x80\x9d'
p2826
I2825
sS'denud'
p2827
I2826
sS'meat'
p2828
I2827
sS'sleepless'
p2829
I653
sS'faraway'
p2830
I2829
sS'\xe2\x80\x9cthink'
p2831
I678
sS'meal'
p2832
I681
sS'bone'
p2833
I2832
sS'luck'
p2834
I687
sS'mistake\xe2\x80\x94i'
p2835
I2834
sS'enorm'
p2836
I2835
sS'taught'
p2837
I2836
sS'doug'
p2838
I715
sS'extract'
p2839
I2838
sS'jell'
p2840
I2839
sS'47\xe2\x80\x9d'
p2841
I2840
sS'typecast'
p2842
I2841
sS'content'
p2843
I2842
sS'reader'
p2844
I2843
sS'situat'
p2845
I2844
sS'greasi'
p2846
I2845
sS'cement'
p2847
I5234
sS'mistress'
p2848
I2847
sS'248'
p2849
I794
sS'\xe2\x80\x9cmom'
p2850
I2849
sS'father\xe2\x80\x9d'
p2851
I2850
sS'father\xe2\x80\x99'
p2852
I2851
sS'\xe2\x80\x9calbert'
p2853
I2852
sS'enough\xe2\x80\x9d'
p2854
I2853
sS'loud'
p2855
I2854
sS'week\xe2\x80\x99'
p2856
I2855
sS'grade'
p2857
I2856
sS'\xe2\x80\x9cherbert'
p2858
I2857
sS'buttock'
p2859
I2858
sS'hook'
p2860
I2859
sS'\xe2\x80\x9clook\xe2\x80\x9d'
p2861
I2860
sS'massiv'
p2862
I849
sS'hood'
p2863
I2862
sS'spinach'
p2864
I2863
sS'sometim'
p2865
I2864
sS'enthral'
p2866
I2865
sS'shiver'
p2867
I507
sS'burgess'
p2868
I2867
sS'hollywood'
p2869
I2868
sS'sorrow\xe2\x80\x94they'
p2870
I897
sS'gym'
p2871
I2870
sS'obnoxi'
p2872
I2871
sS'is\xe2\x80\x9d'
p2873
I2872
sS'somewhat'
p2874
I2873
sS'helen'
p2875
I2874
sS'peculiar'
p2876
I2875
sS'silli'
p2877
I2876
sS'don\xe2\x80\x99t'
p2878
I2877
sS'upholsteri'
p2879
I2878
sS'\xe2\x80\x9cask'
p2880
I2879
sS'\xe2\x80\x9cwhen'
p2881
I2880
sS'scabbi'
p2882
I2881
sS'big\xe2\x80\x9d'
p2883
I952
sS'modern'
p2884
I958
sS'mind'
p2885
I2884
sS'mine'
p2886
I2885
sS'seen'
p2887
I2886
sS'seem'
p2888
I2887
sS'it\xe2\x80\x99'
p2889
I2888
sS'it\xe2\x80\x9d'
p2890
I2889
sS'fireman\xe2\x80\x9d'
p2891
I2890
sS'chest'
p2892
I2891
sS'acidosi'
p2893
I2892
sS'crippl'
p2894
I2893
sS'front\xe2\x80\x9d'
p2895
I2894
sS'marin'
p2896
I2896
sS'regular'
p2897
I2897
sS'too\xe2\x80\x9d'
p2898
I2898
sS'ansaw'
p2899
I4256
sS'tradit'
p2900
I2900
sS'doc'
p2901
I2901
sS'alarm'
p2902
I2902
sS'dog'
p2903
I2903
sS'doe'
p2904
I2904
sS'scotch'
p2905
I2905
sS'dot'
p2906
I2906
sS'visitor'
p2907
I2907
sS'player\xe2\x80\x9d'
p2908
I2908
sS'shoelac'
p2909
I2909
sS'liza'
p2910
I2910
sS'jellylik'
p2911
I2911
sS'land\xe2\x80\x94they'
p2912
I2912
sS'despis'
p2913
I2913
sS'pledg'
p2914
I2914
sS'explain'
p2915
I1109
sS'life\xe2\x80\x99'
p2916
I2916
sS'sugar'
p2917
I2917
sS'folder'
p2918
I2918
sS'\xe2\x80\x9cyes\xe2\x80\x9d'
p2919
I2919
sS'chamberlain'
p2920
I2920
sS'monica'
p2921
I2921
sS'it\xe2\x80\x99ll'
p2922
I2922
sS'stop'
p2923
I2923
sS'monico'
p2924
I4015
sS'15'
p2925
I2925
sS'earn'
p2926
I2926
sS'bar'
p2927
I2927
sS'\xe2\x80\x9cfifteen'
p2928
I2928
sS'bag'
p2929
I2929
sS'bad'
p2930
I2930
sS'troop'
p2931
I2931
sS'gotta'
p2932
I3297
sS'\xe2\x80\x9ceating\xe2\x80\x99'
p2933
I2933
sS'weak\xe2\x80\x9d'
p2934
I2934
sS'subject'
p2935
I2935
sS'pete'
p2936
I2936
sS'said'
p2937
I2937
sS'scrap'
p2938
I2938
sS'sail'
p2939
I2939
sS'\xe2\x80\x9cah\xe2\x80\x9d'
p2940
I2940
sS'\xe2\x80\x98let\xe2\x80\x99'
p2941
I2941
sS'\xe2\x80\x9chell'
p2942
I2942
sS'\xe2\x80\x9ctake'
p2943
I2943
sS'vitamin'
p2944
I2944
sS'lotion'
p2945
I2945
sS'wait\xe2\x80\x9d'
p2946
I2946
sS'lazi'
p2947
I2947
sS'laze'
p2948
I2948
sS'weari'
p2949
I2949
sS'against'
p2950
I2950
sS'russia'
p2951
I519
sS'minutes\xe2\x80\x9d'
p2952
I2952
sS'tape\xe2\x80\x9d'
p2953
I2953
sS'mannish'
p2954
I2954
sS'accustom'
p2955
I2955
sS'nicer'
p2956
I2956
sS'three'
p2957
I2957
sS'interest'
p2958
I2958
sS'basic'
p2959
I2959
sS'tini'
p2960
I2960
sS'threw'
p2961
I2961
sS'wives\xe2\x80\x94from'
p2962
I2962
sS'together\xe2\x80\x9d'
p2963
I2963
sS'action\xe2\x80\x9d'
p2964
I2964
sS'month\xe2\x80\x99'
p2965
I2965
sS'160'
p2966
I2966
sS'ugli'
p2967
I2967
sS'tank'
p2968
I2968
sS'bah\xe2\x80\x9d'
p2969
I2969
sS'gasolin'
p2970
I2970
sS'say'
p2971
I2971
sS'\xe2\x80\x9chello'
p2972
I2972
sS'near'
p2973
I2973
sS'neat'
p2974
I2974
sS'seven'
p2975
I2975
sS'cane'
p2976
I2976
sS'mexico'
p2977
I2977
sS'is'
p2978
I2978
sS'ir'
p2979
I2979
sS'it'
p2980
I2980
sS'shame'
p2981
I2981
sS'indent'
p2982
I1453
sS'in'
p2983
I2982
sS'\xe2\x80\x9csavage\xe2\x80\x9d'
p2984
I2983
sS'gaseat'
p2985
I2984
sS'sever'
p2986
I1471
sS'if'
p2987
I2986
sS'\xe2\x80\x9cwast'
p2988
I1475
sS'belli'
p2989
I2988
sS'receiv'
p2990
I2989
sS'make'
p2991
I2990
sS'advance\xe2\x80\x9d'
p2992
I2991
sS'cellophan'
p2993
I2992
sS'delight'
p2994
I2993
sS'ingeni'
p2995
I2994
sS'jealous'
p2996
I2995
sS'\xe2\x80\x9chere\xe2\x80\x9d'
p2997
I2996
sS'studi'
p2998
I1437
sS'kid'
p2999
I2998
sS'miss\xe2\x80\x9d'
p3000
I2999
sS'shake\xe2\x80\x9d'
p3001
I3000
sS'rome'
p3002
I3001
sS'plane\xe2\x80\x9d'
p3003
I3002
sS'\xe2\x80\x9cgambler'
p3004
I3003
sS'left'
p3005
I3004
sS'yeh'
p3006
I3005
sS'identifi'
p3007
I3006
sS'just'
p3008
I3007
sS'nowaday'
p3009
I3008
sS'barbett'
p3010
I3009
sS'guards\xe2\x80\x9d'
p3011
I3010
sS'human'
p3012
I3011
sS'yes'
p3013
I3012
sS'yet'
p3014
I3013
sS'languag'
p3015
I3014
sS'awaken'
p3016
I3015
sS'\xe2\x80\x9cah'
p3017
I3016
sS'\xe2\x80\x9cas'
p3018
I3017
sS'save'
p3019
I3018
sS'background'
p3020
I3020
sS'dreamt'
p3021
I3021
sS'athlet'
p3022
I3022
sS'shoulder'
p3023
I3023
sS'\xe2\x80\x9cwatch'
p3024
I3024
sS'years\xe2\x80\x94th'
p3025
I3025
sS'nude'
p3026
I3026
sS'digniti'
p3027
I3027
sS'blockad'
p3028
I4273
sS'fat\xe2\x80\x9d'
p3029
I3029
sS'unnecessari'
p3030
I3030
sS'hour\xe2\x80\x9d'
p3031
I3031
sS'mate'
p3032
I3978
sS'deal'
p3033
I3032
sS'overhung'
p3034
I3033
sS'darlene\xe2\x80\x9d'
p3035
I1706
sS'somehow'
p3036
I3035
sS'dead'
p3037
I3036
sS'drunk\xe2\x80\x9d'
p3038
I3037
sS'intern'
p3039
I3038
sS'dear'
p3040
I3039
sS'inact'
p3041
I3040
sS'sardon'
p3042
I3041
sS'sprawl'
p3043
I3042
sS'state\xe2\x80\x9d'
p3044
I3043
sS'onehalf'
p3045
I3044
sS'siff'
p3046
I3045
sS'creatur'
p3047
I3046
sS'bold'
p3048
I3047
sS'insecur'
p3049
I3048
sS'burn'
p3050
I3049
sS'buri'
p3051
I3050
sS'\xe2\x80\x9csalli'
p3052
I3051
sS'joggl'
p3053
I2308
sS'bolt'
p3054
I3053
sS'keeper'
p3055
I3054
sS'wept'
p3056
I3055
sS'face\xe2\x80\x94a'
p3057
I3056
sS'crucifix'
p3058
I1806
sS'telephon'
p3059
I3058
sS'fare\xe2\x80\x9d'
p3060
I3059
sS'contriv'
p3061
I3060
sS'rearview'
p3062
I3061
sS'alamito'
p3063
I3062
sS'down'
p3064
I3063
sS'forgav'
p3065
I3064
sS'mixedup'
p3066
I3065
sS'editor'
p3067
I3066
sS'jealousi'
p3068
I3067
sS'fork'
p3069
I3068
sS'form'
p3070
I3069
sS'forc'
p3071
I3070
sS'\xe2\x80\x9cwill'
p3072
I3071
sS'beachfront'
p3073
I3072
sS'\xe2\x80\x9ctelegram'
p3074
I3073
sS'pragu'
p3075
I3074
sS'overbum\xe2\x80\x9d'
p3076
I1941
sS'whiskey'
p3077
I3076
sS'tucson'
p3078
I3077
sS'cosmos'
p3079
I3078
sS'sparklett'
p3080
I3079
sS'\xe2\x80\x9csome'
p3081
I3080
sS'featur'
p3082
I3081
sS'shin'
p3083
I3082
sS'classic'
p3084
I3083
sS'toss'
p3085
I3084
sS'sidestep'
p3086
I3085
sS'grayblu'
p3087
I3086
sS'glanc'
p3088
I3087
sS'ship'
p3089
I3088
sS'\xe2\x80\x9chank\xe2\x80\x9d'
p3090
I3089
sS'shit'
p3091
I3090
sS'sticki'
p3092
I1981
sS'vista'
p3093
I3092
sS'trip\xe2\x80\x9d'
p3094
I3093
sS'excel'
p3095
I3094
sS'volleyball\xe2\x80\x9d'
p3096
I3095
sS'doctors\xe2\x80\x99'
p3097
I3096
sS'printery\xe2\x80\x9d\xe2\x80\x94they'
p3098
I3097
sS'matur'
p3099
I3098
sS'felt'
p3100
I3099
sS'diet'
p3101
I3100
sS'beercan'
p3102
I3101
sS'journey'
p3103
I2031
sS'stoke'
p3104
I3103
sS'weekend'
p3105
I3104
sS'billion'
p3106
I3105
sS'femal'
p3107
I3106
sS'potato'
p3108
I3107
sS'bukowskian'
p3109
I3108
sS'jacket'
p3110
I3109
sS'gorilla'
p3111
I3110
sS'luckier'
p3112
I3111
sS'ignor'
p3113
I3112
sS'daili'
p3114
I3113
sS'skip'
p3115
I3114
sS'invent'
p3116
I3115
sS'mile'
p3117
I3116
sS'skin'
p3118
I3117
sS'shot'
p3119
I3118
sS'mill'
p3120
I3119
sS'milk'
p3121
I2100
sS'clich\xc3\xa9\xe2\x80\x9d'
p3122
I3121
sS'depend'
p3123
I3122
sS'father'
p3124
I3123
sS'jumpy\xe2\x80\x9d'
p3125
I3124
sS'me'
p3126
I3125
sS'string'
p3127
I3126
sS'mood\xe2\x80\x9d'
p3128
I3127
sS'did'
p3129
I3128
sS'die'
p3130
I3129
sS'dig'
p3131
I3130
sS'democrat'
p3132
I3131
sS'item'
p3133
I3132
sS'\xe2\x80\x9cbeast\xe2\x80\x9d'
p3134
I3133
sS'dip'
p3135
I3134
sS'round'
p3136
I3135
sS'shave'
p3137
I3136
sS'villa'
p3138
I3137
sS'\xe2\x80\x9ccharl'
p3139
I3138
sS'1125'
p3140
I3139
sS'chicken\xe2\x80\x94\xe2\x80\x9d'
p3141
I3140
sS'asham'
p3142
I3141
sS'peddl'
p3143
I3142
sS'cinch\xe2\x80\x9d'
p3144
I3143
sS'not\xe2\x80\x94i'
p3145
I3144
sS'suspect'
p3146
I3145
sS'addl'
p3147
I3146
sS'wail'
p3148
I3147
sS'wearili'
p3149
I3148
sS'clerk'
p3150
I3149
sS'french'
p3151
I3150
sS'wait'
p3152
I3151
sS'box'
p3153
I3152
sS'boy'
p3154
I3153
sS'insan'
p3155
I3154
sS'invit'
p3156
I3155
sS'\xe2\x80\x9cveri'
p3157
I3156
sS'boo'
p3158
I3157
sS'extrem'
p3159
I3158
sS'bob'
p3160
I3159
sS'nylon'
p3161
I3160
sS'bog'
p3162
I3161
sS'pier\xe2\x80\x9d'
p3163
I3162
sS'wildmen'
p3164
I3163
sS'franco'
p3165
I3164
sS'sake'
p3166
I3165
sS'univers'
p3167
I3166
sS'visit'
p3168
I3167
sS'ralph\xe2\x80\x99'
p3169
I2342
sS'\xe2\x80\x9cyeh\xe2\x80\x9d'
p3170
I3169
sS'oftentim'
p3171
I3170
sS'checkout'
p3172
I3171
sS'overtight'
p3173
I3173
sS'grounds\xe2\x80\x9d'
p3174
I3174
sS'blotchi'
p3175
I3175
sS'rigid'
p3176
I3176
sS'examin'
p3177
I3177
sS'effort'
p3178
I3178
sS'ultraviolet'
p3179
I3179
sS'italiano\xe2\x80\x94th'
p3180
I3180
sS'relative\xe2\x80\x9d'
p3181
I3181
sS'soul'
p3182
I3182
sS'fli'
p3183
I3183
sS'wallet'
p3184
I3184
sS'isn\xe2\x80\x99t'
p3185
I3185
sS'claim'
p3186
I2519
sS'fuck'
p3187
I3187
sS'drawer'
p3188
I3188
sS'crazi'
p3189
I3189
sS'agenc'
p3190
I3190
sS'craze'
p3191
I3191
sS'purs'
p3192
I2452
sS'subnorm'
p3193
I3193
sS'get'
p3194
I3194
sS'sunday'
p3195
I3195
sS'sword'
p3196
I2470
sS'swore'
p3197
I3197
sS'sworn'
p3198
I3198
sS'pint'
p3199
I3199
sS'mar'
p3200
I3200
sS'may'
p3201
I3201
sS'mankind'
p3202
I2499
sS'mag'
p3203
I3203
sS'finished\xe2\x80\x9d'
p3204
I3204
sS'grow'
p3205
I3205
sS'man'
p3206
I3206
sS'neck'
p3207
I3207
sS'repuls'
p3208
I3208
sS'6th'
p3209
I3209
sS'tale'
p3210
I3210
sS'switch'
p3211
I3211
sS'jail'
p3212
I3212
sS'deposit'
p3213
I3213
sS'unleash'
p3214
I3214
sS'basket'
p3215
I3215
sS'longhand'
p3216
I2536
sS'talk'
p3217
I3217
sS'lsd'
p3218
I3218
sS'gradual'
p3219
I3219
sS'lsm'
p3220
I3220
sS'sick\xe2\x80\x9d'
p3221
I3221
sS'pitch'
p3222
I2569
sS'equip'
p3223
I3223
sS'entitl'
p3224
I3224
sS'shaki'
p3225
I3225
sS'jock'
p3226
I3226
sS'wasn\xe2\x80\x99t\xe2\x80\x94th'
p3227
I3227
sS'interspers'
p3228
I3228
sS'group'
p3229
I3229
sS'thank'
p3230
I3230
sS'mail'
p3231
I3231
sS'main'
p3232
I3232
sS'tonic'
p3233
I3233
sS'automobil'
p3234
I3234
sS'sooner'
p3235
I3235
sS'\xe2\x80\x9cpeter\xe2\x80\x9d'
p3236
I3236
sS'lunch'
p3237
I3237
sS'so\xe2\x80\x94\xe2\x80\x9d'
p3238
I3238
sS'bullshit'
p3239
I3239
sS'possess'
p3240
I3240
sS'warbl'
p3241
I3241
sS'bad\xe2\x80\x9d'
p3242
I3242
sS'sizzl'
p3243
I3243
sS'buke\xe2\x80\x9d'
p3244
I3244
sS'oliv'
p3245
I3245
sS'careless'
p3246
I3246
sS'rock'
p3247
I3247
sS'hijack'
p3248
I3248
sS'eyelid'
p3249
I3249
sS'nashua'
p3250
I3251
sS'continu'
p3251
I3252
sS'unlock'
p3252
I3253
sS'girl'
p3253
I3254
sS'canada'
p3254
I3255
sS'stitch'
p3255
I3256
sS'\xe2\x80\x9cgo'
p3256
I3257
sS'nudey'
p3257
I3258
sS'people\xe2\x80\x9d'
p3258
I3259
sS'wasn\xe2\x80\x99t'
p3259
I3260
sS'diseas'
p3260
I2740
sS'monster'
p3261
I3262
sS'california'
p3262
I3263
sS'underwear'
p3263
I3264
sS'crackwis'
p3264
I3265
sS'\xe2\x80\x9cimmortal\xe2\x80\x9d'
p3265
I3266
sS'waiter'
p3266
I3267
sS'thing'
p3267
I3268
sS'think'
p3268
I3269
sS'first'
p3269
I3270
sS'oppon'
p3270
I3271
sS'pond\xe2\x80\x9d'
p3271
I3272
sS'carri'
p3272
I3273
sS'lone'
p3273
I3274
sS'housekeep'
p3274
I3275
sS'minute\xe2\x80\x9d'
p3275
I3276
sS'americanmexican'
p3276
I3277
sS'carbon\xe2\x80\x9d'
p3277
I3278
sS'lap'
p3278
I5194
sS'slept'
p3279
I3280
sS'fierc'
p3280
I3281
sS'ambul'
p3281
I3282
sS'\xe2\x80\x9cwho\xe2\x80\x9d'
p3282
I3283
sS'\xe2\x80\x9cwho\xe2\x80\x99'
p3283
I3284
sS'loneliest'
p3284
I3285
sS'butt'
p3285
I3286
sS'11'
p3286
I3287
sS'10'
p3287
I3288
sS'13'
p3288
I3289
sS'12'
p3289
I3290
sS'saroyan'
p3290
I3291
sS'14'
p3291
I3292
sS'17'
p3292
I3293
sS'16'
p3293
I3294
sS'19'
p3294
I3295
sS'18'
p3295
I3296
sS'pipedin'
p3296
I2932
sS'were'
p3297
I3298
sS'tractor'
p3298
I3299
sS'reputation\xe2\x80\x9d'
p3299
I3300
sS'lick'
p3300
I3301
sS'dash'
p3301
I3302
sS'comedian'
p3302
I3303
sS'all\xe2\x80\x94i'
p3303
I3304
sS'artform'
p3304
I3305
sS'squat'
p3305
I3306
sS'squar'
p3306
I3307
sS'wonder'
p3307
I3308
sS'inept'
p3308
I2348
sS'pain'
p3309
I3310
sS'trace'
p3310
I3311
sS'normal'
p3311
I3312
sS'track'
p3312
I3313
sS'830'
p3313
I573
sS'paid'
p3314
I3315
sS'then\xe2\x80\x9d'
p3315
I3316
sS'entered\xe2\x80\x94a'
p3316
I3317
sS'assault'
p3317
I3318
sS'afternoon\xe2\x80\x9d'
p3318
I3319
sS'pair'
p3319
I3320
sS'jones\xe2\x80\x9d'
p3320
I3321
sS'pathet'
p3321
I3322
sS'napkin'
p3322
I3323
sS'scowl'
p3323
I3324
sS'filli'
p3324
I3325
sS'wunderbar'
p3325
I3326
sS'shop'
p3326
I3327
sS'everywhere\xe2\x80\x94hippi'
p3327
I3328
sS'show'
p3328
I3329
sS'curler'
p3329
I3330
sS'shod'
p3330
I3331
sS'shoe'
p3331
I3332
sS'don\xe2\x80\x99t\xe2\x80\x9d'
p3332
I3333
sS'corner'
p3333
I3334
sS'dice'
p3334
I3335
sS'fenc'
p3335
I3336
sS'dick'
p3336
I3337
sS'behind'
p3337
I3363
sS'peepee\xe2\x80\x9d'
p3338
I3339
sS'black'
p3339
I3340
sS'\xe2\x80\x98listen'
p3340
I3341
sS'plump'
p3341
I3342
sS'hungarian'
p3342
I3343
sS'hippi'
p3343
I3344
sS'toteboard'
p3344
I3345
sS'sideway'
p3345
I3346
sS'\xe2\x80\x9cnothing\xe2\x80\x9d'
p3346
I3347
sS'\xe2\x80\x9cnothing\xe2\x80\x99'
p3347
I3348
sS'stupid'
p3348
I3349
sS'nostril'
p3349
I3350
sS'limousin'
p3350
I3351
sS'kernel'
p3351
I3352
sS'\xe2\x80\x9cwhat'
p3352
I3353
sS'sear'
p3353
I3354
sS'\xe2\x80\x9cright\xe2\x80\x9d'
p3354
I3355
sS'seat'
p3355
I3356
sS'pissedoff'
p3356
I3357
sS'seal'
p3357
I3358
sS'calendar'
p3358
I3359
sS'wettest'
p3359
I3360
sS'kool'
p3360
I3361
sS'label'
p3361
I3362
sS'enough'
p3362
I3338
sS'across'
p3363
I3364
sS'august'
p3364
I3365
sS'parent'
p3365
I3366
sS'\xe2\x80\x9cshut'
p3366
I3367
sS'press\xe2\x80\x94which'
p3367
I3368
sS'tub'
p3368
I3369
sS'timmi'
p3369
I3370
sS'\xe2\x80\x9cimpossible\xe2\x80\x9d'
p3370
I3371
sS'stinker'
p3371
I3372
sS'restroom'
p3372
I3373
sS'\xe2\x80\x9charri'
p3373
I3374
sS'improv'
p3374
I3375
sS'longshot'
p3375
I3376
sS'improp'
p3376
I3377
sS'among'
p3377
I3378
sS'cancer'
p3378
I3379
sS'grasshopp'
p3379
I3380
sS'spank'
p3380
I3381
sS'roulett'
p3381
I3440
sS'steve\xe2\x80\x99'
p3382
I3383
sS'\xe2\x80\x9cinterview\xe2\x80\x9d'
p3383
I982
sS'cancel'
p3384
I3385
sS'woman\xe2\x80\x99'
p3385
I3386
sS'ultim'
p3386
I3387
sS'vacation\xe2\x80\x9d'
p3387
I3388
sS'woman\xe2\x80\x9d'
p3388
I3389
sS'undershirt'
p3389
I3390
sS'suicid'
p3390
I3469
sS'workshop'
p3391
I3392
sS'wake'
p3392
I3393
sS'those'
p3393
I3394
sS'sound'
p3394
I3395
sS'o\xe2\x80\x99'
p3395
I3396
sS'cock'
p3396
I3397
sS'jissom'
p3397
I3398
sS'strain'
p3398
I3399
sS'sudden'
p3399
I3400
sS'everyday'
p3400
I3401
sS'niceti'
p3401
I3402
sS'doctor'
p3402
I3403
sS'pay'
p3403
I3404
sS'bluejean'
p3404
I3405
sS'same'
p3405
I3406
sS'world\xe2\x80\x9d'
p3406
I3407
sS'world\xe2\x80\x99'
p3407
I3408
sS'pan'
p3408
I3409
sS'exhaust'
p3409
I3410
sS'oil'
p3410
I3411
sS'companion'
p3411
I3412
sS'legs\xe2\x80\x94wetwash'
p3412
I3413
sS'disguis'
p3413
I3414
sS'off\xe2\x80\x94\xe2\x80\x9d'
p3414
I3415
sS'appropri'
p3415
I1463
sS'\xe2\x80\x9creally\xe2\x80\x9d'
p3416
I3417
sS'boy\xe2\x80\x99'
p3417
I3418
sS'boy\xe2\x80\x9d'
p3418
I3419
sS'contrapt'
p3419
I3420
sS'money'
p3420
I3421
sS'imprint'
p3421
I3422
sS'judy\xe2\x80\x9d'
p3422
I3423
sS'judy\xe2\x80\x99'
p3423
I3424
sS'ta\xe2\x80\x9d'
p3424
I3425
sS'parad'
p3425
I3426
sS'alimoni'
p3426
I3427
sS'pile'
p3427
I3428
sS'4'
p3428
I3429
sS'bread'
p3429
I3430
sS'pill'
p3430
I3431
sS'grip'
p3431
I3432
sS'jesus\xe2\x80\x9d'
p3432
I3433
sS'mop'
p3433
I3434
sS'mow'
p3434
I3435
sS'mom'
p3435
I3436
sS'mob'
p3436
I3437
sS'railroad'
p3437
I3438
sS'grin'
p3438
I3439
sS'steve\xe2\x80\x9d'
p3439
I3382
sS'chamber'
p3440
I3441
sS'hobbyhors'
p3441
I3442
sS'either'
p3442
I3443
sS'fulfil'
p3443
I3444
sS'civilization\xe2\x80\x9d'
p3444
I3445
sS'cabl'
p3445
I3446
sS'doll'
p3446
I3447
sS'in\xe2\x80\x9d'
p3447
I3448
sS'dolt'
p3448
I3449
sS'picksix\xe2\x80\x9d'
p3449
I3450
sS'pantyhos'
p3450
I3451
sS'outa'
p3451
I3452
sS'linoleum'
p3452
I3453
sS'knife'
p3453
I3454
sS'now\xe2\x80\x9d'
p3454
I2647
sS'secondr'
p3455
I3456
sS'broken'
p3456
I3457
sS'about\xe2\x80\x9d'
p3457
I3458
sS'lamplight'
p3458
I3459
sS'william'
p3459
I2367
sS'opium'
p3460
I3461
sS'roar'
p3461
I3462
sS'smear'
p3462
I3463
sS'when\xe2\x80\x9d'
p3463
I3464
sS'roam'
p3464
I3465
sS'joe\xe2\x80\x9d'
p3465
I3466
sS'road'
p3466
I3467
sS'checkup'
p3467
I3468
sS'mari'
p3468
I3391
sS'strip'
p3469
I3470
sS'she\xe2\x80\x99'
p3470
I3471
sS'daytim'
p3471
I3472
sS'shroud'
p3472
I3473
sS'gore'
p3473
I3474
sS'e'
p3474
I3475
sS'rebunch'
p3475
I3476
sS'strawberri'
p3476
I3477
sS'cacti'
p3477
I3478
sS'possibl'
p3478
I3479
sS'unusu'
p3479
I3480
sS'ugggg'
p3480
I3481
sS'deer'
p3481
I4097
sS'casualti'
p3482
I3483
sS'general'
p3483
I4101
sS'file'
p3484
I3485
sS'generat'
p3485
I3486
sS'girlfriend'
p3486
I3487
sS'film'
p3487
I3488
sS'fill'
p3488
I3489
sS'tedious'
p3489
I4121
sS'again'
p3490
I4122
sS'repent'
p3491
I3492
sS'field'
p3492
I3493
sS'outfield'
p3493
I3494
sS'was\xe2\x80\x94sh'
p3494
I3495
sS'castle\xe2\x80\x9d'
p3495
I3496
sS'we\xe2\x80\x99d'
p3496
I3497
sS'chris'
p3497
I3498
sS'escal'
p3498
I3499
sS'unload'
p3499
I3500
sS'sewer'
p3500
I3501
sS'castl'
p3501
I3502
sS'escap'
p3502
I3503
sS'oral'
p3503
I3504
sS'forget'
p3504
I3505
sS'vile'
p3505
I3506
sS'dollar'
p3506
I3507
sS'sunk'
p3507
I3508
sS'shitstain'
p3508
I3509
sS'children'
p3509
I3510
sS'cri'
p3510
I5652
sS'rewrot'
p3511
I3511
sS'medicino'
p3512
I3512
sS'we\xe2\x80\x99r'
p3513
I4343
sS'fals'
p3514
I3514
sS'\xe2\x80\x9cread\xe2\x80\x9d'
p3515
I3515
sS'birdlik'
p3516
I3516
sS'bedroom\xe2\x80\x9d'
p3517
I3517
sS'neighborhood'
p3518
I3518
sS'aristocrat'
p3519
I2378
sS'zero'
p3520
I3520
sS'lawyer'
p3521
I3521
sS'further'
p3522
I3522
sS'ribbon'
p3523
I3523
sS'90s'
p3524
I3524
sS'dial'
p3525
I3525
sS'stood'
p3526
I3526
sS'red\xe2\x80\x9d'
p3527
I3527
sS'abl'
p3528
I3528
sS'\xe2\x80\x9cbrother'
p3529
I3529
sS'darts\xe2\x80\x94yet'
p3530
I3530
sS'public'
p3531
I3531
sS'movement'
p3532
I3532
sS'mull'
p3533
I3533
sS'sophist'
p3534
I3534
sS'car\xe2\x80\x99'
p3535
I2382
sS'bank\xe2\x80\x9d'
p3536
I3536
sS'valu'
p3537
I3537
sS'fatter'
p3538
I3538
sS'900'
p3539
I3539
sS'absentia\xe2\x80\x9d'
p3540
I1297
sS'karates\xe2\x80\x9d'
p3541
I5650
sS'car\xe2\x80\x9d'
p3542
I2384
sS'airport'
p3543
I3541
sS'narrow'
p3544
I3542
sS'fatten'
p3545
I3543
sS'was\xe2\x80\x9d'
p3546
I3544
sS'rican'
p3547
I3545
sS'establish'
p3548
I3546
sS'\xe2\x80\x9chank'
p3549
I3547
sS'eye'
p3550
I3548
sS'liber'
p3551
I3549
sS'regist'
p3552
I3550
sS'puke'
p3553
I3551
sS'splash'
p3554
I3552
sS'wiper'
p3555
I3553
sS'desir'
p3556
I3554
sS'upbring'
p3557
I3555
sS'particular'
p3558
I3556
sS'magnific'
p3559
I3557
sS'that\xe2\x80\x9d'
p3560
I3558
sS'that\xe2\x80\x99'
p3561
I3559
sS'soulpor'
p3562
I3560
sS'town'
p3563
I3561
sS'dictat'
p3564
I3562
sS'none'
p3565
I3563
sS'hour'
p3566
I3565
sS'hous'
p3567
I3566
sS'so\xe2\x80\x94pick'
p3568
I3567
sS'remain'
p3569
I3568
sS'del'
p3570
I3569
sS'abandon'
p3571
I3570
sS'explod'
p3572
I3571
sS'\xe2\x80\x9cborowsky\xe2\x80\x9d'
p3573
I3572
sS'death\xe2\x80\x9d'
p3574
I3573
sS'share'
p3575
I3574
sS'compart'
p3576
I3575
sS'fence\xe2\x80\x9d'
p3577
I3576
sS'sharp'
p3578
I3577
sS'robinson'
p3579
I3578
sS'\xe2\x80\x98desire\xe2\x80\x99\xe2\x80\x9d'
p3580
I3579
sS'siren'
p3581
I3580
sS'purpose\xe2\x80\x9d'
p3582
I3581
sS'secur'
p3583
I3582
sS'rye'
p3584
I3583
sS'needl'
p3585
I3584
sS'desire\xe2\x80\x9d'
p3586
I3585
sS'blood'
p3587
I3586
sS'toothach'
p3588
I3587
sS'night\xe2\x80\x94at'
p3589
I3588
sS'coat'
p3590
I3589
sS'gate\xe2\x80\x9d'
p3591
I3590
sS'spoon'
p3592
I5344
sS'here\xe2\x80\x9d'
p3593
I3592
sS'feedoff'
p3594
I3593
sS'rounder'
p3595
I3594
sS'circumfer'
p3596
I3595
sS'through'
p3597
I3596
sS'infanc'
p3598
I3597
sS'suffer'
p3599
I3598
sS'24'
p3600
I3599
sS'25'
p3601
I3600
sS'26'
p3602
I3601
sS'27'
p3603
I3602
sS'20'
p3604
I3603
sS'21'
p3605
I3604
sS'22'
p3606
I3605
sS'23'
p3607
I3606
sS'28'
p3608
I3607
sS'29'
p3609
I3608
sS'late'
p3610
I3609
sS'work\xe2\x80\x94but'
p3611
I3610
sS'peni'
p3612
I3611
sS'nearful'
p3613
I3612
sS'good'
p3614
I3613
sS'pollut'
p3615
I3614
sS'compound'
p3616
I3615
sS'oxford'
p3617
I3616
sS'complain'
p3618
I3617
sS'goofi'
p3619
I3618
sS'pregnant'
p3620
I3619
sS'electrocut'
p3621
I3620
sS'mysteri'
p3622
I3621
sS'easili'
p3623
I3622
sS'harm'
p3624
I3623
sS'mental'
p3625
I3624
sS'fish'
p3626
I3625
sS'hard'
p3627
I3626
sS'idea'
p3628
I3627
sS'\xe2\x80\x9cnoth'
p3629
I4364
sS'connect'
p3630
I3629
sS'fist'
p3631
I3630
sS'energi'
p3632
I3631
sS'flower'
p3633
I3632
sS'admiss'
p3634
I3633
sS'pigeon'
p3635
I3634
sS'print'
p3636
I3635
sS'dealt'
p3637
I3636
sS'backer'
p3638
I3637
sS'outnumb'
p3639
I3638
sS'disneyland'
p3640
I3639
sS'producers\xe2\x80\x99'
p3641
I3640
sS'mckuen'
p3642
I3641
sS'top'
p3643
I4366
sS'children\xe2\x80\x94hid'
p3644
I3643
sS'exchang'
p3645
I3644
sS'exist\xe2\x80\x9d'
p3646
I3645
sS'done'
p3647
I3646
sS'stabl'
p3648
I3647
sS'wager'
p3649
I3648
sS'razor'
p3650
I3649
sS'myself\xe2\x80\x9d'
p3651
I3650
sS'least'
p3652
I3651
sS'paint'
p3653
I3652
sS'\xe2\x80\x9ceddi'
p3654
I3653
sS'186'
p3655
I3654
sS'184'
p3656
I3655
sS'mama'
p3657
I3656
sS'twenti'
p3658
I3657
sS'wrong\xe2\x80\x9d'
p3659
I5138
sS'park'
p3660
I5140
sS'pari'
p3661
I3660
sS'madmen'
p3662
I3661
sS'handtohand'
p3663
I3662
sS'dentist'
p3664
I3663
sS'part'
p3665
I5152
sS'\xe2\x80\x9ctoo'
p3666
I3665
sS'b'
p3667
I3666
sS'race\xe2\x80\x9d'
p3668
I3667
sS'fold'
p3669
I3668
sS'gotten'
p3670
I3669
sS'youth'
p3671
I3670
sS'men\xe2\x80\x99'
p3672
I3172
sS'murder'
p3673
I4375
sS'mountain'
p3674
I3673
sS'built'
p3675
I3674
sS'reader\xe2\x80\x99'
p3676
I3675
sS'couch'
p3677
I3676
sS'build'
p3678
I3677
sS'most'
p3679
I3678
sS'charm'
p3680
I3679
sS'painless\xe2\x80\x9d'
p3681
I5286
sS'bottle\xe2\x80\x9d'
p3682
I3681
sS'eskimo'
p3683
I3682
sS'charg'
p3684
I3683
sS'ku'
p3685
I3684
sS'weigh'
p3686
I3685
sS'sleeping\xe2\x80\x99'
p3687
I5328
sS'sparrow'
p3688
I3687
sS'\xe2\x80\x9caesthetic\xe2\x80\x9d'
p3689
I3688
sS'fini'
p3690
I3689
sS'scrabbl'
p3691
I3690
sS'carstair'
p3692
I3691
sS'heart\xe2\x80\x94th'
p3693
I5359
sS'find'
p3694
I3693
sS'ambit'
p3695
I5363
sS'nervous'
p3696
I3695
sS'ruin'
p3697
I3696
sS'lsd\xe2\x80\x9d'
p3698
I3697
sS'8'
p3699
I3698
sS'unhappi'
p3700
I3699
sS'boulder'
p3701
I3700
sS'express'
p3702
I3701
sS'horsemeat'
p3703
I5414
sS'chef\xe2\x80\x99'
p3704
I3703
sS'wrinkl'
p3705
I3704
sS'silk'
p3706
I3705
sS'doubleb'
p3707
I3706
sS'common'
p3708
I3707
sS'californian'
p3709
I5459
sS'\xe2\x80\x9cjeez'
p3710
I3709
sS'sort\xe2\x80\x9d'
p3711
I3710
sS'vine'
p3712
I3711
sS'lion'
p3713
I3712
sS'\xe2\x80\x9ccut'
p3714
I3713
sS'flavor'
p3715
I3714
sS'fang'
p3716
I3715
sS'someth'
p3717
I3716
sS'smallest'
p3718
I3717
sS'debal'
p3719
I3718
sS'television\xe2\x80\x9d'
p3720
I3719
sS'experi'
p3721
I3720
sS'\xe2\x80\x9cget'
p3722
I3721
sS'appreci'
p3723
I3722
sS'\xe2\x80\x9cumm\xe2\x80\x9d'
p3724
I3723
sS'unrol'
p3725
I3724
sS'\xe2\x80\x9csaveon'
p3726
I3725
sS'purpl'
p3727
I3726
sS'terrible\xe2\x80\x9d'
p3728
I3727
sS'annual'
p3729
I3728
sS'alon'
p3730
I3729
sS'sardin'
p3731
I3730
sS'\xe2\x80\x9cwhoever'
p3732
I3731
sS'screenplay'
p3733
I4384
sS'why\xe2\x80\x94\xe2\x80\x9d'
p3734
I3733
sS'simpli'
p3735
I3734
sS'point'
p3736
I3735
sS'dancer'
p3737
I3736
sS'littl'
p3738
I3737
sS'throughout'
p3739
I3738
sS'ravag'
p3740
I3739
sS'secret'
p3741
I3740
sS'christ\xe2\x80\x99'
p3742
I3741
sS'compuls'
p3743
I3742
sS'gas'
p3744
I3743
sS'gal'
p3745
I3744
sS'understand'
p3746
I3745
sS'gag'
p3747
I3746
sS'repetit'
p3748
I3747
sS'politician'
p3749
I3749
sS'solid'
p3750
I3750
sS'bill'
p3751
I3751
sS'crutch'
p3752
I3752
sS'bitch\xe2\x80\x9d'
p3753
I3753
sS'fun'
p3754
I3754
sS'everyon'
p3755
I3755
sS'prejudic'
p3756
I3756
sS'create\xe2\x80\x9d'
p3757
I3757
sS'rancor'
p3758
I3758
sS'itself'
p3759
I3759
sS'centuri'
p3760
I3761
sS'pigtail'
p3761
I3762
sS'everybody\xe2\x80\x99'
p3762
I3763
sS'ruth'
p3763
I3764
sS'yesterday'
p3764
I3765
sS'moment'
p3765
I3766
sS'stripe'
p3766
I3767
sS'carload'
p3767
I3768
sS'postag'
p3768
I3769
sS'motionless'
p3769
I3770
sS'spent'
p3770
I3771
sS'unlac'
p3771
I3772
sS'pajama'
p3772
I3773
sS'talk\xe2\x80\x9d'
p3773
I3774
sS'landmark'
p3774
I3775
sS'slave\xe2\x80\x9d'
p3775
I179
sS'spend'
p3776
I3777
sS'i\xe2\x80\x99m'
p3777
I3778
sS'i\xe2\x80\x99d'
p3778
I3779
sS'shape'
p3779
I3780
sS'\xe2\x80\x9csure'
p3780
I3781
sS'i\xe2\x80\x99v'
p3781
I3782
sS'mistakes\xe2\x80\x9d'
p3782
I3783
sS'wage'
p3783
I3784
sS'cut'
p3784
I3785
sS'cup'
p3785
I3786
sS'danger'
p3786
I2424
sS'\xe2\x80\x9cdrive'
p3787
I3787
sS'least\xe2\x80\x9d'
p3788
I3788
sS'all\xe2\x80\x9d'
p3789
I3789
sS'snap'
p3790
I1124
sS'cum'
p3791
I3791
sS'bim'
p3792
I2484
sS'big'
p3793
I3793
sS'thoma'
p3794
I4396
sS'redeem'
p3795
I3795
sS'volk'
p3796
I5369
sS'bit'
p3797
I3797
sS'\xe2\x80\x9cforget'
p3798
I3798
sS'knock'
p3799
I3799
sS'semi'
p3800
I3800
sS'ha\xe2\x80\x9d'
p3801
I3801
sS'glove'
p3802
I3802
sS'foolish'
p3803
I3803
sS'\xe2\x80\x9ccalifornia'
p3804
I3804
sS'downstair'
p3805
I3805
sS'often'
p3806
I3806
sS'switchblad'
p3807
I3807
sS'back'
p3808
I3808
sS'bach'
p3809
I3809
sS'mirror'
p3810
I3811
sS'candleshop'
p3811
I3812
sS'scale'
p3812
I3813
sS'threestori'
p3813
I3814
sS'per'
p3814
I3815
sS'pen'
p3815
I3816
sS'mathemat'
p3816
I3817
sS'larg'
p3817
I3818
sS'pea'
p3818
I3819
sS'nose'
p3819
I3820
sS'eyeglass'
p3820
I3821
sS'cameraman'
p3821
I3822
sS'patient'
p3822
I3823
sS'use'
p3823
I3824
sS'$80'
p3824
I3825
sS'going\xe2\x80\x9d'
p3825
I3826
sS'lady\xe2\x80\x99'
p3826
I5376
sS'stupid\xe2\x80\x9d'
p3827
I3828
sS'goodi'
p3828
I3829
sS'eddie\xe2\x80\x9d'
p3829
I3830
sS'eddie\xe2\x80\x99'
p3830
I3831
sS'\xe2\x80\x9cokay\xe2\x80\x9d'
p3831
I3832
sS'jimmi'
p3832
I3833
sS'mudhol'
p3833
I3834
sS'atroci'
p3834
I3835
sS'lesson'
p3835
I3836
sS'\xe2\x80\x9cshe'
p3836
I3837
sS'includ'
p3837
I3838
sS'forward'
p3838
I3839
sS'\xe2\x80\x9coh\xe2\x80\x9d'
p3839
I3840
sS'\xe2\x80\x9cluck'
p3840
I3841
sS'translat'
p3841
I3842
sS'switchboard'
p3842
I3843
sS'lifeguard'
p3843
I3844
sS'right\xe2\x80\x9d'
p3844
I3845
sS'curv'
p3845
I587
sS'stinks\xe2\x80\x9d'
p3846
I3847
sS'curs'
p3847
I3848
sS'scarlet'
p3848
I3849
sS'cure'
p3849
I3850
sS'curb'
p3850
I3851
sS'unit\xe2\x80\x9d'
p3851
I3852
sS'prevail'
p3852
I3853
sS'boxlik'
p3853
I3854
sS'bubblegum'
p3854
I3855
sS'\xe2\x80\x9cbukowski\xe2\x80\x9d'
p3855
I3856
sS'spasm'
p3856
I3857
sS'today\xe2\x80\x9d'
p3857
I3858
sS'possible\xe2\x80\x9d'
p3858
I3859
sS'lend'
p3859
I3860
sS'stockmarket'
p3860
I3861
sS'lent'
p3861
I3862
sS'desert'
p3862
I3863
sS'deserv'
p3863
I3864
sS'\xe2\x80\x9cmrs'
p3864
I3865
sS'forever\xe2\x80\x9d'
p3865
I3866
sS'downcast'
p3866
I3867
sS'2000'
p3867
I3868
sS'exil'
p3868
I663
sS'sunbath'
p3869
I3870
sS'literari'
p3870
I3871
sS'weeds\xe2\x80\x9d'
p3871
I3872
sS'yes\xe2\x80\x9d'
p3872
I3873
sS'wrong\xe2\x80\x94there\xe2\x80\x99'
p3873
I4737
sS'elsewher'
p3874
I3874
sS'becam'
p3875
I3875
sS'opposit'
p3876
I3876
sS'\xe2\x80\x9cye'
p3877
I3877
sS'rhyme'
p3878
I3878
sS'mous'
p3879
I3879
sS'other\xe2\x80\x99'
p3880
I3880
sS'volum'
p3881
I3881
sS'lowheel'
p3882
I3882
sS'untouch'
p3883
I3883
sS'nose\xe2\x80\x9d'
p3884
I3884
sS'$1460'
p3885
I3885
sS'knight'
p3886
I3886
sS'shock'
p3887
I3887
sS'headquart'
p3888
I3888
sS'resembl'
p3889
I3889
sS'carl\xe2\x80\x9d'
p3890
I3890
sS'payday'
p3891
I3891
sS'slowly\xe2\x80\x94wel'
p3892
I3892
sS'bodi'
p3893
I3893
sS'sink'
p3894
I3894
sS'storytel'
p3895
I3895
sS'sing'
p3896
I3896
sS'hippies\xe2\x80\x9d'
p3897
I3897
sS'sinc'
p3898
I3898
sS'39'
p3899
I3899
sS'talent'
p3900
I3900
sS'madhouse\xe2\x80\x9d'
p3901
I3901
sS'32'
p3902
I3902
sS'31'
p3903
I3903
sS'30'
p3904
I3904
sS'37'
p3905
I3905
sS'36'
p3906
I3906
sS'sharkey'
p3907
I3907
sS'later'
p3908
I3908
sS'weekday'
p3909
I3909
sS'climb'
p3910
I3910
sS'honor'
p3911
I3911
sS'limp'
p3912
I3912
sS'unfeel'
p3913
I3913
sS'\xe2\x80\x9clike'
p3914
I3914
sS'tap'
p3915
I3915
sS'he\xe2\x80\x99d'
p3916
I3916
sS'beach\xe2\x80\x9d'
p3917
I3917
sS'trail'
p3918
I3918
sS'train'
p3919
I3919
sS'olymp'
p3920
I3920
sS'fan'
p3921
I3921
sS'\xe2\x80\x9cwhat\xe2\x80\x99'
p3922
I3922
sS'account'
p3923
I3923
sS'alik'
p3924
I3924
sS'\xe2\x80\x9cwhat\xe2\x80\x9d'
p3925
I3925
sS'ank\xe2\x80\x9d'
p3926
I3926
sS'unreal'
p3927
I3927
sS'obvious'
p3928
I3928
sS'parkway'
p3929
I3929
sS'aliv'
p3930
I3930
sS'employe'
p3931
I3931
sS'contempl'
p3932
I3932
sS'\xe2\x80\x9cgot'
p3933
I3933
sS'$350'
p3934
I3934
sS'breathing\xe2\x80\x9d'
p3935
I3935
sS'$600'
p3936
I3936
sS'downhil'
p3937
I3937
sS'\xe2\x80\x9cgod'
p3938
I3938
sS'everywher'
p3939
I3939
sS'whitehair'
p3940
I3940
sS'suckers\xe2\x80\x9d'
p3941
I3941
sS'spread\xe2\x80\x9d'
p3942
I3942
sS'lamp'
p3943
I3943
sS'highgrad'
p3944
I3944
sS'forest'
p3945
I3945
sS'stock'
p3946
I3946
sS'\xe2\x80\x9cafter'
p3947
I3947
sS'\xe2\x80\x9cespeci'
p3948
I3948
sS'klan'
p3949
I3949
sS'philosophi'
p3950
I3950
sS'physic'
p3951
I3951
sS'furious'
p3952
I3952
sS'furnish'
p3953
I3953
sS'ugly\xe2\x80\x9d'
p3954
I1241
sS'understandinghip'
p3955
I3955
sS'horni'
p3956
I3956
sS'meter'
p3957
I3957
sS'libat'
p3958
I3958
sS'worthington'
p3959
I3959
sS'eyesocket'
p3960
I3960
sS'bunch'
p3961
I3961
sS'la'
p3962
I3962
sS'lo'
p3963
I3963
sS'labor'
p3964
I3964
sS'\xe2\x80\x9cdear'
p3965
I3965
sS'greater'
p3966
I3966
sS'spell'
p3967
I3967
sS'mention'
p3968
I3968
sS'day'
p3969
I3969
sS'dockhand'
p3970
I3970
sS'brokenleg'
p3971
I3971
sS'lie'
p3972
I2207
sS'intellig'
p3973
I3972
sS'sweatshirt'
p3974
I3973
sS'sexual'
p3975
I3974
sS'$14'
p3976
I3975
sS'why\xe2\x80\x9d'
p3977
I3976
sS'stub'
p3978
I3977
sS'\xe2\x80\x98nothing\xe2\x80\x99\xe2\x80\x9d'
p3979
I176
sS'cents\xe2\x80\x9d'
p3980
I3979
sS'smog'
p3981
I3980
sS'stun'
p3982
I3981
sS'red'
p3983
I3982
sS'ree'
p3984
I3983
sS'franc'
p3985
I3984
sS'harold'
p3986
I3985
sS'insid'
p3987
I3986
sS'frank'
p3988
I3987
sS'fourteen'
p3989
I3988
sS'invas'
p3990
I3989
sS'afterward'
p3991
I3990
sS'insist\xe2\x80\x9d'
p3992
I3991
sS'tv\xe2\x80\x9d'
p3993
I3760
sS'neckti'
p3994
I3993
sS'presid'
p3995
I3994
sS'stuck'
p3996
I4549
sS'south'
p3997
I1492
sS'finest'
p3998
I3996
sS'franki'
p3999
I3997
sS'sack'
p4000
I3998
sS'whiskeys\xe2\x80\x9d'
p4001
I3999
sS'mindsoul'
p4002
I4000
sS'facil'
p4003
I4001
sS'ancient'
p4004
I4002
sS'monkey'
p4005
I4003
sS'messag'
p4006
I4004
sS'onenight'
p4007
I4005
sS'burning\xe2\x80\x99'
p4008
I4006
sS'liquor'
p4009
I4007
sS'gear'
p4010
I4008
sS'\xe2\x80\x9cabout'
p4011
I4009
sS'negro'
p4012
I4010
sS'nobodi'
p4013
I4011
sS'dreari'
p4014
I4012
sS'hungov'
p4015
I4013
sS'embodi'
p4016
I4014
sS'shampoo'
p4017
I4016
sS'structur'
p4018
I4017
sS'charact'
p4019
I4018
sS'halcyon'
p4020
I4019
sS'lover'
p4021
I1599
sS'shakespear'
p4022
I4021
sS'tide'
p4023
I4022
sS'have'
p4024
I4023
sS'throat'
p4025
I4024
sS'dementia'
p4026
I4025
sS'you\xe2\x80\x99v'
p4027
I4026
sS'you\xe2\x80\x99r'
p4028
I4027
sS'mix'
p4029
I4028
sS'miniskirt'
p4030
I4029
sS'you\xe2\x80\x99d'
p4031
I4030
sS'unless'
p4032
I4031
sS'salli'
p4033
I4032
sS'eight'
p4034
I4033
sS'clamber'
p4035
I4034
sS'gather'
p4036
I4035
sS'oooooooooooh'
p4037
I4036
sS'occasion'
p4038
I4037
sS'm\xe2\x80\x94had'
p4039
I4038
sS'friend\xe2\x80\x94just'
p4040
I4039
sS'charley'
p4041
I4040
sS'recess'
p4042
I4041
sS'kite'
p4043
I4042
sS'texa'
p4044
I4043
sS'thicker'
p4045
I4044
sS'staff'
p4046
I4045
sS'bicycl'
p4047
I4046
sS'rockinghors'
p4048
I4047
sS'communist'
p4049
I4048
sS'inferior'
p4050
I4049
sS'finger'
p4051
I4443
sS'starch'
p4052
I4051
sS'beat'
p4053
I4052
sS'rush'
p4054
I4053
sS'bear'
p4055
I4054
sS'bean'
p4056
I4055
sS'increas'
p4057
I4056
sS'barcar'
p4058
I4057
sS'littlest'
p4059
I4058
sS'organ'
p4060
I4059
sS'ashtray'
p4061
I4060
sS'eyebrow'
p4062
I4061
sS'gibson'
p4063
I4062
sS'infidel'
p4064
I4063
sS'linda\xe2\x80\x99'
p4065
I4064
sS'pattern'
p4066
I4065
sS'different\xe2\x80\x9d'
p4067
I4066
sS'ralph'
p4068
I4067
sS'time\xe2\x80\x9d'
p4069
I4069
sS'hadn\xe2\x80\x99t'
p4070
I4070
sS'\xe2\x80\x9ceverything\xe2\x80\x99'
p4071
I4071
sS'exclaim'
p4072
I4072
sS'joke'
p4073
I4073
sS'equal'
p4074
I4074
sS'instanc'
p4075
I4075
sS'equat'
p4076
I4076
sS'swim'
p4077
I4077
sS'swallow'
p4078
I4078
sS'glorious'
p4079
I4079
sS'wear'
p4080
I4448
sS'comment'
p4081
I4081
sS'master\xe2\x80\x9d'
p4082
I710
sS'how\xe2\x80\x99d'
p4083
I4083
sS'gone'
p4084
I4084
sS'overcoat'
p4085
I4085
sS'vend'
p4086
I4086
sS'twoweek'
p4087
I4087
sS'laugh'
p4088
I4088
sS'trick\xe2\x80\x94urin'
p4089
I4449
sS'manhood'
p4090
I4090
sS'mafia'
p4091
I4091
sS'\xe2\x80\x9cbeer'
p4092
I4092
sS'fright'
p4093
I4093
sS'quit\xe2\x80\x9d'
p4094
I4094
sS'electr'
p4095
I4095
sS'muddi'
p4096
I4096
sS'sleep\xe2\x80\x9d'
p4097
I3482
sS'sasoon\xe2\x80\x9d'
p4098
I4098
sS'deep'
p4099
I4099
sS'bull'
p4100
I4100
sS'fellow'
p4101
I3484
sS'lovemak'
p4102
I4102
sS'homer'
p4103
I4103
sS'plain'
p4104
I4104
sS'loser\xe2\x80\x9d'
p4105
I4105
sS'defin'
p4106
I4106
sS'hoolahoop\xe2\x80\x9d'
p4107
I4107
sS'done\xe2\x80\x9d'
p4108
I4108
sS'ill'
p4109
I4109
sS'bursiti'
p4110
I4110
sS'divulg'
p4111
I4111
sS'almost'
p4112
I4112
sS'cultur'
p4113
I4113
sS'\xe2\x80\x9ccia'
p4114
I4114
sS'\xe2\x80\x9cfar'
p4115
I4115
sS'whirl'
p4116
I4116
sS'matchbook'
p4117
I4117
sS'\xe2\x80\x98vacancy\xe2\x80\x99'
p4118
I4118
sS'transvestit'
p4119
I4119
sS'\xe2\x80\x9cfirst'
p4120
I4120
sS'cupboard\xe2\x80\x9d'
p4121
I3490
sS'selfish'
p4122
I3491
sS'fucker'
p4123
I4123
sS'grandstand'
p4124
I4124
sS'judgment'
p4125
I4125
sS'\xe2\x80\x9cearn\xe2\x80\x9d'
p4126
I4126
sS'center'
p4127
I4127
sS'builder'
p4128
I4128
sS'thought'
p4129
I4129
sS'there\xe2\x80\x94exposur'
p4130
I4130
sS'alki'
p4131
I4131
sS'lines\xe2\x80\x94lon'
p4132
I4132
sS'granddad'
p4133
I4133
sS'beerdrunk'
p4134
I4134
sS'griffith'
p4135
I4135
sS'more\xe2\x80\x9d'
p4136
I4136
sS'tommy\xe2\x80\x9d'
p4137
I4137
sS'lake'
p4138
I4138
sS'bench'
p4139
I4139
sS'add'
p4140
I4140
sS'citizen'
p4141
I4141
sS'hangovers\xe2\x80\x9d'
p4142
I4142
sS'match'
p4143
I4143
sS'property\xe2\x80\x9d'
p4144
I4144
sS'\xe2\x80\x9cralph\xe2\x80\x9d'
p4145
I4145
sS'realiz'
p4146
I4146
sS'hair\xe2\x80\x9d'
p4147
I4147
sS'\xe2\x80\x9ccan\xe2\x80\x99t'
p4148
I4148
sS'\xe2\x80\x9cjean'
p4149
I4149
sS'like'
p4150
I4150
sS'success'
p4151
I4151
sS'\xe2\x80\x9cstraight'
p4152
I4152
sS'vibrant'
p4153
I4153
sS'profound'
p4154
I4154
sS'journalist'
p4155
I4155
sS'scriptwrit'
p4156
I4156
sS'chick'
p4157
I4157
sS'soft'
p4158
I4158
sS'heel'
p4159
I4159
sS'astrolog'
p4160
I5438
sS'hair'
p4161
I4161
sS'proper'
p4162
I4162
sS'esp'
p4163
I4163
sS'billy\xe2\x80\x9d'
p4164
I4164
sS'7up'
p4165
I4165
sS'slight'
p4166
I4166
sS'although'
p4167
I4167
sS'panel'
p4168
I4168
sS'about'
p4169
I4169
sS'actual'
p4170
I4170
sS'justic'
p4171
I4171
sS'discard'
p4172
I4172
sS'tomb'
p4173
I4173
sS'desper'
p4174
I4174
sS'guard'
p4175
I4176
sS'awhil'
p4176
I2480
sS'confession'
p4177
I3792
sS'disgusting\xe2\x80\x9d'
p4178
I4178
sS'town\xe2\x80\x9d'
p4179
I4179
sS'side\xe2\x80\x94a'
p4180
I4180
sS'pictur'
p4181
I4181
sS'introvert'
p4182
I4182
sS'biggest'
p4183
I4183
sS'maze'
p4184
I4184
sS'laredo'
p4185
I4185
sS'buy'
p4186
I4186
sS'bus'
p4187
I4187
sS'coke'
p4188
I4188
sS'but'
p4189
I4189
sS'blackishbrown'
p4190
I4190
sS'buk'
p4191
I4191
sS'bun'
p4192
I4192
sS'bum'
p4193
I4193
sS'bug'
p4194
I4194
sS'bud'
p4195
I4195
sS'8/5'
p4196
I4196
sS'wise'
p4197
I4197
sS'wish'
p4198
I4198
sS'j'
p4199
I4199
sS'flip'
p4200
I4200
sS'shortpric'
p4201
I4201
sS'glori'
p4202
I4202
sS'\xe2\x80\x9cthey\xe2\x80\x99r'
p4203
I4203
sS'garter'
p4204
I4204
sS'dure'
p4205
I4205
sS'****review'
p4206
I4206
sS'tabletop'
p4207
I4207
sS'our'
p4208
I4208
sS'to\xe2\x80\x94no'
p4209
I4209
sS'pit'
p4210
I4210
sS'probabl'
p4211
I4211
sS'redder'
p4212
I4212
sS'48'
p4213
I4213
sS'49'
p4214
I4214
sS'47'
p4215
I4215
sS'40'
p4216
I4216
sS'85'
p4217
I5447
sS'dresser'
p4218
I4218
sS'altruistic\xe2\x80\x94i'
p4219
I4219
sS'soulsuck'
p4220
I4220
sS'basketbal'
p4221
I4221
sS'barfly\xe2\x80\x9d'
p4222
I4222
sS'\xe2\x80\x9d'
p4223
I4223
sS'\xe2\x80\x9c'
p4224
I4224
sS'yell'
p4225
I4225
sS'trenton'
p4226
I4226
sS'$150000'
p4227
I4227
sS'hitch'
p4228
I4228
sS'sleep'
p4229
I4229
sS'hate'
p4230
I4230
sS'tricycl'
p4231
I4231
sS'grace\xe2\x80\x9d'
p4232
I4232
sS'under'
p4233
I4233
sS'tweed'
p4234
I4234
sS'$45'
p4235
I4235
sS'everi'
p4236
I4236
sS'rise'
p4237
I4237
sS'eating\xe2\x80\x9d'
p4238
I4238
sS'\xe2\x80\x98how\xe2\x80\x99'
p4239
I4239
sS'jack'
p4240
I4240
sS'evert'
p4241
I4241
sS'\xe2\x80\x98desire\xe2\x80\x99'
p4242
I4242
sS'school'
p4243
I4243
sS'parrot'
p4244
I4244
sS'harriet'
p4245
I4245
sS'barbecu'
p4246
I4246
sS'enjoy'
p4247
I4247
sS'bad\xe2\x80\x94\xe2\x80\x9csom'
p4248
I4248
sS'direct'
p4249
I4249
sS'nail'
p4250
I4250
sS'street'
p4251
I4251
sS'overdu'
p4252
I4252
sS'mine\xe2\x80\x9d'
p4253
I4253
sS'blue'
p4254
I4254
sS'hide'
p4255
I4255
sS'christ'
p4256
I2899
sS'\xe2\x80\x9chair\xe2\x80\x9d'
p4257
I4257
sS'play\xe2\x80\x9d'
p4258
I4258
sS'beaten'
p4259
I4259
sS'poison'
p4260
I4260
sS'filmmak'
p4261
I4261
sS'nicelook'
p4262
I4262
sS'murder\xe2\x80\x94th'
p4263
I4263
sS'path'
p4264
I4264
sS'$140'
p4265
I4265
sS'\xe2\x80\x9cgood'
p4266
I4266
sS'anymor'
p4267
I4267
sS'precis'
p4268
I4269
sS'tremend'
p4269
I4270
sS'shirt\xe2\x80\x9d'
p4270
I4271
sS'strap'
p4271
I4272
sS'name\xe2\x80\x9d'
p4272
I3028
sS'describ'
p4273
I4274
sS'would'
p4274
I4275
sS'spike'
p4275
I4276
sS'muse'
p4276
I4277
sS'phone'
p4277
I4278
sS'phoni'
p4278
I4279
sS'must'
p4279
I4280
sS'shoot'
p4280
I4281
sS'henri'
p4281
I4282
sS'mr'
p4282
I4283
sS'quiet\xe2\x80\x9d'
p4283
I747
sS'my'
p4284
I4285
sS'fortress'
p4285
I4286
sS'shook'
p4286
I4287
sS'loosen'
p4287
I4288
sS'joyous'
p4288
I4289
sS'ticket\xe2\x80\x94they'
p4289
I4290
sS'attract'
p4290
I4291
sS'end'
p4291
I4292
sS'bunk'
p4292
I4293
sS'doing\xe2\x80\x9d'
p4293
I4294
sS'gate'
p4294
I4295
sS'darkhair'
p4295
I4296
sS'mess'
p4296
I4297
sS'befor'
p4297
I4298
sS'janice\xe2\x80\x9d'
p4298
I4299
sS'delicaci'
p4299
I3279
sS'splendid'
p4300
I4301
sS'spout'
p4301
I4302
sS'7/2'
p4302
I4303
sS'enter'
p4303
I4304
sS'adul'
p4304
I4305
sS'crumbl'
p4305
I4306
sS'over'
p4306
I4307
sS'fall'
p4307
I4308
sS'orang'
p4308
I4309
sS'becaus'
p4309
I4310
sS'chaser\xe2\x80\x9d'
p4310
I4311
sS'oven'
p4311
I4312
sS'digest'
p4312
I4313
sS'condition'
p4313
I4314
sS'fade'
p4314
I4315
sS'400'
p4315
I4316
sS'tourist'
p4316
I4317
sS'choic'
p4317
I4318
sS'collectors\xe2\x80\x99'
p4318
I4319
sS'victori'
p4319
I4320
sS'persever'
p4320
I4321
sS'detroit'
p4321
I4322
sS'unnatur'
p4322
I4323
sS'\xe2\x80\x9cthese'
p4323
I4324
sS'each'
p4324
I4325
sS'gibson\xe2\x80\x99'
p4325
I4326
sS'wheel'
p4326
I1632
sS'fishpond'
p4327
I4328
sS'unscrew'
p4328
I4329
sS'friend\xe2\x80\x9d'
p4329
I4330
sS'so\xe2\x80\x9d'
p4330
I4331
sS'saturday'
p4331
I4332
sS'secondlowest'
p4332
I4333
sS'depress'
p4333
I4334
sS'gon'
p4334
I4335
sS'#24'
p4335
I4336
sS'goe'
p4336
I4337
sS'god'
p4337
I4338
sS'motel'
p4338
I4339
sS'we\xe2\x80\x99v'
p4339
I4340
sS'laid'
p4340
I4341
sS'adjust'
p4341
I759
sS'good\xe2\x80\x9d'
p4342
I3513
sS'got'
p4343
I4344
sS'imbedded\xe2\x80\x9d'
p4344
I4345
sS'stringer'
p4345
I4346
sS'arizona'
p4346
I4347
sS'hang'
p4347
I4348
sS'free'
p4348
I4349
sS'relax\xe2\x80\x9d'
p4349
I4350
sS'rain'
p4350
I4351
sS'glisten'
p4351
I5462
sS'horseshit'
p4352
I4354
sS'gradeaaa'
p4353
I4355
sS'copalla'
p4354
I4356
sS'eh\xe2\x80\x9d'
p4355
I4357
sS'onto'
p4356
I4358
sS'fantasi'
p4357
I4359
sS'rang'
p4358
I4360
sS'rank'
p4359
I4361
sS'artistri'
p4360
I4362
sS'alreadi'
p4361
I4363
sS'sober'
p4362
I3628
sS'live\xe2\x80\x9d'
p4363
I1640
sS'10round'
p4364
I1496
sS'neuriti'
p4365
I4367
sS'fiction'
p4366
I4368
sS'ton'
p4367
I4369
sS'too'
p4368
I4370
sS'flippant'
p4369
I4371
sS'tom'
p4370
I4372
sS'unbroken'
p4371
I4373
sS'toe'
p4372
I4374
sS'100yearold'
p4373
I3672
sS'tool'
p4374
I4376
sS'\xe2\x80\x9csteve'
p4375
I4377
sS'took'
p4376
I4378
sS'western'
p4377
I4379
sS'conserv'
p4378
I4380
sS'mcluhan'
p4379
I4381
sS'$350000'
p4380
I4382
sS'flame'
p4381
I4383
sS'mcdonald\xe2\x80\x99'
p4382
I3732
sS'rag'
p4383
I4385
sS'fashion'
p4384
I4386
sS'handkerchief'
p4385
I4387
sS'ran'
p4386
I4388
sS'1972'
p4387
I1647
sS'raw'
p4388
I4390
sS'rat'
p4389
I4391
sS'ocean'
p4390
I4392
sS'sea\xe2\x80\x9d'
p4391
I4393
sS'ray'
p4392
I4394
sS'thorough'
p4393
I4395
sS'hear\xe2\x80\x9d'
p4394
I3794
sS'greatest'
p4395
I4493
sS'plenti'
p4396
I4398
sS'though'
p4397
I4399
sS'insul'
p4398
I4400
sS'coin'
p4399
I4401
sS'everyth'
p4400
I4495
sS'glow'
p4401
I4403
sS'money\xe2\x80\x9d'
p4402
I4404
sS'money\xe2\x80\x99'
p4403
I4405
sS'flop'
p4404
I4406
sS'flow'
p4405
I4407
sS'freeway'
p4406
I4408
sS'crankshaft'
p4407
I4409
sS'flog'
p4408
I4410
sS'yank'
p4409
I4411
sS'pope'
p4410
I4412
sS'stool'
p4411
I4413
sS'sureti'
p4412
I4414
sS'radio'
p4413
I4415
sS'queer'
p4414
I4416
sS'earth'
p4415
I4417
sS'bail'
p4416
I4418
sS'deal\xe2\x80\x9d'
p4417
I4419
sS'absolut'
p4418
I4420
sS'spite'
p4419
I4421
sS'disgust'
p4420
I4422
sS'soundless'
p4421
I2513
sS'oct'
p4422
I4423
sS'\xe2\x80\x9charold'
p4423
I4424
sS'watch'
p4424
I4425
sS'6/5'
p4425
I4426
sS'report'
p4426
I4427
sS'\xe2\x80\x9cjudy\xe2\x80\x9d'
p4427
I4428
sS'twice'
p4428
I4429
sS'yfactor'
p4429
I4430
sS'chinaski\xe2\x80\x9d'
p4430
I4431
sS'\xe2\x80\x9cclass\xe2\x80\x9d'
p4431
I4432
sS'algier\xe2\x80\x9d'
p4432
I4433
sS'swept'
p4433
I4434
sS'habit'
p4434
I4435
sS'nut'
p4435
I4436
sS'parol'
p4436
I4437
sS'resist'
p4437
I4438
sS'teamster\xe2\x80\x99'
p4438
I4439
sS'go\xe2\x80\x9d'
p4439
I4440
sS'discoveri'
p4440
I4441
sS'mud'
p4441
I4442
sS'$68'
p4442
I4050
sS'approach'
p4443
I4444
sS'$60'
p4444
I4445
sS'weak'
p4445
I4446
sS'weav'
p4446
I4447
sS'kids\xe2\x80\x9d'
p4447
I4080
sS'news'
p4448
I4089
sS'protect'
p4449
I4450
sS'fault'
p4450
I4451
sS'papyrus'
p4451
I4452
sS'rariti'
p4452
I5481
sS'karen'
p4453
I4454
sS'solid\xe2\x80\x9d'
p4454
I4455
sS'nake'
p4455
I4456
sS'\xe2\x80\x9cinspect'
p4456
I4457
sS'\xe2\x80\x9cstop'
p4457
I4458
sS'bathroom'
p4458
I4459
sS'\xe2\x80\x9cwhere'
p4459
I4460
sS'jobless'
p4460
I4461
sS'beef'
p4461
I4462
sS'door\xe2\x80\x9d'
p4462
I4463
sS'been'
p4463
I4464
sS'beep'
p4464
I4465
sS'beer'
p4465
I4466
sS'beet'
p4466
I4467
sS'excretia'
p4467
I4468
sS'job\xe2\x80\x9d'
p4468
I4469
sS'job\xe2\x80\x99'
p4469
I4470
sS'teenybopp'
p4470
I4471
sS'craft'
p4471
I4472
sS'lepk'
p4472
I4473
sS'els'
p4473
I4474
sS'catch'
p4474
I4475
sS'pecker'
p4475
I4476
sS'leprosi'
p4476
I4477
sS'cracker'
p4477
I4478
sS'n'
p4478
I4479
sS'\xe2\x80\x9cso'
p4479
I4480
sS'garag'
p4480
I4481
sS'3yearold'
p4481
I4482
sS'wrists\xe2\x80\x9d'
p4482
I4483
sS'suggest'
p4483
I4484
sS'13yearold'
p4484
I4485
sS'store\xe2\x80\x9d'
p4485
I4486
sS'complet'
p4486
I4487
sS'bukowski\xe2\x80\x99'
p4487
I2526
sS'writeractor'
p4488
I4489
sS'dylan'
p4489
I4490
sS'aisl'
p4490
I4491
sS'double\xe2\x80\x9d'
p4491
I4492
sS'\xe2\x80\x9cshoot\xe2\x80\x9d'
p4492
I4397
sS'mother'
p4493
I4494
sS'jean'
p4494
I4402
sS'gradea'
p4495
I4496
sS'gradeb'
p4496
I4497
sS'depart'
p4497
I789
sS'\xe2\x80\x9c\xe2\x80\x99kid\xe2\x80\x99'
p4498
I4499
sS'enlighten'
p4499
I4500
sS'expos'
p4500
I4501
sS'elm'
p4501
I4502
sS'furri'
p4502
I4503
sS'gave'
p4503
I4504
sS'not\xe2\x80\x9d'
p4504
I4505
sS'roach'
p4505
I4506
sS'burnt'
p4506
I4507
sS'apart'
p4507
I4508
sS'icewat'
p4508
I4509
sS'are\xe2\x80\x9d'
p4509
I5491
sS'58'
p4510
I4511
sS'swill'
p4511
I4512
sS'55'
p4512
I4513
sS'54'
p4513
I4514
sS'hunt'
p4514
I4515
sS'50'
p4515
I4516
sS'52'
p4516
I4517
sS'hunk'
p4517
I4518
sS'mosquito'
p4518
I4519
sS'hung'
p4519
I4520
sS'flagpol'
p4520
I4521
sS'zoom'
p4521
I4522
sS'ici'
p4522
I4523
sS'rhine'
p4523
I4524
sS'sister\xe2\x80\x9d'
p4524
I4525
sS'ice'
p4525
I4526
sS'convict'
p4526
I4527
sS'cord'
p4527
I4528
sS'core'
p4528
I4529
sS'\xe2\x80\x9cyou\xe2\x80\x9d'
p4529
I5494
sS'circlejerk'
p4530
I4531
sS'cork'
p4531
I4532
sS'planeticket'
p4532
I4533
sS'plug'
p4533
I4534
sS'alexand'
p4534
I4535
sS'choke'
p4535
I4536
sS'surround'
p4536
I4537
sS'dinner'
p4537
I4538
sS'grown'
p4538
I2987
sS'plus'
p4539
I4539
sS'produc'
p4540
I4540
sS'duke'
p4541
I4541
sS'civil'
p4542
I4542
sS'wellliv'
p4543
I4543
sS'bath'
p4544
I4544
sS'gir'
p4545
I4545
sS'frustrat'
p4546
I4546
sS'transform'
p4547
I4547
sS'sunlight'
p4548
I4548
sS'virgin'
p4549
I2214
sS'fought'
p4550
I4550
sS'man\xe2\x80\x99'
p4551
I4551
sS'everything\xe2\x80\x9d'
p4552
I4552
sS'man\xe2\x80\x9d'
p4553
I4553
sS'everything\xe2\x80\x99'
p4554
I4554
sS'head'
p4555
I4555
sS'medium'
p4556
I4556
sS'amateur'
p4557
I4557
sS'heal'
p4558
I4558
sS'interesting\xe2\x80\x9d'
p4559
I798
sS'plumber'
p4560
I2539
sS'heinous'
p4561
I4561
sS'heat'
p4562
I4562
sS'hear'
p4563
I4563
sS'refriger'
p4564
I4564
sS'burnedout'
p4565
I4565
sS'seventysix'
p4566
I4566
sS'tanada'
p4567
I4567
sS'prowl'
p4568
I4568
sS'fundament'
p4569
I4569
sS'latch'
p4570
I4570
sS'adorn'
p4571
I4571
sS'trim'
p4572
I4572
sS'\xe2\x80\x9chi\xe2\x80\x9d'
p4573
I4573
sS'furi'
p4574
I4574
sS'trip'
p4575
I4853
sS'no'
p4576
I4576
sS'tit'
p4577
I4577
sS'\xe2\x80\x9callo'
p4578
I4578
sS'tip'
p4579
I4579
sS'tim'
p4580
I4580
sS'tin'
p4581
I4581
sS'tie'
p4582
I4582
sS'\xe2\x80\x98ambition\xe2\x80\x99'
p4583
I4583
sS'toad'
p4584
I4584
sS'poem'
p4585
I2593
sS'consid'
p4586
I4585
sS'jail\xe2\x80\x9d'
p4587
I4586
sS'louise\xe2\x80\x9d'
p4588
I4587
sS'longer'
p4589
I4588
sS'roomer'
p4590
I4589
sS'love\xe2\x80\x9d'
p4591
I4590
sS'vietnam'
p4592
I4591
sS'serious'
p4593
I4592
sS'crazy\xe2\x80\x9d'
p4594
I4593
sS'backward'
p4595
I4594
sS'coach'
p4596
I4595
sS'snif'
p4597
I4596
sS'rob'
p4598
I4597
sS'celebr'
p4599
I4598
sS'rod'
p4600
I4599
sS'85719'
p4601
I4600
sS'painkil'
p4602
I4601
sS'\xe2\x80\x9ccare'
p4603
I4602
sS'rot'
p4604
I4603
sS'row'
p4605
I4604
sS'doom'
p4606
I803
sS'1942'
p4607
I4606
sS'1940'
p4608
I4607
sS'1947'
p4609
I4609
sS'sourc'
p4610
I4610
sS'winning\xe2\x80\x94then'
p4611
I4611
sS'wellkept'
p4612
I4612
sS'cook'
p4613
I4613
sS'cool'
p4614
I4614
sS'looney'
p4615
I4615
sS'level'
p4616
I4616
sS'brother'
p4617
I4617
sS'you\xe2\x80\x99ll'
p4618
I4618
sS'wife\xe2\x80\x9d'
p4619
I5090
sS'peepe'
p4620
I4620
sS'wife\xe2\x80\x99'
p4621
I4621
sS'drier'
p4622
I4622
sS'slower'
p4623
I4623
sS'elevator\xe2\x80\x9d'
p4624
I4624
sS'pore'
p4625
I4625
sS'steeringwheel'
p4626
I4626
sS'bake'
p4627
I4627
sS'jong\xe2\x80\x99'
p4628
I4628
sS'fear'
p4629
I5508
sS'mantrain'
p4630
I4630
sS'bloodsuck'
p4631
I5150
sS'repli'
p4632
I4632
sS'midforti'
p4633
I4633
sS'bedmat'
p4634
I4634
sS'groupi'
p4635
I4635
sS'water'
p4636
I4636
sS'entertain'
p4637
I4637
sS'thunderblossom'
p4638
I4638
sS'jorg'
p4639
I4639
sS'shove'
p4640
I4640
sS'thirti'
p4641
I4641
sS'healthi'
p4642
I4642
sS'guilti'
p4643
I4643
sS'tuxedo'
p4644
I4644
sS'houseware\xe2\x80\x9d'
p4645
I4645
sS'upstair'
p4646
I4646
sS'damnedest'
p4647
I4647
sS'durham'
p4648
I4648
sS'squarejaw'
p4649
I4649
sS'pants\xe2\x80\x94black\xe2\x80\x94and'
p4650
I4650
sS'bartender\xe2\x80\x9d'
p4651
I4651
sS'post'
p4652
I4652
sS'negative\xe2\x80\x9d'
p4653
I4653
sS'memori'
p4654
I4654
sS'dinner\xe2\x80\x9d'
p4655
I4655
sS'today'
p4656
I4656
sS'barkeep'
p4657
I4657
sS'chapter'
p4658
I4658
sS'\xe2\x80\x9cbuke'
p4659
I4659
sS'altar'
p4660
I4660
sS'drown'
p4661
I4661
sS'know\xe2\x80\x94and'
p4662
I4662
sS'religi'
p4663
I4663
sS'slow\xe2\x80\x94they'
p4664
I4664
sS'judg'
p4665
I5351
sS'purpos'
p4666
I4666
sS'laughter'
p4667
I4667
sS'slightest'
p4668
I4668
sS'diminishment\xe2\x80\x9d'
p4669
I4669
sS'streak'
p4670
I4670
sS'stream'
p4671
I4671
sS'buddy\xe2\x80\x9d'
p4672
I4672
sS'rattlesnak'
p4673
I4673
sS'critic'
p4674
I4674
sS'hydrogen'
p4675
I4675
sS'husbandri'
p4676
I4676
sS'1'
p4677
I4677
sS'alway'
p4678
I4678
sS'\xe2\x80\x9cten'
p4679
I4679
sS'fourth'
p4680
I4680
sS'jackedoff'
p4681
I4681
sS'night\xe2\x80\x9d'
p4682
I4682
sS'night\xe2\x80\x99'
p4683
I4683
sS'birthday'
p4684
I4684
sS'writer\xe2\x80\x9d'
p4685
I3384
sS'eighth'
p4686
I4685
sS'practic'
p4687
I4686
sS'liquid'
p4688
I4687
sS'joint'
p4689
I2054
sS'\xe2\x80\x9clet\xe2\x80\x99'
p4690
I4689
sS'inform'
p4691
I4690
sS'preced'
p4692
I4691
sS'combin'
p4693
I4692
sS'comfort'
p4694
I4693
sS'midnight'
p4695
I4694
sS'128'
p4696
I2560
sS'\xe2\x80\x9ckick'
p4697
I4696
sS'ligaroti'
p4698
I4697
sS'passag'
p4699
I4698
sS'peepfreak'
p4700
I4699
sS'underneath'
p4701
I4700
sS'loneli'
p4702
I4701
sS'name'
p4703
I4702
sS'realist'
p4704
I4703
sS'opera'
p4705
I4704
sS'shithead\xe2\x80\x94\xe2\x80\x9d'
p4706
I4705
sS'guest\xe2\x80\x9d'
p4707
I4706
sS'course\xe2\x80\x9d'
p4708
I4707
sS'stations\xe2\x80\x94suppli'
p4709
I4708
sS'dispos'
p4710
I4710
sS'\xe2\x80\x9cstick'
p4711
I4711
sS'cribbag'
p4712
I4712
sS'profit'
p4713
I4713
sS'uncl'
p4714
I4714
sS'can\xe2\x80\x99t\xe2\x80\x9d'
p4715
I4715
sS'hangnail'
p4716
I4716
sS'partit'
p4717
I5528
sS'theori'
p4718
I4718
sS'xfactor'
p4719
I4719
sS'corrington'
p4720
I4720
sS'refus'
p4721
I4721
sS'motion'
p4722
I4722
sS'turn'
p4723
I4723
sS'place'
p4724
I4724
sS'swine'
p4725
I4725
sS'1009'
p4726
I4726
sS'swing'
p4727
I4727
sS'turd'
p4728
I4068
sS'imposs'
p4729
I4729
sS'origin'
p4730
I4730
sS'\xe2\x80\x9cplenty\xe2\x80\x9d'
p4731
I4731
sS'given'
p4732
I128
sS'halfmoon'
p4733
I4733
sS'title\xe2\x80\x9d'
p4734
I4734
sS'\xe2\x80\x9ceverybody\xe2\x80\x99'
p4735
I4735
sS'circl'
p4736
I4736
sS'white'
p4737
I156
sS'unfrock'
p4738
I4738
sS'girder'
p4739
I4739
sS'hug'
p4740
I4740
sS'hasn\xe2\x80\x99t'
p4741
I4741
sS'hum'
p4742
I170
sS'copi'
p4743
I4743
sS'huh'
p4744
I4744
sS'alan'
p4745
I4745
sS'enclos'
p4746
I4746
sS'shirley'
p4747
I4747
sS'holder'
p4748
I4748
sS'serv'
p4749
I4749
sS'wide'
p4750
I4750
sS'balanc'
p4751
I4751
sS'posit'
p4752
I4752
sS'seri'
p4753
I4753
sS'and'
p4754
I4754
sS'ani'
p4755
I4755
sS'ank'
p4756
I4756
sS'ant'
p4757
I4757
sS'rent'
p4758
I4758
sS'nina\xe2\x80\x99'
p4759
I4759
sS'ideal'
p4760
I4760
sS'communists\xe2\x80\x94nothing\xe2\x80\x99'
p4761
I4761
sS'sure'
p4762
I306
sS'walls\xe2\x80\x9d'
p4763
I4763
sS'reach\xe2\x80\x9d'
p4764
I4764
sS'benson\xe2\x80\x9d'
p4765
I4765
sS'adopt'
p4766
I4766
sS'bucks\xe2\x80\x9d'
p4767
I4767
sS'\xe2\x80\x9cfor'
p4768
I4768
sS'babbl'
p4769
I4769
sS'sunset'
p4770
I354
sS'cheat'
p4771
I4771
sS'\xe2\x80\x9cok\xe2\x80\x9d'
p4772
I382
sS'cheap'
p4773
I4773
sS'trespass'
p4774
I4774
sS'agony\xe2\x80\x9d'
p4775
I4775
sS'permiss'
p4776
I4776
sS'trot'
p4777
I4777
sS'before\xe2\x80\x9d'
p4778
I4778
sS'away\xe2\x80\x9d\xe2\x80\x94i'
p4779
I5540
sS'read\xe2\x80\x9d'
p4780
I4780
sS'written'
p4781
I2575
sS'crime'
p4782
I4782
sS'baseball\xe2\x80\x9d'
p4783
I4783
sS'outbroken'
p4784
I4784
sS'wood'
p4785
I4785
sS'summertim'
p4786
I4786
sS'selfpiti'
p4787
I4787
sS'scragg'
p4788
I4788
sS'lighten'
p4789
I4789
sS'jazz'
p4790
I4790
sS'treacheri'
p4791
I4791
sS'nobl'
p4792
I4792
sS'cake\xe2\x80\x9d'
p4793
I4793
sS'reveal'
p4794
I4794
sS'sex\xe2\x80\x9d'
p4795
I4795
sS'2143'
p4796
I4796
sS'honest\xe2\x80\x9d'
p4797
I4797
sS'beethoven'
p4798
I4798
sS'picnic'
p4799
I4799
sS'crap\xe2\x80\x9d'
p4800
I4800
sS'1920'
p4801
I4801
sS'1922'
p4802
I4802
sS'1923'
p4803
I4803
sS'#3'
p4804
I4804
sS'detect'
p4805
I4805
sS'review'
p4806
I4806
sS'experience\xe2\x80\x9d'
p4807
I4807
sS'noon\xe2\x80\x9d'
p4808
I4808
sS'illusionari'
p4809
I4809
sS'great\xe2\x80\x9d'
p4810
I4810
sS'come'
p4811
I4811
sS'foxtrot'
p4812
I4812
sS'sally\xe2\x80\x99'
p4813
I4813
sS'prosod'
p4814
I4814
sS'shortstop'
p4815
I4815
sS'pit\xe2\x80\x9d'
p4816
I4816
sS'quiet'
p4817
I4817
sS'contract'
p4818
I4818
sS'starvat'
p4819
I4819
sS'shitfir'
p4820
I4820
sS'color'
p4821
I4821
sS'pow'
p4822
I4822
sS'pot'
p4823
I4823
sS'inspir'
p4824
I4824
sS'period'
p4825
I4825
sS'insist'
p4826
I4826
sS'duti'
p4827
I647
sS'62'
p4828
I648
sS'walden'
p4829
I4829
sS'warmedov'
p4830
I4830
sS'68'
p4831
I4831
sS'sidelin'
p4832
I4832
sS'coupl'
p4833
I4833
sS'we\xe2\x80\x99ll'
p4834
I4834
sS'anyhow\xe2\x80\x9d'
p4835
I4835
sS'500'
p4836
I4836
sS'630'
p4837
I4837
sS'repons'
p4838
I720
sS'tiger'
p4839
I4839
sS'spirit'
p4840
I4840
sS'case'
p4841
I4841
sS'shaft'
p4842
I4842
sS'myself'
p4843
I4843
sS'gary\xe2\x80\x9d'
p4844
I4844
sS'mount'
p4845
I4845
sS'cash'
p4846
I4846
sS'\xe2\x80\x9cbrother\xe2\x80\x9d'
p4847
I4847
sS'cast'
p4848
I4848
sS'unnerstan'
p4849
I4849
sS'author'
p4850
I4850
sS'$20'
p4851
I4851
sS'fender'
p4852
I4852
sS'check'
p4853
I4575
sS'eventu'
p4854
I4854
sS'shoulder\xe2\x80\x9d'
p4855
I4855
sS'hermit'
p4856
I4856
sS'week'
p4857
I4857
sS'barefoot'
p4858
I4858
sS'applaud'
p4859
I4859
sS'driver'
p4860
I4860
sS'surgeon\xe2\x80\x99'
p4861
I4861
sS'lambast'
p4862
I4862
sS'director'
p4863
I861
sS'weep'
p4864
I4864
sS'applaus'
p4865
I4865
sS'handsom'
p4866
I4866
sS'reliev'
p4867
I4867
sS'\xe2\x80\x9cwhat\xe2\x80\x99ll'
p4868
I4868
sS'ranch'
p4869
I4869
sS'justifi'
p4870
I4870
sS'hustl'
p4871
I4871
sS'without'
p4872
I4872
sS'jersey'
p4873
I2589
sS'grappl'
p4874
I4874
sS'model'
p4875
I4875
sS'reward'
p4876
I4876
sS'way\xe2\x80\x94and'
p4877
I4877
sS'when'
p4878
I4878
sS'actress'
p4879
I4879
sS'violent'
p4880
I4880
sS'tomorrow\xe2\x80\x9d'
p4881
I4881
sS'kill'
p4882
I4882
sS'drunktanks\xe2\x80\x9d'
p4883
I4883
sS'fair\xe2\x80\x9d'
p4884
I4884
sS'halfway'
p4885
I4885
sS'blow'
p4886
I4886
sS'blot'
p4887
I4887
sS'rose'
p4888
I4888
sS'broom\xe2\x80\x9d'
p4889
I1723
sS'hing'
p4890
I4890
sS'sampler'
p4891
I4891
sS'bushes\xe2\x80\x9d'
p4892
I4892
sS'virginia'
p4893
I4893
sS'\xe2\x80\x98i'
p4894
I4894
sS'mugger'
p4895
I4895
sS'saniti'
p4896
I4896
sS'braddock'
p4897
I4897
sS'snore'
p4898
I4898
sS'beggar\xe2\x80\x9d'
p4899
I4899
sS'patrick'
p4900
I4900
sS'prejud'
p4901
I4901
sS'kennedi'
p4902
I4902
sS'\xe2\x80\x9cwe'
p4903
I4903
sS'roach\xe2\x80\x9d'
p4904
I4904
sS'slice'
p4905
I4905
sS'mood'
p4906
I4906
sS'legal'
p4907
I1060
sS'moon'
p4908
I4908
sS'onebedroom'
p4909
I4909
sS'match\xe2\x80\x9d'
p4910
I1080
sS'sark'
p4911
I4911
sS'garbag'
p4912
I4912
sS'kleenex'
p4913
I4913
sS'earlier'
p4914
I3261
sS'on'
p4915
I4914
sS'ok'
p4916
I4915
sS'oh'
p4917
I4916
sS'of'
p4918
I4917
sS'\xe2\x80\x9cabsolutely\xe2\x80\x9d'
p4919
I4918
sS'stand'
p4920
I4919
sS'ow'
p4921
I4920
sS'\xe2\x80\x9cbecaus'
p4922
I4921
sS'or'
p4923
I4922
sS'pleases\xe2\x80\x94to'
p4924
I4923
sS'routin'
p4925
I4924
sS'gari'
p4926
I4925
sS'stuff\xe2\x80\x9d'
p4927
I4926
sS'burton'
p4928
I4927
sS'needn\xe2\x80\x99t'
p4929
I4928
sS'there'
p4930
I4929
sS'strict'
p4931
I4930
sS'racist'
p4932
I1213
sS'firech'
p4933
I4932
sS'750'
p4934
I4933
sS'jug'
p4935
I4934
sS'cabinet'
p4936
I4935
sS'faster'
p4937
I4936
sS'grass'
p4938
I4937
sS'toilet'
p4939
I4938
sS'taylor'
p4940
I4939
sS'frighten'
p4941
I1298
sS'\xe2\x80\x9cgerda\xe2\x80\x99s\xe2\x80\x9d'
p4942
I4941
sS'idiot'
p4943
I4942
sS'\xe2\x80\x9cgrissom'
p4944
I4943
sS'rubber'
p4945
I4944
sS'will\xe2\x80\x9d'
p4946
I4709
sS'trash'
p4947
I4946
sS'championship'
p4948
I4947
sS'oneself'
p4949
I4948
sS'press\xe2\x80\x9d'
p4950
I4949
sS'cat\xe2\x80\x99'
p4951
I1366
sS'symbol'
p4952
I1367
sS'wife'
p4953
I4952
sS'crotti'
p4954
I4953
sS'potenti'
p4955
I4954
sS'\xe2\x80\x9cladi'
p4956
I4955
sS'degrad'
p4957
I4956
sS'all'
p4958
I4957
sS'lace'
p4959
I4958
sS'barbwir'
p4960
I4959
sS'lack'
p4961
I4960
sS'abil'
p4962
I4961
sS'dish'
p4963
I4962
sS'follow'
p4964
I4963
sS'\xe2\x80\x9crais'
p4965
I4964
sS'apolitical\xe2\x80\x9d'
p4966
I4965
sS'thursday'
p4967
I4966
sS'program'
p4968
I4967
sS'painter'
p4969
I5576
sS'maybe\xe2\x80\x9d'
p4970
I1466
sS'\xe2\x80\x9cguess'
p4971
I4970
sS'down\xe2\x80\x94no'
p4972
I4971
sS'song'
p4973
I4972
sS'far'
p4974
I4973
sS'wired\xe2\x80\x9d'
p4975
I4974
sS'fat'
p4976
I4975
sS'cool\xe2\x80\x9d'
p4977
I4976
sS'psychologist'
p4978
I4977
sS'worst'
p4979
I4978
sS'failur'
p4980
I4979
sS'ticket'
p4981
I4980
sS'fad'
p4982
I1504
sS'inkwell\xe2\x80\x9d'
p4983
I4982
sS'\xe2\x80\x9ccan'
p4984
I4983
sS'stumbl'
p4985
I4984
sS'horrible\xe2\x80\x9d'
p4986
I4985
sS'\xe2\x80\x9cnarrrrrb'
p4987
I4986
sS'ten'
p4988
I4987
sS'chastis'
p4989
I2610
sS'rate'
p4990
I4989
sS'design'
p4991
I4990
sS'inadequacy\xe2\x80\x94but'
p4992
I4991
sS'balls\xe2\x80\x9d'
p4993
I855
sS'sue'
p4994
I1563
sS'ashtrays\xe2\x80\x9d'
p4995
I4994
sS'sun'
p4996
I4995
sS'sum'
p4997
I1570
sS'brief'
p4998
I4997
sS'\xe2\x80\x9cyou\xe2\x80\x99v'
p4999
I4998
sS'tampax'
p5000
I4999
sS'crush'
p5001
I5000
sS'version'
p5002
I5001
sS'deepli'
p5003
I5002
sS'\xe2\x80\x9cyou\xe2\x80\x99d'
p5004
I5003
sS'themselv'
p5005
I5004
sS'\xe2\x80\x9cso\xe2\x80\x99'
p5006
I5005
sS'horses\xe2\x80\x9d'
p5007
I5006
sS'goodby'
p5008
I5007
sS'shoulda'
p5009
I5008
sS'\xe2\x80\x9ctomorrow'
p5010
I5009
sS'passedout'
p5011
I5010
sS'racetracks\xe2\x80\x9d'
p5012
I5011
sS'bizarr'
p5013
I5012
sS'grissom\xe2\x80\x9d'
p5014
I5013
sS'minor'
p5015
I5014
sS'flat'
p5016
I5015
sS'flap'
p5017
I5016
sS'either\xe2\x80\x9d'
p5018
I5017
sS'protestor'
p5019
I5018
sS'flag'
p5020
I5019
sS'stick'
p5021
I5020
sS'20000'
p5022
I5021
sS'known'
p5023
I5022
sS'mellow'
p5024
I5023
sS'herself\xe2\x80\x9d'
p5025
I5024
sS'glad'
p5026
I5025
sS'orlean'
p5027
I5026
sS'\xe2\x80\x9cha'
p5028
I5027
sS'pyemia'
p5029
I5028
sS'\xe2\x80\x9che'
p5030
I5029
sS'\xe2\x80\x9chi'
p5031
I5030
sS'\xe2\x80\x9cho'
p5032
I5031
sS'allegi'
p5033
I5032
sS'into\xe2\x80\x9d'
p5034
I5033
sS'who\xe2\x80\x99'
p5035
I5034
sS'pond'
p5036
I5035
sS'swung'
p5037
I5036
sS'builder\xe2\x80\x99'
p5038
I5037
sS'cours'
p5039
I5038
sS'court'
p5040
I5039
sS'divid'
p5041
I5040
sS'rather'
p5042
I5041
sS'goad'
p5043
I5042
sS'sexlost'
p5044
I5043
sS'headstrong'
p5045
I5044
sS'mould'
p5046
I5045
sS'infecti'
p5047
I5046
sS'okay'
p5048
I5047
sS'reflect'
p5049
I5048
sS'short'
p5050
I5049
sS'caus'
p5051
I5050
sS'\xe2\x80\x9cwhi'
p5052
I1906
sS'\xe2\x80\x9cwho'
p5053
I5052
sS'shade'
p5054
I5053
sS'see\xe2\x80\x9d'
p5055
I5054
sS'see\xe2\x80\x99'
p5056
I5055
sS'mission'
p5057
I5056
sS'manilla'
p5058
I5057
sS'shit\xe2\x80\x9d'
p5059
I5058
sS'style'
p5060
I5059
sS'pray'
p5061
I5060
sS'inward'
p5062
I5061
sS'harmless'
p5063
I5062
sS'nice\xe2\x80\x99'
p5064
I5063
sS'stephen'
p5065
I5064
sS'bout'
p5066
I5065
sS'sloppi'
p5067
I5066
sS'might'
p5068
I5067
sS'return'
p5069
I5068
sS'\xe2\x80\x9cyeah\xe2\x80\x9d'
p5070
I5069
sS'somebodi'
p5071
I5070
sS'bigger'
p5072
I5071
sS'peter\xe2\x80\x9d'
p5073
I5072
sS'ceas'
p5074
I5073
sS'twenty\xe2\x80\x94\xe2\x80\x9d'
p5075
I5074
sS'weight'
p5076
I5075
sS'expect'
p5077
I5076
sS'alcohol'
p5078
I5077
sS'loll'
p5079
I5078
sS'hill'
p5080
I5079
sS'profitris'
p5081
I5080
sS'deadend'
p5082
I2096
sS'advanc'
p5083
I5082
sS'halfdead'
p5084
I5083
sS'friday'
p5085
I5084
sS'differ'
p5086
I5085
sS'\xe2\x80\x9cank\xe2\x80\x94\xe2\x80\x9d'
p5087
I5086
sS'ask\xe2\x80\x9d'
p5088
I5087
sS'quick'
p5089
I5088
sS'disinfect'
p5090
I5089
sS'lever'
p5091
I4619
sS'\xe2\x80\x9cshit\xe2\x80\x9d'
p5092
I5091
sS'teach'
p5093
I5092
sS'wouldn\xe2\x80\x99t'
p5094
I4300
sS'sidewalk'
p5095
I5093
sS'guest'
p5096
I5094
sS'thrown'
p5097
I5095
sS'autographs\xe2\x80\x9d'
p5098
I5096
sS'thread'
p5099
I5097
sS'catalepsi'
p5100
I5098
sS'poems\xe2\x80\x94when'
p5101
I5099
sS'perhap'
p5102
I5100
sS'\xe2\x80\x9cjesus\xe2\x80\x9d'
p5103
I2632
sS'fallen'
p5104
I5102
sS'feed'
p5105
I5103
sS'movie\xe2\x80\x9d'
p5106
I5104
sS'feel'
p5107
I5105
sS'feet'
p5108
I5106
sS'fanci'
p5109
I5107
sS'moan'
p5110
I5108
sS'script'
p5111
I5109
sS'collar'
p5112
I5600
sS'stori'
p5113
I5111
sS'store'
p5114
I5112
sS'luckili'
p5115
I5113
sS'imperfect'
p5116
I5114
sS'statement'
p5117
I5115
sS'pump'
p5118
I5116
sS'hotel'
p5119
I5117
sS'must\xe2\x80\x9d'
p5120
I5118
sS'break\xe2\x80\x99'
p5121
I5119
sS'$2'
p5122
I5120
sS'$3'
p5123
I5121
sS'$1'
p5124
I5122
sS'albeit'
p5125
I2234
sS'kind'
p5126
I5124
sS'whenev'
p5127
I5125
sS'knive'
p5128
I5126
sS'stale'
p5129
I5127
sS'danc'
p5130
I5128
sS'budweis'
p5131
I5129
sS'\xe2\x80\x9cyou\xe2\x80\x94stil'
p5132
I2635
sS'allowance\xe2\x80\x9d'
p5133
I5131
sS'garfield'
p5134
I5132
sS'worry\xe2\x80\x9d'
p5135
I5133
sS'wilson'
p5136
I5134
sS'backfir'
p5137
I5135
sS'evert\xe2\x80\x99'
p5138
I5136
sS'maladjust'
p5139
I5137
sS'you\xe2\x80\x9d'
p5140
I3658
sS'cock\xe2\x80\x9d'
p5141
I5139
sS'neglige'
p5142
I3659
sS'reach'
p5143
I5141
sS'react'
p5144
I5142
sS'75'
p5145
I5143
sS'73'
p5146
I5144
sS'70'
p5147
I5145
sS'appear'
p5148
I5146
sS'won\xe2\x80\x99t'
p5149
I5147
sS'bunghol'
p5150
I5148
sS'\xe2\x80\x9csomebodi'
p5151
I5149
sS'hymi'
p5152
I4631
sS'destruct'
p5153
I5151
sS'disrob'
p5154
I3664
sS'saloon'
p5155
I5153
sS'notch'
p5156
I5154
sS'ridicul'
p5157
I5155
sS'asphalt'
p5158
I5156
sS'fond'
p5159
I5157
sS'semigroceri'
p5160
I5158
sS'nightgown'
p5161
I5669
sS'phone\xe2\x80\x9d'
p5162
I5159
sS'with\xe2\x80\x9d'
p5163
I5160
sS'rocket'
p5164
I5608
sS'tilla'
p5165
I5162
sS'hip'
p5166
I5163
sS'his'
p5167
I5164
sS'hit'
p5168
I5165
sS'aficionado'
p5169
I5166
sS'hid'
p5170
I5167
sS'longest'
p5171
I5168
sS'tarantula'
p5172
I5169
sS'destitut'
p5173
I5170
sS'second\xe2\x80\x9d'
p5174
I5171
sS'him'
p5175
I5172
sS'appeal'
p5176
I5173
sS'vodka7'
p5177
I5174
sS'funny\xe2\x80\x9d'
p5178
I5175
sS'eugen'
p5179
I5176
sS'wrote'
p5180
I5177
sS'art'
p5181
I5178
sS'dump'
p5182
I5179
sS'barb'
p5183
I5180
sS'dumb'
p5184
I2520
sS'are'
p5185
I5182
sS'disadvantag'
p5186
I5183
sS'bark'
p5187
I5184
sS'arm'
p5188
I5185
sS'klux'
p5189
I5186
sS'various'
p5190
I5187
sS'know\xe2\x80\x9d'
p5191
I5188
sS'sold'
p5192
I5189
sS'solzhenitsyn'
p5193
I2584
sS'succeed'
p5194
I5191
sS'solv'
p5195
I5192
sS'longleg'
p5196
I5193
sS'hairi'
p5197
I5195
sS'c'
p5198
I5196
sS'immers'
p5199
I5197
sS'bandit'
p5200
I5198
sS'\xe2\x80\x9cmarvel'
p5201
I5199
sS'motorcycl'
p5202
I5200
sS'sweet'
p5203
I5201
sS'sweep'
p5204
I5202
sS'alongimperfect'
p5205
I5203
sS'mistak'
p5206
I5204
sS'dishtowel'
p5207
I5205
sS'due'
p5208
I5206
sS'dug'
p5209
I5207
sS'thing\xe2\x80\x9d'
p5210
I5208
sS'chandler'
p5211
I5209
sS'woke'
p5212
I5210
sS'pm'
p5213
I5211
sS'flight'
p5214
I5212
sS'dropout'
p5215
I5213
sS'demand'
p5216
I5214
sS'stolen'
p5217
I5215
sS'garage\xe2\x80\x9d'
p5218
I5216
sS'batch'
p5219
I5217
sS'abov'
p5220
I5218
sS'\xe2\x80\x9chold'
p5221
I5219
sS'rip'
p5222
I5220
sS'nightstand'
p5223
I5221
sS'$750'
p5224
I5222
sS'rid'
p5225
I5223
sS'remember\xe2\x80\x9d'
p5226
I5224
sS'chauffeur'
p5227
I5225
sS'shirt'
p5228
I5226
sS'itchi'
p5229
I5227
sS'lengthi'
p5230
I5228
sS'\xe2\x80\x9cme\xe2\x80\x9d'
p5231
I5229
sS'9'
p5232
I5230
sS'higher'
p5233
I5231
sS'fad\xe2\x80\x9d'
p5234
I5232
sS'awful\xe2\x80\x9d'
p5235
I5233
sS'$35000'
p5236
I2846
sS'wherev'
p5237
I5235
sS'american\xe2\x80\x9d'
p5238
I5236
sS'lower'
p5239
I5237
sS'discourag'
p5240
I5238
sS'cheek'
p5241
I5239
sS'mean\xe2\x80\x9d'
p5242
I5240
sS'cheer'
p5243
I5241
sS'chees'
p5244
I5242
sS'\xe2\x80\x9crobert\xe2\x80\x9d'
p5245
I5243
sS'lowel'
p5246
I5244
sS'anybodi'
p5247
I5245
sS'hotdog'
p5248
I5246
sS'\xe2\x80\x9cno'
p5249
I5247
sS'collabor'
p5250
I5248
sS'\xe2\x80\x9chere'
p5251
I5249
sS'sam'
p5252
I5250
sS'northern'
p5253
I2417
sS'hook\xe2\x80\x9d'
p5254
I5251
sS'stimul'
p5255
I5252
sS'shirley\xe2\x80\x99'
p5256
I5253
sS'shirley\xe2\x80\x9d'
p5257
I5254
sS'fire\xe2\x80\x94\xe2\x80\x9d'
p5258
I5255
sS'virgins\xe2\x80\x9d'
p5259
I5256
sS'complaint'
p5260
I5257
sS'\xe2\x80\x9cgoodbye\xe2\x80\x9d'
p5261
I5258
sS'kfac'
p5262
I5259
sS'house\xe2\x80\x9d'
p5263
I5260
sS'overcompens'
p5264
I5261
sS'confront'
p5265
I5262
sS'eastsid'
p5266
I5263
sS'collect'
p5267
I5264
sS'$5000'
p5268
I5265
sS'me\xe2\x80\x9d'
p5269
I5266
sS'forks\xe2\x80\x9d'
p5270
I5267
sS'bus\xe2\x80\x9d'
p5271
I5268
sS'grassblad'
p5272
I5269
sS'couldn\xe2\x80\x99t'
p5273
I5270
sS'understood'
p5274
I5271
sS'litter'
p5275
I5272
sS'box\xe2\x80\x94that'
p5276
I5627
sS'surpris'
p5277
I5274
sS'prop'
p5278
I5275
sS'prof'
p5279
I5276
sS'out\xe2\x80\x94what'
p5280
I5277
sS'nuevo'
p5281
I5278
sS'squeez'
p5282
I5279
sS'elixir'
p5283
I5280
sS'\xe2\x80\x9ccosmo'
p5284
I5281
sS'wineglass'
p5285
I5282
sS'thumbtacks\xe2\x80\x9d'
p5286
I5283
sS'lifeless'
p5287
I5284
sS'wanna'
p5288
I5285
sS'charl'
p5289
I3680
sS'miracl'
p5290
I5287
sS'exceed'
p5291
I5630
sS'rationalizations\xe2\x80\x9d'
p5292
I5289
sS'15yearold'
p5293
I5290
sS'mommi'
p5294
I5291
sS'announc'
p5295
I5292
sS'jones\xe2\x80\x99'
p5296
I5293
sS'\xe2\x80\x9ci'
p5297
I5294
sS'question'
p5298
I5295
sS'long'
p5299
I5296
sS'\xe2\x80\x9ca'
p5300
I5297
sS'things\xe2\x80\x9d'
p5301
I5298
sS'cloth'
p5302
I5299
sS'guess\xe2\x80\x9d'
p5303
I5300
sS'aisab'
p5304
I5301
sS'doin\xe2\x80\x99'
p5305
I5302
sS'upright'
p5306
I5303
sS'seborrhea'
p5307
I2659
sS'consist'
p5308
I5304
sS'mystifi'
p5309
I5305
sS'twowin'
p5310
I5306
sS'contin'
p5311
I2660
sS'\xe2\x80\x9c5'
p5312
I5308
sS'gerda'
p5313
I5309
sS'freak'
p5314
I5310
sS'tiniest'
p5315
I5311
sS'up55'
p5316
I2661
sS'spontan'
p5317
I5313
sS'\xe2\x80\x9cexactas\xe2\x80\x9d'
p5318
I5314
sS'lemon'
p5319
I5315
sS'riot'
p5320
I5316
sS'\xe2\x80\x9call'
p5321
I5317
sS'parlor'
p5322
I5318
sS'\xe2\x80\x9cgoodby'
p5323
I5319
sS'mock'
p5324
I5320
sS'nice'
p5325
I5321
sS'dale'
p5326
I5322
sS'10075'
p5327
I5323
sS'pastor\xe2\x80\x9d'
p5328
I5324
sS'chirp'
p5329
I5325
sS'insect'
p5330
I5326
sS'fast\xe2\x80\x9d'
p5331
I5327
sS'bandaid'
p5332
I5329
sS'scroll'
p5333
I5330
sS'edg'
p5334
I5331
sS'steve'
p5335
I5332
sS'gang'
p5336
I5333
sS'lucky\xe2\x80\x9d'
p5337
I5334
sS'mexicali'
p5338
I5335
sS'neatlymow'
p5339
I5336
sS'sure\xe2\x80\x9d'
p5340
I5337
sS'\xe2\x80\x9cborowski'
p5341
I5338
sS'materialist'
p5342
I5339
sS'win\xe2\x80\x9d'
p5343
I5340
sS'barstool'
p5344
I5341
sS'judi'
p5345
I5342
sS'dandi'
p5346
I5343
sS'electron'
p5347
I3591
sS'relev'
p5348
I5345
sS'godaw'
p5349
I5346
sS'car'
p5350
I1786
sS'pleas'
p5351
I5348
sS'someday'
p5352
I5349
sS'cap'
p5353
I5350
sS'battl'
p5354
I4665
sS'men\xe2\x80\x9d'
p5355
I5352
sS'helicopt'
p5356
I5353
sS'excreta\xe2\x80\x9d'
p5357
I5354
sS'plead'
p5358
I5355
sS'ummm'
p5359
I5356
sS'folk'
p5360
I5357
sS'compar'
p5361
I5358
sS'fine'
p5362
I3692
sS'$1000'
p5363
I5360
sS'vibrat'
p5364
I5361
sS'\xe2\x80\x9cbarbette\xe2\x80\x9d'
p5365
I5362
sS'giant'
p5366
I3694
sS'larger'
p5367
I5364
sS'armpit'
p5368
I5365
sS'language\xe2\x80\x9d'
p5369
I5366
sS'hardi'
p5370
I5367
sS'\xe2\x80\x9ceveri'
p5371
I5368
sS'apt'
p5372
I3796
sS'she\xe2\x80\x99ll'
p5373
I5370
sS'soundman'
p5374
I5371
sS'motor'
p5375
I5372
sS'duck'
p5376
I5373
sS'\xe2\x80\x9cgrowth'
p5377
I5374
sS'fee'
p5378
I5375
sS'from'
p5379
I3827
sS'&'
p5380
I5377
sS'few'
p5381
I5378
sS'sort'
p5382
I5379
sS'clever'
p5383
I5380
sS'porch'
p5384
I5381
sS'musician'
p5385
I5382
sS'impress'
p5386
I5383
sS'rabbit'
p5387
I5384
sS'recount'
p5388
I5385
sS'women'
p5389
I5386
sS'happened\xe2\x80\x94on'
p5390
I5387
sS'inanely\xe2\x80\x94th'
p5391
I5388
sS'proof'
p5392
I5389
sS'patrol'
p5393
I5390
sS'patron'
p5394
I5391
sS'\xe2\x80\x9csure\xe2\x80\x9d'
p5395
I5392
sS'tax'
p5396
I5393
sS'tag'
p5397
I5394
sS'tan'
p5398
I5395
sS'rape'
p5399
I5396
sS'sir'
p5400
I5397
sS'dwp'
p5401
I5398
sS'sip'
p5402
I5399
sS'sit'
p5403
I5400
sS'six'
p5404
I5401
sS'change\xe2\x80\x9d'
p5405
I5402
sS'inmat'
p5406
I5403
sS'pee\xe2\x80\x9d'
p5407
I5404
sS'instead'
p5408
I5405
sS'panic'
p5409
I5406
sS'sin'
p5410
I5407
sS'attend'
p5411
I5408
sS'hazard'
p5412
I5409
sS'\xe2\x80\x99im\xe2\x80\x9d'
p5413
I5410
sS'wrist'
p5414
I5411
sS'attent'
p5415
I5412
sS'beer\xe2\x80\x9d'
p5416
I5413
sS'\xe2\x80\x9chorses\xe2\x80\x9d'
p5417
I3702
sS'light'
p5418
I5415
sS'\xe2\x80\x9cdon\xe2\x80\x99t'
p5419
I5416
sS'breast'
p5420
I5417
sS'rain\xe2\x80\x94long'
p5421
I5418
sS'what\xe2\x80\x9d'
p5422
I5419
sS'what\xe2\x80\x99'
p5423
I5420
sS'write\xe2\x80\x99\xe2\x80\x9d'
p5424
I5421
sS'130'
p5425
I5422
sS'superior'
p5426
I5423
sS'do\xe2\x80\x9d'
p5427
I5424
sS'bye'
p5428
I5425
sS'jukebox'
p5429
I5426
sS'flex'
p5430
I5427
sS'crash'
p5431
I5428
sS'flew'
p5432
I5429
sS'ferguson'
p5433
I5430
sS'republican'
p5434
I5432
sS'billi'
p5435
I5433
sS'\xe2\x80\x9cthank'
p5436
I5434
sS'thanks\xe2\x80\x9d'
p5437
I5435
sS'edit'
p5438
I5436
sS'cracker\xe2\x80\x9d'
p5439
I5437
sS'time\xe2\x80\x94sur'
p5440
I4160
sS'thing\xe2\x80\x94\xe2\x80\x9cnarrrrr'
p5441
I5439
sS'60\xe2\x80\x99s'
p5442
I5440
sS'trap'
p5443
I5442
sS'champ'
p5444
I5653
sS'$100'
p5445
I5444
sS'89'
p5446
I5445
sS'83'
p5447
I5446
sS'out'
p5448
I4217
sS'papers\xe2\x80\x9d'
p5449
I5448
sS'class\xe2\x80\x9d'
p5450
I5449
sS'sir\xe2\x80\x9d'
p5451
I5450
sS'roulette\xe2\x80\x9d'
p5452
I5451
sS'york'
p5453
I5452
sS'usual'
p5454
I5453
sS'anyhow'
p5455
I5454
sS'tenant'
p5456
I5455
sS'nowher'
p5457
I919
sS'apartment\xe2\x80\x99'
p5458
I5457
sS'apartment\xe2\x80\x9d'
p5459
I5458
sS'commod'
p5460
I3708
sS'o\xe2\x80\x99neil'
p5461
I5460
sS'echo'
p5462
I5461
sS'droop'
p5463
I4352
sS'unknown'
p5464
I5463
sS'driving\xe2\x80\x94most'
p5465
I5464
sS'their'
p5466
I5465
sS'\xe2\x80\x9chey'
p5467
I5466
sS'kid\xe2\x80\x99'
p5468
I5467
sS'good\xe2\x80\x94\xe2\x80\x9d'
p5469
I5468
sS'kid\xe2\x80\x9d'
p5470
I5469
sS'boil'
p5471
I5470
sS'lance\xe2\x80\x9d'
p5472
I5471
sS'shell'
p5473
I5472
sS'champ\xe2\x80\x9d'
p5474
I5473
sS'juli'
p5475
I5474
sS'\xe2\x80\x9cbusi'
p5476
I5475
sS'lemon\xe2\x80\x99'
p5477
I5476
sS'diminish'
p5478
I5477
sS'lemon\xe2\x80\x9d'
p5479
I5478
sS'\xe2\x80\x9cwhatev'
p5480
I5479
sS'unorigin'
p5481
I4688
sS'wine\xe2\x80\x9d'
p5482
I5480
sS'tommi'
p5483
I4453
sS'doll\xe2\x80\x9d'
p5484
I5482
sS'simple\xe2\x80\x9d'
p5485
I5483
sS'\xe2\x80\x9cgood\xe2\x80\x9d'
p5486
I5484
sS'afraid'
p5487
I5486
sS'rout'
p5488
I5487
sS'lope'
p5489
I5488
sS'which'
p5490
I5489
sS'pants\xe2\x80\x9d'
p5491
I5490
sS'martha'
p5492
I4510
sS'25000'
p5493
I5492
sS'poorlydress'
p5494
I5493
sS'who'
p5495
I4530
sS'whi'
p5496
I5495
sS'multitud'
p5497
I5496
sS'highschool'
p5498
I5497
sS'babble\xe2\x80\x9d'
p5499
I5498
sS'class'
p5500
I5499
sS'looker'
p5501
I5500
sS'porterhous'
p5502
I5665
sS'weeni'
p5503
I5502
sS'pipe'
p5504
I5503
sS'deni'
p5505
I5504
sS'dog\xe2\x80\x9d'
p5506
I5505
sS'\xe2\x80\x9chenri'
p5507
I5506
sS'utter'
p5508
I5507
sS'chicken'
p5509
I4629
sS'\xe2\x80\x9cank'
p5510
I5509
sS'\xe2\x80\x9cani'
p5511
I5510
sS'ear'
p5512
I5511
sS'locat'
p5513
I5512
sS'highheel'
p5514
I5513
sS'\xe2\x80\x9cand'
p5515
I5514
sS'piano'
p5516
I5515
sS'local'
p5517
I5516
sS'spun'
p5518
I5517
sS'jean\xe2\x80\x9d'
p5519
I5518
sS'cube'
p5520
I5519
sS'jean\xe2\x80\x99'
p5521
I5520
sS'cuba'
p5522
I5521
sS'dope'
p5523
I5522
sS'\xe2\x80\x9cdidn\xe2\x80\x99t'
p5524
I5523
sS'bookstoresign'
p5525
I5524
sS'bronco'
p5526
I5525
sS'ghetto'
p5527
I5526
sS'wiring\xe2\x80\x9d'
p5528
I5527
sS'\xe2\x80\x98how'
p5529
I4717
sS'unnerv'
p5530
I5529
sS'view'
p5531
I4728
sS'knowledg'
p5532
I5531
sS'troubl'
p5533
I316
sS'\xe2\x80\x9ceighteen\xe2\x80\x94\xe2\x80\x9d'
p5534
I5533
sS'delongpr'
p5535
I5534
sS'closer'
p5536
I5535
sS'entranc'
p5537
I5536
sS'panti'
p5538
I5537
sS'closet'
p5539
I5538
sS'monstrous'
p5540
I5539
sS'favor'
p5541
I4779
sS'barbershop'
p5542
I5541
sS'landri'
p5543
I5542
sS'bought'
p5544
I5543
sS'listen\xe2\x80\x9d'
p5545
I5544
sS'joy'
p5546
I5545
sS'weren\xe2\x80\x99t'
p5547
I5546
sS'job'
p5548
I5547
sS'entir'
p5549
I5548
sS'joe'
p5550
I5549
sS'spoil'
p5551
I5550
sS'swift'
p5552
I5551
sS'jon'
p5553
I5552
sS'\xe2\x80\x98give'
p5554
I5553
sS'fulllength'
p5555
I5674
sS'pours\xe2\x80\x9d'
p5556
I5555
sS'articul'
p5557
I5556
sS'homicide\xe2\x80\x9d'
p5558
I5557
sS'anything\xe2\x80\x9d'
p5559
I5558
sS'dement'
p5560
I5559
sS'overnight'
p5561
I5560
sS'wall'
p5562
I5561
sS'rider\xe2\x80\x99'
p5563
I5562
sS'arriv'
p5564
I5563
sS'walk'
p5565
I5564
sS'respect'
p5566
I2104
sS'decent'
p5567
I5566
sS'plaincloth'
p5568
I5567
sS'compos'
p5569
I5568
sS'asthma\xe2\x80\x9d'
p5570
I5569
sS'reindeer'
p5571
I5570
sS'besid'
p5572
I5571
sS'motherfuck'
p5573
I5572
sS'mike'
p5574
I5573
sS'fireplace\xe2\x80\x9d'
p5575
I5574
sS'\xe2\x80\x9cjust'
p5576
I5575
sS'present'
p5577
I4968
sS'wilt'
p5578
I5577
sS'vicki'
p5579
I5578
sS'will'
p5580
I5579
sS'races\xe2\x80\x9d'
p5581
I5580
sS'wild'
p5582
I5581
sS'\xe2\x80\x9ceveryth'
p5583
I5582
sS'sandwiches\xe2\x80\x9d'
p5584
I5583
sS'motiv'
p5585
I5584
sS'thug'
p5586
I5585
sS'ave'
p5587
I5586
sS'whore'
p5588
I5587
sS'headlight'
p5589
I5588
sS'cross'
p5590
I5589
sS'books\xe2\x80\x9d'
p5591
I5590
sS'society\xe2\x80\x9d'
p5592
I5591
sS'inch'
p5593
I5592
sS'medicino\xe2\x80\x9d'
p5594
I5593
sS'difficult'
p5595
I5594
sS'slave'
p5596
I5595
sS'beast'
p5597
I3019
sS'student'
p5598
I5597
sS'suzi'
p5599
I5598
sS'pedal'
p5600
I5599
sS'\xe2\x80\x9cyou\xe2\x80\x99ll'
p5601
I5110
sS'crickets\xe2\x80\x9d'
p5602
I5601
sS'fartsack'
p5603
I5602
sS'whole'
p5604
I5603
sS'scissor'
p5605
I5604
sS'heggs\xe2\x80\x9d'
p5606
I5605
sS'english'
p5607
I5606
sS'sporad'
p5608
I5607
sS'\xe2\x80\x9cround'
p5609
I5161
sS'gypsi'
p5610
I5609
sS'percent'
p5611
I5680
sS'heavili'
p5612
I5611
sS'backroom'
p5613
I5612
sS'now'
p5614
I5532
sS'panther'
p5615
I5614
sS'happened\xe2\x80\x9d'
p5616
I5615
sS'drunk'
p5617
I5616
sS'sky'
p5618
I5617
sS'hall'
p5619
I5618
sS'other'
p5620
I5681
sS'\xe2\x80\x9cchrist'
p5621
I5620
sS'knob'
p5622
I5621
sS'branch'
p5623
I5682
sS'know'
p5624
I5623
sS'knot'
p5625
I5624
sS'press'
p5626
I5625
sS'doughnut'
p5627
I5626
sS'loser'
p5628
I5273
sS'harbor\xe2\x80\x9d'
p5629
I5628
sS'hangov'
p5630
I5629
sS'immature\xe2\x80\x9d'
p5631
I5288
sS'holler'
p5632
I5631
sS'lead'
p5633
I5632
sS'leak'
p5634
I5633
sS'lean'
p5635
I5634
sS'leap'
p5636
I5635
sS'leav'
p5637
I5636
sS'settl'
p5638
I5637
sS'leader'
p5639
I5638
sS'\xe2\x80\x9cshithead'
p5640
I5639
sS'slug'
p5641
I5640
sS'body\xe2\x80\x9d'
p5642
I5641
sS'rare'
p5643
I5642
sS'linger'
p5644
I5643
sS'column'
p5645
I5644
sS'biscuit'
p5646
I5645
sS'sweat'
p5647
I5646
sS'own'
p5648
I5647
sS'owe'
p5649
I5648
sS'badly\xe2\x80\x9d'
p5650
I5649
sS'automat'
p5651
I5485
sS'loner'
p5652
I5651
sS'weather'
p5653
I5441
sS'\xe2\x80\x9cbi'
p5654
I5443
sS'brush'
p5655
I5654
sS'\xe2\x80\x9cno\xe2\x80\x9d'
p5656
I5655
sS'\xe2\x80\x9cbe'
p5657
I5656
sS'\xe2\x80\x9cbye'
p5658
I5657
sS'transfer'
p5659
I5658
sS'\xe2\x80\x9cnobodi'
p5660
I5659
sS'spiral'
p5661
I5660
sS'unreason'
p5662
I5661
sS'appl'
p5663
I5662
sS'mailer'
p5664
I5663
sS'\xe2\x80\x9cplay'
p5665
I5664
sS'brassier'
p5666
I5501
sS'made'
p5667
I5666
sS'\xe2\x80\x9cwalk'
p5668
I5667
sS'whether'
p5669
I5668
sS'distract'
p5670
I4353
sS'record'
p5671
I5670
sS'below'
p5672
I5671
sS'belov'
p5673
I5672
sS'cake'
p5674
I5673
sS'\xe2\x80\x9calmost'
p5675
I5554
sS'meaningless'
p5676
I5675
sS'tops\xe2\x80\x9d'
p5677
I5676
sS'boardwalk'
p5678
I5677
sS'squirrel'
p5679
I5678
sS'booz'
p5680
I5679
sS'boot'
p5681
I5610
sS'book'
p5682
I5619
sS'sick'
p5683
I5622
sS'unlist'
p5684
I5683
sS'coffeet'
p5685
I5684
sS'westec'
p5686
I5685
sS'junk'
p5687
I5686
sS'june'
p5688
I5687
sS'kinda'
p5689
I5688
sS'squeak'
p5690
I5689
sS'involut'
p5691
I5690
sS'humbl'
p5692
I5691
sS'cliff'
p5693
I5692
sS'\xe2\x80\x9cjackie\xe2\x80\x9d'
p5694
I5693
sS'invari'
p5695
I5694
sS'borowsky\xe2\x80\x9d'
p5696
I5695
sS'\xe2\x80\x9cover'
p5697
I5696
s.