(dp0
S'kid\x94'
p1
I1
sS'besid'
p2
I4470
sS'\x93wet'
p3
I3564
sS'employee\x92'
p4
I4
sS'leave\x94'
p5
I6
sS'yellow'
p6
I7
sS'rest\x94'
p7
I8
sS'four'
p8
I9
sS'bell\x94'
p9
I10
sS'sleev'
p10
I11
sS'sleep'
p11
I12
sS'understandable\x94'
p12
I69
sS'mansion'
p13
I14
sS'\x93hors'
p14
I15
sS'change\x94'
p15
I16
sS'hate'
p16
I17
sS'chili'
p17
I827
sS'villag'
p18
I3952
sS'payoff'
p19
I19
sS'whose'
p20
I21
sS'accus'
p21
I22
sS'pedro'
p22
I23
sS'\x85i'
p23
I24
sS'spew'
p24
I25
sS'sorri'
p25
I26
sS'crush'
p26
I3392
sS'tommy\x94'
p27
I28
sS'me\x94'
p28
I29
sS'bike'
p29
I30
sS'buddi'
p30
I31
sS'gonzalves\x97tal'
p31
I32
sS'under'
p32
I33
sS'lord'
p33
I34
sS'pride'
p34
I35
sS'sway'
p35
I36
sS'worth'
p36
I37
sS'her\x94'
p37
I38
sS'prison\x94'
p38
I39
sS'day\x94'
p39
I1924
sS'lack'
p40
I2492
sS'everi'
p41
I42
sS'\x93around'
p42
I43
sS'you\x92d'
p43
I44
sS'rise'
p44
I45
sS'voic'
p45
I46
sS'toilet\x94'
p46
I4711
sS'\x93seven'
p47
I1685
sS'\x91good'
p48
I3295
sS'light\x94'
p49
I49
sS'you\x92v'
p50
I51
sS'appar'
p51
I334
sS'spideri'
p52
I53
sS'you\x92r'
p53
I54
sS'browngold'
p54
I56
sS'school'
p55
I57
sS'mopper'
p56
I58
sS'through\x94'
p57
I59
sS'wooden'
p58
I60
sS'wednesday'
p59
I61
sS'phone\x94'
p60
I62
sS'factori'
p61
I1688
sS'phonebook'
p62
I64
sS'\x93how\x92d'
p63
I2498
sS'crotch'
p64
I65
sS'48'
p65
I4848
sS'life\x97from'
p66
I66
sS'machine\x94'
p67
I67
sS'day\x92'
p68
I1928
sS'enjoy'
p69
I70
sS'chew'
p70
I71
sS'\x93she'
p71
I72
sS'speck'
p72
I1335
sS'unvarnish'
p73
I74
sS'miller'
p74
I75
sS'ok\x94'
p75
I2866
sS'pubic'
p76
I77
sS'direct'
p77
I78
sS'horn'
p78
I79
sS'nail'
p79
I80
sS'consequ'
p80
I81
sS'second'
p81
I82
sS'street'
p82
I83
sS'sooth'
p83
I84
sS'\x93\x91the'
p84
I1693
sS'up\x94'
p85
I86
sS'n'
p86
I87
sS'\x93bonaparte\x92'
p87
I3511
sS'even'
p88
I89
sS'supervis'
p89
I90
sS'hide'
p90
I91
sS'christ'
p91
I92
sS'inglewood'
p92
I94
sS'amus'
p93
I95
sS'asid'
p94
I96
sS'lightn'
p95
I97
sS'poison'
p96
I98
sS'sung'
p97
I2506
sS'better\x94'
p98
I100
sS'nicelook'
p99
I101
sS'$8000'
p100
I1696
sS'new'
p101
I103
sS'net'
p102
I104
sS'upward'
p103
I4835
sS'ever'
p104
I106
sS'see\x85som'
p105
I107
sS'told'
p106
I108
sS'crouch'
p107
I110
sS'envelop'
p108
I1697
sS'men'
p109
I112
sS'here'
p110
I113
sS'\x91raid\x92'
p111
I114
sS'met'
p112
I115
sS'tailight'
p113
I116
sS'109'
p114
I117
sS'china'
p115
I118
sS'102'
p116
I120
sS'path'
p117
I121
sS'100'
p118
I122
sS'cardboard'
p119
I123
sS'106'
p120
I124
sS'107'
p121
I125
sS'104'
p122
I126
sS'105'
p123
I127
sS'fourteen'
p124
I4092
sS'today\x94'
p125
I130
sS'daughter'
p126
I131
sS'\x93why\x94'
p127
I132
sS'hat\x94'
p128
I133
sS'bigtim'
p129
I134
sS'loos'
p130
I3309
sS'precis'
p131
I136
sS'credit'
p132
I137
sS'disqualified\x94'
p133
I4805
sS'pajama'
p134
I3817
sS'straw\x94'
p135
I139
sS'smoke'
p136
I140
sS'bunker'
p137
I142
sS'studi'
p138
I143
sS'menial'
p139
I144
sS'glu'
p140
I145
sS'you\x92ll'
p141
I147
sS'counti'
p142
I148
sS'golden'
p143
I149
sS'hunch'
p144
I151
sS'straw'
p145
I152
sS'newspap'
p146
I153
sS'stink'
p147
I154
sS'win\x94'
p148
I155
sS'meati'
p149
I156
sS'avenu'
p150
I157
sS'thrust'
p151
I4097
sS'attitud'
p152
I159
sS'dizzi'
p153
I160
sS'cigarette\x94'
p154
I161
sS'stern'
p155
I1013
sS'around\x94'
p156
I163
sS'total'
p157
I164
sS'angrili'
p158
I165
sS'unit'
p159
I166
sS'symphoni'
p160
I167
sS'spoke'
p161
I168
sS'would'
p162
I169
sS'choosey'
p163
I1064
sS'sweater'
p164
I1075
sS'leaki'
p165
I173
sS'tail'
p166
I2513
sS'calv'
p167
I175
sS'afterward'
p168
I4102
sS'\x93look'
p169
I177
sS'call'
p170
I178
sS'great\x85lik'
p171
I179
sS'armi'
p172
I180
sS'strike'
p173
I181
sS'type'
p174
I182
sS'until'
p175
I183
sS'\x93when'
p176
I185
sS'frenzi'
p177
I186
sS'\x93listen\x94'
p178
I187
sS'relax'
p179
I188
sS'culver'
p180
I189
sS'wart'
p181
I190
sS'cold\x94'
p182
I191
sS'notic'
p183
I192
sS'hurt'
p184
I193
sS'warn'
p185
I194
sS'phone'
p186
I195
sS'warm'
p187
I196
sS'writer\x94'
p188
I197
sS'harry\x94'
p189
I4206
sS'fault\x94'
p190
I833
sS'\x93don\x92t\x85\x94'
p191
I199
sS'91'
p192
I200
sS'90'
p193
I201
sS'hole'
p194
I202
sS'hold'
p195
I203
sS'pouch'
p196
I1263
sS'94'
p197
I205
sS'97'
p198
I206
sS'must'
p199
I207
sS'shoot'
p200
I1126
sS'accid'
p201
I209
sS'exavi'
p202
I210
sS'squeegies\x94'
p203
I211
sS'fellows\x94'
p204
I212
sS'room'
p205
I213
sS'legandthigh'
p206
I214
sS'henri'
p207
I215
sS'halfran'
p208
I2867
sS'bugs\x94'
p209
I216
sS'work'
p210
I217
sS'worn'
p211
I1329
sS'locker'
p212
I220
sS'wors'
p213
I221
sS'mr'
p214
I223
sS'elbow'
p215
I224
sS'somebody\x94'
p216
I225
sS'hansen'
p217
I226
sS'my'
p218
I227
sS'neckti'
p219
I4108
sS'both\x94'
p220
I229
sS'shook'
p221
I230
sS'right\x94'
p222
I231
sS'vodka'
p223
I233
sS'quiver'
p224
I234
sS'41'
p225
I4857
sS'bell'
p226
I4606
sS'give'
p227
I235
sS'strader'
p228
I236
sS'\x93man'
p229
I1851
sS'climax'
p230
I237
sS'\x93\x85ooh'
p231
I3325
sS'termin'
p232
I4160
sS'exquisit'
p233
I239
sS'honey'
p234
I240
sS'obscen'
p235
I1997
sS'\x93he'
p236
I242
sS'want'
p237
I243
sS'basebal'
p238
I244
sS'fortyf'
p239
I245
sS'\x93hi'
p240
I246
sS'he\x92d'
p241
I1722
sS'attract'
p242
I248
sS'dyke'
p243
I249
sS'looser'
p244
I250
sS'hobo\x94'
p245
I251
sS'hog'
p246
I252
sS'end'
p247
I254
sS'solitud'
p248
I255
sS'thing'
p249
I1724
sS'polic'
p250
I257
sS'bunk'
p251
I258
sS'egyptian'
p252
I2524
sS'wipe'
p253
I3720
sS'works\x85\x94'
p254
I261
sS'aren\x92t'
p255
I262
sS'how'
p256
I263
sS'hot'
p257
I264
sS'drummer'
p258
I1604
sS'manny\x94'
p259
I4513
sS'disappear'
p260
I266
sS'equipment\x94'
p261
I267
sS'scrambl'
p262
I268
sS'answer'
p263
I269
sS'gate'
p264
I270
sS'chase'
p265
I3332
sS'beach'
p266
I272
sS'finger\x94'
p267
I273
sS'collaps'
p268
I274
sS'waiting\x94'
p269
I275
sS'grandad'
p270
I277
sS'mess'
p271
I279
sS'cadillac'
p272
I280
sS'arm\x94'
p273
I281
sS'after'
p274
I282
sS'arm\x92'
p275
I283
sS'decor'
p276
I3334
sS'lump'
p277
I285
sS'books\x94'
p278
I286
sS'befor'
p279
I287
sS'wrong'
p280
I288
sS'mesh'
p281
I289
sS'lay'
p282
I291
sS'beauti'
p283
I292
sS'\x93rememb'
p284
I294
sS'lap'
p285
I295
sS'averag'
p286
I296
sS'attempt'
p287
I297
sS'off\x94'
p288
I298
sS'third'
p289
I299
sS'courtesy\x85becaus'
p290
I300
sS'feeling\x94'
p291
I301
sS'nicknam'
p292
I1730
sS'drinking\x94'
p293
I303
sS'lost'
p294
I4646
sS'greet'
p295
I304
sS'laura\x85\x94'
p296
I305
sS'receiv'
p297
I307
sS'danni'
p298
I308
sS'green'
p299
I309
sS'come\x85\x94'
p300
I1852
sS'enter'
p301
I311
sS'higher\x94'
p302
I312
sS'dry\x94'
p303
I313
sS'procedur'
p304
I3780
sS'order'
p305
I314
sS'wind'
p306
I315
sS'wine'
p307
I316
sS'gauze\x94'
p308
I317
sS'blind'
p309
I1734
sS'yards\x94'
p310
I3337
sS'available\x94'
p311
I320
sS'deck'
p312
I321
sS'\x91master'
p313
I322
sS'over'
p314
I323
sS'fall'
p315
I2536
sS'orang'
p316
I325
sS'becaus'
p317
I326
sS'start\x94'
p318
I327
sS'is\x94'
p319
I328
sS'mumbl'
p320
I329
sS'jacob'
p321
I1958
sS'finished\x94'
p322
I331
sS'honk'
p323
I332
sS'oven'
p324
I333
sS'affect'
p325
I52
sS'bobbi'
p326
I3265
sS'montie\x92'
p327
I335
sS'ticket'
p328
I2538
sS'digest'
p329
I337
sS'lurch'
p330
I3359
sS'gentl'
p331
I338
sS'seats\x94'
p332
I339
sS'jersey'
p333
I4437
sS'fit'
p334
I341
sS'funni'
p335
I3340
sS'it\x85\x94'
p336
I343
sS'contribute\x94'
p337
I344
sS'fix'
p338
I345
sS'gutter'
p339
I4564
sS'comprehend'
p340
I346
sS'better'
p341
I347
sS'offic'
p342
I348
sS'fucking\x85\x94'
p343
I4143
sS'persist'
p344
I350
sS'\x93soak'
p345
I2075
sS'hidden'
p346
I352
sS'carton'
p347
I353
sS'pantleg'
p348
I355
sS'then'
p349
I356
sS'them'
p350
I357
sS'anim'
p351
I358
sS'\x93yes\x94'
p352
I359
sS'men\x97mani'
p353
I360
sS'slaughterhous'
p354
I361
sS'safe'
p355
I362
sS'disturb'
p356
I363
sS'fellow\x92'
p357
I354
sS'slut\x94'
p358
I523
sS'\x93where\x92'
p359
I366
sS'band'
p360
I367
sS'bang'
p361
I368
sS'knife\x94'
p362
I2544
sS'promis'
p363
I370
sS'they'
p364
I371
sS'go\x94'
p365
I373
sS'friend\x85\x94'
p366
I375
sS'\x93want'
p367
I376
sS'silver'
p368
I377
sS'bank'
p369
I378
sS'bread'
p370
I379
sS'gloom'
p371
I380
sS'leaner'
p372
I381
sS'philharmon'
p373
I382
sS'meat'
p374
I383
sS'be\x94'
p375
I4218
sS'born\x94'
p376
I386
sS'alldevour'
p377
I3347
sS'good'
p378
I2817
sS'listless'
p379
I3097
sS'roast'
p380
I390
sS'each'
p381
I391
sS'\x93lost'
p382
I392
sS'went'
p383
I393
sS'amaz'
p384
I3570
sS'fiftytwo'
p385
I394
sS'side'
p386
I395
sS'bone'
p387
I396
sS'mean'
p388
I397
sS'burial'
p389
I398
sS'bright'
p390
I1901
sS'superintendent\x92'
p391
I400
sS'ready\x94'
p392
I401
sS'enorm'
p393
I403
sS'unscrew'
p394
I404
sS'stockings\x94'
p395
I405
sS'lowcut'
p396
I406
sS'other\x97cost'
p397
I1746
sS'clubhous'
p398
I2652
sS'roxi'
p399
I409
sS'glass\x94'
p400
I971
sS'forgot'
p401
I411
sS'logo'
p402
I413
sS'dawn'
p403
I414
sS'saturday'
p404
I415
sS'whip'
p405
I416
sS'\x93buncha'
p406
I3928
sS'depress'
p407
I418
sS'shame'
p408
I4467
sS'\x93everyth'
p409
I419
sS'goe'
p410
I420
sS'god'
p411
I421
sS'down\x94'
p412
I424
sS'laid'
p413
I425
sS'bellybutton'
p414
I2527
sS'rm'
p415
I428
sS'hooker'
p416
I429
sS'slat\x94'
p417
I430
sS'forth'
p418
I431
sS'forti'
p419
I432
sS'faceless'
p420
I4401
sS'arizona'
p421
I434
sS'hang'
p422
I436
sS'midpoint'
p423
I437
sS'free'
p424
I438
sS'greasi'
p425
I439
sS'245'
p426
I440
sS'ancient'
p427
I4141
sS'rain'
p428
I898
sS'color\x97lik'
p429
I4816
sS'\x93mendoza'
p430
I443
sS'week\x92'
p431
I444
sS'knit'
p432
I445
sS'week\x94'
p433
I446
sS'repeat'
p434
I4872
sS'droop'
p435
I745
sS'ate'
p436
I450
sS'district'
p437
I1758
sS'puzzl'
p438
I452
sS'maniac'
p439
I453
sS'angl'
p440
I454
sS'doesn\x92t'
p441
I455
sS'bet\x94'
p442
I1759
sS'filter'
p443
I458
sS'loui'
p444
I459
sS'$312'
p445
I460
sS'bankrol'
p446
I462
sS'loud'
p447
I463
sS'bite'
p448
I1761
sS'mother\x94'
p449
I465
sS'rang'
p450
I466
sS'don\x92t'
p451
I467
sS'halfpolit'
p452
I468
sS'miracle\x97enough'
p453
I469
sS'guys\x85'
p454
I470
sS'wellshap'
p455
I3861
sS'redneck'
p456
I472
sS'soup\x94'
p457
I473
sS'buttock'
p458
I474
sS'hook'
p459
I475
sS'instruct'
p460
I476
sS'alreadi'
p461
I477
sS'drunk\x94'
p462
I478
sS'\x93out'
p463
I479
sS'179'
p464
I480
sS'178'
p465
I481
sS'sober'
p466
I482
sS'176'
p467
I483
sS'175'
p468
I172
sS'174'
p469
I485
sS'boyfriend\x94'
p470
I486
sS'172'
p471
I487
sS'do\x94'
p472
I488
sS'170'
p473
I489
sS'toy'
p474
I490
sS'episod'
p475
I4596
sS'shipment\x94'
p476
I457
sS'airi'
p477
I493
sS'top'
p478
I494
sS'\x93ok\x94'
p479
I495
sS'twentyf'
p480
I496
sS'sometim'
p481
I497
sS'carload'
p482
I351
sS'2'
p483
I1766
sS'california'
p484
I1704
sS'too'
p485
I502
sS'straighten'
p486
I2566
sS'hollywood'
p487
I503
sS'john'
p488
I504
sS'listen'
p489
I505
sS'hangout'
p490
I507
sS'strong\x94'
p491
I508
sS'\x93yeah'
p492
I509
sS'ritter'
p493
I2563
sS'ride\x85'
p494
I511
sS'bartend'
p495
I4158
sS'took'
p496
I514
sS'\x93you\x92v'
p497
I3762
sS'wisdom'
p498
I515
sS'door\x94'
p499
I516
sS'toot'
p500
I517
sS'\x93sir'
p501
I518
sS'western'
p502
I519
sS'somewhat'
p503
I520
sS'helen'
p504
I521
sS'happili'
p505
I3093
sS'dictionari'
p506
I4095
sS'crawl'
p507
I525
sS'real\x94'
p508
I526
sS'preacher'
p509
I1555
sS'see\x94'
p510
I529
sS'durig'
p511
I530
sS'gabor'
p512
I531
sS'yacht\x94'
p513
I63
sS'coward'
p514
I533
sS'tree'
p515
I534
sS'hors'
p516
I535
sS'final'
p517
I4162
sS'pepper'
p518
I4707
sS'matter'
p519
I537
sS'louder'
p520
I538
sS'flame'
p521
I539
sS'boil'
p522
I4163
sS'iron'
p523
I541
sS'entri'
p524
I3373
sS'53'
p525
I4290
sS'minut'
p526
I543
sS'pawnbrok'
p527
I544
sS'rag'
p528
I546
sS'fashion'
p529
I547
sS'sure\x94'
p530
I548
sS'entail'
p531
I549
sS'easy\x94'
p532
I551
sS'ran'
p533
I552
sS'mind'
p534
I554
sS'mine'
p535
I555
sS'glass'
p536
I1218
sS'rat'
p537
I559
sS'manner'
p538
I561
sS'rap'
p539
I562
sS'seen'
p540
I563
sS'seem'
p541
I564
sS'churn'
p542
I565
sS'seamstress'
p543
I566
sS'\x93selfemployed\x94'
p544
I558
sS'dozen'
p545
I568
sS'strength'
p546
I569
sS'luxuri'
p547
I570
sS'hymen'
p548
I571
sS'\x93how'
p549
I572
sS'smooth'
p550
I4809
sS'that'
p551
I1780
sS'snow'
p552
I574
sS'snot'
p553
I575
sS'too\x94'
p554
I576
sS'adams\x92'
p555
I577
sS'pop'
p556
I4698
sS'hatch'
p557
I579
sS'tenant'
p558
I4103
sS'alkaseltz'
p559
I581
sS'shirtsleev'
p560
I583
sS'dance\x94'
p561
I3381
sS'blue'
p562
I585
sS'\x93nothing\x94'
p563
I587
sS'germani'
p564
I588
sS'plenti'
p565
I3472
sS'though'
p566
I590
sS'boxcar'
p567
I592
sS'object'
p568
I593
sS'\x93la\x92'
p569
I4127
sS'what'
p570
I2581
sS'panel'
p571
I4725
sS'regular'
p572
I596
sS'mouth'
p573
I597
sS'letter'
p574
I1111
sS'\x93son'
p575
I3383
sS'dog\x94'
p576
I599
sS'coin'
p577
I600
sS'the'
p578
I601
sS'grave'
p579
I602
sS'glow'
p580
I603
sS'heights\x94'
p581
I604
sS'twentyfiveyearman'
p582
I1785
sS'tast'
p583
I3385
sS'alarm'
p584
I607
sS'clock'
p585
I2584
sS'metal'
p586
I609
sS'dog'
p587
I610
sS'doe'
p588
I611
sS'floor\x94'
p589
I612
sS'scotch'
p590
I614
sS'section'
p591
I2586
sS'came'
p592
I616
sS'yank'
p593
I617
sS'freak'
p594
I4474
sS'hahaha\x94'
p595
I426
sS'\x93sanit'
p596
I619
sS'beaten'
p597
I620
sS'ocean\x94'
p598
I1921
sS'fag\x94'
p599
I622
sS'brief'
p600
I2589
sS'face\x94'
p601
I625
sS'radio'
p602
I626
sS'upholst'
p603
I627
sS'earth'
p604
I628
sS'pissed\x94'
p605
I1963
sS'belger\x94'
p606
I630
sS'gentry\x94'
p607
I631
sS'despit'
p608
I632
sS'nobodi'
p609
I4178
sS'picasso\x94'
p610
I634
sS'spite'
p611
I635
sS'herself'
p612
I4179
sS'cloret'
p613
I2916
sS'bust'
p614
I638
sS'sugar'
p615
I639
sS'busi'
p616
I641
sS'deepest'
p617
I1136
sS'disgust'
p618
I643
sS'telegram'
p619
I3393
sS'\x93no\x94'
p620
I4696
sS'constant'
p621
I3607
sS'rice'
p622
I645
sS'haven\x92t'
p623
I647
sS'new\x94'
p624
I648
sS'merrygoround\x94'
p625
I649
sS'\x93well\x94'
p626
I2936
sS'do'
p627
I650
sS'waltz'
p628
I651
sS'henry\x94'
p629
I652
sS'klein'
p630
I653
sS'wide'
p631
I1795
sS'seclud'
p632
I655
sS'nasti'
p633
I656
sS'de'
p634
I657
sS'watch'
p635
I658
sS'\x93these'
p636
I1796
sS'weari'
p637
I4475
sS'lot\x94'
p638
I1248
sS'pocket'
p639
I661
sS'giggl'
p640
I663
sS'cushion'
p641
I2216
sS'dy'
p642
I665
sS'report'
p643
I666
sS'15'
p644
I1798
sS'slug\x94'
p645
I668
sS'mutual'
p646
I4846
sS'bar'
p647
I670
sS'17'
p648
I1800
sS'didn\x92t\x94'
p649
I673
sS'bastard'
p650
I4220
sS'lucrat'
p651
I2383
sS'secretari'
p652
I676
sS'bag'
p653
I677
sS'bad'
p654
I678
sS'pad\x94'
p655
I679
sS'sparkl'
p656
I4308
sS'18'
p657
I1803
sS'steak'
p658
I682
sS'steal'
p659
I683
sS'steam'
p660
I684
sS'respond'
p661
I685
sS'blew'
p662
I687
sS'victim'
p663
I688
sS'fair'
p664
I689
sS'habit'
p665
I690
sS'\x93it\x92ll'
p666
I691
sS'liquor'
p667
I693
sS'goodbye\x94'
p668
I1640
sS'resist'
p669
I695
sS'\x93stockboy'
p670
I696
sS'uncoordin'
p671
I697
sS'result'
p672
I698
sS'\x93shot'
p673
I4678
sS'respons'
p674
I699
sS'corrupt'
p675
I700
sS'charact'
p676
I4192
sS'hammer'
p677
I703
sS'best'
p678
I704
sS'subject'
p679
I705
sS'pete'
p680
I706
sS'dishwash'
p681
I707
sS'said'
p682
I708
sS'12/05/2011'
p683
I710
sS'\x93wait\x94'
p684
I3830
sS'away'
p685
I711
sS'sail'
p686
I712
sS'gentleman'
p687
I713
sS'figur'
p688
I714
sS'score'
p689
I715
sS'finger'
p690
I716
sS'awak'
p691
I718
sS'drawn'
p692
I719
sS'back\x97shoot'
p693
I721
sS'approach'
p694
I722
sS'warrior'
p695
I724
sS'we'
p696
I725
sS'them\x94'
p697
I726
sS'gentri'
p698
I727
sS'men\x94'
p699
I728
sS'ask'
p700
I2897
sS'lover'
p701
I4196
sS'weak'
p702
I730
sS'vitamin'
p703
I731
sS'men\x92'
p704
I880
sS'boss'
p705
I733
sS'wear'
p706
I734
sS'intox'
p707
I735
sS'armbands\x97'
p708
I736
sS'toler'
p709
I737
sS'\x93hello'
p710
I738
sS'guts\x94'
p711
I739
sS'kitchen'
p712
I740
sS'bras'
p713
I741
sS'cop'
p714
I742
sS'easi'
p715
I743
sS'about\x94'
p716
I744
sS'cox'
p717
I746
sS'ill'
p718
I747
sS'unemploy'
p719
I13
sS'108'
p720
I749
sS'against'
p721
I750
sS'gotten'
p722
I2990
sS'piti'
p723
I751
sS'brag'
p724
I4541
sS'bet'
p725
I4200
sS'brad'
p726
I755
sS'countri'
p727
I757
sS'\x93babi'
p728
I758
sS'tommi'
p729
I4201
sS'jelli'
p730
I759
sS'reveal'
p731
I4712
sS'con'
p732
I4577
sS'and'
p733
I1816
sS'worry\x94'
p734
I764
sS'tough'
p735
I765
sS'fifti'
p736
I1908
sS'elf'
p737
I767
sS'smoke\x94'
p738
I769
sS'delic'
p739
I1818
sS'height'
p740
I1315
sS'whisper'
p741
I4831
sS'they\x92r'
p742
I772
sS'\x93calloway\x94'
p743
I773
sS'103'
p744
I776
sS'252'
p745
I777
sS'sombr'
p746
I778
sS'snag'
p747
I3411
sS'spunki'
p748
I780
sS'hitler'
p749
I781
sS'speak'
p750
I782
sS'code'
p751
I3672
sS'bathroom'
p752
I783
sS'101'
p753
I578
sS'angel'
p754
I1821
sS'beef'
p755
I786
sS'eager'
p756
I3413
sS'union'
p757
I788
sS'girls\x94'
p758
I789
sS'fri'
p759
I790
sS'top\x94'
p760
I791
sS'three'
p761
I792
sS'been'
p762
I793
sS'girls\x92'
p763
I794
sS'\x93evidently\x94'
p764
I795
sS'accumul'
p765
I796
sS'beer'
p766
I797
sS'much'
p767
I798
sS'stiff\x94'
p768
I799
sS'interest'
p769
I801
sS'thereaft'
p770
I4207
sS'this\x97and'
p771
I802
sS'silkscreen'
p772
I803
sS'over\x94'
p773
I804
sS'tallest'
p774
I805
sS'warmth'
p775
I806
sS'tini'
p776
I807
sS'threw'
p777
I808
sS'francisco\x94'
p778
I809
sS'life'
p779
I810
sS'loft'
p780
I811
sS'spit'
p781
I812
sS'sag'
p782
I1824
sS'worker'
p783
I815
sS'tomorrow\x94'
p784
I2611
sS'thing\x94'
p785
I817
sS'argument'
p786
I818
sS'lift'
p787
I821
sS'168'
p788
I822
sS'paris\x94'
p789
I823
sS'child'
p790
I824
sS'catch'
p791
I825
sS'165'
p792
I826
sS'166'
p793
I18
sS'167'
p794
I4640
sS'pecker'
p795
I829
sS'161'
p796
I830
sS'cunt'
p797
I831
sS'chill'
p798
I832
sS'ugli'
p799
I834
sS'east'
p800
I966
sS'tank'
p801
I836
sS'piec'
p802
I3358
sS'quantiti'
p803
I1879
sS'cracker'
p804
I837
sS'i\x94'
p805
I838
sS'\x93oh\x94'
p806
I839
sS'air'
p807
I840
sS'employ'
p808
I841
sS'near'
p809
I843
sS'neat'
p810
I844
sS'dashboard'
p811
I845
sS'coffin'
p812
I3892
sS'aid'
p813
I846
sS'empir'
p814
I4284
sS'\x91give'
p815
I3
sS'anchor'
p816
I848
sS'seven'
p817
I849
sS'garag'
p818
I850
sS'\x93all'
p819
I851
sS'florida'
p820
I4109
sS'mexico'
p821
I853
sS'is'
p822
I854
sS'tabl'
p823
I4214
sS'it'
p824
I855
sS'gnats\x94'
p825
I857
sS'ii'
p826
I858
sS'player'
p827
I2946
sS'eighteen'
p828
I860
sS'brake'
p829
I861
sS'in'
p830
I862
sS'now\x94'
p831
I863
sS'vagu'
p832
I847
sS'ie'
p833
I865
sS'sever'
p834
I867
sS'if'
p835
I868
sS'\x93bastard\x94'
p836
I278
sS'belli'
p837
I870
sS'outhouse\x94'
p838
I3777
sS'boys\x92'
p839
I872
sS'suggest'
p840
I873
sS'make'
p841
I874
sS'wound'
p842
I876
sS'miami'
p843
I4648
sS'boys\x94'
p844
I878
sS'split'
p845
I881
sS'money\x94'
p846
I882
sS'intercom'
p847
I883
sS'sat'
p848
I1836
sS'jerri'
p849
I886
sS'complet'
p850
I888
sS'wheel'
p851
I889
sS'danny\x94'
p852
I1837
sS'fragil'
p853
I891
sS'evid'
p854
I892
sS'overf'
p855
I893
sS'swell'
p856
I894
sS'social'
p857
I2610
sS'rail'
p858
I896
sS'doorbel'
p859
I1838
sS'evil'
p860
I522
sS'hand'
p861
I899
sS'grammar'
p862
I2633
sS'rais'
p863
I901
sS'ownership'
p864
I902
sS'bother\x94'
p865
I903
sS'engin'
p866
I1839
sS'week\x92\x94'
p867
I4365
sS'blister'
p868
I2904
sS'tune'
p869
I905
sS'kid'
p870
I906
sS'butter'
p871
I907
sS'favorite\x92'
p872
I4610
sS'vermont'
p873
I909
sS'rotgut'
p874
I910
sS'kept'
p875
I911
sS'soak'
p876
I4224
sS'mushroom'
p877
I4847
sS'los'
p878
I4145
sS'darlen'
p879
I912
sS'drip'
p880
I913
sS'\x93real'
p881
I914
sS'ocean'
p882
I915
sS'timecard'
p883
I669
sS'rome'
p884
I917
sS'greatest'
p885
I918
sS'thi'
p886
I919
sS'mother'
p887
I920
sS'fistfight'
p888
I921
sS'everyth'
p889
I922
sS'800'
p890
I923
sS'veteran'
p891
I1842
sS'fittest'
p892
I925
sS'left'
p893
I926
sS'picasso\x92'
p894
I927
sS'tremend'
p895
I928
sS'endless'
p896
I4338
sS'agon'
p897
I929
sS'just'
p898
I930
sS'\x93boy'
p899
I931
sS'\x91raid\x92\x94'
p900
I932
sS'photo'
p901
I4621
sS'nowaday'
p902
I934
sS'clotheslin'
p903
I935
sS'month\x94'
p904
I936
sS'boatmen'
p905
I937
sS'i\x92ll'
p906
I2855
sS'human'
p907
I939
sS'\x93they\x92ll'
p908
I3429
sS'tonight\x94'
p909
I941
sS'yes'
p910
I942
sS'dignifi'
p911
I943
sS'sleepi'
p912
I944
sS'yet'
p913
I945
sS'\x93two'
p914
I2940
sS'oldfashion'
p915
I946
sS'\x93for'
p916
I947
sS'note'
p917
I1845
sS'york\x94'
p918
I949
sS'awaken'
p919
I3431
sS'greenwich'
p920
I951
sS'midforti'
p921
I952
sS'\x93backord'
p922
I953
sS'rous'
p923
I4227
sS'\x93whi'
p924
I955
sS'had'
p925
I956
sS'\x93who'
p926
I957
sS'hay'
p927
I959
sS'spread'
p928
I960
sS'board'
p929
I961
sS'falter'
p930
I963
sS'els'
p931
I964
sS'save'
p932
I835
sS'hat'
p933
I967
sS'eat\x94'
p934
I2634
sS'blade'
p935
I4683
sS'gave'
p936
I969
sS'applic'
p937
I970
sS'race'
p938
I3734
sS'mayb'
p939
I973
sS'pothol'
p940
I974
sS'sanitari'
p941
I975
sS'bushi'
p942
I977
sS'lengthen'
p943
I978
sS'machin'
p944
I3491
sS'birth'
p945
I980
sS'elabor'
p946
I981
sS'picasso'
p947
I982
sS'roach'
p948
I983
sS'strap'
p949
I984
sS'burnt'
p950
I985
sS'retreat'
p951
I986
sS'apart'
p952
I987
sS'shoulder'
p953
I988
sS'brought'
p954
I989
sS'59'
p955
I991
sS'58'
p956
I992
sS'specif'
p957
I993
sS'55'
p958
I994
sS'54'
p959
I995
sS'57'
p960
I996
sS'56'
p961
I997
sS'51'
p962
I998
sS'50'
p963
I999
sS'gangplank'
p964
I1000
sS'52'
p965
I1022
sS'remind'
p966
I1002
sS'hunk'
p967
I1003
sS'37'
p968
I3808
sS'night'
p969
I1004
sS'hung'
p970
I1005
sS'handbrak'
p971
I4824
sS'overslept'
p972
I976
sS'del'
p973
I2697
sS'charm'
p974
I3530
sS'become\x94'
p975
I3983
sS'right'
p976
I1008
sS'old'
p977
I1009
sS'\x91the'
p978
I2641
sS'crowd'
p979
I1011
sS'\x93isn\x92t'
p980
I1012
sS'spittl'
p981
I4504
sS'eas'
p982
I4795
sS'somehow'
p983
I1014
sS'dead'
p984
I1015
sS'born'
p985
I1016
sS'taxes\x94'
p986
I1145
sS'salespeopl'
p987
I3442
sS'dear'
p988
I1019
sS'prick'
p989
I1856
sS'bore'
p990
I1021
sS'witti'
p991
I1023
sS'anita'
p992
I4722
sS'humor'
p993
I1025
sS'for'
p994
I1026
sS'bottom'
p995
I1027
sS'sailor\x92'
p996
I1029
sS'inhuman'
p997
I1030
sS'break\x94'
p998
I1243
sS'ice'
p999
I1249
sS'memor'
p1000
I1033
sS'brahm\x92'
p1001
I4106
sS'harmatz'
p1002
I4883
sS'bastard\x94'
p1003
I1035
sS'guardrail'
p1004
I1036
sS'bra'
p1005
I1037
sS'umm'
p1006
I1039
sS'condit'
p1007
I1040
sS'peek'
p1008
I1319
sS'collar\x94'
p1009
I1324
sS'hazel'
p1010
I1340
sS'peel'
p1011
I1045
sS'cabbi'
p1012
I1046
sS'devil'
p1013
I4716
sS'dental'
p1014
I1047
sS'burn'
p1015
I1048
sS'painting\x94'
p1016
I3708
sS'discount'
p1017
I1049
sS'firemen'
p1018
I1051
sS'colleg'
p1019
I1052
sS'bolt'
p1020
I1053
sS'country\x94'
p1021
I1054
sS'muscatel'
p1022
I1055
sS'post'
p1023
I1056
sS'describ'
p1024
I1057
sS'mirage\x94'
p1025
I1058
sS'sleep\x94'
p1026
I1059
sS'don\x92t\x94'
p1027
I1864
sS'foolish'
p1028
I3447
sS'troubl'
p1029
I4811
sS'eat'
p1030
I4797
sS'$75'
p1031
I1062
sS'\x93bo\x94'
p1032
I1063
sS'choke'
p1033
I1065
sS'o'
p1034
I1066
sS'unfortun'
p1035
I1067
sS'geraldine\x92'
p1036
I1068
sS'dinner'
p1037
I1069
sS'redfac'
p1038
I4247
sS'plus'
p1039
I1071
sS'afternoon'
p1040
I1072
sS'instigated\x94'
p1041
I1073
sS'twitch'
p1042
I1074
sS'\x93oh'
p1043
I2052
sS'\x93cut'
p1044
I1078
sS'telephon'
p1045
I1079
sS'bounc'
p1046
I1081
sS'paunch'
p1047
I1082
sS'profession'
p1048
I1620
sS'rearview'
p1049
I1084
sS'alamito'
p1050
I1085
sS'son'
p1051
I1086
sS'down'
p1052
I1087
sS'clatter'
p1053
I1088
sS'bed\x94'
p1054
I1090
sS'song\x94'
p1055
I1091
sS'opportun'
p1056
I1092
sS'\x93laura'
p1057
I1093
sS'cafeteria'
p1058
I3117
sS'storag'
p1059
I1095
sS'often'
p1060
I3452
sS'\x93goodby'
p1061
I3710
sS'america'
p1062
I1869
sS'deal'
p1063
I1099
sS'wag'
p1064
I1100
sS'support'
p1065
I1101
sS'wad'
p1066
I1102
sS'sunlight'
p1067
I1103
sS'happi'
p1068
I1104
sS'\x93guy'
p1069
I1105
sS'stuck'
p1070
I1106
sS'\x93noth'
p1071
I1107
sS'editor'
p1072
I1108
sS'way'
p1073
I1109
sS'wax'
p1074
I2734
sS'overhead'
p1075
I1112
sS'funeral\x94'
p1076
I1113
sS'was'
p1077
I1114
sS'war'
p1078
I1115
sS'\x93he\x92ll'
p1079
I1116
sS'calm'
p1080
I1117
sS'help\x85\x94'
p1081
I1118
sS'head'
p1082
I1120
sS'millionaire\x94'
p1083
I3785
sS'121'
p1084
I4327
sS'form'
p1085
I1121
sS'offer'
p1086
I1122
sS'forc'
p1087
I1123
sS'boy\x94'
p1088
I3634
sS'\x93jesus\x94'
p1089
I1124
sS'spike'
p1090
I1125
sS'oil'
p1091
I3113
sS'back'
p1092
I3456
sS'heav'
p1093
I1128
sS'taken'
p1094
I2661
sS'heat'
p1095
I1130
sS'hear'
p1096
I1131
sS'holdup'
p1097
I1132
sS'refriger'
p1098
I1133
sS'\x93those'
p1099
I3891
sS'sundri'
p1100
I1134
sS'true'
p1101
I1135
sS'gstring'
p1102
I1137
sS'wood'
p1103
I4491
sS'friday'
p1104
I2888
sS'cover\x94'
p1105
I1140
sS'dark\x94'
p1106
I1141
sS'acknowledg'
p1107
I3193
sS'tell'
p1108
I1142
sS'whiskey'
p1109
I1143
sS'\x93reporter\x94'
p1110
I1144
sS'nicest'
p1111
I1146
sS'retir'
p1112
I1147
sS'151'
p1113
I1149
sS'150'
p1114
I1150
sS'$315\x94'
p1115
I1151
sS'featur'
p1116
I1152
sS'hotter'
p1117
I1153
sS'alongsid'
p1118
I1154
sS'157'
p1119
I1155
sS'classic'
p1120
I2054
sS'159'
p1121
I1157
sS'toss'
p1122
I1158
sS'mirror'
p1123
I3463
sS'nobody\x94'
p1124
I4860
sS'linger'
p1125
I4729
sS'\x93where\x94'
p1126
I1161
sS'scrawl'
p1127
I1162
sS'cancer\x94'
p1128
I1163
sS'exist'
p1129
I1164
sS'stopov'
p1130
I1165
sS'glanc'
p1131
I1166
sS'ladies\x92'
p1132
I3464
sS'furi'
p1133
I1168
sS'desir'
p1134
I2668
sS'ship'
p1135
I1170
sS'landladi'
p1136
I384
sS'mole'
p1137
I1172
sS'shit'
p1138
I1173
sS'twentyfour'
p1139
I2669
sS'assembl'
p1140
I1175
sS'steer\x94'
p1141
I1177
sS'floor'
p1142
I1178
sS'tit'
p1143
I1179
sS'snow\x94'
p1144
I1180
sS'leafless'
p1145
I1181
sS'excel'
p1146
I675
sS'low\x94'
p1147
I1183
sS'talent\x94'
p1148
I1184
sS'test'
p1149
I1185
sS'tie'
p1150
I1186
sS'presum'
p1151
I1187
sS'depot'
p1152
I1188
sS'smell'
p1153
I1189
sS'shrink'
p1154
I1190
sS'for\x94'
p1155
I1192
sS'wait\x94'
p1156
I1193
sS'halffel'
p1157
I1196
sS'\x93there\x92'
p1158
I1197
sS'downward'
p1159
I4362
sS'\x93stop'
p1160
I1199
sS'handicap'
p1161
I1200
sS'jan\x94'
p1162
I1201
sS'geezer'
p1163
I1202
sS'felt'
p1164
I1203
sS'jan\x92'
p1165
I1204
sS'crew\x94'
p1166
I1205
sS'zipper'
p1167
I4462
sS'fell'
p1168
I1206
sS'warp'
p1169
I1207
sS'consid'
p1170
I1208
sS'dullest'
p1171
I1209
sS'hall\x94'
p1172
I1210
sS'garbage\x94'
p1173
I1212
sS'99'
p1174
I1213
sS'younger'
p1175
I1214
sS'what\x94'
p1176
I1215
sS'hands\x94'
p1177
I1216
sS'faster'
p1178
I1217
sS'98'
p1179
I556
sS'salt'
p1180
I1886
sS'laura\x92'
p1181
I1221
sS'yacht'
p1182
I1222
sS'laura\x94'
p1183
I1223
sS'pay\x94'
p1184
I1224
sS'rollercoast'
p1185
I3142
sS'raise\x94'
p1186
I2436
sS'\x93whiskey'
p1187
I1226
sS'chinaski\x85'
p1188
I1227
sS'so\x94'
p1189
I1228
sS'teeth'
p1190
I1229
sS'push'
p1191
I1230
sS'fasten'
p1192
I1231
sS'breakfast\x97hotcak'
p1193
I1232
sS'drink\x92\x94'
p1194
I1233
sS'dust'
p1195
I4557
sS'90\x92s'
p1196
I1535
sS'gown'
p1197
I1236
sS'coach'
p1198
I1237
sS'health\x94'
p1199
I1238
sS'chain'
p1200
I1239
sS'carpet\x85'
p1201
I1240
sS'hurl'
p1202
I1241
sS'man\x92'
p1203
I1892
sS'laura'
p1204
I1244
sS'handsome\x94'
p1205
I2679
sS'mild'
p1206
I1246
sS'mile'
p1207
I1247
sS'/'
p1208
I1032
sS'skin'
p1209
I1250
sS'trashcan'
p1210
I1251
sS'man\x94'
p1211
I1894
sS'chair'
p1212
I1253
sS'prop'
p1213
I3479
sS'shoepolish'
p1214
I1255
sS'suction'
p1215
I2193
sS'row'
p1216
I1257
sS'ballet'
p1217
I852
sS'92'
p1218
I720
sS'depend'
p1219
I1261
sS'system'
p1220
I4149
sS'95'
p1221
I204
sS'hump'
p1222
I1264
sS'flash'
p1223
I1265
sS'father'
p1224
I1266
sS'feldman\x92'
p1225
I1267
sS'calient'
p1226
I1269
sS'signatur'
p1227
I4364
sS'rhythm'
p1228
I1270
sS'editori'
p1229
I1271
sS'128'
p1230
I4334
sS'angeles\x94'
p1231
I1272
sS'sing'
p1232
I3792
sS'96'
p1233
I1274
sS'me'
p1234
I208
sS'stand\x94'
p1235
I1277
sS'sourc'
p1236
I1278
sS'jerk'
p1237
I1280
sS'cheap'
p1238
I1900
sS'mortuari'
p1239
I3484
sS'did\x85just'
p1240
I1285
sS'here\x94'
p1241
I1286
sS'kitten'
p1242
I1287
sS'cook'
p1243
I1288
sS'join'
p1244
I1289
sS'exact'
p1245
I1290
sS'again\x85it\x92'
p1246
I1291
sS'cool'
p1247
I1292
sS'pm\x94'
p1248
I2849
sS'dim'
p1249
I1294
sS'rent\x94'
p1250
I1295
sS'say\x94'
p1251
I1296
sS'\x93that\x92'
p1252
I1297
sS'slip'
p1253
I3910
sS'policeman'
p1254
I1298
sS'did'
p1255
I1299
sS'die'
p1256
I1300
sS'who'
p1257
I4243
sS'gun'
p1258
I1301
sS'gum'
p1259
I1302
sS'item'
p1260
I1303
sS'subway'
p1261
I1304
sS'gut'
p1262
I1306
sS'drink\x94'
p1263
I1307
sS'lever'
p1264
I1308
sS'sidewalk'
p1265
I1309
sS'dip'
p1266
I1310
sS'round'
p1267
I1311
sS'wharfrat'
p1268
I1312
sS'shave'
p1269
I1313
sS'prevent'
p1270
I1314
sS'brave'
p1271
I1316
sS'slower'
p1272
I1317
sS'regret'
p1273
I1318
sS'creatur'
p1274
I1042
sS'attic'
p1275
I1320
sS'sigh'
p1276
I1321
sS'bedroom'
p1277
I4285
sS'hill\x94'
p1278
I1043
sS'sign'
p1279
I1325
sS'everytim'
p1280
I1326
sS'heavyweight'
p1281
I1327
sS'asham'
p1282
I1328
sS'orleans\x94'
p1283
I219
sS'corner'
p1284
I1905
sS'helpless'
p1285
I1331
sS'bake'
p1286
I1332
sS'chicken'
p1287
I1333
sS'fluoresc'
p1288
I4184
sS'appear'
p1289
I1336
sS'filler'
p1290
I1337
sS'repli'
p1291
I3079
sS'gurgl'
p1292
I4161
sS'remain'
p1293
I2695
sS'stay\x94'
p1294
I1341
sS'\x93love'
p1295
I1342
sS'sour\x94'
p1296
I550
sS'one\x97i'
p1297
I1344
sS'indiffer'
p1298
I1345
sS'ground'
p1299
I1346
sS'boost'
p1300
I1347
sS'\x93be'
p1301
I3813
sS'pay\x85\x94'
p1302
I1909
sS'taut'
p1303
I2767
sS'mean\x94'
p1304
I4381
sS'abrupt'
p1305
I1353
sS'clerk'
p1306
I1354
sS'chicano'
p1307
I1355
sS'\x93mr'
p1308
I1356
sS'french'
p1309
I1357
sS'rug'
p1310
I3500
sS'water'
p1311
I1359
sS'job\x94'
p1312
I1912
sS'\x93cheer'
p1313
I1361
sS'\x93mi'
p1314
I1362
sS'address'
p1315
I1363
sS'married\x94'
p1316
I1364
sS'bicycl'
p1317
I4294
sS'along'
p1318
I1366
sS'stem'
p1319
I3502
sS'\x93there'
p1320
I1368
sS'wait'
p1321
I1369
sS'box'
p1322
I1370
sS'boy'
p1323
I1371
sS'insan'
p1324
I1374
sS'fenc'
p1325
I3513
sS'shove'
p1326
I1376
sS'invit'
p1327
I1377
sS'brilliant'
p1328
I1378
sS'shift'
p1329
I864
sS'soul\x94'
p1330
I1380
sS'unfaithful\x97she\x92d'
p1331
I3320
sS'bow'
p1332
I1383
sS'buddy\x94'
p1333
I1385
sS'thirti'
p1334
I1387
sS'jaw'
p1335
I4297
sS'healthi'
p1336
I586
sS'washbowl'
p1337
I1389
sS'bob'
p1338
I1390
sS'nylon'
p1339
I1391
sS'guilti'
p1340
I1392
sS'pillow'
p1341
I1393
sS'430'
p1342
I1394
sS'squeez'
p1343
I3507
sS'orient'
p1344
I2437
sS'ceram'
p1345
I1396
sS'love'
p1346
I1398
sS'prerequisit'
p1347
I3508
sS'extra'
p1348
I1400
sS'mitzi'
p1349
I1919
sS'spong'
p1350
I3324
sS'prefer'
p1351
I1402
sS'loosen'
p1352
I1403
sS'upstair'
p1353
I4300
sS'peer'
p1354
I1405
sS'durham'
p1355
I1406
sS'inglewood\x94'
p1356
I1407
sS'\x93john'
p1357
I1408
sS'fake'
p1358
I3454
sS'instal'
p1359
I1410
sS'compani'
p1360
I2680
sS'market'
p1361
I1413
sS'bloodi'
p1362
I3487
sS'larabe'
p1363
I1417
sS'streetcar'
p1364
I1418
sS'wealth'
p1365
I1419
sS'baer'
p1366
I1420
sS'visit'
p1367
I1422
sS'heard\x94'
p1368
I3099
sS'by'
p1369
I3515
sS'everybodi'
p1370
I1424
sS'live'
p1371
I1425
sS'handler'
p1372
I2380
sS'\x93bi'
p1373
I3815
sS'we\x92v'
p1374
I4138
sS'tape'
p1375
I4306
sS'angri'
p1376
I1429
sS'guy\x94'
p1377
I1430
sS'today'
p1378
I1431
sS'aspirin'
p1379
I1432
sS'dismay'
p1380
I1433
sS'\x93wilbur'
p1381
I1435
sS'guessing\x94'
p1382
I1436
sS'\x93keep'
p1383
I1437
sS'afford'
p1384
I1438
sS'peopl'
p1385
I1439
sS'wounds\x94'
p1386
I1440
sS'money\x97al'
p1387
I1441
sS'downtown'
p1388
I1444
sS'visual'
p1389
I1445
sS'drown'
p1390
I1446
sS'dismal'
p1391
I1447
sS'indic'
p1392
I1448
sS'examin'
p1393
I1449
sS'jail\x97so'
p1394
I1450
sS'effort'
p1395
I1451
sS'robe'
p1396
I1923
sS'different\x94'
p1397
I1453
sS'religi'
p1398
I1454
sS'defec'
p1399
I1455
sS'\x93peopl'
p1400
I1456
sS'batter\x97it'
p1401
I1457
sS'lord\x94'
p1402
I1458
sS'talent\x97who'
p1403
I417
sS'butterfat'
p1404
I1461
sS'pretend'
p1405
I553
sS'judg'
p1406
I1463
sS'soul'
p1407
I1464
sS'vibe'
p1408
I3963
sS'fli'
p1409
I1465
sS'wallet'
p1410
I1466
sS'sour'
p1411
I1468
sS'whatev'
p1412
I2
sS'\x93gertrud'
p1413
I1470
sS'cal'
p1414
I1471
sS'cab'
p1415
I1472
sS'dogs\x94'
p1416
I1473
sS'\x93hank\x94'
p1417
I1474
sS'laughter'
p1418
I1475
sS'\x93huh\x94'
p1419
I1476
sS'streak'
p1420
I1477
sS'heart'
p1421
I3443
sS'christmas\x94'
p1422
I1479
sS'fridg'
p1423
I3853
sS'reflector'
p1424
I1480
sS'stream'
p1425
I1481
sS'chip'
p1426
I1482
sS'\x93what\x92'
p1427
I2715
sS'fuck'
p1428
I1484
sS'agent'
p1429
I1485
sS'\x93i\x92m'
p1430
I1486
sS'scandalized\x94'
p1431
I1372
sS'crazi'
p1432
I1489
sS'cleaned\x94'
p1433
I4607
sS'\x93i\x92v'
p1434
I1491
sS'surround'
p1435
I1492
sS'sharp'
p1436
I1493
sS'ma\x92am\x94'
p1437
I1494
sS'agenc'
p1438
I1495
sS'stole'
p1439
I1496
sS'\x93mrs'
p1440
I1497
sS'craze'
p1441
I1498
sS'battle\x97both'
p1442
I1499
sS'pink'
p1443
I1500
sS'going\x94'
p1444
I4697
sS'bankrupt'
p1445
I1503
sS'\x93still'
p1446
I4246
sS'freezer'
p1447
I1506
sS'again\x85thi'
p1448
I1507
sS'1'
p1449
I1508
sS'alway'
p1450
I1509
sS'sunday'
p1451
I1510
sS'beer\x94'
p1452
I1511
sS'anyon'
p1453
I1512
sS'actual'
p1454
I4728
sS'pure'
p1455
I1514
sS'reason\x94'
p1456
I1705
sS'tile'
p1457
I1516
sS'pathway'
p1458
I1518
sS'myself\x94'
p1459
I1519
sS'146'
p1460
I1520
sS'map'
p1461
I1521
sS'product'
p1462
I1522
sS'145'
p1463
I1523
sS'142'
p1464
I1524
sS'143'
p1465
I1525
sS'sacrifici'
p1466
I1526
sS'huge'
p1467
I2722
sS'superintend'
p1468
I1528
sS'max'
p1469
I1529
sS'use'
p1470
I3836
sS'southern'
p1471
I1532
sS'know\x94'
p1472
I2723
sS'148'
p1473
I1533
sS'149'
p1474
I4100
sS'monthly\x94'
p1475
I1536
sS'\x93ah'
p1476
I2724
sS'laundri'
p1477
I1538
sS'mad'
p1478
I1539
sS'mag'
p1479
I1540
sS'wrong\x94'
p1480
I1541
sS'date'
p1481
I1542
sS'home\x85\x94'
p1482
I1543
sS'suck'
p1483
I1544
sS'angel\x94'
p1484
I760
sS'hankypanki'
p1485
I1546
sS'eighth'
p1486
I1547
sS'cute\x94'
p1487
I1548
sS'man'
p1488
I1549
sS'bobby\x85what\x92'
p1489
I3005
sS'practic'
p1490
I1467
sS'canned\x94'
p1491
I1551
sS'conscious'
p1492
I1552
sS'\x93littl'
p1493
I1553
sS'\x93warehousemen\x94'
p1494
I1194
sS'divid'
p1495
I1585
sS'favorit'
p1496
I1557
sS'bean'
p1497
I4328
sS'made'
p1498
I4802
sS'st'
p1499
I1559
sS'switch'
p1500
I1560
sS'jail'
p1501
I1562
sS'block'
p1502
I3534
sS'anoth'
p1503
I2729
sS'basket'
p1504
I1565
sS'tall'
p1505
I1566
sS'talk'
p1506
I1567
sS'irrat'
p1507
I1568
sS'drunken'
p1508
I1569
sS'cute'
p1509
I1570
sS'comfort'
p1510
I2730
sS'horrifi'
p1511
I1573
sS'rabbi'
p1512
I2159
sS'footstep'
p1513
I1575
sS'haircut'
p1514
I1576
sS'midnight'
p1515
I1577
sS'conserv'
p1516
I4788
sS'increas'
p1517
I1427
sS'\x93and'
p1518
I1582
sS'lyric'
p1519
I1583
sS'cops\x94'
p1520
I1584
sS'shake'
p1521
I1586
sS'\x93listen'
p1522
I1588
sS'cold'
p1523
I1589
sS'still'
p1524
I1590
sS'drunker'
p1525
I1591
sS'oxwil'
p1526
I1936
sS'could\x94'
p1527
I1593
sS'tore'
p1528
I1594
sS'pen'
p1529
I3481
sS'thumb'
p1530
I1597
sS'willow'
p1531
I1598
sS'comic'
p1532
I2863
sS'jim'
p1533
I1599
sS'sandrina'
p1534
I4623
sS'car\x94'
p1535
I1600
sS'quit\x85'
p1536
I1601
sS'mcarthur'
p1537
I1602
sS'macarthur'
p1538
I2240
sS'window'
p1539
I1603
sS'now\x97that'
p1540
I1605
sS'stroll'
p1541
I1938
sS'sausage\x97for'
p1542
I1607
sS'department\x94'
p1543
I3542
sS'mail'
p1544
I1608
sS'main'
p1545
I1609
sS'\x93we\x92r'
p1546
I3543
sS'quit\x94'
p1547
I1611
sS'oldtim'
p1548
I1612
sS'apron'
p1549
I1613
sS'emperor'
p1550
I4742
sS'honeymoon'
p1551
I1615
sS'\x93what'
p1552
I1616
sS'fling'
p1553
I1505
sS'nod'
p1554
I1619
sS'\x93mcbride\x94'
p1555
I1621
sS'automobil'
p1556
I1148
sS'insomnia'
p1557
I1623
sS'sooner'
p1558
I1624
sS'cowboy'
p1559
I499
sS'underneath'
p1560
I1626
sS'interview'
p1561
I1627
sS'\x93make'
p1562
I1628
sS'ugly\x94'
p1563
I3545
sS'\x93peters\x94'
p1564
I1630
sS'agoni'
p1565
I1579
sS'not'
p1566
I1632
sS'\x93harmatz'
p1567
I4341
sS'bath'
p1568
I1077
sS'hall'
p1569
I1634
sS'nor'
p1570
I1635
sS'wagon'
p1571
I1636
sS'term'
p1572
I1637
sS'\x93hell'
p1573
I1638
sS'name'
p1574
I1639
sS'creativ'
p1575
I1641
sS'opera'
p1576
I1642
sS'clutch'
p1577
I1643
sS'jerry\x94'
p1578
I1644
sS'artist'
p1579
I1943
sS'oliv'
p1580
I1646
sS'47'
p1581
I4851
sS'separ'
p1582
I1647
sS'\x93good'
p1583
I1648
sS'magazin'
p1584
I1649
sS'orders\x85'
p1585
I3548
sS'enrag'
p1586
I1651
sS'ledg'
p1587
I1652
sS'rock'
p1588
I1653
sS'\x93this'
p1589
I1654
sS'quarter'
p1590
I1655
sS'85'
p1591
I4865
sS'courag'
p1592
I1656
sS'\x93help'
p1593
I1657
sS'el'
p1594
I1658
sS'en'
p1595
I1659
sS'heels\x94'
p1596
I1660
sS'nothing\x94'
p1597
I2743
sS'replac'
p1598
I1662
sS'receipt'
p1599
I1663
sS'continu'
p1600
I1665
sS'dead\x94'
p1601
I1666
sS'wrap'
p1602
I729
sS'unlock'
p1603
I1669
sS'persian'
p1604
I1670
sS'year'
p1605
I1671
sS'distributor'
p1606
I1672
sS'prostitut'
p1607
I2176
sS'happen'
p1608
I1674
sS'dollars\x94'
p1609
I1675
sS'agit'
p1610
I1676
sS'jackson'
p1611
I1678
sS'space'
p1612
I1679
sS'eightyearold'
p1613
I1680
sS'astray'
p1614
I1681
sS'superfluous\x94'
p1615
I2843
sS'\x93five'
p1616
I4600
sS'stupid'
p1617
I1682
sS'trauma'
p1618
I1683
sS'failure\x94'
p1619
I3553
sS'explan'
p1620
I3388
sS'no\x94'
p1621
I47
sS'showroom'
p1622
I1686
sS'correct'
p1623
I594
sS'mascara'
p1624
I4352
sS'eighth\x94'
p1625
I1691
sS'diseas'
p1626
I1692
sS'cahoot'
p1627
I85
sS'nostril'
p1628
I1951
sS'glimps'
p1629
I1695
sS'state'
p1630
I4393
sS'cupcak'
p1631
I102
sS'seventh'
p1632
I111
sS'seventi'
p1633
I1442
sS'blackbird\x94'
p1634
I119
sS'dresswear'
p1635
I2750
sS'quart'
p1636
I1701
sS'replacements\x94'
p1637
I50
sS'\x93sure'
p1638
I4356
sS'ajar'
p1639
I1707
sS'cough'
p1640
I1708
sS'hank\x94'
p1641
I1709
sS'card'
p1642
I1710
sS'care'
p1643
I1711
sS'supply\x94'
p1644
I528
sS'underwear'
p1645
I1713
sS'departur'
p1646
I1714
sS'shoe\x92'
p1647
I1715
sS'\x93one'
p1648
I1716
sS'year\x94'
p1649
I1718
sS'flare'
p1650
I1719
sS'\x93mayb'
p1651
I1720
sS'refus'
p1652
I1721
sS'honest'
p1653
I247
sS'motion'
p1654
I1723
sS'turn'
p1655
I256
sS'place'
p1656
I1725
sS'husband'
p1657
I1956
sS'swing'
p1658
I1727
sS'wastebasket'
p1659
I4620
sS'dresses\x85'
p1660
I4888
sS'roominghous'
p1661
I4359
sS'alcov'
p1662
I302
sS'imposs'
p1663
I150
sS'unwit'
p1664
I1732
sS'first'
p1665
I1733
sS'origin'
p1666
I318
sS'damn\x94'
p1667
I1735
sS'bad\x94'
p1668
I1736
sS'catalina'
p1669
I4273
sS'truck\x94'
p1670
I4361
sS'carri'
p1671
I1738
sS'onc'
p1672
I1739
sS'\x93the'
p1673
I1740
sS'late\x94'
p1674
I365
sS'yourself'
p1675
I1415
sS'errand'
p1676
I1743
sS'rink'
p1677
I1744
sS'spanish'
p1678
I1745
sS'law\x94'
p1679
I20
sS'\x93we\x92ll'
p1680
I1747
sS'ring'
p1681
I1748
sS'drove'
p1682
I1749
sS'open'
p1683
I1750
sS'tomorrow'
p1684
I1751
sS'size'
p1685
I1752
sS'urin'
p1686
I1753
sS'given'
p1687
I1754
sS'boulevard'
p1688
I1755
sS'sheet'
p1689
I1756
sS'christma'
p1690
I447
sS'convent'
p1691
I451
sS'blinds\x94'
p1692
I456
sS'gertrud'
p1693
I1760
sS'caught'
p1694
I464
sS'slept'
p1695
I1762
sS'carson'
p1696
I1763
sS'citi'
p1697
I1764
sS'silenc'
p1698
I1765
sS'shiver'
p1699
I501
sS'draft'
p1700
I1767
sS'demonstr'
p1701
I1768
sS'circl'
p1702
I1769
sS'try\x94'
p1703
I1962
sS'white'
p1704
I1771
sS'instanc'
p1705
I4431
sS'auxiliari'
p1706
I4895
sS'friend'
p1707
I1773
sS'includ'
p1708
I3567
sS'floweri'
p1709
I908
sS'huf'
p1710
I1777
sS'unmoor'
p1711
I1778
sS'alone\x94'
p1712
I1305
sS'especi'
p1713
I573
sS'season'
p1714
I1781
sS'something\x94'
p1715
I1782
sS'copi'
p1716
I1783
sS'snatch'
p1717
I1784
sS'gaudi'
p1718
I605
sS'short'
p1719
I2759
sS'apolog'
p1720
I4370
sS'antic'
p1721
I1787
sS'butt'
p1722
I623
sS'than'
p1723
I1791
sS'boyfriend'
p1724
I1793
sS'11'
p1725
I1794
sS'10'
p1726
I654
sS'13'
p1727
I659
sS'12'
p1728
I1797
sS'saroyan'
p1729
I667
sS'14'
p1730
I1799
sS'impossible\x94'
p1731
I671
sS'16'
p1732
I1801
sS'19'
p1733
I1802
sS'jewel\x94'
p1734
I680
sS'gotta'
p1735
I1804
sS'$18'
p1736
I1805
sS'wasn\x92t'
p1737
I1808
sS'zsa'
p1738
I1809
sS'debussi'
p1739
I1810
sS'were'
p1740
I1811
sS'posit'
p1741
I1812
sS'nuisanc'
p1742
I1813
sS'counselor'
p1743
I1814
sS'janitor'
p1744
I1815
sS'\x93charg'
p1745
I762
sS'fork'
p1746
I1817
sS'coconut'
p1747
I770
sS'lick'
p1748
I1819
sS'san'
p1749
I1820
sS'nicer'
p1750
I785
sS'gravy\x94'
p1751
I1822
sS'slat'
p1752
I1823
sS'greyhound'
p1753
I814
sS'anywher'
p1754
I1219
sS'alley'
p1755
I1826
sS'sad'
p1756
I828
sS'say'
p1757
I1828
sS'rent'
p1758
I1830
sS'measur'
p1759
I1831
sS'anger'
p1760
I2657
sS'45'
p1761
I4853
sS'breakfast'
p1762
I1833
sS'saw'
p1763
I1835
sS'their'
p1764
I4152
sS'card\x94'
p1765
I885
sS'squaw'
p1766
I890
sS'clung'
p1767
I897
sS'blueey'
p1768
I904
sS'squar'
p1769
I1840
sS'\x93may'
p1770
I924
sS'\x93welcom'
p1771
I1843
sS'cop\x92'
p1772
I948
sS'squad'
p1773
I1847
sS'\x93just'
p1774
I1848
sS'take'
p1775
I1849
sS'sperm'
p1776
I3978
sS'wonder'
p1777
I1973
sS'noth'
p1778
I1001
sS'anymore\x94'
p1779
I1006
sS'closer'
p1780
I4074
sS'begin'
p1781
I1854
sS'hoover'
p1782
I1017
sS'pain'
p1783
I1020
sS'clocks\x85sh'
p1784
I2772
sS'track'
p1785
I1858
sS'price'
p1786
I1859
sS'knew'
p1787
I1860
sS'\x93bud'
p1788
I1861
sS'paid'
p1789
I1862
sS'whizz'
p1790
I1863
sS'aloud'
p1791
I938
sS'assault'
p1792
I1865
sS'wire'
p1793
I4383
sS'attack'
p1794
I4153
sS'billow'
p1795
I1866
sS'pair'
p1796
I962
sS'knee'
p1797
I1868
sS'bit\x94'
p1798
I1098
sS'\x93but'
p1799
I1870
sS'sterno'
p1800
I1871
sS'\x93last'
p1801
I1872
sS'paper\x94'
p1802
I1873
sS'lawn'
p1803
I1874
sS'ahead\x94'
p1804
I2776
sS'dream'
p1805
I1876
sS'later'
p1806
I1877
sS'drive'
p1807
I1878
sS'mrs'
p1808
I1171
sS'closer\x85'
p1809
I1880
sS'meanwhil'
p1810
I1881
sS'much\x94'
p1811
I1882
sS'squint'
p1812
I1883
sS'axe'
p1813
I1884
sS'warm\x94'
p1814
I1885
sS'men\x97unfortun'
p1815
I1220
sS'hungri'
p1816
I1887
sS'on\x94'
p1817
I1888
sS'firecrack'
p1818
I1889
sS'shop'
p1819
I1890
sS'perch'
p1820
I1891
sS'outduk'
p1821
I1242
sS'shot'
p1822
I1252
sS'\x93i\x92d'
p1823
I3838
sS'show'
p1824
I1896
sS'cheat'
p1825
I1897
sS'midsixti'
p1826
I1899
sS'doing\x92\x94'
p1827
I1282
sS'bonaparte\x92'
p1828
I399
sS'shoe'
p1829
I1903
sS'handwrit'
p1830
I1904
sS'come\x94'
p1831
I1330
sS'mister'
p1832
I1906
sS'fifth'
p1833
I1907
sS'\x93farrington\x94'
p1834
I879
sS'gnat'
p1835
I1350
sS'can\x92t'
p1836
I1910
sS'onli'
p1837
I1911
sS'slow'
p1838
I1360
sS'dice'
p1839
I1041
sS'stair'
p1840
I1914
sS'\x93can'
p1841
I1915
sS'\x93over'
p1842
I1916
sS'transact'
p1843
I1917
sS'dick'
p1844
I1918
sS'activ'
p1845
I1401
sS'jolt'
p1846
I1031
sS'dull'
p1847
I3587
sS'cucumb'
p1848
I1426
sS'black'
p1849
I1922
sS'pelvington'
p1850
I4139
sS'stain'
p1851
I1452
sS'offici'
p1852
I1614
sS'plump'
p1853
I1926
sS'get'
p1854
I1927
sS'lou\x94'
p1855
I545
sS'hiss'
p1856
I1986
sS'nobl'
p1857
I1545
sS'\x93see'
p1858
I1931
sS'tailor'
p1859
I1933
sS'factotum'
p1860
I1934
sS'safer'
p1861
I3793
sS'check\x94'
p1862
I1592
sS'pond'
p1863
I2717
sS'requir'
p1864
I1606
sS'\x93beautiful\x94'
p1865
I1939
sS'typewrit'
p1866
I1940
sS'\x93women\x94'
p1867
I1942
sS'oceanside\x85\x94'
p1868
I1645
sS'leather'
p1869
I1944
sS'laura\x97on'
p1870
I3505
sS'seldom'
p1871
I1945
sS'hostil'
p1872
I1946
sS'saliva'
p1873
I1947
sS'borrow'
p1874
I1948
sS'handcuff'
p1875
I1034
sS'doing\x94'
p1876
I1950
sS'landlord'
p1877
I1694
sS'baby\x94'
p1878
I4204
sS'\x93fill'
p1879
I1706
sS'clerk\x94'
p1880
I3223
sS'where'
p1881
I1955
sS'island'
p1882
I3888
sS'vision'
p1883
I1726
sS'\x93wine'
p1884
I1957
sS'beethoven'
p1885
I1959
sS'incid'
p1886
I1961
sS'sear'
p1887
I1770
sS'station'
p1888
I2949
sS'seat'
p1889
I1965
sS'working\x94'
p1890
I4821
sS'\x93look\x94'
p1891
I4534
sS'asleep'
p1892
I1967
sS'us'
p1893
I3595
sS'seam'
p1894
I1968
sS'broadway'
p1895
I2793
sS'#2'
p1896
I1971
sS'#1'
p1897
I1972
sS'concern'
p1898
I1850
sS'830'
p1899
I1975
sS'moldi'
p1900
I1976
sS'shut'
p1901
I4084
sS'laughter\x97it'
p1902
I1978
sS'here\x85who'
p1903
I1979
sS'review'
p1904
I1980
sS'befuddl'
p1905
I1893
sS'label'
p1906
I1982
sS'suitcase\x85'
p1907
I1983
sS'3'
p1908
I1920
sS'dufflebag\x94'
p1909
I4203
sS'between'
p1910
I1929
sS'import'
p1911
I1987
sS'across'
p1912
I1988
sS'pitiless'
p1913
I1989
sS'fight'
p1914
I1990
sS'parent'
p1915
I1993
sS'crazy\x94'
p1916
I1981
sS'ridin\x92'
p1917
I4404
sS'screen'
p1918
I1995
sS'style'
p1919
I1829
sS'friends\x94'
p1920
I1998
sS'blame'
p1921
I1999
sS'uncomb'
p1922
I2000
sS'brahm'
p1923
I2001
sS'\x92em'
p1924
I2002
sS'shortag'
p1925
I2003
sS'tub'
p1926
I2004
sS'come'
p1927
I2005
sS'timmi'
p1928
I2006
sS'she\x92ll'
p1929
I2007
sS'tug'
p1930
I2008
sS'oust'
p1931
I2009
sS'22'
p1932
I2802
sS'\x93sure\x94'
p1933
I2012
sS'tuck'
p1934
I2013
sS'reserved\x94'
p1935
I1788
sS'icecub'
p1936
I1807
sS'tour'
p1937
I2016
sS'roof'
p1938
I2017
sS'accentu'
p1939
I4480
sS'mani'
p1940
I2019
sS'starvat'
p1941
I2020
sS'sheaf'
p1942
I2022
sS'girder'
p1943
I2023
sS'joe'
p1944
I4410
sS'stretcher'
p1945
I2024
sS'\x93roast'
p1946
I2025
sS'cancer'
p1947
I2026
sS'color'
p1948
I2027
sS'pow'
p1949
I2028
sS'shostakovich\x85'
p1950
I184
sS'inspir'
p1951
I2030
sS'period'
p1952
I2031
sS'oxnard'
p1953
I2032
sS'60'
p1954
I2033
sS'61'
p1955
I2034
sS'62'
p1956
I2035
sS'63'
p1957
I2036
sS'64'
p1958
I2037
sS'65'
p1959
I2038
sS'66'
p1960
I2039
sS'67'
p1961
I2040
sS'68'
p1962
I2041
sS'69'
p1963
I2042
sS'crew'
p1964
I2043
sS'coloni'
p1965
I2044
sS'boat'
p1966
I2045
sS'tiniest'
p1967
I3608
sS'late'
p1968
I2809
sS'coupl'
p1969
I2049
sS'\x93of'
p1970
I2050
sS'stretch'
p1971
I2051
sS'west'
p1972
I1772
sS'jerki'
p1973
I2053
sS'tips\x94'
p1974
I2335
sS'alligator\x85'
p1975
I2055
sS'correct\x94'
p1976
I2056
sS'breath'
p1977
I2057
sS'\x93or'
p1978
I2058
sS'mind\x94'
p1979
I4275
sS'\x93ow'
p1980
I2059
sS'\x93$650'
p1981
I129
sS'evict'
p1982
I2061
sS'1030'
p1983
I2062
sS'reflex'
p1984
I2063
sS'500'
p1985
I2065
sS'doom\x92\x94'
p1986
I2066
sS'quartermil'
p1987
I2067
sS'\x93has'
p1988
I2068
sS'thousand'
p1989
I2071
sS'\x91standard'
p1990
I2282
sS'buy\x94'
p1991
I2074
sS'wake'
p1992
I2076
sS'rememb'
p1993
I4622
sS'greyhair'
p1994
I2078
sS'former'
p1995
I198
sS'those'
p1996
I2081
sS'wilbur'
p1997
I4420
sS'case'
p1998
I2083
sS'myself'
p1999
I2084
sS'these'
p2000
I2088
sS'personnel'
p2001
I4575
sS'mount'
p2002
I2089
sS'cash'
p2003
I2090
sS'fits\x85you'
p2004
I2091
sS'been\x94'
p2005
I2092
sS'trick'
p2006
I2093
sS'allnight'
p2007
I2094
sS'pizza'
p2008
I2097
sS'familiar'
p2009
I4320
sS'joke'
p2010
I4423
sS'15%'
p2011
I2100
sS'mound'
p2012
I2101
sS'cherub'
p2013
I2102
sS'\x93contact'
p2014
I2103
sS'many\x94'
p2015
I4375
sS'\x91love'
p2016
I2105
sS'thirtysix'
p2017
I2106
sS'vest'
p2018
I2107
sS'swallow'
p2019
I4436
sS'bedsheet'
p2020
I2108
sS'advantag'
p2021
I1262
sS'goof'
p2022
I2816
sS'fucked\x94'
p2023
I2111
sS'shit\x85\x94'
p2024
I4700
sS'worri'
p2025
I2112
sS'quiet'
p2026
I2014
sS'cluster'
p2027
I2114
sS'sudden'
p2028
I2115
sS'warehous'
p2029
I2116
sS'eras'
p2030
I2117
sS'dress\x94'
p2031
I2118
sS'nation'
p2032
I4560
sS'nearbi'
p2033
I2015
sS'shop\x94'
p2034
I2120
sS'housewif'
p2035
I2121
sS'helmet'
p2036
I2122
sS'turkeyneck\x94'
p2037
I2123
sS'\x93ha\x94'
p2038
I2125
sS'want\x94'
p2039
I1572
sS'pay'
p2040
I2128
sS'bluejean'
p2041
I2129
sS'medic'
p2042
I2130
sS'bowl'
p2043
I2131
sS'fewer'
p2044
I3730
sS'same'
p2045
I2133
sS'check'
p2046
I2134
sS'food'
p2047
I2820
sS'\x93spider'
p2048
I2136
sS'pad'
p2049
I2137
sS'sucker'
p2050
I2821
sS'moustach'
p2051
I2139
sS'admir'
p2052
I4432
sS'\x93chinaski'
p2053
I2141
sS'\x93your'
p2054
I2142
sS'pan'
p2055
I2143
sS'week'
p2056
I2144
sS'exhaust'
p2057
I2145
sS'\x932g\x94'
p2058
I2146
sS'belger'
p2059
I2147
sS'life\x92'
p2060
I2148
sS'see'
p2061
I3159
sS'sideway'
p2062
I2149
sS'applaud'
p2063
I2150
sS'assist'
p2064
I2151
sS'driver'
p2065
I2152
sS'someon'
p2066
I2153
sS'director'
p2067
I2154
sS'employed\x94'
p2068
I364
sS'improv'
p2069
I2157
sS'soreass'
p2070
I2681
sS'disown'
p2071
I2934
sS'nasty\x94'
p2072
I1044
sS'employment\x94'
p2073
I2162
sS'profession\x94'
p2074
I4461
sS'break'
p2075
I2165
sS'drain'
p2076
I2166
sS'so'
p2077
I4233
sS'grandfath'
p2078
I2167
sS'\x93shoot'
p2079
I2168
sS'no'
p2080
I2169
sS'notebook'
p2081
I4113
sS'justifi'
p2082
I2171
sS'hustl'
p2083
I2172
sS'without'
p2084
I2173
sS'demean'
p2085
I2174
sS'handtowel'
p2086
I40
sS'somebodi'
p2087
I2828
sS'\x93you'
p2088
I2178
sS'cameramen'
p2089
I2179
sS'\x93forget'
p2090
I2180
sS'taxi'
p2091
I2181
sS'summer'
p2092
I2182
sS'clog'
p2093
I2183
sS'situat'
p2094
I2604
sS'staircas'
p2095
I2184
sS'when'
p2096
I1182
sS'rest'
p2097
I2186
sS'clot'
p2098
I2187
sS'violent'
p2099
I2188
sS'endicott\x94'
p2100
I2189
sS'kill'
p2101
I2190
sS'touch'
p2102
I2191
sS'polish'
p2103
I2192
sS'speed'
p2104
I3174
sS'orderly\x97500'
p2105
I2194
sS'halfway'
p2106
I2195
sS'blow'
p2107
I2196
sS'york'
p2108
I4094
sS'76'
p2109
I4583
sS'too\x97we\x92d'
p2110
I1712
sS'europ'
p2111
I2199
sS'\x93get'
p2112
I1741
sS'rose'
p2113
I2201
sS'\x93who\x94'
p2114
I2202
sS'broke\x94'
p2115
I2203
sS'\x93who\x92'
p2116
I2204
sS'except'
p2117
I2205
sS'littl'
p2118
I2206
sS'know\x85\x94'
p2119
I2207
sS'instrument'
p2120
I2208
sS'dice\x94'
p2121
I2209
sS'pile'
p2122
I2210
sS'4'
p2123
I2211
sS'irrespons'
p2124
I2212
sS'stopwatch'
p2125
I3285
sS'struck'
p2126
I2214
sS'willie\x92'
p2127
I2215
sS'pill'
p2128
I866
sS'second\x85'
p2129
I2218
sS'lade'
p2130
I141
sS'out\x94'
p2131
I2220
sS'around'
p2132
I2221
sS'choic'
p2133
I2222
sS'read'
p2134
I2223
sS'mop'
p2135
I2224
sS'ladi'
p2136
I2225
sS'gonna'
p2137
I2226
sS'free\x94'
p2138
I2227
sS'postag'
p2139
I2228
sS'anchovi'
p2140
I2229
sS'traffic'
p2141
I2230
sS'insist'
p2142
I2231
sS'dock'
p2143
I4019
sS'vacuum'
p2144
I2232
sS'world'
p2145
I2233
sS'railroad'
p2146
I2234
sS'execution'
p2147
I2235
sS'dare'
p2148
I2237
sS'five\x94'
p2149
I2238
sS'clam'
p2150
I2239
sS'snore'
p2151
I1932
sS'\x93hank'
p2152
I2241
sS'hugh\x94'
p2153
I2242
sS'hotel'
p2154
I2970
sS'pregnant'
p2155
I2833
sS'\x93ten'
p2156
I2243
sS'\x93you\x92ll'
p2157
I2244
sS'roll'
p2158
I2246
sS'tumblewe'
p2159
I2247
sS'benefit'
p2160
I2248
sS'booze\x97ther'
p2161
I2109
sS'clay'
p2162
I2250
sS'manpow'
p2163
I2251
sS'\x93swell\x94'
p2164
I2252
sS'dirtier'
p2165
I1198
sS'realiti'
p2166
I2254
sS'manag'
p2167
I2255
sS'isn\x92t\x94'
p2168
I2064
sS'arrangement\x85i\x92v'
p2169
I2257
sS'strange\x94'
p2170
I2258
sS'\x93henry\x92'
p2171
I2259
sS'curtains\x94'
p2172
I2260
sS'embarrassed\x94'
p2173
I2261
sS'either\x94'
p2174
I2262
sS'schlitz\x94'
p2175
I2263
sS'better\x92\x94'
p2176
I2264
sS'possible\x94'
p2177
I2265
sS'care\x97with'
p2178
I1487
sS'lobster'
p2179
I2267
sS'fivec'
p2180
I2268
sS'jizz\x94'
p2181
I3016
sS'root'
p2182
I1379
sS'gym\x85'
p2183
I2270
sS'joan'
p2184
I2271
sS'maurice\x92'
p2185
I4453
sS'applicants\x94'
p2186
I2273
sS'slice'
p2187
I2275
sS'mood'
p2188
I1702
sS'tote'
p2189
I2277
sS'easili'
p2190
I2840
sS'deliveri'
p2191
I4777
sS'paperboy'
p2192
I4455
sS'noon'
p2193
I2279
sS'definit'
p2194
I2280
sS'moon'
p2195
I2281
sS'\x932122'
p2196
I4535
sS'exit'
p2197
I2284
sS'unbeliev'
p2198
I813
sS'evapor'
p2199
I2286
sS'ointment'
p2200
I3432
sS'knife'
p2201
I2288
sS'refer'
p2202
I2289
sS'woman\x94'
p2203
I2290
sS'carmen\x97'
p2204
I4812
sS'hardback'
p2205
I2291
sS'power'
p2206
I2292
sS'quit'
p2207
I4458
sS'sixti'
p2208
I2293
sS'sixth'
p2209
I2294
sS'garbag'
p2210
I2295
sS'\x93shit'
p2211
I4339
sS'broken'
p2212
I2298
sS'polack'
p2213
I2299
sS'let\x92'
p2214
I2300
sS'frontfir'
p2215
I2301
sS'here\x92'
p2216
I2737
sS'found'
p2217
I2842
sS'\x93me'
p2218
I2303
sS'sadder'
p2219
I2304
sS'dick\x94'
p2220
I2305
sS'throw'
p2221
I2306
sS'earlier'
p2222
I2307
sS'on'
p2223
I2309
sS'advertising\x94'
p2224
I2310
sS'ok'
p2225
I2311
sS'\x93\x85mi'
p2226
I2312
sS'\x93room'
p2227
I557
sS'roar'
p2228
I2314
sS'dancing\x94'
p2229
I1176
sS'jeer'
p2230
I2316
sS'ach'
p2231
I2317
sS'dancer\x94'
p2232
I2318
sS'meaning'
p2233
I2319
sS'slender'
p2234
I2320
sS'meal'
p2235
I2321
sS'\x93here'
p2236
I2322
sS'process\x94'
p2237
I2323
sS'intens'
p2238
I2324
sS'wolf'
p2239
I2325
sS'stand'
p2240
I2326
sS'roam'
p2241
I1677
sS'wife\x94'
p2242
I2328
sS'skylights\x97that'
p2243
I4804
sS'stank'
p2244
I2329
sS'ot'
p2245
I972
sS'\x93ok'
p2246
I2331
sS'road'
p2247
I2332
sS'howard'
p2248
I2333
sS'whitey'
p2249
I2334
sS'hooked\x94'
p2250
I4089
sS'longsleev'
p2251
I2336
sS'job\x92'
p2252
I3776
sS'sick\x94'
p2253
I2338
sS'trot'
p2254
I2339
sS'wet\x94'
p2255
I2340
sS'\x93martha'
p2256
I2341
sS'surviv'
p2257
I2343
sS'earring'
p2258
I2344
sS'indol'
p2259
I2345
sS'\x93to'
p2260
I3748
sS'strip'
p2261
I2346
sS'pivot'
p2262
I2347
sS'nurs'
p2263
I2348
sS'manager\x92'
p2264
I2349
sS'famous\x94'
p2265
I2350
sS'your'
p2266
I2351
sS'chinaski'
p2267
I2352
sS'fast'
p2268
I2354
sS'jowl'
p2269
I4536
sS'her'
p2270
I2356
sS'area'
p2271
I2357
sS'gleam'
p2272
I2358
sS'there'
p2273
I2359
sS'madden'
p2274
I276
sS'student\x94'
p2275
I2362
sS'go\x85\x94'
p2276
I513
sS'fascin'
p2277
I2079
sS'drank'
p2278
I4469
sS'budg'
p2279
I2366
sS'low'
p2280
I2367
sS'lot'
p2281
I2368
sS'lou'
p2282
I2369
sS'submiss'
p2283
I4176
sS'deserv'
p2284
I3653
sS'alameda'
p2285
I2371
sS'admit'
p2286
I4624
sS'typing\x94'
p2287
I1578
sS'bottl'
p2288
I2375
sS'hard'
p2289
I2851
sS'jug'
p2290
I2377
sS'groan'
p2291
I2378
sS'enough'
p2292
I2379
sS'frank'
p2293
I4087
sS'teddi'
p2294
I2060
sS'crack'
p2295
I4613
sS'spider'
p2296
I2384
sS'land'
p2297
I3656
sS'terrifi'
p2298
I2854
sS'asbesto'
p2299
I2386
sS'realli'
p2300
I2388
sS'with'
p2301
I2389
sS'wholes'
p2302
I2391
sS'what\x92'
p2303
I1094
sS'\x93mantz'
p2304
I2308
sS'hire'
p2305
I2394
sS'yes\x85\x94'
p2306
I2395
sS'dirti'
p2307
I2396
sS'possibl'
p2308
I2397
sS'biscuit'
p2309
I4732
sS'\x93old'
p2310
I2398
sS'potato'
p2311
I2399
sS'bucket'
p2312
I2400
sS'nearest'
p2313
I3823
sS'horseplay'
p2314
I2402
sS'unusu'
p2315
I2403
sS'feeler'
p2316
I2405
sS'embed'
p2317
I2406
sS'nogood'
p2318
I2407
sS'connect'
p2319
I2859
sS'aa'
p2320
I2409
sS'gone'
p2321
I2410
sS'hadn\x92t'
p2322
I2411
sS'tasti'
p2323
I2412
sS'obvious\x94'
p2324
I1587
sS'legs\x94'
p2325
I3661
sS'ass\x85'
p2326
I2414
sS'certain'
p2327
I2415
sS'doug'
p2328
I2416
sS'am'
p2329
I2417
sS'doctor'
p2330
I2126
sS'deep'
p2331
I2419
sS'nerv'
p2332
I1279
sS'as'
p2333
I2421
sS'at'
p2334
I2422
sS'file'
p2335
I2423
sS'cultur'
p2336
I2424
sS'girlfriend'
p2337
I2425
sS'ass\x94'
p2338
I2426
sS'film'
p2339
I2427
sS'fill'
p2340
I2428
sS'drain\x94'
p2341
I2429
sS'again'
p2342
I2430
sS'morning\x94'
p2343
I2431
sS'\x93turn'
p2344
I2432
sS'idiot'
p2345
I752
sS'collin'
p2346
I2434
sS'esprito'
p2347
I701
sS'rubber'
p2348
I2438
sS'tight'
p2349
I2439
sS'compet'
p2350
I2440
sS'$1040'
p2351
I2441
sS'horseplayer\x94'
p2352
I2443
sS'me\x85\x94'
p2353
I2444
sS'you'
p2354
I2445
sS'trash'
p2355
I2446
sS'\x93report'
p2356
I2447
sS'juic'
p2357
I2448
sS'poor'
p2358
I2449
sS'polar'
p2359
I2450
sS'eh\x94'
p2360
I2451
sS'championship'
p2361
I3721
sS'he\x92'
p2362
I2453
sS'marriag'
p2363
I1119
sS'\x93befor'
p2364
I2296
sS'walks\x97until'
p2365
I2456
sS'cocksuck'
p2366
I2457
sS'star\x94'
p2367
I2458
sS'are\x94'
p2368
I2459
sS'walking\x94'
p2369
I2460
sS'kingsley'
p2370
I2461
sS'serious'
p2371
I2462
sS'velvet'
p2372
I2463
sS'pooh'
p2373
I2464
sS'crumpl'
p2374
I2465
sS'peac'
p2375
I2466
sS'admiss'
p2376
I916
sS'reduc'
p2377
I646
sS'wife'
p2378
I2470
sS'\x93no'
p2379
I2471
sS'ovari'
p2380
I2472
sS'$32'
p2381
I2473
sS'hardon'
p2382
I2474
sS'tracks\x94'
p2383
I2475
sS'moonlight'
p2384
I2476
sS'lipstick'
p2385
I2477
sS'mast'
p2386
I1076
sS'\x93uh\x94'
p2387
I2479
sS'adam'
p2388
I2480
sS'castl'
p2389
I2481
sS'but\x85\x94'
p2390
I2482
sS'appl'
p2391
I4767
sS'invoic'
p2392
I2483
sS'you\x94'
p2393
I2484
sS'handler\x94'
p2394
I0
sS'all'
p2395
I2486
sS'\x93tony\x94'
p2396
I4133
sS'consider'
p2397
I2360
sS'vile'
p2398
I2488
sS'messi'
p2399
I2489
sS'cucumber\x94'
p2400
I2490
sS'him\x94'
p2401
I2491
sS'yourself\x92\x94'
p2402
I41
sS'dollar'
p2403
I2493
sS'monti'
p2404
I2494
sS'ala'
p2405
I2070
sS'sunk'
p2406
I2496
sS'atlant'
p2407
I2497
sS'shimmi'
p2408
I1974
sS'shitstain'
p2409
I2499
sS'abil'
p2410
I73
sS'furnitur'
p2411
I4487
sS'dish'
p2412
I2502
sS'follow'
p2413
I2503
sS'him\x85'
p2414
I2504
sS'children'
p2415
I99
sS'mention\x94'
p2416
I2507
sS'carpet'
p2417
I105
sS'lying\x94'
p2418
I2509
sS'bulg'
p2419
I4489
sS'rubbers\x94'
p2420
I2095
sS'hour\x92'
p2421
I170
sS'alabam'
p2422
I174
sS'program'
p2423
I2514
sS'drainpip'
p2424
I2515
sS'\x93whatsa'
p2425
I2516
sS'hour\x94'
p2426
I2517
sS'crimson'
p2427
I2518
sS'smile'
p2428
I2519
sS'introduc'
p2429
I2520
sS'hill'
p2430
I2872
sS'sound'
p2431
I2521
sS'\xfcber'
p2432
I241
sS'7'
p2433
I2873
sS'song'
p2434
I259
sS'yourself\x94'
p2435
I2525
sS'fuck\x94'
p2436
I2526
sS'tent'
p2437
I4398
sS'mph'
p2438
I692
sS'vera'
p2439
I2530
sS'army\x94'
p2440
I2874
sS'fathom\x94'
p2441
I2532
sS'novel'
p2442
I4492
sS'worst'
p2443
I2533
sS'scour'
p2444
I2534
sS'\x91what'
p2445
I2535
sS'clench'
p2446
I324
sS'veri'
p2447
I2537
sS'24th'
p2448
I336
sS'soften'
p2449
I2539
sS'avenue\x94'
p2450
I2401
sS'fourth'
p2451
I4010
sS'nineteen\x94'
p2452
I2542
sS'heaven'
p2453
I369
sS'malt'
p2454
I2690
sS'500\x94'
p2455
I2545
sS'list'
p2456
I2546
sS'sang'
p2457
I2548
sS'sand'
p2458
I2549
sS'adjust'
p2459
I2550
sS'small'
p2460
I2551
sS'sank'
p2461
I2553
sS'exhal'
p2462
I3948
sS'dimens'
p2463
I76
sS'ass'
p2464
I2877
sS'neighborhood'
p2465
I2556
sS'withheld'
p2466
I2557
sS'ten'
p2467
I2558
sS'difficulti'
p2468
I2878
sS'195'
p2469
I500
sS'194'
p2470
I2561
sS'paso'
p2471
I2562
sS'191'
p2472
I510
sS'aisl'
p2473
I2564
sS'\x91paul'
p2474
I2565
sS'192'
p2475
I524
sS'tex'
p2476
I527
sS'go'
p2477
I3682
sS'biolog'
p2478
I93
sS'pressur'
p2479
I2570
sS'silverstein'
p2480
I2571
sS'lawyer'
p2481
I2572
sS'pass'
p2482
I2573
sS'really\x94'
p2483
I2574
sS'further'
p2484
I2575
sS'\x93probabl'
p2485
I2576
sS'ribbon'
p2486
I2577
sS'pinstrip'
p2487
I2882
sS'excit'
p2488
I2579
sS'serv'
p2489
I2580
sS'dial'
p2490
I595
sS'sud'
p2491
I2582
sS'stood'
p2492
I2583
sS'\x93graduat'
p2493
I608
sS'sun'
p2494
I2585
sS'disgusting\x94'
p2495
I615
sS'pancak'
p2496
I2587
sS'stool'
p2497
I621
sS'falsifi'
p2498
I1898
sS'tampax'
p2499
I629
sS'stoop'
p2500
I2591
sS'public'
p2501
I2597
sS'\x93where'
p2502
I2592
sS'son\x94'
p2503
I2593
sS'fucki'
p2504
I2594
sS'\x93baby\x94'
p2505
I2596
sS'unkind'
p2506
I1913
sS'\x93nah'
p2507
I2598
sS'turmoil'
p2508
I2599
sS'full'
p2509
I2600
sS'businessmens\x92'
p2510
I2601
sS'halfass'
p2511
I2602
sS'pacif'
p2512
I2603
sS'variat'
p2513
I717
sS'proper'
p2514
I4680
sS'decid'
p2515
I1259
sS'along\x94'
p2516
I2606
sS'middl'
p2517
I1260
sS'will'
p2518
I4497
sS'goodby'
p2519
I2607
sS'cheyenn'
p2520
I1792
sS'thanksgiving\x94'
p2521
I2609
sS'lotta'
p2522
I2276
sS'pleasant'
p2523
I2892
sS'search'
p2524
I816
sS'\x93do'
p2525
I4503
sS'college\x94'
p2526
I2613
sS'ahead'
p2527
I2614
sS'courthous'
p2528
I2615
sS'sun\x92'
p2529
I842
sS'made\x94'
p2530
I2617
sS'\x93damn'
p2531
I2618
sS'through'
p2532
I2790
sS'spotlight'
p2533
I4451
sS'hector\x92'
p2534
I2621
sS'soldier'
p2535
I2622
sS'amount'
p2536
I2623
sS'healthier'
p2537
I2624
sS'ashtray'
p2538
I4343
sS'\x93\x91530\x94'
p2539
I2625
sS'ladder\x94'
p2540
I895
sS'action'
p2541
I900
sS'luck'
p2542
I2330
sS'link'
p2543
I3582
sS'fixture\x94'
p2544
I2629
sS'talk\x94'
p2545
I128
sS'engrav'
p2546
I2631
sS'depart'
p2547
I2632
sS'geraldin'
p2548
I968
sS'puncher'
p2549
I2635
sS'young'
p2550
I3694
sS'turtl'
p2551
I2637
sS'towel'
p2552
I2467
sS'purchas'
p2553
I2639
sS'send'
p2554
I3695
sS'famili'
p2555
I1010
sS'\x91no'
p2556
I3221
sS'\x91i'
p2557
I2642
sS'give\x97it\x92'
p2558
I330
sS'select'
p2559
I2644
sS'balls\x94'
p2560
I2645
sS'aggress'
p2561
I2646
sS'eye'
p2562
I2647
sS'home\x94'
p2563
I4510
sS'leav'
p2564
I4701
sS'distinct'
p2565
I2650
sS'petti'
p2566
I2651
sS'etc'
p2567
I4429
sS'regist'
p2568
I1080
sS'puke'
p2569
I2156
sS'vote'
p2570
I2654
sS'pearl'
p2571
I2656
sS'splash'
p2572
I2658
sS'morn'
p2573
I2659
sS'6'
p2574
I2660
sS'nauseat'
p2575
I1129
sS'kick'
p2576
I4618
sS'$60000'
p2577
I2663
sS'minor'
p2578
I2664
sS'more'
p2579
I2665
sS'goodnight'
p2580
I4190
sS'flat'
p2581
I1156
sS'diamond'
p2582
I2667
sS'door'
p2583
I1169
sS'need\x94'
p2584
I1174
sS'tumbl'
p2585
I2670
sS'hundr'
p2586
I2671
sS'hurri'
p2587
I2672
sS'problem'
p2588
I4820
sS'\x93christin'
p2589
I2674
sS'plant'
p2590
I2675
sS'broke'
p2591
I2677
sS'particular'
p2592
I2678
sS'known'
p2593
I1245
sS'mellow'
p2594
I1256
sS'\x93mickey\x94'
p2595
I2113
sS'nineteen'
p2596
I2682
sS'clark\x92'
p2597
I2683
sS'glad'
p2598
I2684
sS'town'
p2599
I2685
sS'none'
p2600
I2686
sS'hour'
p2601
I2687
sS'hous'
p2602
I2688
sS'daddy\x94'
p2603
I2689
sS'earwax'
p2604
I1459
sS'policemen'
p2605
I2691
sS'\x93casablanca\x94'
p2606
I2692
sS'roosevelt'
p2607
I2693
sS'histori'
p2608
I2694
sS'number\x94'
p2609
I1339
sS'hesit'
p2610
I2696
sS'nine'
p2611
I171
sS'wrestler'
p2612
I1351
sS'learn'
p2613
I2699
sS'sahara'
p2614
I2700
sS'wellrest'
p2615
I2701
sS'funny\x94'
p2616
I2702
sS'pick'
p2617
I2626
sS'explod'
p2618
I2703
sS'orlean'
p2619
I2704
sS'conversationalist'
p2620
I2705
sS'prompt'
p2621
I2706
sS'doorway'
p2622
I4430
sS'brown'
p2623
I1276
sS'of'
p2624
I2315
sS'challeng'
p2625
I2708
sS'share'
p2626
I2709
sS'accept'
p2627
I2710
sS'\x93what\x94'
p2628
I2712
sS'compart'
p2629
I2713
sS'meat\x97listen'
p2630
I624
sS'explos'
p2631
I1483
sS'gallon'
p2632
I340
sS'scar'
p2633
I1502
sS'dress'
p2634
I2719
sS'trouser'
p2635
I2266
sS'lady\x92'
p2636
I2721
sS'creas'
p2637
I4441
sS'horse\x92'
p2638
I1527
sS'fake\x97ther'
p2639
I2698
sS'cours'
p2640
I1537
sS'court'
p2641
I2725
sS'confus'
p2642
I1554
sS'intoxication\x94'
p2643
I3504
sS'secur'
p2644
I1556
sS'rather'
p2645
I2728
sS'wouldn\x92t'
p2646
I1564
sS'operator\x92'
p2647
I1571
sS'hugh'
p2648
I1574
sS'perhap'
p2649
I2911
sS'paddi'
p2650
I4598
sS'fame'
p2651
I2733
sS'\x93jesus'
p2652
I2735
sS'cling'
p2653
I2736
sS'reject'
p2654
I1622
sS'\x93as'
p2655
I2738
sS'dishwashers\x94'
p2656
I954
sS'strong'
p2657
I2608
sS'simpl'
p2658
I2740
sS'needl'
p2659
I2741
sS'\x93at'
p2660
I2742
sS'horses\x94'
p2661
I1661
sS'take\x94'
p2662
I1937
sS'sandwich'
p2663
I2745
sS'rude'
p2664
I2746
sS'whirl'
p2665
I4525
sS'pri'
p2666
I2749
sS'sneak'
p2667
I1700
sS'reflect'
p2668
I2751
sS'wolcott'
p2669
I4291
sS'blood'
p2670
I2752
sS'gasp'
p2671
I2753
sS'wave'
p2672
I3714
sS'plank'
p2673
I2756
sS'shit\x94'
p2674
I2757
sS'a'
p2675
I2758
sS'twelv'
p2676
I1949
sS'crackl'
p2677
I2760
sS'ani'
p2678
I1825
sS'onto'
p2679
I709
sS'flanges\x94'
p2680
I2763
sS'convuls'
p2681
I1258
sS'this\x85i'
p2682
I2765
sS'racetrack'
p2683
I1827
sS'pelvington\x94'
p2684
I1834
sS'caus'
p2685
I2769
sS'louver'
p2686
I2770
sS'\x93bower'
p2687
I2771
sS'hog\x94'
p2688
I1857
sS'cigarett'
p2689
I2773
sS'sexless'
p2690
I2774
sS'\x93broke\x94'
p2691
I2775
sS'extric'
p2692
I1875
sS'$208'
p2693
I723
sS'began'
p2694
I4530
sS'esquir'
p2695
I2779
sS'headlight'
p2696
I4531
sS'mexican'
p2697
I2780
sS'help'
p2698
I2781
sS'pant'
p2699
I2782
sS'dispens'
p2700
I2783
sS'$25'
p2701
I2784
sS'slouch'
p2702
I2785
sS'soon'
p2703
I2786
sS'trade'
p2704
I2787
sS'held'
p2705
I2788
sS'paper'
p2706
I2789
sS'dough'
p2707
I1953
sS'steril'
p2708
I2791
sS'brim'
p2709
I2792
sS'hell'
p2710
I1969
sS'suffer'
p2711
I2794
sS'harper\x92'
p2712
I2795
sS'24'
p2713
I2796
sS'25'
p2714
I2797
sS'small\x97almost'
p2715
I560
sS'27'
p2716
I2799
sS'20'
p2717
I2800
sS'21'
p2718
I2801
sS'glide'
p2719
I2011
sS'23'
p2720
I2803
sS'\x93wait'
p2721
I2804
sS'they\x92ll'
p2722
I2805
sS'28'
p2723
I2806
sS'29'
p2724
I2807
sS'mattress'
p2725
I2808
sS'parts\x94'
p2726
I2047
sS'grade'
p2727
I2810
sS'house\x94'
p2728
I2811
sS'exchang'
p2729
I2923
sS'eunuch'
p2730
I2080
sS'might'
p2731
I2813
sS'barkeep'
p2732
I3601
sS'peni'
p2733
I2814
sS'fool'
p2734
I2815
sS'\x93let\x92'
p2735
I2739
sS'way\x94'
p2736
I1930
sS'grubbi'
p2737
I958
sS'return'
p2738
I2818
sS'janeway'
p2739
I2819
sS'ya'
p2740
I2135
sS'sentenc'
p2741
I2138
sS'largest'
p2742
I4539
sS'hunter'
p2743
I2823
sS'wouldb'
p2744
I2824
sS'map\x94'
p2745
I2825
sS'\x93she\x92'
p2746
I2744
sS'gracious'
p2747
I2827
sS'vomit'
p2748
I2177
sS'zinc'
p2749
I2500
sS'foot'
p2750
I2829
sS'disgrac'
p2751
I3723
sS'cafe'
p2752
I3619
sS'complain'
p2753
I2831
sS'bigger'
p2754
I2832
sS'wash'
p2755
I2505
sS'level'
p2756
I2835
sS'war\x85\x94'
p2757
I2836
sS'unlik'
p2758
I2837
sS'radiat'
p2759
I2838
sS'bless'
p2760
I2839
sS'tear'
p2761
I2552
sS'\x93so'
p2762
I2841
sS'fulli'
p2763
I2302
sS'out'
p2764
I4069
sS'even\x94'
p2765
I1275
sS'roebuck'
p2766
I2844
sS'status'
p2767
I2845
sS'cost'
p2768
I2846
sS'weight'
p2769
I2847
sS'fish'
p2770
I2850
sS'yellow\x94'
p2771
I2376
sS'bifoc'
p2772
I2852
sS'idea'
p2773
I2853
sS'subtle\x94'
p2774
I2385
sS'how\x92d'
p2775
I2104
sS'heavi'
p2776
I2856
sS'177'
p2777
I2857
sS'finish'
p2778
I2858
sS'expect'
p2779
I2408
sS'fist'
p2780
I1268
sS'drinks\x94'
p2781
I2861
sS'pot'
p2782
I2029
sS'beyond'
p2783
I2862
sS'thick'
p2784
I484
sS'flower'
p2785
I2864
sS'safeti'
p2786
I2865
sS'alcohol'
p2787
I662
sS'173'
p2788
I2072
sS'bill'
p2789
I3299
sS'pigeon'
p2790
I2868
sS'publish'
p2791
I2869
sS'bubbl'
p2792
I2870
sS'abl'
p2793
I2588
sS'171'
p2794
I253
sS'shipment'
p2795
I2523
sS'print'
p2796
I2531
sS'unpunctur'
p2797
I2875
sS'driving\x94'
p2798
I2876
sS'smock'
p2799
I2555
sS'thirtyf'
p2800
I2559
sS'all\x85'
p2801
I2387
sS'drink'
p2802
I4549
sS'exodus'
p2803
I2881
sS'obeis'
p2804
I2578
sS'dirt'
p2805
I1382
sS'\x93nobody\x92'
p2806
I2885
sS'upon'
p2807
I4550
sS'puf'
p2808
I2887
sS'pug'
p2809
I27
sS'snuggl'
p2810
I2889
sS'guess'
p2811
I2939
sS'hunter\x94'
p2812
I4551
sS'wobbl'
p2813
I2764
sS'quick'
p2814
I2893
sS'reason'
p2815
I2894
sS'all\x94'
p2816
I2895
sS'housew'
p2817
I2630
sS'quicki'
p2818
I2170
sS'fine\x94'
p2819
I2898
sS'teach'
p2820
I2899
sS'ash'
p2821
I2900
sS'pancakes\x94'
p2822
I2655
sS'guest'
p2823
I2941
sS'thrown'
p2824
I349
sS'faucet'
p2825
I2905
sS'thread'
p2826
I2906
sS'93'
p2827
I2908
sS'advanc'
p2828
I2884
sS'struggl'
p2829
I2718
sS'sicken'
p2830
I2910
sS'american'
p2831
I2732
sS'4f\x94'
p2832
I2912
sS'it\x94'
p2833
I2913
sS'blush'
p2834
I2914
sS'fallen'
p2835
I2048
sS'virgin'
p2836
I88
sS'undersid'
p2837
I2917
sS'feed'
p2838
I2918
sS'trains\x94'
p2839
I2919
sS'understand\x94'
p2840
I933
sS'soapi'
p2841
I2921
sS'feel'
p2842
I2922
sS'articl'
p2843
I2511
sS'dure'
p2844
I4832
sS'number'
p2845
I2924
sS'window\x94'
p2846
I2925
sS'feet'
p2847
I2926
sS'elder'
p2848
I1490
sS'unwash'
p2849
I1703
sS'smaller'
p2850
I3744
sS'done'
p2851
I2929
sS'unhealthi'
p2852
I2930
sS'blank'
p2853
I2931
sS'600'
p2854
I4456
sS'horribl'
p2855
I2932
sS'chinaski\x94'
p2856
I2392
sS'miss'
p2857
I2933
sS'fanci'
p2858
I2935
sS'meadow'
p2859
I2469
sS'beret'
p2860
I2937
sS'razor'
p2861
I68
sS'differ'
p2862
I2890
sS'weep'
p2863
I2160
sS'jew'
p2864
I2903
sS'grimi'
p2865
I2907
sS'\x93joey\x94'
p2866
I4443
sS'grime'
p2867
I2943
sS'stori'
p2868
I2948
sS'least'
p2869
I2945
sS'182'
p2870
I4006
sS'183'
p2871
I871
sS'180'
p2872
I2944
sS'181'
p2873
I1050
sS'186'
p2874
I2950
sS'187'
p2875
I2951
sS'184'
p2876
I2952
sS'185'
p2877
I1421
sS'mama'
p2878
I2954
sS'fought'
p2879
I2955
sS'188'
p2880
I2956
sS'189'
p2881
I2957
sS'jen'
p2882
I1504
sS'huh\x94'
p2883
I2959
sS'store'
p2884
I2960
sS'adhes'
p2885
I2961
sS'bemi'
p2886
I2962
sS'night\x92'
p2887
I2963
sS'assign'
p2888
I2768
sS'night\x94'
p2889
I2965
sS'behind'
p2890
I1984
sS'month'
p2891
I2495
sS'year\x97aft'
p2892
I2968
sS'yeah\x94'
p2893
I2969
sS'security\x94'
p2894
I2529
sS'park'
p2895
I2971
sS'paycheck'
p2896
I4563
sS'asshol'
p2897
I2972
sS'graci'
p2898
I2973
sS'dentist'
p2899
I2974
sS'part'
p2900
I2975
sS'bower'
p2901
I2976
sS'190'
p2902
I2977
sS'word'
p2903
I3497
sS'consult'
p2904
I2978
sS'bobby\x92'
p2905
I2364
sS'$2'
p2906
I2980
sS'grace'
p2907
I2981
sS'noseble'
p2908
I2982
sS'exposur'
p2909
I2983
sS'kind'
p2910
I2984
sS'grew'
p2911
I2985
sS'\x93they'
p2912
I2986
sS'whenev'
p2913
I2988
sS'emperor\x94'
p2914
I2989
sS'well\x97w'
p2915
I2958
sS'remov'
p2916
I2991
sS'grey'
p2917
I2992
sS'banana'
p2918
I2994
sS'groceri'
p2919
I2995
sS'overtim'
p2920
I1254
sS'cuff'
p2921
I2997
sS'merciless'
p2922
I2998
sS'\x93i\x92ll'
p2923
I2999
sS'arrang'
p2924
I3001
sS'rug\x94'
p2925
I3002
sS'toward'
p2926
I3003
sS'danc'
p2927
I3211
sS'\x93boss'
p2928
I771
sS'booth'
p2929
I3756
sS'cleaner'
p2930
I1349
sS'vacant'
p2931
I3008
sS'squeegi'
p2932
I3009
sS'83'
p2933
I4837
sS'trainload'
p2934
I3010
sS'starv'
p2935
I4731
sS'heaviest'
p2936
I3011
sS'overwork'
p2937
I4571
sS'packag'
p2938
I3013
sS'murder'
p2939
I3014
sS'blond'
p2940
I3015
sS'\x93drink'
p2941
I2337
sS'\x93sun\x92'
p2942
I1844
sS'morgu'
p2943
I3018
sS'uncommun'
p2944
I3020
sS'didn\x92t'
p2945
I2909
sS'sell'
p2946
I3021
sS'imagin'
p2947
I3022
sS'built'
p2948
I3023
sS'madhous'
p2949
I3024
sS'blanco'
p2950
I3025
sS'trip'
p2951
I3026
sS'type\x97custom'
p2952
I3027
sS'mixtur'
p2953
I3053
sS'river\x92\x94'
p2954
I3028
sS'scotland'
p2955
I3029
sS'minutes\x94'
p2956
I3030
sS'couch'
p2957
I3032
sS'k3'
p2958
I3033
sS'moist'
p2959
I3034
sS'sixfoot'
p2960
I3035
sS'lip'
p2961
I3036
sS'silent'
p2962
I1757
sS'who\x92'
p2963
I3357
sS'donor'
p2964
I3039
sS'screwdriv'
p2965
I3040
sS'\x93number'
p2966
I3041
sS'tool'
p2967
I3043
sS'relief'
p2968
I3044
sS'foreman'
p2969
I3045
sS'play'
p2970
I3046
sS'farrington\x94'
p2971
I2720
sS'\x93yeh\x94'
p2972
I3048
sS'distribut'
p2973
I3049
sS'stare'
p2974
I4083
sS'rail\x94'
p2975
I3050
sS'guitar'
p2976
I2716
sS'chart'
p2977
I2755
sS'77'
p2978
I3054
sS'yawn'
p2979
I1097
sS'75'
p2980
I3056
sS'74'
p2981
I3057
sS'73'
p2982
I3058
sS'plan'
p2983
I3019
sS'eaten'
p2984
I3060
sS'wive'
p2985
I2390
sS'watt'
p2986
I3062
sS'suitcas'
p2987
I3063
sS'79'
p2988
I2433
sS'lazili'
p2989
I2761
sS'forward\x94'
p2990
I3066
sS'labels\x94'
p2991
I3068
sS'serious\x94'
p2992
I3069
sS'vacanc'
p2993
I3070
sS'clear'
p2994
I3071
sS'193'
p2995
I3072
sS'cover'
p2996
I3073
sS'knows\x94'
p2997
I3074
sS'eye\x94'
p2998
I2595
sS'from\x94'
p2999
I3076
sS'dress\x97then'
p3000
I3077
sS'clean'
p3001
I3078
sS'narrow'
p3002
I2628
sS'barren'
p3003
I3080
sS'weigh'
p3004
I3081
sS'barrel'
p3005
I3082
sS'notch'
p3006
I3083
sS'first\x94'
p3007
I3084
sS'\x93sit'
p3008
I3085
sS'nonchal'
p3009
I3086
sS'paul'
p3010
I4597
sS'think'
p3011
I1731
sS'overcam'
p3012
I3087
sS'ridicul'
p3013
I3088
sS'asphalt'
p3014
I3089
sS'bedroom\x94'
p3015
I3769
sS'\x93mousey\x94'
p3016
I979
sS'years\x94'
p3017
I3092
sS'sophist'
p3018
I2605
sS'drawer'
p3019
I3875
sS'smithson'
p3020
I3094
sS'opera\x94'
p3021
I3095
sS'freight'
p3022
I3096
sS'find\x94'
p3023
I3098
sS'fine'
p3024
I3100
sS'find'
p3025
I3101
sS'\x93manni'
p3026
I3102
sS'mcbride'
p3027
I4789
sS'ambit'
p3028
I3103
sS'$5'
p3029
I2979
sS'holi'
p3030
I3105
sS'pretti'
p3031
I3106
sS'music'
p3032
I3107
sS'nervous'
p3033
I3108
sS'ruin'
p3034
I3109
sS'writer'
p3035
I3110
sS'ball'
p3036
I4545
sS'\x93laura\x85\x94'
p3037
I3111
sS'clipboard'
p3038
I3772
sS'money'
p3039
I2185
sS'sixpack'
p3040
I1343
sS'sure'
p3041
I1855
sS'juke'
p3042
I3115
sS'hip'
p3043
I3116
sS'his'
p3044
I3118
sS'hit'
p3045
I3119
sS'pussy\x94'
p3046
I3774
sS'king'
p3047
I3121
sS'bend'
p3048
I3909
sS'hilda\x94'
p3049
I4587
sS'above\x94'
p3050
I3124
sS'spi'
p3051
I2662
sS'famous'
p3052
I3126
sS'mainten'
p3053
I3127
sS'hid'
p3054
I3128
sS'paint\x94'
p3055
I3031
sS'theft'
p3056
I3130
sS'fingernail'
p3057
I2953
sS'ballbear'
p3058
I3131
sS'ambiti'
p3059
I3132
sS'silk'
p3060
I3133
sS'sunni'
p3061
I3134
sS'him'
p3062
I3135
sS'merci'
p3063
I3173
sS'delici'
p3064
I2812
sS'bar\x94'
p3065
I3136
sS'\x93light'
p3066
I3137
sS'days\x94'
p3067
I3138
sS'skinni'
p3068
I4261
sS'pocket\x97'
p3069
I3139
sS'common'
p3070
I3141
sS'hike'
p3071
I532
sS'enema'
p3072
I3143
sS'\x93smithbarnsley'
p3073
I3144
sS'river'
p3074
I3145
sS'wrote'
p3075
I3147
sS'we\x92r'
p3076
I3148
sS'spell'
p3077
I4015
sS'seventeen'
p3078
I3149
sS'set'
p3079
I3150
sS'art'
p3080
I3151
sS'dump'
p3081
I3152
sS'prerogative\x94'
p3082
I3503
sS'\x93here\x92'
p3083
I3154
sS'315'
p3084
I3155
sS'sex'
p3085
I3156
sS'celebr'
p3086
I3157
sS'pickups\x94'
p3087
I3158
sS'lion'
p3088
I589
sS'arc'
p3089
I3160
sS'bare'
p3090
I3161
sS'scruffi'
p3091
I2404
sS'we\x92d'
p3092
I3163
sS'overboard'
p3093
I3164
sS'fellow'
p3094
I2420
sS'reserv'
p3095
I1970
sS'bark'
p3096
I3166
sS'allig'
p3097
I3167
sS'arm'
p3098
I3168
sS'\x93everi'
p3099
I3169
sS'barn'
p3100
I3170
sS'isn\x92t'
p3101
I3171
sS'sieberl'
p3102
I410
sS'someth'
p3103
I3175
sS'\x93got'
p3104
I3176
sS'crossword'
p3105
I3177
sS'tell\x94'
p3106
I4037
sS'\x93then'
p3107
I2996
sS'various'
p3108
I3179
sS'feel\x94'
p3109
I3180
sS'\x93jan\x85\x94'
p3110
I4322
sS'roomer\x97we\x92r'
p3111
I3182
sS'guilt'
p3112
I3183
sS'experi'
p3113
I3184
sS'beard\x94'
p3114
I3185
sS'thrive'
p3115
I3186
sS'piss'
p3116
I3187
sS'altern'
p3117
I3188
sS'solo'
p3118
I2822
sS'appreci'
p3119
I3191
sS'sunshad'
p3120
I3192
sS'\x91old'
p3121
I388
sS'sold'
p3122
I3194
sS'sole'
p3123
I3195
sS'couldn\x92t'
p3124
I3196
sS'billy\x94'
p3125
I3197
sS'wreath'
p3126
I3198
sS'railroads\x94'
p3127
I3199
sS'\x93taxi'
p3128
I3200
sS'death'
p3129
I2198
sS'idiot\x94'
p3130
I3202
sS'handsom'
p3131
I3203
sS'solv'
p3132
I3204
sS'retirement\x94'
p3133
I4603
sS'purpl'
p3134
I3206
sS'stale'
p3135
I3207
sS'both'
p3136
I3208
sS'organ\x94'
p3137
I3209
sS'last'
p3138
I3210
sS'centuries\x85'
p3139
I1789
sS'alon'
p3140
I3213
sS'event'
p3141
I3214
sS'weeks\x94'
p3142
I3215
sS'630'
p3143
I3216
sS'entertain'
p3144
I3217
sS'forgotten'
p3145
I3218
sS'libretto'
p3146
I4673
sS'let'
p3147
I3789
sS'heaven\x92'
p3148
I3220
sS'bond'
p3149
I2213
sS'whole'
p3150
I3222
sS'breakfastnook'
p3151
I3790
sS'load'
p3152
I3226
sS'concret'
p3153
I3227
sS'loaf'
p3154
I3228
sS'whore\x94'
p3155
I3229
sS'2g\x94'
p3156
I3042
sS'how\x94'
p3157
I3231
sS'farmhous'
p3158
I1443
sS'vermillion\x94'
p3159
I3233
sS'sweet'
p3160
I1687
sS'loan'
p3161
I3235
sS'goate'
p3162
I461
sS'handprint'
p3163
I3237
sS'hollow'
p3164
I3238
sS'windows\x94'
p3165
I3239
sS'dancer'
p3166
I3240
sS'hangov'
p3167
I3241
sS'suppli'
p3168
I3242
sS'batteri'
p3169
I3243
sS'mistak'
p3170
I3244
sS'bridg'
p3171
I3245
sS'mission'
p3172
I3246
sS'coincid'
p3173
I1867
sS'belt'
p3174
I3248
sS'catwalk'
p3175
I3249
sS'pepperi'
p3176
I3250
sS'forgiv'
p3177
I3251
sS'horse\x94'
p3178
I2727
sS'stamp'
p3179
I3253
sS'that\x97but'
p3180
I3254
sS'bracelet'
p3181
I3255
sS'due'
p3182
I3256
sS'empti'
p3183
I3257
sS'dug'
p3184
I3258
sS'they\x92d'
p3185
I3259
sS'runner'
p3186
I3260
sS'proprietor'
p3187
I3261
sS'damn'
p3188
I3262
sS'insur'
p3189
I3264
sS'threaten'
p3190
I2236
sS'compuls'
p3191
I3266
sS'breaktim'
p3192
I3267
sS'woke'
p3193
I3268
sS'pm'
p3194
I3269
sS'firm'
p3195
I3270
sS'invis'
p3196
I3271
sS'sweetheart'
p3197
I3272
sS'flight'
p3198
I3273
sS'versa'
p3199
I3274
sS'gay'
p3200
I3275
sS'buck'
p3201
I3276
sS'fire'
p3202
I3277
sS'mothers\x97and'
p3203
I1925
sS'yet\x94'
p3204
I3279
sS'wet'
p3205
I3280
sS'gas'
p3206
I3281
sS'great'
p3207
I3800
sS'\x93saw'
p3208
I3283
sS'people\x94'
p3209
I3284
sS'holler'
p3210
I4676
sS'gal'
p3211
I3286
sS'understand'
p3212
I3287
sS'ginger'
p3213
I3288
sS'gag'
p3214
I3290
sS'breathchas'
p3215
I3291
sS'educ'
p3216
I3292
sS'forms\x85'
p3217
I3293
sS'convers'
p3218
I3802
sS'stolen'
p3219
I48
sS'look'
p3220
I3296
sS'workmen'
p3221
I3289
sS'anyhow'
p3222
I4099
sS'straight'
p3223
I3298
sS'tip'
p3224
I407
sS'2\x94'
p3225
I3328
sS'willie\x94'
p3226
I2217
sS'rope'
p3227
I3301
sS'while'
p3228
I3302
sS'inspirations\x94'
p3229
I3303
sS'match'
p3230
I3304
sS'abov'
p3231
I3305
sS'error'
p3232
I3306
sS'winchell\x92'
p3233
I3307
sS'fixtur'
p3234
I3308
sS'everyon'
p3235
I135
sS'loop'
p3236
I3310
sS'pack'
p3237
I3311
sS'earli'
p3238
I2219
sS'pound'
p3239
I3313
sS'stall'
p3240
I3314
sS'\x93gather'
p3241
I3315
sS'readi'
p3242
I3316
sS'vacat'
p3243
I3317
sS'\x93come'
p3244
I3318
sS'rip'
p3245
I3319
sS'hoax'
p3246
I3321
sS'rim'
p3247
I3323
sS'nightstand'
p3248
I471
sS'centuri'
p3249
I238
sS'there\x94'
p3250
I3326
sS'grit'
p3251
I3327
sS'rid'
p3252
I1191
sS'vanish'
p3253
I3329
sS'south'
p3254
I4120
sS'\x93did'
p3255
I3017
sS'there\x92'
p3256
I3331
sS'gimp'
p3257
I271
sS'pack\x94'
p3258
I3333
sS'bitch\x94'
p3259
I284
sS'shirt'
p3260
I3335
sS'grant'
p3261
I3336
sS'movi'
p3262
I4298
sS'belong'
p3263
I319
sS'shorten'
p3264
I3338
sS'port'
p3265
I3339
sS'cumulus'
p3266
I342
sS'live\x94'
p3267
I3341
sS'eddi'
p3268
I3342
sS'seduct'
p3269
I3343
sS'grand'
p3270
I3344
sS'9'
p3271
I3345
sS'town\x92'
p3272
I3346
sS'scrub'
p3273
I3641
sS'town\x94'
p3274
I387
sS'higher'
p3275
I3348
sS'hallway'
p3276
I3349
sS'itch'
p3277
I3350
sS'dime'
p3278
I423
sS'\x93rest'
p3279
I3352
sS'oper'
p3280
I3353
sS'cigar'
p3281
I3354
sS'next\x94'
p3282
I3355
sS'yesterday'
p3283
I3356
sS'cement'
p3284
I442
sS'jerks\x94'
p3285
I2077
sS'dusti'
p3286
I1388
sS'moment'
p3287
I3360
sS'leapt'
p3288
I3361
sS'stripe'
p3289
I3362
sS'back\x97to'
p3290
I3363
sS'halfday'
p3291
I3364
sS'stack'
p3292
I498
sS'\x93that'
p3293
I4331
sS'72'
p3294
I3535
sS'floor\x97met'
p3295
I3366
sS'dark'
p3296
I3367
sS'lower'
p3297
I3368
sS'motionless'
p3298
I3369
sS'machineri'
p3299
I3370
sS'discourag'
p3300
I3371
sS'older'
p3301
I3372
sS'nits\x85\x94'
p3302
I542
sS'cheek'
p3303
I3374
sS'spent'
p3304
I3375
sS'for\x85\x94'
p3305
I427
sS'person'
p3306
I3378
sS'cheer'
p3307
I3379
sS'cake\x85'
p3308
I580
sS'expens'
p3309
I584
sS'elev'
p3310
I3382
sS'grip'
p3311
I3312
sS'laziness\x94'
p3312
I2826
sS'wilbur\x94'
p3313
I3384
sS'wilbur\x92'
p3314
I606
sS'spend'
p3315
I2161
sS'compton'
p3316
I4509
sS'conscienti'
p3317
I3387
sS'som\xe9'
p3318
I618
sS'construct'
p3319
I3389
sS'good\x94'
p3320
I3390
sS'bureau\x94'
p3321
I3391
sS'from'
p3322
I3837
sS'magazines\x94'
p3323
I644
sS'desk'
p3324
I4635
sS'birthday'
p3325
I3394
sS'room\x94'
p3326
I4736
sS'shape'
p3327
I3396
sS'thorough'
p3328
I3397
sS'millionaires\x97bloodi'
p3329
I4637
sS'women\x92'
p3330
I3398
sS'sherwood'
p3331
I3399
sS'women\x94'
p3332
I3400
sS'simm'
p3333
I3402
sS'wage'
p3334
I3403
sS'lit'
p3335
I3404
sS'cut'
p3336
I3406
sS'it\x92'
p3337
I2915
sS'cup'
p3338
I748
sS'licoric'
p3339
I3409
sS'dri'
p3340
I869
sS'world\x97a'
p3341
I779
sS'eatin\x92'
p3342
I787
sS'grapefruit'
p3343
I3414
sS'rear'
p3344
I3146
sS'win'
p3345
I3824
sS'snap'
p3346
I3417
sS'\x93kill'
p3347
I3418
sS'heathercliff'
p3348
I3419
sS'build'
p3349
I3037
sS'bin'
p3350
I3422
sS'\x93where\x92d'
p3351
I3423
sS'\x93garbag'
p3352
I4202
sS'chambermaid'
p3353
I3424
sS'\x93yep\x94'
p3354
I3038
sS'pro\x94'
p3355
I3426
sS'judgement'
p3356
I3427
sS'hands\x97and'
p3357
I3428
sS'\x93jim'
p3358
I940
sS'bit'
p3359
I3430
sS'kfac'
p3360
I950
sS'paint'
p3361
I2942
sS'high\x97her'
p3362
I3433
sS'knock'
p3363
I3434
sS'leisur'
p3364
I3435
sS'one\x92'
p3365
I1994
sS'onion'
p3366
I3436
sS'overstarch'
p3367
I3437
sS'pillar'
p3368
I1007
sS'father\x92'
p3369
I3439
sS'foodstuff'
p3370
I3440
sS'father\x94'
p3371
I3441
sS'glove'
p3372
I1018
sS'restroom'
p3373
I2119
sS'chorus'
p3374
I1024
sS'collect'
p3375
I3444
sS'plumber\x94'
p3376
I3445
sS'flup'
p3377
I3446
sS'carmen\x92'
p3378
I1060
sS'fuckin\x92'
p3379
I3448
sS'two'
p3380
I2653
sS'sketch'
p3381
I3450
sS'\x93yeh'
p3382
I3451
sS'strawberri'
p3383
I4318
sS'piglet'
p3384
I1096
sS'spring'
p3385
I1110
sS'some'
p3386
I3455
sS'undress'
p3387
I1127
sS'ah'
p3388
I3457
sS'understood'
p3389
I3458
sS'litter'
p3390
I3459
sS'hot\x94'
p3391
I3047
sS'palm'
p3392
I3460
sS'fabric'
p3393
I3461
sS'sight'
p3394
I3462
sS'greener'
p3395
I1159
sS'curious'
p3396
I1167
sS'sprint'
p3397
I2355
sS'surpris'
p3398
I3466
sS'pale'
p3399
I3467
sS'ladies\x94'
p3400
I3468
sS'ninetenth'
p3401
I3469
sS'awake\x94'
p3402
I3470
sS'scale'
p3403
I3471
sS'charg'
p3404
I3064
sS'timeclock'
p3405
I3475
sS'\x93los'
p3406
I2098
sS'pros'
p3407
I3477
sS'per'
p3408
I3478
sS'seller'
p3409
I3473
sS'selfcontain'
p3410
I3480
sS'mood\x94'
p3411
I1806
sS'larg'
p3412
I3482
sS'matter\x94'
p3413
I3483
sS'lard'
p3414
I1283
sS'necessari'
p3415
I4654
sS'carpent'
p3416
I3486
sS'novelti'
p3417
I3488
sS'pea'
p3418
I3489
sS'either'
p3419
I2249
sS'ladder'
p3420
I2967
sS'309'
p3421
I1846
sS'sixteen'
p3422
I3493
sS'children\x97i\x92d'
p3423
I3494
sS'run'
p3424
I3495
sS'rub'
p3425
I3496
sS'reach'
p3426
I3052
sS'odor'
p3427
I3498
sS'\x93take'
p3428
I3499
sS'worker\x94'
p3429
I1195
sS'\x93uh'
p3430
I146
sS'goddamn'
p3431
I3453
sS'step'
p3432
I1381
sS'patienc'
p3433
I1386
sS'\x93he\x92'
p3434
I3506
sS'stew'
p3435
I1395
sS'santa'
p3436
I1399
sS'claw'
p3437
I3509
sS'everyday'
p3438
I3510
sS'schumann'
p3439
I1409
sS'subtract'
p3440
I3514
sS'think\x94'
p3441
I2253
sS'mortgag'
p3442
I3516
sS'vivid'
p3443
I2124
sS'shine'
p3444
I3518
sS'most'
p3445
I3055
sS'morri'
p3446
I3521
sS'eggs\x94'
p3447
I4727
sS'shini'
p3448
I3522
sS'truck'
p3449
I3523
sS'perfum'
p3450
I3524
sS'\x93night'
p3451
I3525
sS'dangl'
p3452
I2643
sS'clap'
p3453
I2256
sS'\x93also'
p3454
I3529
sS'air\x94'
p3455
I1234
sS'\x93put'
p3456
I3531
sS'wanna'
p3457
I3532
sS'fleas\x85gnat'
p3458
I1563
sS'charl'
p3459
I3059
sS'hell\x92'
p3460
I3536
sS'repair'
p3461
I3537
sS'hardon\x94'
p3462
I3841
sS'real'
p3463
I2627
sS'71'
p3464
I3539
sS'hell\x94'
p3465
I3540
sS'lifetim'
p3466
I3541
sS'parad'
p3467
I2200
sS'into'
p3468
I1610
sS'within'
p3469
I2382
sS'\x93we\x92v'
p3470
I1629
sS'cartons\x94'
p3471
I3546
sS'lowgrad'
p3472
I3547
sS'weight\x94'
p3473
I1650
sS'spitoon'
p3474
I3549
sS'notat'
p3475
I3550
sS'atroci'
p3476
I3551
sS'chang'
p3477
I3814
sS'won\x92t'
p3478
I4088
sS'\x93we\x92d'
p3479
I3552
sS'durabl'
p3480
I1684
sS'beginning\x94'
p3481
I3555
sS'\x93grace'
p3482
I3556
sS'triangl'
p3483
I3557
sS'everybody\x94'
p3484
I3558
sS'living\x94'
p3485
I3559
sS'eleven'
p3486
I3560
sS'problem\x94'
p3487
I3561
sS'question'
p3488
I1717
sS'submit'
p3489
I633
sS'custom'
p3490
I875
sS'she\x92d'
p3491
I3565
sS'prettier'
p3492
I1774
sS'suit'
p3493
I3568
sS'forward'
p3494
I3569
sS'78'
p3495
I3065
sS'blue\x94'
p3496
I3572
sS'himself'
p3497
I3573
sS'an'
p3498
I4488
sS'bucks\x94'
p3499
I753
sS'squirt'
p3500
I2285
sS'jewish'
p3501
I3575
sS'poster'
p3502
I3576
sS'crapper'
p3503
I3577
sS'inept'
p3504
I3578
sS'twenti'
p3505
I3579
sS'thief'
p3506
I4669
sS'cloth'
p3507
I3580
sS'\x93sir\x85\x94'
p3508
I3581
sS'\x93pretti'
p3509
I3395
sS'uncontrol'
p3510
I3583
sS'newer'
p3511
I3584
sS'sick'
p3512
I4862
sS'line'
p3513
I3586
sS'swarm'
p3514
I2947
sS'apron\x94'
p3515
I3588
sS'hair'
p3516
I4672
sS'chiropractor'
p3517
I3590
sS'consist'
p3518
I1513
sS'threequart'
p3519
I3592
sS'\x91well'
p3520
I3593
sS'$150'
p3521
I3528
sS'strang'
p3522
I2540
sS'does\x94'
p3523
I3597
sS'939\x92s'
p3524
I2274
sS'joneshamm'
p3525
I3599
sS'and\x97if'
p3526
I3600
sS'darlene\x92'
p3527
I2010
sS'similar'
p3528
I3602
sS'bever'
p3529
I2021
sS'curv'
p3530
I3604
sS'sad\x97ther'
p3531
I3605
sS'streetcars\x94'
p3532
I3512
sS'supervisor'
p3533
I965
sS'curs'
p3534
I2046
sS'eyes\x94'
p3535
I4675
sS'jail\x94'
p3536
I3854
sS'hilda'
p3537
I3677
sS'flow'
p3538
I3609
sS'flush'
p3539
I4679
sS'\x93feel'
p3540
I3611
sS'lectur'
p3541
I1960
sS'scarlet'
p3542
I2087
sS'match\x94'
p3543
I4887
sS'chat'
p3544
I3616
sS'bitch'
p3545
I4135
sS'carmen'
p3546
I3617
sS'curl'
p3547
I3618
sS'hospit'
p3548
I491
sS'stripper'
p3549
I1138
sS'\x93have'
p3550
I3621
sS'salari'
p3551
I3075
sS'sullen'
p3552
I3622
sS'\x93i'
p3553
I4674
sS'tuft'
p3554
I3625
sS'130042'
p3555
I3626
sS'work\x94'
p3556
I4684
sS'stooli'
p3557
I3628
sS'orangutang'
p3558
I3629
sS'janitor\x94'
p3559
I3630
sS'scrape'
p3560
I3631
sS'stiffli'
p3561
I3632
sS'pinbal'
p3562
I3633
sS'boss\x92'
p3563
I162
sS'grind'
p3564
I3377
sS'swirl'
p3565
I3636
sS'sailor'
p3566
I2928
sS'fish\x94'
p3567
I3637
sS'nice'
p3568
I3638
sS'draw'
p3569
I3639
sS'claus'
p3570
I1935
sS'row\x94'
p3571
I2269
sS'tongu'
p3572
I3642
sS'\x93everything\x94'
p3573
I3860
sS'resign'
p3574
I3644
sS'\x93are'
p3575
I3645
sS'william'
p3576
I3646
sS'drag'
p3577
I1293
sS'squirm'
p3578
I3648
sS'\x93spencer\x94'
p3579
I3649
sS'lunch'
p3580
I4567
sS'\x93movi'
p3581
I3651
sS'desert'
p3582
I3652
sS'\x93hold'
p3583
I3635
sS'asleep\x94'
p3584
I1895
sS'ago'
p3585
I3654
sS'lane'
p3586
I3655
sS'music\x94'
p3587
I2666
sS'kidding\x94'
p3588
I3657
sS'expressionless'
p3589
I293
sS'\x93mcbride\x85\x94'
p3590
I613
sS'age'
p3591
I3660
sS'john\x94'
p3592
I218
sS'\x93should'
p3593
I3662
sS'scream'
p3594
I3663
sS'wfi'
p3595
I3664
sS'$100'
p3596
I3665
sS'fresh'
p3597
I3669
sS'interested\x94'
p3598
I3667
sS'far'
p3599
I3668
sS'assembly\x94'
p3600
I222
sS'marvel'
p3601
I3670
sS'tube'
p3602
I3671
sS'pervert'
p3603
I1992
sS'edg'
p3604
I3673
sS'face\x85'
p3605
I3674
sS'that\x85'
p3606
I290
sS'rimshot'
p3607
I3865
sS'they\x92v'
p3608
I3676
sS'cobalt'
p3609
I402
sS'like\x94'
p3610
I3606
sS'\x93miss'
p3611
I3679
sS'renown'
p3612
I3680
sS'gang'
p3613
I3681
sS'that\x94'
p3614
I2568
sS'leavin\x92'
p3615
I3683
sS'make\x94'
p3616
I3684
sS'that\x92'
p3617
I3685
sS'literari'
p3618
I3686
sS'\x93show'
p3619
I4677
sS'privat'
p3620
I3688
sS'gold'
p3621
I3689
sS'farrington'
p3622
I3690
sS'we\x92ll'
p3623
I3691
sS'fixtures\x97'
p3624
I681
sS'peanut'
p3625
I3693
sS'possibilities\x94'
p3626
I2636
sS'conspicu'
p3627
I2640
sS'nose'
p3628
I3490
sS'other\x94'
p3629
I3697
sS'shack'
p3630
I3698
sS'outgo'
p3631
I3699
sS'becam'
p3632
I3700
sS'other\x92'
p3633
I3701
sS'players\x94'
p3634
I3936
sS'airplan'
p3635
I3703
sS'pants\x94'
p3636
I3704
sS'skylights\x97you'
p3637
I3705
sS'sent'
p3638
I3706
sS'chemistri'
p3639
I3707
sS'honor'
p3640
I3816
sS'year\x92'
p3641
I2616
sS'affix'
p3642
I3091
sS'parttim'
p3643
I990
sS'garden'
p3644
I4415
sS'\x93jan'
p3645
I2964
sS'barstool'
p3646
I3712
sS'billyboy'
p3647
I3713
sS'3\x94'
p3648
I2754
sS'spool'
p3649
I3715
sS'paint\x97which'
p3650
I3716
sS'spoon'
p3651
I3717
sS'graphic'
p3652
I3718
sS'309\x94'
p3653
I3719
sS'overstaf'
p3654
I686
sS'tri'
p3655
I3722
sS'magic'
p3656
I2830
sS'smithson\x92'
p3657
I3724
sS'\x93everywher'
p3658
I3725
sS'harbor'
p3659
I2478
sS'button'
p3660
I3727
sS'bereav'
p3661
I3728
sS'wasteland'
p3662
I3729
sS'everything\x94'
p3663
I877
sS'am\x94'
p3664
I3731
sS'overpass'
p3665
I3732
sS'this'
p3666
I3876
sS'smuggl'
p3667
I2871
sS'me\x97i'
p3668
I3735
sS'\x93sing'
p3669
I4778
sS'car'
p3670
I1460
sS'beerbottl'
p3671
I3738
sS'marri'
p3672
I3739
sS'mahler'
p3673
I3740
sS'left\x97on'
p3674
I3741
sS'pleas'
p3675
I3742
sS'hinder'
p3676
I4706
sS'immacul'
p3677
I1367
sS'fortun'
p3678
I3745
sS'anybody\x94'
p3679
I3746
sS'natur'
p3680
I3747
sS'\x93big'
p3681
I774
sS'ham'
p3682
I2452
sS'mural'
p3683
I3750
sS'maintain'
p3684
I3751
sS'jump'
p3685
I3752
sS'crook'
p3686
I2748
sS'\x93tri'
p3687
I3754
sS'hose'
p3688
I4708
sS'snowbal'
p3689
I3006
sS'illtemp'
p3690
I3659
sS'lull'
p3691
I3758
sS'\x93you\x92r'
p3692
I3759
sS'laugh\x94'
p3693
I3760
sS'odd'
p3694
I3761
sS'riverb'
p3695
I422
sS'waitress'
p3696
I3763
sS'blackboard'
p3697
I3519
sS'halffrozen'
p3698
I4471
sS'\x93joneshamm'
p3699
I3765
sS'rate'
p3700
I2569
sS'soup'
p3701
I3766
sS'wore'
p3702
I3520
sS'bail'
p3703
I3767
sS'fat'
p3704
I2528
sS'moan'
p3705
I2938
sS'unmolested\x94'
p3706
I3770
sS'below'
p3707
I4815
sS'rotten'
p3708
I3771
sS'cellar'
p3709
I3640
sS'anderson\x92'
p3710
I3773
sS'playa'
p3711
I3120
sS'indec'
p3712
I3775
sS'bird'
p3713
I3140
sS'can'
p3714
I1469
sS'celeri'
p3715
I3778
sS'led'
p3716
I3779
sS'popoff'
p3717
I3465
sS'leg'
p3718
I3781
sS'suit\x94'
p3719
I3782
sS'sexi'
p3720
I3181
sS'picker'
p3721
I3784
sS'\x93follow'
p3722
I3190
sS'punch'
p3723
I3786
sS'\x93doesn\x92t'
p3724
I1964
sS'pump'
p3725
I2966
sS'help\x94'
p3726
I3788
sS'allciti'
p3727
I3104
sS'relax\x94'
p3728
I3219
sS'sink'
p3729
I3225
sS'cocoon\x94'
p3730
I3791
sS'tenur'
p3731
I1273
sS'\x93it\x92'
p3732
I3247
sS'vertic'
p3733
I3736
sS'fifteen'
p3734
I3795
sS'sinc'
p3735
I3796
sS'\x93rats\x94'
p3736
I3797
sS'more\x94'
p3737
I3798
sS'bakersfield'
p3738
I3799
sS'39'
p3739
I3282
sS'38'
p3740
I3801
sS'greas'
p3741
I3294
sS'home\x97a'
p3742
I3803
sS'33'
p3743
I3804
sS'32'
p3744
I3805
sS'31'
p3745
I3806
sS'larger'
p3746
I2711
sS'screech'
p3747
I1966
sS'36'
p3748
I3809
sS'35'
p3749
I3810
sS'34'
p3750
I3811
sS'upper'
p3751
I4344
sS'painter'
p3752
I4490
sS'aliv'
p3753
I3893
sS'defeat'
p3754
I1416
sS'typic'
p3755
I3004
sS'got'
p3756
I3783
sS'crabs\x94'
p3757
I3376
sS'chanc'
p3758
I3613
sS'adams\x94'
p3759
I3410
sS'control'
p3760
I3895
sS'manni'
p3761
I3819
sS'shovel'
p3762
I3820
sS'fresh\x94'
p3763
I3821
sS'clark'
p3764
I3822
sS'danger'
p3765
I3408
sS'appli'
p3766
I3416
sS'limp'
p3767
I3825
sS'emot'
p3768
I3826
sS'wyom'
p3769
I3827
sS'aboard'
p3770
I3828
sS'gladmore\x92'
p3771
I3829
sS'frighten'
p3772
I4274
sS'motor'
p3773
I2543
sS'bed\x85\x94'
p3774
I3831
sS'beckon'
p3775
I3832
sS'\x93hey'
p3776
I3421
sS'class\x94'
p3777
I3833
sS'egg'
p3778
I2777
sS'cloud'
p3779
I3834
sS'bartender\x92'
p3780
I3835
sS'fed'
p3781
I1531
sS'crap'
p3782
I138
sS'building\x94'
p3783
I3517
sS'\x93someday\x94'
p3784
I3839
sS'missing\x94'
p3785
I3840
sS'doubl'
p3786
I3538
sS'water\x94'
p3787
I3842
sS'frog'
p3788
I3843
sS'next'
p3789
I3844
sS'far\x94'
p3790
I819
sS'generos'
p3791
I3846
sS'doubt'
p3792
I3847
sS'cards\x94'
p3793
I3848
sS'crab'
p3794
I3849
sS'far\x92'
p3795
I3850
sS'length'
p3796
I4112
sS'mantz'
p3797
I3851
sS'flabbi'
p3798
I3852
sS'547'
p3799
I642
sS'$20'
p3800
I3615
sS'clever'
p3801
I3855
sS'rich'
p3802
I3856
sS'up'
p3803
I3594
sS'porch'
p3804
I3857
sS'babi'
p3805
I3858
sS'tax'
p3806
I3904
sS'impress'
p3807
I3643
sS'820\x92s'
p3808
I3650
sS'meant'
p3809
I4315
sS'sore'
p3810
I3862
sS'cabbie\x92'
p3811
I3666
sS'winner\x94'
p3812
I3864
sS'8'
p3813
I3112
sS'central'
p3814
I3866
sS'gambl'
p3815
I3867
sS'chef'
p3816
I3868
sS'broth'
p3817
I3869
sS'women'
p3818
I3870
sS'torn'
p3819
I3871
sS'alik'
p3820
I3872
sS'\x93helen'
p3821
I3873
sS'salad'
p3822
I3874
sS'heard'
p3823
I1488
sS'tunnel'
p3824
I3733
sS'hardboil'
p3825
I3877
sS'ride'
p3826
I3878
sS'oh'
p3827
I2313
sS'compliment'
p3828
I3880
sS'stroke'
p3829
I3881
sS'pour'
p3830
I3882
sS'longwood'
p3831
I3598
sS'lumber'
p3832
I512
sS'obvious'
p3833
I3885
sS'unhappi'
p3834
I3114
sS'drill'
p3835
I3887
sS'smear'
p3836
I1996
sS'grate'
p3837
I4794
sS'meet'
p3838
I3889
sS'buse'
p3839
I3890
sS'grin'
p3840
I3415
sS'milk'
p3841
I2731
sS'153'
p3842
I2620
sS'proof'
p3843
I3894
sS'employe'
p3844
I3818
sS'slid'
p3845
I3896
sS'tap'
p3846
I3897
sS'bent'
p3847
I2834
sS'patron'
p3848
I3899
sS'process'
p3849
I3901
sS'lock'
p3850
I3902
sS'o\x92clock'
p3851
I2554
sS'slim'
p3852
I3090
sS'rode'
p3853
I3859
sS'high'
p3854
I3906
sS'slit'
p3855
I3907
sS'carrot'
p3856
I1083
sS'\x93japanes'
p3857
I2110
sS'\x93pleas'
p3858
I3297
sS'tan'
p3859
I3912
sS'sorry\x94'
p3860
I3913
sS'152'
p3861
I2297
sS'rape'
p3862
I3915
sS'ferri'
p3863
I3737
sS'lamb'
p3864
I3917
sS'chop'
p3865
I3330
sS'surfac'
p3866
I3919
sS'bakersfield\x94'
p3867
I3920
sS'lame'
p3868
I3125
sS'spy\x94'
p3869
I3922
sS'skirt'
p3870
I3914
sS'six'
p3871
I3923
sS'skid'
p3872
I2590
sS'clock\x92'
p3873
I3924
sS'whiteandgreen'
p3874
I3925
sS'occur'
p3875
I1596
sS'desper'
p3876
I4746
sS'lamp'
p3877
I3927
sS'cent\x94'
p3878
I3300
sS'alvarado'
p3879
I3929
sS'mari'
p3880
I3930
sS'suspend'
p3881
I3931
sS'instead'
p3882
I3932
sS'155'
p3883
I3933
sS'weaken'
p3884
I3916
sS'panic'
p3885
I4034
sS'payroll\x94'
p3886
I3935
sS'needn\x92t'
p3887
I4686
sS'stock'
p3888
I3937
sS'fare'
p3889
I3938
sS'purs'
p3890
I3939
sS'tire'
p3891
I4296
sS'inhal'
p3892
I3940
sS'sir'
p3893
I3918
sS'farm'
p3894
I3941
sS'punchout'
p3895
I3554
sS'act'
p3896
I2327
sS'walk'
p3897
I4447
sS'fart'
p3898
I3944
sS'tack'
p3899
I1139
sS'echo'
p3900
I4130
sS'taco'
p3901
I2883
sS'tier'
p3902
I3947
sS'\x93chinaski\x94'
p3903
I4170
sS'ceil'
p3904
I660
sS'industri'
p3905
I3949
sS'fray'
p3906
I3950
sS'tomato'
p3907
I3951
sS'26'
p3908
I2798
sS'bakeri'
p3909
I3953
sS'masturb'
p3910
I3954
sS'essenti'
p3911
I3955
sS'heel'
p3912
I4660
sS'red\x94'
p3913
I3956
sS'light'
p3914
I3957
sS'sit'
p3915
I3921
sS'moss\x97drawbridg'
p3916
I3959
sS'hum'
p3917
I3960
sS'or'
p3918
I3961
sS'issu'
p3919
I3962
sS'scoop'
p3920
I1902
sS'name\x94'
p3921
I3964
sS'name\x92'
p3922
I3965
sS'allow'
p3923
I3966
sS'skull'
p3924
I3591
sS'handful\x94'
p3925
I3967
sS'\x93physic'
p3926
I3968
sS'jostl'
p3927
I3969
sS'wrinkl'
p3928
I3129
sS'thigh'
p3929
I3972
sS'transfix'
p3930
I3973
sS'time\x94'
p3931
I3974
sS'train'
p3932
I3863
sS'move'
p3933
I3975
sS'horni'
p3934
I3976
sS'meter'
p3935
I3977
sS'133'
p3936
I2164
sS'132'
p3937
I3979
sS'spank'
p3938
I3980
sS'130'
p3939
I1580
sS'156'
p3940
I2649
sS'136'
p3941
I1790
sS'135'
p3942
I3984
sS'134'
p3943
I3985
sS'effici'
p3944
I3986
sS'139'
p3945
I3987
sS'georg'
p3946
I3926
sS'estat'
p3947
I3989
sS'perfect'
p3948
I3990
sS'write'
p3949
I3991
sS'bill\x94'
p3950
I4066
sS'la'
p3951
I3992
sS'chosen'
p3952
I3900
sS'hobbi'
p3953
I3994
sS'anyhow\x94'
p3954
I4748
sS'glassedoff'
p3955
I3995
sS'\x93ain\x92t'
p3956
I3401
sS'most\x94'
p3957
I3997
sS'remorseless'
p3958
I3998
sS'\x93eddi'
p3959
I2902
sS'owe'
p3960
I4749
sS'\x93right\x94'
p3961
I4000
sS'flank'
p3962
I2673
sS'runway'
p3963
I4838
sS'glisten'
p3964
I4002
sS'intrigued\x97sh'
p3965
I3883
sS'redhead'
p3966
I4003
sS'filthi'
p3967
I4004
sS'\x93let'
p3968
I4005
sS'dad'
p3969
I4507
sS'cuss'
p3970
I4008
sS'crash'
p3971
I4009
sS'sword'
p3972
I3812
sS'respect\x94'
p3973
I4011
sS'spencer'
p3974
I4012
sS'handl'
p3975
I4013
sS'flour'
p3976
I672
sS'overal'
p3977
I887
sS'handi'
p3978
I4016
sS'pleasantri'
p3979
I4017
sS'158'
p3980
I4018
sS'mention'
p3981
I664
sS'snake'
p3982
I3501
sS'kiss'
p3983
I4021
sS'fingerprint'
p3984
I4022
sS'\x93ice'
p3985
I3692
sS'cage'
p3986
I4024
sS'day'
p3987
I4025
sS'gauz'
p3988
I4027
sS'billi'
p3989
I4028
sS'lid'
p3990
I4029
sS'cotton'
p3991
I3620
sS'tow'
p3992
I4031
sS'slacken'
p3993
I4032
sS'anyth'
p3994
I4033
sS'ill\x94'
p3995
I4035
sS'\x93none\x94'
p3996
I1334
sS'fag'
p3997
I4038
sS'simple\x97you'
p3998
I4039
sS'slide'
p3999
I4040
sS'trap'
p4000
I4041
sS'truth'
p4001
I4042
sS'drugstor'
p4002
I4043
sS'feldman'
p4003
I4044
sS'pint'
p4004
I4045
sS'tray'
p4005
I4046
sS'strode'
p4006
I4048
sS'few'
p4007
I3845
sS'lie'
p4008
I3351
sS'world\x94'
p4009
I4051
sS'147'
p4010
I3526
sS'bump'
p4011
I4053
sS'jailor'
p4012
I4054
sS'midthirti'
p4013
I4055
sS'144'
p4014
I4056
sS'sandi'
p4015
I4057
sS'\x93what\x92d'
p4016
I4058
sS'125217'
p4017
I4059
sS'fraction'
p4018
I1779
sS'82'
p4019
I4062
sS'our'
p4020
I4063
sS'80'
p4021
I4064
sS'neighbor\x92\x94'
p4022
I3405
sS'salesman'
p4023
I232
sS'wander'
p4024
I506
sS'special'
p4025
I55
sS'oxnard\x94'
p4026
I3903
sS'semen'
p4027
I4070
sS'rey'
p4028
I4071
sS'140'
p4029
I4072
sS'twice'
p4030
I4073
sS'141'
p4031
I3624
sS'hand\x94'
p4032
I4075
sS'may'
p4033
I4076
sS'stuf'
p4034
I4077
sS'ain\x92t'
p4035
I4078
sS'stun'
p4036
I4079
sS'defens'
p4037
I4080
sS'red'
p4038
I4081
sS'oblong'
p4039
I4082
sS'franc'
p4040
I1673
sS'shitload'
p4041
I1832
sS'payrol'
p4042
I3943
sS'campbell\x92'
p4043
I3476
sS'insid'
p4044
I4086
sS'spot'
p4045
I1534
sS'ship\x94'
p4046
I109
sS'steel'
p4047
I4182
sS'\x93billi'
p4048
I4090
sS'invad'
p4049
I4091
sS'sneez'
p4050
I3420
sS'yesterday\x94'
p4051
I4093
sS'usabl'
p4052
I1952
sS'\x93was'
p4053
I1384
sS'romance\x94'
p4054
I4096
sS'releas'
p4055
I158
sS'embarrass'
p4056
I4098
sS'relat'
p4057
I1373
sS'combin'
p4058
I4101
sS'bleed'
p4059
I176
sS'\x91to'
p4060
I2454
sS'bigass'
p4061
I4104
sS'\x93herman'
p4062
I3212
sS'cri'
p4063
I4105
sS'yard'
p4064
I449
sS'climb'
p4065
I3365
sS'lone'
p4066
I3562
sS'enchant'
p4067
I4107
sS'could'
p4068
I228
sS'put'
p4069
I2638
sS'giraff'
p4070
I1358
sS'stride'
p4071
I4111
sS'look\x94'
p4072
I260
sS'shred'
p4073
I265
sS'hawaiian'
p4074
I3574
sS'curti'
p4075
I4115
sS'outsid'
p4076
I4116
sS'mae'
p4077
I4117
sS'retail'
p4078
I4118
sS'scare'
p4079
I4119
sS'scarf'
p4080
I310
sS'manger'
p4081
I4121
sS'words\x94'
p4082
I4122
sS'imagination\x94'
p4083
I4123
sS'manuscript'
p4084
I4124
sS'blown'
p4085
I4125
sS'nut\x85\x94'
p4086
I3544
sS'\x93tell'
p4087
I3946
sS'\x93henri'
p4088
I3566
sS'sack'
p4089
I4129
sS'philadelphia'
p4090
I2361
sS'walter'
p4091
I4131
sS'blackandtan'
p4092
I4132
sS'eleventh'
p4093
I389
sS'fatigu'
p4094
I4134
sS'days\x97bad'
p4095
I3474
sS'such'
p4096
I4136
sS'owner'
p4097
I4137
sS'$10'
p4098
I2127
sS'long'
p4099
I3563
sS'has'
p4100
I4140
sS'comes\x94'
p4101
I441
sS'eagle\x92'
p4102
I4142
sS'monkey'
p4103
I800
sS'chasen'
p4104
I4144
sS'start'
p4105
I2363
sS'course\x94'
p4106
I2860
sS'flourish'
p4107
I4146
sS'something\x85but'
p4108
I4147
sS'accent'
p4109
I4148
sS'capac'
p4110
I412
sS'messag'
p4111
I4150
sS'grow'
p4112
I4151
sS'attach'
p4113
I492
sS'vagina'
p4114
I3571
sS'\x93thank'
p4115
I4154
sS'her\x97intim'
p4116
I4155
sS'physic'
p4117
I4156
sS'teetertott'
p4118
I4157
sS'time'
p4119
I2455
sS'drool'
p4120
I1690
sS'chaser'
p4121
I2435
sS'unbear'
p4122
I536
sS'cabin'
p4123
I540
sS'beard'
p4124
I4164
sS'broadway\x85no'
p4125
I4165
sS'sixteenth'
p4126
I4166
sS'malibu'
p4127
I4167
sS'stomach'
p4128
I4168
sS'gear'
p4129
I4169
sS'big'
p4130
I3425
sS'jesus'
p4131
I3623
sS'shelf'
p4132
I2245
sS'\x93we'
p4133
I4172
sS'asswip'
p4134
I4126
sS'biggest'
p4135
I4772
sS'getupandgo'
p4136
I4173
sS'drape'
p4137
I4174
sS'tissu'
p4138
I4175
sS'maze'
p4139
I4773
sS'qualifi'
p4140
I2879
sS'shelv'
p4141
I4177
sS'anybodi'
p4142
I3386
sS'piecework'
p4143
I636
sS'\x93ball'
p4144
I4180
sS'neck'
p4145
I1550
sS'mechan'
p4146
I2993
sS'hungov'
p4147
I4183
sS'photograph'
p4148
I4061
sS'friend\x94'
p4149
I4774
sS'gradual'
p4150
I4185
sS'slack'
p4151
I4186
sS'stock\x94'
p4152
I4187
sS'coast'
p4153
I1061
sS'cartoonist'
p4154
I4189
sS'beg'
p4155
I694
sS'bed'
p4156
I4191
sS'tab\x94'
p4157
I702
sS'claim'
p4158
I4193
sS'rack'
p4159
I4194
sS'sens'
p4160
I4195
sS'becom'
p4161
I3794
sS'beef\x94'
p4162
I2155
sS'dumb'
p4163
I4197
sS'steep'
p4164
I4198
sS'ultramarin'
p4165
I4199
sS'steer'
p4166
I754
sS'are'
p4167
I3162
sS'drunk'
p4168
I3232
sS'\x92ere'
p4169
I2373
sS'counter'
p4170
I3958
sS'libretto\x94'
p4171
I3934
sS'terribl'
p4172
I4205
sS'journey'
p4173
I3970
sS'christensen'
p4174
I4085
sS'westlak'
p4175
I4208
sS'daytim'
p4176
I4209
sS'enough\x94'
p4177
I4210
sS'tonight'
p4178
I4211
sS'love\x94'
p4179
I4212
sS'have'
p4180
I4213
sS'close'
p4181
I3165
sS'throat'
p4182
I859
sS'\x93hello\x94'
p4183
I4781
sS'waken'
p4184
I4217
sS'70'
p4185
I3061
sS'screw'
p4186
I4219
sS'boxful'
p4187
I1501
sS'it\x97th'
p4188
I3533
sS'offend'
p4189
I4222
sS'weaseley'
p4190
I4223
sS'thin'
p4191
I3886
sS'have\x94'
p4192
I4225
sS'expos'
p4193
I4226
sS'blanket'
p4194
I3263
sS'contour'
p4195
I4228
sS'mix'
p4196
I4229
sS'lope'
p4197
I306
sS'which'
p4198
I4232
sS'fulltim'
p4199
I2766
sS'martha'
p4200
I4234
sS'pharmacist'
p4201
I4235
sS'soap'
p4202
I4236
sS'singl'
p4203
I4237
sS'expertis'
p4204
I4238
sS'courtesi'
p4205
I4239
sS'skate'
p4206
I4240
sS'unless'
p4207
I4241
sS'sir\x94'
p4208
I4242
sS'tobacco'
p4209
I4342
sS'downstair'
p4210
I3449
sS'\x93think'
p4211
I448
sS'whi'
p4212
I4244
sS'discov'
p4213
I4245
sS'mutter'
p4214
I4784
sS'hotel\x94'
p4215
I2096
sS'montana'
p4216
I1070
sS'eight'
p4217
I4248
sS'martinez\x94'
p4218
I4249
sS'retreat\x94'
p4219
I4250
sS'selfsuffici'
p4220
I4251
sS'counter\x97i'
p4221
I4252
sS'unusual\x94'
p4222
I4001
sS'medal'
p4223
I4253
sS'herman'
p4224
I4254
sS'smell\x97th'
p4225
I4255
sS'\x93calient'
p4226
I4256
sS'plumber'
p4227
I4257
sS'gertrude\x92'
p4228
I4258
sS'gertrude\x94'
p4229
I4259
sS'\x93ye'
p4230
I4260
sS'everything\x92'
p4231
I3726
sS'gather'
p4232
I4262
sS'stronger'
p4233
I1028
sS'\x93blow'
p4234
I4264
sS'alleys\x94'
p4235
I4265
sS'napkin'
p4236
I4026
sS'pipe'
p4237
I4267
sS'sexier'
p4238
I4230
sS'\x93too'
p4239
I4268
sS'formula\x97it'
p4240
I4269
sS'\x93honor'
p4241
I4270
sS'occasion'
p4242
I4271
sS'fact'
p4243
I4272
sS'rumbl'
p4244
I4329
sS'\x93pull'
p4245
I4602
sS'recess'
p4246
I1775
sS'past'
p4247
I2567
sS'railing\x94'
p4248
I1434
sS'stove'
p4249
I4276
sS'bum'
p4250
I4793
sS'crate'
p4251
I4278
sS'i\x92v'
p4252
I4280
sS'brother'
p4253
I4281
sS'bring'
p4254
I4282
sS'i\x92m'
p4255
I4283
sS'grace\x94'
p4256
I567
sS'vermillion'
p4257
I1322
sS'rough'
p4258
I1225
sS'mule'
p4259
I4159
sS'i\x92d'
p4260
I1338
sS'culmin'
p4261
I1664
sS'me\x85now'
p4262
I2560
sS'one'
p4263
I1742
sS'nearer'
p4264
I4292
sS'ear'
p4265
I4796
sS'locat'
p4266
I1365
sS'nois'
p4267
I4295
sS'flup\x94'
p4268
I1375
sS'illus'
p4269
I3122
sS'winner'
p4270
I1397
sS'jar'
p4271
I4299
sS'forev'
p4272
I1404
sS'highheel'
p4273
I4301
sS'should'
p4274
I1412
sS'jan'
p4275
I4303
sS'hector'
p4276
I4304
sS'won'
p4277
I3178
sS'suppos'
p4278
I1428
sS'rasp'
p4279
I4307
sS'concentr'
p4280
I3189
sS'handcuf'
p4281
I4309
sS'resaltado'
p4282
I4496
sS'communist'
p4283
I4310
sS'straight\x94'
p4284
I4311
sS'local'
p4285
I4312
sS'hope'
p4286
I4313
sS'\x93fuck'
p4287
I4314
sS'spun'
p4288
I1478
sS'cube'
p4289
I4316
sS'contribut'
p4290
I4317
sS'pull'
p4291
I2393
sS'this\x97th'
p4292
I372
sS'insect'
p4293
I3647
sS'dope'
p4294
I4321
sS'rush'
p4295
I4323
sS'bear'
p4296
I5
sS'\x93surely\x94'
p4297
I4325
sS'120'
p4298
I4326
sS'\x93nobodi'
p4299
I2086
sS'122'
p4300
I1558
sS'123'
p4301
I1561
sS'124'
p4302
I4330
sS'125'
p4303
I1211
sS'126'
p4304
I4332
sS'127'
p4305
I640
sS'bead'
p4306
I1323
sS'129'
p4307
I4335
sS'jock'
p4308
I4397
sS'lucki'
p4309
I4336
sS'theatr'
p4310
I4337
sS'ten\x94'
p4311
I768
sS'gray'
p4312
I2069
sS'arts\x94'
p4313
I4340
sS'scene'
p4314
I4128
sS'organ'
p4315
I3153
sS'brain'
p4316
I1581
sS'be'
p4317
I3492
sS'h'
p4318
I4345
sS'thanks\x94'
p4319
I4346
sS'131'
p4320
I4347
sS'eyebrow'
p4321
I4348
sS'\x93ah\x94'
p4322
I4349
sS'in\x94'
p4323
I4806
sS'stuff'
p4324
I4351
sS'she'
p4325
I1689
sS'partit'
p4326
I4353
sS'contain'
p4327
I4354
sS'exactly\x94'
p4328
I4355
sS'137'
p4329
I3911
sS'grab'
p4330
I4357
sS'\x93god'
p4331
I4358
sS'view'
p4332
I1729
sS'buzzer'
p4333
I4360
sS'honeybeam'
p4334
I1737
sS'beethoven\x92'
p4335
I4363
sS'truck\x92'
p4336
I1517
sS'packer'
p4337
I3905
sS'slantey'
p4338
I2018
sS'frame'
p4339
I4367
sS'\x93hector'
p4340
I4368
sS'accord'
p4341
I4369
sS'newlypress'
p4342
I1786
sS'\x93silli'
p4343
I4372
sS'temporarili'
p4344
I4373
sS'driveway'
p4345
I4374
sS'mauric'
p4346
I3768
sS'equip'
p4347
I4376
sS'racket'
p4348
I4377
sS'exper'
p4349
I4378
sS'stop'
p4350
I3942
sS'hamburger\x97'
p4351
I4379
sS'bibl'
p4352
I4380
sS'luck\x94'
p4353
I1853
sS'unzip'
p4354
I3709
sS'138'
p4355
I3988
sS'twofifti'
p4356
I4384
sS'panti'
p4357
I4385
sS'closet'
p4358
I4386
sS'record'
p4359
I4814
sS'pattern'
p4360
I4388
sS'vodka\x94'
p4361
I4389
sS'cruel'
p4362
I4390
sS'tend'
p4363
I4391
sS'genius'
p4364
I4392
sS'written'
p4365
I435
sS'one\x94'
p4366
I4394
sS'\x93now'
p4367
I4627
sS'crude'
p4368
I4395
sS'neither'
p4369
I4396
sS'pistol'
p4370
I1941
sS'bought'
p4371
I1954
sS'wine\x94'
p4372
I4399
sS'cars\x94'
p4373
I4400
sS'bound'
p4374
I1625
sS'sorrow'
p4375
I4402
sS'blackedout'
p4376
I4403
sS'scratch'
p4377
I3675
sS'dislik'
p4378
I4405
sS'write\x94'
p4379
I4406
sS'girl\x94'
p4380
I4407
sS'job'
p4381
I4408
sS'entir'
p4382
I4409
sS'\x93good\x94'
p4383
I732
sS'key'
p4384
I4411
sS'anything\x94'
p4385
I4412
sS'less'
p4386
I4584
sS'swift'
p4387
I4413
sS'bets\x94'
p4388
I4414
sS'small\x94'
p4389
I4416
sS'154'
p4390
I4417
sS'wiggl'
p4391
I4418
sS'drum'
p4392
I4419
sS'grayhair'
p4393
I2082
sS'quickly\x97without'
p4394
I4421
sS'career'
p4395
I4422
sS'threeey'
p4396
I2099
sS'asshole\x94'
p4397
I4424
sS'ramp'
p4398
I4425
sS'drug'
p4399
I4426
sS'chance\x94'
p4400
I4427
sS'trash\x94'
p4401
I3993
sS'washrag'
p4402
I2132
sS'\x93sometim'
p4403
I3201
sS'bellboy'
p4404
I2140
sS'springtight'
p4405
I4823
sS'swim'
p4406
I4434
sS'cinder'
p4407
I4435
sS'beak'
p4408
I4333
sS'afraid'
p4409
I4221
sS'soldier\x94'
p4410
I2175
sS'endicott'
p4411
I4438
sS'unclear'
p4412
I766
sS'co'
p4413
I4440
sS'toilet'
p4414
I3982
sS'wall'
p4415
I4442
sS'tuesday'
p4416
I1411
sS'overcoat'
p4417
I4444
sS'arriv'
p4418
I4445
sS'\x93toni'
p4419
I4446
sS'\x93give'
p4420
I3996
sS'though\x94'
p4421
I4448
sS'\x93sorri'
p4422
I4449
sS'laugh'
p4423
I4450
sS'developing\x94'
p4424
I4452
sS'\x93some'
p4425
I2272
sS'labor'
p4426
I4454
sS'apart\x94'
p4427
I2278
sS'ad'
p4428
I2413
sS'novel\x94'
p4429
I4457
sS'shudder'
p4430
I3999
sS'sneezed\x94'
p4431
I4459
sS'weren\x92t'
p4432
I2714
sS'slowli'
p4433
I4460
sS'tread'
p4434
I3711
sS'decent'
p4435
I2287
sS'worked\x94'
p4436
I4830
sS'compos'
p4437
I4464
sS'cent'
p4438
I4465
sS'snort'
p4439
I4466
sS'willi'
p4440
I2353
sS'730'
p4441
I4468
sS'gaze'
p4442
I2365
sS'hellish'
p4443
I2370
sS'easiest'
p4444
I3696
sS'electr'
p4445
I2381
sS'86\x92d'
p4446
I4472
sS'curtain'
p4447
I4473
sS'muddi'
p4448
I582
sS'immedi'
p4449
I2158
sS'louisiana'
p4450
I4476
sS'cab\x94'
p4451
I4828
sS'jackhandl'
p4452
I4478
sS'nickel'
p4453
I4479
sS'presenc'
p4454
I2442
sS'face'
p4455
I4266
sS'paul\x92'
p4456
I4481
sS'al'
p4457
I2418
sS'ridden'
p4458
I4482
sS'receipt\x94'
p4459
I4483
sS'zero'
p4460
I4484
sS'togeth'
p4461
I4485
sS'hamburg'
p4462
I4486
sS'bulb'
p4463
I2501
sS'general'
p4464
I1841
sS'get\x94'
p4465
I2510
sS'tiskit'
p4466
I3380
sS'deodor'
p4467
I2073
sS'argu'
p4468
I1698
sS'930'
p4469
I2374
sS'toothless'
p4470
I4493
sS'\x93they\x92r'
p4471
I4494
sS'need'
p4472
I4215
sS'vanilla'
p4473
I4495
sS'never'
p4474
I4556
sS'park\x94'
p4475
I4171
sS'chalk'
p4476
I1617
sS'\x93don\x92t'
p4477
I4498
sS'got\x94'
p4478
I4499
sS'lights\x94'
p4479
I4500
sS'wild'
p4480
I4501
sS'turnedup'
p4481
I4502
sS'bathtub'
p4482
I2612
sS'plead'
p4483
I3757
sS'howev'
p4484
I4505
sS'yes\x94'
p4485
I4506
sS'layer'
p4486
I4508
sS'\x91ok\x92'
p4487
I1038
sS'shouldn\x92t'
p4488
I4382
sS'\x93will'
p4489
I2648
sS'rich\x94'
p4490
I4511
sS'almost'
p4491
I4512
sS'dreamlik'
p4492
I3000
sS'claimer'
p4493
I4514
sS'rooster'
p4494
I4515
sS'hired\x94'
p4495
I4516
sS'assholes\x94'
p4496
I4517
sS'believ'
p4497
I2896
sS'workroom'
p4498
I4518
sS'creak'
p4499
I4519
sS'\x93thanks\x94'
p4500
I4520
sS'incom'
p4501
I4521
sS'henley'
p4502
I4522
sS'\x93honey'
p4503
I4523
sS'whore'
p4504
I4524
sS'done\x94'
p4505
I2747
sS'penni'
p4506
I4839
sS'$55'
p4507
I4526
sS'legendari'
p4508
I4527
sS'japanes'
p4509
I4528
sS'parti'
p4510
I4529
sS'balloon'
p4511
I2778
sS'halv'
p4512
I1618
sS'satisfi'
p4513
I4532
sS'cross'
p4514
I4533
sS'member'
p4515
I408
sS'cigarettes\x92\x94'
p4516
I3067
sS'vacation\x94'
p4517
I4537
sS'left\x94'
p4518
I4538
sS'auto'
p4519
I4014
sS'inch'
p4520
I4540
sS'cream'
p4521
I3252
sS'difficult'
p4522
I4543
sS'\x93never'
p4523
I3007
sS'tighten'
p4524
I4544
sS'rake'
p4525
I2197
sS'structur'
p4526
I4546
sS'flesh'
p4527
I4547
sS'ya\x94'
p4528
I4548
sS'bald'
p4529
I2880
sS'ankl'
p4530
I2886
sS'effect'
p4531
I2891
sS'coffe'
p4532
I4552
sS'\x93don\x92t\x94'
p4533
I4553
sS'grandstand'
p4534
I4555
sS'student'
p4535
I2920
sS'canva'
p4536
I2927
sS'pedal'
p4537
I4558
sS'whale'
p4538
I4559
sS'breast'
p4539
I3971
sS'matron'
p4540
I2508
sS'collar'
p4541
I4561
sS'tighter'
p4542
I4562
sS'keep'
p4543
I4110
sS'duti'
p4544
I4554
sS'priest'
p4545
I2283
sS'off'
p4546
I4565
sS'center'
p4547
I4566
sS'candi'
p4548
I3527
sS'i'
p4549
I4568
sS'\x93well'
p4550
I4569
sS'usual'
p4551
I4579
sS'well'
p4552
I4570
sS'\x93shit\x94'
p4553
I3012
sS'thought'
p4554
I4572
sS'scissor'
p4555
I4573
sS'exampl'
p4556
I4574
sS'choos'
p4557
I3051
sS'fail'
p4558
I4576
sS'44'
p4559
I4852
sS'not\x94'
p4560
I1776
sS'courtroom'
p4561
I4020
sS'lightbulb'
p4562
I4580
sS'taller'
p4563
I4581
sS'distanc'
p4564
I4582
sS'camel'
p4565
I1352
sS'paperwork'
p4566
I4585
sS'42'
p4567
I4854
sS'half'
p4568
I1631
sS'passeng'
p4569
I4324
sS'125400'
p4570
I2619
sS'dose'
p4571
I4589
sS'\x93great'
p4572
I4590
sS'front'
p4573
I4023
sS'floodlight'
p4574
I4287
sS'feminin'
p4575
I4593
sS'smash'
p4576
I4594
sS'heavili'
p4577
I4595
sS'simpli'
p4578
I3230
sS'skill'
p4579
I763
sS'glue'
p4580
I3172
sS'comentario'
p4581
I4599
sS'to'
p4582
I2512
sS'generous'
p4583
I4601
sS'now'
p4584
I1633
sS'\x93step'
p4585
I3205
sS'poet\x94'
p4586
I4604
sS'thanksgiv'
p4587
I4605
sS'woman'
p4588
I2522
sS'point'
p4589
I1699
sS'sky'
p4590
I1414
sS'bench'
p4591
I4608
sS'drew'
p4592
I4609
sS'book'
p4593
I4859
sS'walls\x973'
p4594
I4612
sS'some\x94'
p4595
I3234
sS'5'
p4596
I4614
sS'astrolog'
p4597
I4671
sS'ought'
p4598
I4615
sS'\x91super'
p4599
I4616
sS'imparti'
p4600
I4617
sS'smart'
p4601
I433
sS'futur'
p4602
I4861
sS'\x93rough'
p4603
I4619
sS'\x93fine\x94'
p4604
I3236
sS'smalltim'
p4605
I2342
sS'myth'
p4606
I637
sS'dement'
p4607
I4439
sS'taunt'
p4608
I2707
sS'mine\x94'
p4609
I4625
sS'varieti'
p4610
I4863
sS'rind'
p4611
I4626
sS'forcefe'
p4612
I1235
sS'\x93not'
p4613
I4628
sS'himself\x94'
p4614
I4629
sS'yell'
p4615
I4897
sS'punctuat'
p4616
I4630
sS'realiz'
p4617
I4631
sS'five'
p4618
I4632
sS'know'
p4619
I4633
sS'knot'
p4620
I4634
sS'fleshcolor'
p4621
I4114
sS'press'
p4622
I4636
sS'somewher'
p4623
I4030
sS'doughnut'
p4624
I4638
sS'bukowski'
p4625
I4639
sS'mister\x94'
p4626
I4641
sS'toe'
p4627
I4642
sS'lincoln'
p4628
I4643
sS'crisp'
p4629
I4644
sS'like'
p4630
I4645
sS'success'
p4631
I884
sS'incred'
p4632
I4647
sS'request'
p4633
I4263
sS'sofa'
p4634
I4649
sS'back\x94'
p4635
I4650
sS'loser'
p4636
I4651
sS'stuff\x94'
p4637
I4652
sS'stagger'
p4638
I4653
sS'she\x92'
p4639
I3485
sS'mustach'
p4640
I4655
sS'lose'
p4641
I4656
sS'brunett'
p4642
I4657
sS'polit'
p4643
I4658
sS'soft'
p4644
I4659
sS'backlog'
p4645
I1348
sS'164'
p4646
I4661
sS'he\x94'
p4647
I4662
sS'revers'
p4648
I3322
sS'george\x92'
p4649
I4664
sS'deutschland'
p4650
I4665
sS'reassur'
p4651
I4666
sS'church'
p4652
I4667
sS'later\x97sh'
p4653
I4668
sS'poop'
p4654
I4007
sS'us\x94'
p4655
I3945
sS'splinter'
p4656
I598
sS'115'
p4657
I3589
sS'114'
p4658
I756
sS'117'
p4659
I775
sS'116'
p4660
I3596
sS'111'
p4661
I820
sS'110'
p4662
I3603
sS'113'
p4663
I856
sS'112'
p4664
I3610
sS'wonder\x94'
p4665
I1530
sS'home'
p4666
I4681
sS'\x93a'
p4667
I4682
sS'drop'
p4668
I4663
sS'119'
p4669
I3627
sS'118'
p4670
I4685
sS'bantam'
p4671
I4687
sS'womens\x92'
p4672
I4688
sS'trust'
p4673
I4689
sS'pinpoint'
p4674
I4690
sS'lead'
p4675
I4691
sS'leak'
p4676
I4692
sS'avoid'
p4677
I4693
sS'lean'
p4678
I4694
sS'thank'
p4679
I4695
sS'shone'
p4680
I1991
sS'relented\x94'
p4681
I3687
sS'leap'
p4682
I4699
sS'warehouseman'
p4683
I1667
sS'passion'
p4684
I3702
sS'settl'
p4685
I4702
sS'pleasur'
p4686
I784
sS'careless'
p4687
I4703
sS'nake'
p4688
I4704
sS'sandwich\x94'
p4689
I4705
sS'swept'
p4690
I4724
sS'stairway'
p4691
I3743
sS'encourag'
p4692
I3749
sS'\x938'
p4693
I3755
sS'room\x97ther'
p4694
I4709
sS'loom'
p4695
I4710
sS'proud'
p4696
I2547
sS'slight'
p4697
I1089
sS'poke'
p4698
I3764
sS'drift'
p4699
I4713
sS'journal'
p4700
I4714
sS'wino'
p4701
I4715
sS'anita\x94'
p4702
I3123
sS'\x93yeah\x94'
p4703
I4717
sS'captain\x92'
p4704
I4878
sS'although'
p4705
I4718
sS'we\x94'
p4706
I4719
sS'instinct'
p4707
I4720
sS'especially\x85h'
p4708
I4721
sS'pill\x94'
p4709
I4723
sS'terminated\x94'
p4710
I2485
sS'stage'
p4711
I2372
sS'jam'
p4712
I4305
sS'about'
p4713
I4726
sS'store\x94'
p4714
I3412
sS'front\x85'
p4715
I1977
sS'gladmor'
p4716
I3879
sS'column'
p4717
I4730
sS'\x93an'
p4718
I2726
sS'waist'
p4719
I4181
sS'flake'
p4720
I4733
sS'moment\x94'
p4721
I4734
sS'seat\x94'
p4722
I4735
sS'fear'
p4723
I374
sS'carrier'
p4724
I4737
sS'sweat'
p4725
I4738
sS'160'
p4726
I4739
sS'toma'
p4727
I4740
sS'\x93watch'
p4728
I4741
sS'flair'
p4729
I4542
sS'heathercliff\x94'
p4730
I4743
sS'\x93if'
p4731
I4881
sS'he\x92ll'
p4732
I4745
sS'world\x92'
p4733
I4049
sS'own'
p4734
I3981
sS'88'
p4735
I4810
sS'absolut'
p4736
I4747
sS'societi'
p4737
I4050
sS'\x93sometimes\x94'
p4738
I4592
sS'payment'
p4739
I4750
sS'unopen'
p4740
I3884
sS'automat'
p4741
I4751
sS'those\x94'
p4742
I3908
sS'guard'
p4743
I4752
sS'lung'
p4744
I4753
sS'brush'
p4745
I4754
sS'pussi'
p4746
I4755
sS'forget'
p4747
I2487
sS'brass'
p4748
I4756
sS'mad\x94'
p4749
I4836
sS'eh'
p4750
I4757
sS'beerdrunk'
p4751
I4591
sS'\x93like'
p4752
I4758
sS'writers\x92'
p4753
I4759
sS'\x93willi'
p4754
I4760
sS'pictur'
p4755
I4761
sS'transfer'
p4756
I4762
sS'mander'
p4757
I4763
sS'secret'
p4758
I4764
sS'intellig'
p4759
I4766
sS'trigger'
p4760
I2541
sS'162'
p4761
I4768
sS'vein'
p4762
I4884
sS'\x93go'
p4763
I4770
sS'booki'
p4764
I4771
sS'was\x94'
p4765
I3612
sS'larges'
p4766
I4231
sS'milkman\x92'
p4767
I2468
sS'\x93when\x92'
p4768
I4775
sS'backhand'
p4769
I4776
sS'cooki'
p4770
I3224
sS'appoint'
p4771
I4886
sS'tasket'
p4772
I4779
sS'buy'
p4773
I4780
sS'north'
p4774
I4216
sS'childmolestor'
p4775
I4782
sS'bus'
p4776
I4783
sS'bother'
p4777
I4188
sS'but'
p4778
I4785
sS'\x93short'
p4779
I4786
sS'porterhous'
p4780
I4787
sS'163'
p4781
I1160
sS'bodi'
p4782
I3787
sS'bun'
p4783
I4790
sS'gain'
p4784
I4791
sS'nut'
p4785
I4792
sS'whistl'
p4786
I4277
sS'beat'
p4787
I4319
sS'overflow'
p4788
I385
sS'highest'
p4789
I4293
sS'signal'
p4790
I3438
sS'bug'
p4791
I4302
sS'bud'
p4792
I4798
sS'he'
p4793
I4799
sS'count'
p4794
I4800
sS'also'
p4795
I3407
sS'decemb'
p4796
I4801
sS'dying\x94'
p4797
I4286
sS'wise'
p4798
I4803
sS'\x93suppos'
p4799
I1728
sS'tab'
p4800
I3898
sS'did\x94'
p4801
I1668
sS'veget'
p4802
I4350
sS'wish'
p4803
I4807
sS'unload'
p4804
I4808
sS'municip'
p4805
I4366
sS'flip'
p4806
I4371
sS'vice'
p4807
I3658
sS'counterattack'
p4808
I2676
sS'venetian'
p4809
I4813
sS'727'
p4810
I4387
sS'period\x94'
p4811
I674
sS'89'
p4812
I4060
sS'indefinit'
p4813
I1515
sS'fetch'
p4814
I4817
sS'cake'
p4815
I4818
sS'unnot'
p4816
I4819
sS'yours\x94'
p4817
I1423
sS'am\x97or'
p4818
I3678
sS'display'
p4819
I4822
sS'again\x94'
p4820
I4433
sS'fold'
p4821
I3753
sS'place\x94'
p4822
I4825
sS'\x93can\x92t'
p4823
I4826
sS'blous'
p4824
I4827
sS'pin'
p4825
I4829
sS'stained\x97w'
p4826
I4463
sS'garter'
p4827
I591
sS'\x93now\x94'
p4828
I4477
sS'pie'
p4829
I4833
sS'twist'
p4830
I4834
sS'cap'
p4831
I1462
sS'guy'
p4832
I2901
sS'ink'
p4833
I1985
sS'gstring\x97th'
p4834
I4428
sS'mistaken'
p4835
I4588
sS'another\x94'
p4836
I2848
sS'pit'
p4837
I4840
sS'girl'
p4838
I4841
sS'halfdozen'
p4839
I4842
sS'probabl'
p4840
I4843
sS'homosexuals\x94'
p4841
I4844
sS'brake\x94'
p4842
I4845
sS'booz'
p4843
I761
sS'81'
p4844
I4065
sS'francisco\x92'
p4845
I2085
sS'buckl'
p4846
I4670
sS'49'
p4847
I4849
sS'46'
p4848
I4850
sS'86'
p4849
I1595
sS'greentongu'
p4850
I4578
sS'lasts\x94'
p4851
I4279
sS'boot'
p4852
I4586
sS'43'
p4853
I4855
sS'40'
p4854
I4856
sS'87'
p4855
I4067
sS'longer'
p4856
I4288
sS'nobody\x92'
p4857
I4858
sS'other'
p4858
I4611
sS'texa'
p4859
I4289
sS'84'
p4860
I4068
sS'branch'
p4861
I3585
sS'\x93twelv'
p4862
I3278
sS'inequity\x94'
p4863
I4864
sS'wing'
p4864
I2987
sS'redden'
p4865
I4866
sS'misty\x94'
p4866
I4867
sS'dresser'
p4867
I4868
sS'\x93is'
p4868
I4869
sS'pineappl'
p4869
I4870
sS'20000'
p4870
I4871
sS'francisco'
p4871
I4047
sS'star'
p4872
I4873
sS'lover\x94'
p4873
I4874
sS'monday'
p4874
I4875
sS'\x93it'
p4875
I4876
sS'class'
p4876
I4877
sS'placid'
p4877
I4036
sS'stay'
p4878
I4879
sS'gone\x94'
p4879
I4880
sS'this\x94'
p4880
I4744
sS'previous'
p4881
I4882
sS'\x93henry\x85\x94'
p4882
I4052
sS'humbl'
p4883
I4765
sS'\x93hi\x94'
p4884
I4769
sS'cliff'
p4885
I4885
sS'ghost'
p4886
I1281
sS'coat'
p4887
I2762
sS'\x93brad\x94'
p4888
I1284
sS'they\x94'
p4889
I4889
sS'unfit\x94'
p4890
I4890
sS'here\x97and'
p4891
I4891
sS'involv'
p4892
I4892
sS'tomor'
p4893
I4893
sS'fucker'
p4894
I4894
sS'pupil'
p4895
I2163
sS'dresses\x94'
p4896
I4896
sS'30'
p4897
I3807
sS'captiv'
p4898
I3614
sS'sincer'
p4899
I4898
sS'169'
p4900
I4899
s.