(dp0
S'yellow'
p1
I0
sS'knicker'
p2
I10
sS'"lady"'
p3
I2
sS'sputter'
p4
I3
sS'lord'
p5
I4
sS'advice"'
p6
I5
sS'callin'
p7
I6
sS'writing"'
p8
I7
sS'foul'
p9
I8
sS'fur'
p10
I9
sS'four'
p11
I1
sS'disturb'
p12
I11
sS'prize'
p13
I12
sS'cienega'
p14
I2540
sS'wooden'
p15
I13
sS'wednesday'
p16
I14
sS'oooh'
p17
I15
sS'straight'
p18
I16
sS'"hmmm'
p19
I17
sS'her"'
p20
I18
sS'bacon'
p21
I19
sS'second'
p22
I20
sS'journalism"'
p23
I21
sS'nature"'
p24
I22
sS'kid"'
p25
I23
sS'herebi'
p26
I70
sS'intellectu'
p27
I24
sS'crouch'
p28
I220
sS'reasons"'
p29
I26
sS'error'
p30
I27
sS'here'
p31
I28
sS'gardening"'
p32
I29
sS'chink'
p33
I31
sS"i'v"
p34
I32
sS'strewn'
p35
I33
sS'militari'
p36
I34
sS'k'
p37
I35
sS'"mortenson'
p38
I36
sS"i'd"
p39
I37
sS"i'm"
p40
I38
sS'finger"'
p41
I285
sS'pieces"'
p42
I40
sS'"oh"'
p43
I41
sS'golden'
p44
I42
sS'"pomp'
p45
I43
sS'circumstance"'
p46
I44
sS'brought'
p47
I45
sS'"leav'
p48
I955
sS'stern'
p49
I47
sS'cops"'
p50
I48
sS'anywhere"'
p51
I49
sS'unit'
p52
I319
sS'symphoni'
p53
I51
sS'spoke'
p54
I52
sS'"throw'
p55
I53
sS'"ditch'
p56
I54
sS'strike'
p57
I55
sS'care'
p58
I56
sS'until'
p59
I57
sS'buddi'
p60
I2745
sS'relax'
p61
I59
sS'relat'
p62
I60
sS'notic'
p63
I61
sS'hurt'
p64
I62
sS'99'
p65
I63
sS'glass'
p66
I64
sS'holi'
p67
I65
sS'hurl'
p68
I66
sS'91'
p69
I67
sS'90'
p70
I68
sS'93'
p71
I390
sS'hold'
p72
I392
sS'95'
p73
I71
sS'94'
p74
I72
sS'97'
p75
I73
sS'96'
p76
I74
sS'accid'
p77
I75
sS'blade'
p78
I76
sS'igor"'
p79
I77
sS'locker'
p80
I78
sS'catch"'
p81
I79
sS'want'
p82
I80
sS'hog'
p83
I81
sS'shuffl'
p84
I82
sS'gutsdilling'
p85
I83
sS'cylind'
p86
I84
sS'travel'
p87
I85
sS'around"'
p88
I86
sS'how'
p89
I87
sS'hot'
p90
I88
sS'hop'
p91
I89
sS"doesn't"
p92
I5451
sS'ahoppin\'"'
p93
I91
sS'pimpl'
p94
I92
sS'wrong'
p95
I93
sS'beauti'
p96
I94
sS'crevic'
p97
I95
sS'warfar'
p98
I96
sS'revolv'
p99
I97
sS'childhood'
p100
I98
sS'wink'
p101
I99
sS'18th'
p102
I100
sS'someplac'
p103
I101
sS'wing'
p104
I102
sS'wind'
p105
I103
sS'wine'
p106
I104
sS'effect"'
p107
I105
sS'school"'
p108
I106
sS'kickoff'
p109
I107
sS'surrend'
p110
I108
sS'foodstuff'
p111
I109
sS'"put'
p112
I110
sS'vari'
p113
I111
sS'dreamer'
p114
I112
sS'"leonard'
p115
I113
sS'fit'
p116
I114
sS'fix'
p117
I115
sS'inan'
p118
I116
sS'ready"'
p119
I117
sS'stanhope"'
p120
I118
sS'hidden'
p121
I119
sS'interrupt'
p122
I120
sS'yourself'
p123
I1872
sS'silver'
p124
I122
sS'sixfoot'
p125
I123
sS'"especi'
p126
I124
sS'arrow'
p127
I125
sS"we'r"
p128
I126
sS"we'v"
p129
I127
sS'unshad'
p130
I128
sS'spider'
p131
I129
sS"we'd"
p132
I130
sS'"so"'
p133
I131
sS'commiss'
p134
I132
sS'whip'
p135
I133
sS'"clot'
p136
I134
sS'at"'
p137
I135
sS'nightmar'
p138
I136
sS'"mayb'
p139
I137
sS'"hey'
p140
I138
sS'piss"'
p141
I139
sS'"her'
p142
I140
sS'christma'
p143
I141
sS'ate'
p144
I142
sS'district'
p145
I143
sS'130258'
p146
I144
sS'unabl'
p147
I145
sS'card"'
p148
I4750
sS'confus'
p149
I147
sS'fingernails"'
p150
I148
sS'meadows"'
p151
I149
sS'mingl'
p152
I150
sS'wast'
p153
I151
sS'wash'
p154
I152
sS'instruct'
p155
I153
sS'"we\'r'
p156
I154
sS'"we\'v'
p157
I155
sS'tangl'
p158
I156
sS'"pleas'
p159
I157
sS'master'
p160
I158
sS'gilbert'
p161
I159
sS'bitter'
p162
I160
sS'listen'
p163
I161
sS'motionless'
p164
I162
sS'was"'
p165
I163
sS'crawl'
p166
I164
sS'cheekbon'
p167
I165
sS'coward'
p168
I166
sS'tree'
p169
I167
sS'shower'
p170
I168
sS'old"'
p171
I169
sS'"sure"'
p172
I170
sS'runner'
p173
I171
sS'miniatur'
p174
I172
sS'well"'
p175
I173
sS'that'
p176
I174
sS'guys"'
p177
I175
sS'season'
p178
I4757
sS'karamazov'
p179
I177
sS'mouth'
p180
I178
sS'letter'
p181
I179
sS'jerkingoff'
p182
I180
sS'long"'
p183
I1027
sS'wellf'
p184
I182
sS'grove'
p185
I183
sS'camp'
p186
I184
sS'hospit'
p187
I185
sS'scream'
p188
I186
sS'came'
p189
I187
sS'marvel'
p190
I188
sS'bomb'
p191
I189
sS'lethal'
p192
I190
sS'bust'
p193
I191
sS'bush'
p194
I192
sS'busi'
p195
I193
sS'rich'
p196
I194
sS'green"'
p197
I195
sS'plate'
p198
I196
sS'pisssmel'
p199
I197
sS'ceil'
p200
I198
sS'pocket'
p201
I199
sS'giggl'
p202
I200
sS'yellow\'"'
p203
I201
sS'relish'
p204
I202
sS'louis"'
p205
I203
sS'pretzel'
p206
I1196
sS'patch'
p207
I205
sS'krautland"'
p208
I206
sS'lesson"'
p209
I207
sS'them"'
p210
I208
sS'typewriter"'
p211
I209
sS'bus"'
p212
I210
sS'men"'
p213
I211
sS'respond'
p214
I212
sS'blew'
p215
I213
sS'fair'
p216
I214
sS'bgirl'
p217
I215
sS'"incredible"'
p218
I216
sS'result'
p219
I217
sS'respons'
p220
I218
sS'fail'
p221
I219
sS'hero'
p222
I25
sS'hammer'
p223
I221
sS'best'
p224
I222
sS'dishwash'
p225
I223
sS'ackerman'
p226
I224
sS'irv'
p227
I225
sS'figur'
p228
I226
sS'score'
p229
I227
sS'trigger"'
p230
I228
sS'adventure"'
p231
I229
sS'glasgow'
p232
I230
sS'rundown'
p233
I231
sS'never'
p234
I2770
sS'cut'
p235
I233
sS'extent'
p236
I234
sS'advertis'
p237
I235
sS'debt'
p238
I236
sS'"stop'
p239
I237
sS'workshelf"'
p240
I238
sS'met'
p241
I239
sS'unemploy'
p242
I240
sS'edgar'
p243
I241
sS'piti'
p244
I242
sS'ambition"'
p245
I243
sS'lot"'
p246
I1343
sS'floormat'
p247
I245
sS'money"'
p248
I246
sS'gopher'
p249
I247
sS'2nd'
p250
I248
sS'assum'
p251
I249
sS'101'
p252
I2779
sS'union'
p253
I251
sS'fri'
p254
I252
sS'cue'
p255
I253
sS'much'
p256
I254
sS'stadium'
p257
I255
sS'advers'
p258
I256
sS'pro'
p259
I4773
sS'hesit'
p260
I258
sS'needed"'
p261
I259
sS'life'
p262
I260
sS'spit'
p263
I261
sS'worker'
p264
I262
sS'sonsofbitches"'
p265
I263
sS'snap'
p266
I264
sS'lift'
p267
I265
sS'child'
p268
I266
sS'chili'
p269
I267
sS'spin'
p270
I268
sS'cunt'
p271
I269
sS'employ'
p272
I270
sS'marriag'
p273
I271
sS'"sound'
p274
I272
sS'"twentyon'
p275
I273
sS'player'
p276
I274
sS'eighteen'
p277
I275
sS'south"'
p278
I276
sS'violin'
p279
I277
sS'unprofession'
p280
I778
sS'top"'
p281
I278
sS'toaster'
p282
I279
sS'split'
p283
I280
sS'jungl'
p284
I281
sS'"aren\'t'
p285
I282
sS'refil'
p286
I283
sS'"who'
p287
I284
sS'"whi'
p288
I39
sS'timecard'
p289
I286
sS'unhook'
p290
I287
sS'forsaken'
p291
I288
sS'"polish'
p292
I289
sS'sleepi'
p293
I290
sS'ham'
p294
I291
sS'easi'
p295
I292
sS'had'
p296
I293
sS'ooooh'
p297
I294
sS'prison'
p298
I1626
sS'east'
p299
I296
sS'hat'
p300
I297
sS'birth'
p301
I298
sS'shadow'
p302
I299
sS'immelman'
p303
I2789
sS'ha"'
p304
I301
sS'"fast"'
p305
I987
sS'pavement'
p306
I303
sS'attorney'
p307
I304
sS'right'
p308
I305
sS'old'
p309
I306
sS'crowd'
p310
I307
sS'anna"'
p311
I308
sS'"will'
p312
I309
sS'demerits"'
p313
I310
sS'sure'
p314
I311
sS'left"'
p315
I312
sS'creep'
p316
I313
sS'fop'
p317
I314
sS'for'
p318
I315
sS'bottom'
p319
I316
sS'undisturb'
p320
I317
sS'"join'
p321
I318
sS"ne'erdowel"
p322
I50
sS'condit'
p323
I320
sS'dollar"'
p324
I321
sS'sensibl'
p325
I322
sS'forever"'
p326
I323
sS'"veri'
p327
I324
sS'colleg'
p328
I325
sS'doesn\'t"'
p329
I326
sS'lefti'
p330
I327
sS'"heil'
p331
I328
sS'slither'
p332
I329
sS'filipino'
p333
I331
sS'bandag'
p334
I332
sS'nixon'
p335
I333
sS'lewis"'
p336
I334
sS'sob'
p337
I335
sS'son'
p338
I336
sS'wrap'
p339
I337
sS'support'
p340
I338
sS'happi'
p341
I339
sS'avail'
p342
I340
sS'acknowledg'
p343
I341
sS'jane'
p344
I342
sS'music'
p345
I891
sS'overhang'
p346
I344
sS'"dime'
p347
I345
sS'headach'
p348
I346
sS'so"'
p349
I347
sS'armi'
p350
I2797
sS'"show'
p351
I349
sS'minute\'"'
p352
I350
sS'tell'
p353
I2799
sS'nicest'
p354
I352
sS'wait"'
p355
I353
sS'151'
p356
I354
sS'150'
p357
I355
sS'153'
p358
I356
sS'152'
p359
I1960
sS'155'
p360
I358
sS'154'
p361
I359
sS'157'
p362
I360
sS'156'
p363
I361
sS'textbook'
p364
I362
sS'exist'
p365
I363
sS'splotch'
p366
I364
sS'mrs'
p367
I1914
sS'counterspi'
p368
I366
sS'floor'
p369
I367
sS'actor'
p370
I368
sS'pasadena'
p371
I369
sS'presum'
p372
I370
sS'smell'
p373
I371
sS'roll'
p374
I372
sS'steamship'
p375
I373
sS'legitim'
p376
I374
sS'devot'
p377
I375
sS'ointment'
p378
I376
sS'modelt'
p379
I377
sS'intent'
p380
I378
sS'"wanna'
p381
I379
sS'miranda'
p382
I380
sS'98'
p383
I381
sS'idea"'
p384
I4789
sS'time'
p385
I383
sS'push'
p386
I384
sS'grandfath'
p387
I2805
sS'gown'
p388
I386
sS'orientation"'
p389
I387
sS'chain'
p390
I388
sS'chair'
p391
I389
sS'hole'
p392
I69
sS'decid'
p393
I391
sS'92'
p394
I1608
sS'pen'
p395
I393
sS'buddy"'
p396
I394
sS'jerk'
p397
I395
sS'exact'
p398
I397
sS'tear'
p399
I398
sS'teas'
p400
I399
sS'poor"'
p401
I400
sS'"they\'r'
p402
I401
sS'team'
p403
I402
sS'prevent'
p404
I403
sS'blackand'
p405
I404
sS'meadow'
p406
I405
sS'"these'
p407
I406
sS'"first'
p408
I407
sS'invinc'
p409
I408
sS'sign'
p410
I409
sS'heavyweight'
p411
I410
sS'melt'
p412
I411
sS'current'
p413
I412
sS'sixpack'
p414
I413
sS'pretty"'
p415
I414
sS'"begin'
p416
I415
sS'sandwiches"'
p417
I416
sS'address'
p418
I417
sS'along'
p419
I418
sS'steak"'
p420
I419
sS'brilliant'
p421
I420
sS'root'
p422
I2815
sS'dusti'
p423
I422
sS'ourselv'
p424
I423
sS'love'
p425
I424
sS'radish'
p426
I425
sS'prefer'
p427
I426
sS'fake'
p428
I427
sS'pencils"'
p429
I428
sS'bloodi'
p430
I429
sS'wood'
p431
I4798
sS'angri'
p432
I430
sS'peopl'
p433
I431
sS'easiest'
p434
I432
sS'orphan"'
p435
I433
sS'pretend'
p436
I434
sS'pineapples"'
p437
I435
sS'whatev'
p438
I436
sS'materi'
p439
I1016
sS'heard"'
p440
I438
sS'stole'
p441
I439
sS'"loiter'
p442
I440
sS'stapen'
p443
I441
sS'"13"'
p444
I442
sS'hide"'
p445
I443
sS'spot'
p446
I444
sS'laundri'
p447
I445
sS'date'
p448
I446
sS'such'
p449
I447
sS'suck'
p450
I448
sS'dove'
p451
I449
sS'stockboy"'
p452
I450
sS'conscious'
p453
I451
sS'wheelchair'
p454
I452
sS'su'
p455
I453
sS'truck'
p456
I454
sS'swollen'
p457
I455
sS'untest'
p458
I456
sS'"god"'
p459
I457
sS'horrifi'
p460
I458
sS'kong'
p461
I459
sS'yearn'
p462
I460
sS'early"'
p463
I461
sS'batch"'
p464
I462
sS'tore'
p465
I463
sS'thumb'
p466
I464
sS'did"'
p467
I465
sS'torn'
p468
I466
sS'hoho'
p469
I467
sS'"crap"'
p470
I468
sS'thump'
p471
I469
sS'dead"'
p472
I470
sS'hemingway'
p473
I1024
sS'apron'
p474
I472
sS'nation'
p475
I473
sS'twilight'
p476
I474
sS'plung'
p477
I475
sS'50centsaweek'
p478
I476
sS'revers'
p479
I477
sS'separ'
p480
I478
sS'reveri'
p481
I479
sS'quarter'
p482
I2685
sS'trouble"'
p483
I481
sS'quit"'
p484
I482
sS'receipt'
p485
I483
sS'prostitut'
p486
I484
sS'"find'
p487
I485
sS'"fine'
p488
I486
sS'bathrob'
p489
I487
sS'uppermiddleclass'
p490
I488
sS'stool'
p491
I3507
sS'million'
p492
I490
sS'envelop'
p493
I491
sS'unpublish'
p494
I492
sS'chainlength'
p495
I493
sS'vneck'
p496
I2830
sS'grandma'
p497
I495
sS'somebody"'
p498
I496
sS'verve"'
p499
I2800
sS'departur'
p500
I498
sS'"suicide"'
p501
I499
sS'punk'
p502
I500
sS'punt'
p503
I2823
sS'alcov'
p504
I502
sS'neglect'
p505
I503
sS'oper'
p506
I504
sS'mercy"'
p507
I2846
sS'onc'
p508
I2847
sS'one'
p509
I507
sS'submit'
p510
I1031
sS'vote'
p511
I509
sS'open'
p512
I510
sS'boulevard'
p513
I511
sS'bite'
p514
I512
sS'"come'
p515
I1943
sS'citi'
p516
I514
sS'2'
p517
I515
sS'streetlight'
p518
I516
sS'"let'
p519
I517
sS'much"'
p520
I518
sS'on"'
p521
I519
sS'snatch'
p522
I520
sS'packedoff'
p523
I521
sS'firebal'
p524
I522
sS'janitor'
p525
I523
sS'san'
p526
I524
sS'nicer'
p527
I525
sS'page"'
p528
I2973
sS'argument'
p529
I527
sS'alley'
p530
I528
sS'sad'
p531
I529
sS'say'
p532
I530
sS'"stuff'
p533
I531
sS'saw'
p534
I532
sS'sat'
p535
I533
sS'fertil'
p536
I534
sS'note'
p537
I535
sS'jefferson'
p538
I536
sS'take'
p539
I3023
sS'destroy'
p540
I538
sS'noth'
p541
I539
sS'knew'
p542
I540
sS'butterfli'
p543
I541
sS'abus'
p544
I542
sS'nice"'
p545
I543
sS'knee'
p546
I544
sS'lawn'
p547
I545
sS'sale'
p548
I3078
sS'landladi'
p549
I547
sS'backdrop'
p550
I548
sS'not"'
p551
I549
sS'something"'
p552
I550
sS'salv'
p553
I551
sS'elat'
p554
I552
sS'"50'
p555
I553
sS'bright'
p556
I554
sS'"wait"'
p557
I555
sS'slot'
p558
I556
sS'slow'
p559
I557
sS'unkind'
p560
I558
sS'activ'
p561
I559
sS'robe'
p562
I560
sS'clank'
p563
I561
sS'requir'
p564
I562
sS'disabled"'
p565
I563
sS'artist'
p566
I564
sS'saliva'
p567
I565
sS'borrow'
p568
I566
sS'crazy"'
p569
I567
sS'priest'
p570
I3246
sS'landlord'
p571
I569
sS'where'
p572
I570
sS'job"'
p573
I571
sS'fart"'
p574
I572
sS'"why"'
p575
I573
sS'roulette"'
p576
I5505
sS'830'
p577
I574
sS'"damn'
p578
I575
sS'harvey'
p579
I576
sS'man"'
p580
I577
sS'mope'
p581
I578
sS'jumper'
p582
I579
sS'screen'
p583
I580
sS'uncomb'
p584
I581
sS'spark'
p585
I582
sS'moon"'
p586
I583
sS'cagney'
p587
I584
sS'deck"'
p588
I585
sS'mang'
p589
I586
sS'mani'
p590
I587
sS'"for'
p591
I588
sS"can't"
p592
I589
sS'want"'
p593
I590
sS'anti'
p594
I591
sS'boar'
p595
I592
sS'boat'
p596
I593
sS'stretch'
p597
I594
sS'west'
p598
I595
sS'breath'
p599
I596
sS'monty"'
p600
I597
sS'games"'
p601
I598
sS'thousand'
p602
I599
sS'"good"'
p603
I600
sS'former'
p604
I602
sS'japs"'
p605
I2848
sS'enfold'
p606
I604
sS'"cheater'
p607
I605
sS'straighten'
p608
I606
sS'cannonbal'
p609
I607
sS'convinc'
p610
I608
sS'cost"'
p611
I609
sS'waggl'
p612
I610
sS'cubicl'
p613
I611
sS'econom'
p614
I612
sS'deft'
p615
I613
sS'edger'
p616
I614
sS'stirnov"'
p617
I615
sS'vacant'
p618
I616
sS'"dear'
p619
I617
sS'shut"'
p620
I618
sS'vacanc'
p621
I619
sS'unexplor'
p622
I620
sS'scholarship'
p623
I621
sS'summer'
p624
I622
sS'slime'
p625
I623
sS'rest'
p626
I624
sS'concentr'
p627
I625
sS'hell"'
p628
I1052
sS'tightfit'
p629
I627
sS'littl'
p630
I628
sS'grounder'
p631
I629
sS'strange"'
p632
I630
sS'hamilton"'
p633
I631
sS'around'
p634
I632
sS'dart'
p635
I633
sS'dark'
p636
I634
sS'"martinez"'
p637
I635
sS'traffic'
p638
I636
sS'pop'
p639
I4828
sS'vacuum'
p640
I638
sS'world'
p641
I639
sS'dare'
p642
I640
sS'stranger'
p643
I641
sS'homeroom'
p644
I642
sS'dick"'
p645
I643
sS'wordless'
p646
I644
sS'pole'
p647
I4831
sS'walden'
p648
I2545
sS'claw'
p649
I647
sS'manag'
p650
I648
sS'clap'
p651
I649
sS'auditorium'
p652
I650
sS'handshak'
p653
I651
sS'firesid'
p654
I652
sS'tube'
p655
I3854
sS'definit'
p656
I654
sS'nook'
p657
I655
sS'evolv'
p658
I656
sS'exit'
p659
I3866
sS'refer'
p660
I658
sS'power'
p661
I659
sS'ration'
p662
I660
sS'think"'
p663
I661
sS'stone'
p664
I662
sS'ace'
p665
I663
sS'ach'
p666
I664
sS'acn'
p667
I665
sS'slender'
p668
I666
sS'meal'
p669
I2861
sS'acr'
p670
I668
sS'neighbor'
p671
I669
sS'act'
p672
I670
sS'mean'
p673
I2863
sS'effici'
p674
I672
sS'lent'
p675
I3847
sS'surviv'
p676
I673
sS'survive"'
p677
I674
sS'sleeth'
p678
I675
sS'worried"'
p679
I676
sS'chinaski'
p680
I677
sS'her'
p681
I678
sS'gleam'
p682
I679
sS'hey'
p683
I680
sS'ass"'
p684
I681
sS'hee'
p685
I682
sS"how'd"
p686
I683
sS'mindless'
p687
I684
sS'bottl'
p688
I685
sS'allan'
p689
I686
sS'dribbl'
p690
I687
sS'with'
p691
I688
sS'congratul'
p692
I689
sS'pull'
p693
I690
sS'rush'
p694
I691
sS'dirti'
p695
I692
sS'sisters"'
p696
I693
sS'pulp'
p697
I695
sS'rust'
p698
I696
sS'darker'
p699
I697
sS'pulitz'
p700
I698
sS'gone'
p701
I699
sS'ad'
p702
I700
sS'creat'
p703
I701
sS'certain'
p704
I702
sS'am'
p705
I703
sS'an'
p706
I704
sS'as'
p707
I705
sS'at'
p708
I706
sS'johnni'
p709
I707
sS'creak'
p710
I708
sS'slobber'
p711
I709
sS'cream'
p712
I710
sS'"we\'ll'
p713
I711
sS'whir'
p714
I712
sS'tight'
p715
I2050
sS'1115'
p716
I714
sS'immens'
p717
I715
sS'walk"'
p718
I716
sS'slant'
p719
I717
sS'oh"'
p720
I718
sS'fresh'
p721
I1064
sS'stockclerk'
p722
I720
sS'thorn'
p723
I721
sS'mash'
p724
I722
sS'mass'
p725
I723
sS'nelson'
p726
I4208
sS'gingham'
p727
I725
sS'consider'
p728
I726
sS'delsey'
p729
I727
sS'merchandis'
p730
I728
sS'booze"'
p731
I730
sS'to'
p732
I731
sS'"sit'
p733
I732
sS'smile'
p734
I733
sS'td'
p735
I734
sS'tb'
p736
I735
sS'introduc'
p737
I736
sS'ta'
p738
I737
sS'reader'
p739
I2872
sS'deathgrip'
p740
I4306
sS'strang'
p741
I740
sS'strand'
p742
I741
sS'broken"'
p743
I742
sS'harri'
p744
I743
sS'sang'
p745
I744
sS'sand'
p746
I745
sS'sane'
p747
I4335
sS'small'
p748
I747
sS'kozak'
p749
I3999
sS'hour"'
p750
I4352
sS'quicker'
p751
I750
sS'190'
p752
I751
sS'past'
p753
I752
sS'pass'
p754
I753
sS'growingup'
p755
I754
sS'richard'
p756
I755
sS'clock'
p757
I756
sS'section'
p758
I757
sS'full'
p759
I758
sS'hash'
p760
I759
sS'smartest'
p761
I761
sS'eighthour'
p762
I762
sS'"baldy"'
p763
I763
sS'persh'
p764
I764
sS'pick'
p765
I4487
sS'action'
p766
I766
sS'fuck"'
p767
I767
sS'yourself"'
p768
I768
sS'lilli'
p769
I769
sS'depart'
p770
I770
sS'"christ"'
p771
I771
sS'anytim'
p772
I4856
sS'guess"'
p773
I773
sS'select'
p774
I774
sS'pearl'
p775
I775
sS'morn'
p776
I776
sS'6'
p777
I777
sS'tag'
p778
I5648
sS'more'
p779
I1501
sS'door'
p780
I779
sS'hundr'
p781
I780
sS'compani'
p782
I781
sS'phillip'
p783
I782
sS'malt'
p784
I783
sS'"bunker'
p785
I784
sS'learn'
p786
I785
sS'male'
p787
I786
sS'salti'
p788
I787
sS'challeng'
p789
I788
sS'accept'
p790
I789
sS'plan"'
p791
I790
sS'gallon'
p792
I791
sS'scar'
p793
I792
sS'treatment"'
p794
I793
sS'huge'
p795
I794
sS'"nazi"'
p796
I795
sS'simpl'
p797
I796
sS'plant'
p798
I797
sS'plane'
p799
I798
sS'backyard'
p800
I799
sS'plank'
p801
I800
sS'"guy'
p802
I801
sS'circumst'
p803
I802
sS'pucker'
p804
I803
sS'wrench'
p805
I804
sS'cigarett'
p806
I805
sS'mexican'
p807
I806
sS'pant'
p808
I807
sS'army"'
p809
I808
sS'paper'
p810
I809
sS'looks"'
p811
I810
sS'broadway'
p812
I811
sS'course"'
p813
I812
sS'alli'
p814
I813
sS'"nice'
p815
I814
sS'yellow"'
p816
I815
sS'sucker'
p817
I816
sS'it"'
p818
I817
sS'great"'
p819
I818
sS'lookse'
p820
I819
sS'radio"'
p821
I820
sS'all"'
p822
I821
sS'chinese"'
p823
I822
sS'found'
p824
I824
sS'england'
p825
I825
sS'terrifi'
p826
I826
sS'realli'
p827
I827
sS'quick"'
p828
I828
sS'sherril'
p829
I4427
sS'agre'
p830
I2886
sS'lipstick'
p831
I831
sS'do\'"'
p832
I832
sS'stodolski'
p833
I833
sS'roominghous'
p834
I5513
sS'cockpit'
p835
I834
sS'believ'
p836
I835
sS'struggl'
p837
I836
sS'sicken'
p838
I837
sS'afternoon'
p839
I3054
sS'bumper'
p840
I838
sS'clump'
p841
I839
sS'undersid'
p842
I840
sS'major'
p843
I841
sS'fetuseat'
p844
I5047
sS'number'
p845
I843
sS'underlip'
p846
I844
sS'slipper'
p847
I845
sS'horribl'
p848
I846
sS'fixedup'
p849
I847
sS'glitter'
p850
I848
sS'differ'
p851
I849
sS'"sure'
p852
I850
sS'jew'
p853
I851
sS'jet'
p854
I852
sS'easy"'
p855
I853
sS'remember"'
p856
I854
sS'saint'
p857
I855
sS'first"'
p858
I856
sS'consult'
p859
I857
sS'grace'
p860
I858
sS'"henri'
p861
I859
sS'vocal'
p862
I860
sS'head"'
p863
I861
sS'arrang'
p864
I862
sS'packag'
p865
I863
sS'blond'
p866
I864
sS'sell'
p867
I865
sS'odd'
p868
I866
sS'sherwood'
p869
I867
sS'also'
p870
I868
sS'understand"'
p871
I869
sS'sometime"'
p872
I870
sS'play'
p873
I871
sS'blackboard'
p874
I872
sS'fuckingoff'
p875
I873
sS'plan'
p876
I874
sS'wive'
p877
I875
sS'refrigerator"'
p878
I876
sS'fight"'
p879
I877
sS'"pour'
p880
I878
sS'"sinc'
p881
I879
sS'scuffl'
p882
I880
sS'lacross'
p883
I881
sS'cover'
p884
I882
sS'gabl'
p885
I883
sS'barrel'
p886
I884
sS'bulletin'
p887
I885
sS'golf'
p888
I886
sS'thirtythre'
p889
I887
sS'gold'
p890
I888
sS'session'
p891
I889
sS'lilly"'
p892
I890
sS'writer'
p893
I892
sS'solut'
p894
I893
sS'"thank'
p895
I894
sS'"jesus"'
p896
I895
sS'"neither'
p897
I896
sS'lombard'
p898
I897
sS"they'v"
p899
I898
sS'alive"'
p900
I899
sS"they'r"
p901
I900
sS'streamer'
p902
I1146
sS"they'd"
p903
I901
sS'sunni'
p904
I902
sS'bird'
p905
I903
sS'enemi'
p906
I904
sS'nowher'
p907
I905
sS'leg"'
p908
I906
sS'set'
p909
I907
sS'sex'
p910
I908
sS'see'
p911
I909
sS'sec'
p912
I910
sS'sea'
p913
I911
sS'"shut'
p914
I912
sS'movin'
p915
I913
sS'pickup'
p916
I914
sS'windmill"'
p917
I915
sS'crosswalk'
p918
I916
sS'kneel'
p919
I917
sS'signatur'
p920
I918
sS'sip"'
p921
I919
sS'"sometim'
p922
I920
sS'"garbag'
p923
I921
sS'"noth'
p924
I922
sS'last'
p925
I923
sS'lash'
p926
I924
sS'whole'
p927
I925
sS'blaze'
p928
I3865
sS'load'
p929
I927
sS'bell'
p930
I928
sS'schedul'
p931
I929
sS'loan'
p932
I930
sS'hollow'
p933
I931
sS'church'
p934
I932
sS'belt'
p935
I933
sS'devil'
p936
I934
sS'"d"'
p937
I935
sS'fifteen'
p938
I936
sS'"1m'
p939
I937
sS'perpetu'
p940
I938
sS'homosexu'
p941
I939
sS'nonexist'
p942
I940
sS'firm'
p943
I941
sS'agent"'
p944
I942
sS'fire'
p945
I943
sS'infect'
p946
I944
sS"what'r"
p947
I945
sS'remark'
p948
I946
sS'fund'
p949
I947
sS'educ'
p950
I948
sS'bitchi'
p951
I949
sS'crenshaw'
p952
I950
sS'"do'
p953
I951
sS'"thirti'
p954
I952
sS'"dr'
p955
I953
sS'real'
p956
I2005
sS'pound'
p957
I46
sS'ream'
p958
I2006
sS'von'
p959
I957
sS'"look'
p960
I958
sS'vanish'
p961
I959
sS'chase'
p962
I961
sS'grandparents"'
p963
I962
sS'barney'
p964
I963
sS'hatcher"'
p965
I964
sS'shorter'
p966
I965
sS'funni'
p967
I966
sS'dozen'
p968
I967
sS'nabi'
p969
I968
sS'cigar'
p970
I969
sS'stack'
p971
I970
sS'kelli'
p972
I971
sS'pickl'
p973
I972
sS'person'
p974
I973
sS'expens'
p975
I974
sS'elev'
p976
I975
sS'yet"'
p977
I976
sS'"their'
p978
I977
sS'telegram'
p979
I978
sS'project"'
p980
I979
sS'stunt'
p981
I2013
sS'tribe"'
p982
I981
sS'towel'
p983
I4899
sS'"calm'
p984
I983
sS'bruis'
p985
I984
sS'leisur'
p986
I985
sS'd'
p987
I986
sS'spine'
p988
I302
sS'cuff"'
p989
I988
sS'ivan'
p990
I989
sS'encount'
p991
I990
sS'goddamn'
p992
I5172
sS'"sneering"'
p993
I992
sS'palm'
p994
I993
sS'sight'
p995
I994
sS'greener'
p996
I995
sS'curious'
p997
I996
sS'sprint'
p998
I997
sS'pale'
p999
I998
sS'"where"'
p1000
I999
sS'timeclock'
p1001
I1000
sS'religion'
p1002
I1001
sS'machin'
p1003
I1002
sS'be'
p1004
I1003
sS'object'
p1005
I1004
sS'odor'
p1006
I1005
sS'agreement'
p1007
I1006
sS'"deep'
p1008
I1007
sS'"emily"'
p1009
I1008
sS'darkskin'
p1010
I1009
sS'tidal'
p1011
I1010
sS'carol'
p1012
I1011
sS'pal"'
p1013
I1012
sS'kearni'
p1014
I1013
sS'by'
p1015
I1014
sS'mortgag'
p1016
I1015
sS'"take'
p1017
I437
sS'hatcher'
p1018
I1017
sS'revolut'
p1019
I1018
sS'"ye'
p1020
I1019
sS'subconsci'
p1021
I1020
sS'repair'
p1022
I1021
sS'colorado'
p1023
I1022
sS'irrit'
p1024
I1023
sS'into'
p1025
I471
sS'savag'
p1026
I1025
sS'jack"'
p1027
I1026
sS'fast"'
p1028
I181
sS'next'
p1029
I1121
sS'occupi'
p1030
I1029
sS'sock'
p1031
I1030
sS'spad'
p1032
I508
sS'custom'
p1033
I1032
sS'suit'
p1034
I1033
sS'hawaiian'
p1035
I1034
sS'jewish'
p1036
I1035
sS'slump'
p1037
I1036
sS'"uh"'
p1038
I1037
sS'line'
p1039
I1038
sS'butteri'
p1040
I1039
sS'up'
p1041
I1040
sS'us'
p1042
I1041
sS'open"'
p1043
I1042
sS'lost"'
p1044
I1043
sS'side"'
p1045
I1044
sS'haunt'
p1046
I1045
sS'living"'
p1047
I1046
sS'bloodlin'
p1048
I1047
sS'chat'
p1049
I1048
sS'sports"'
p1050
I1049
sS'tuft'
p1051
I1050
sS'scrape'
p1052
I1051
sS'stiffli'
p1053
I626
sS'"women'
p1054
I1054
sS'ago'
p1055
I1055
sS'land'
p1056
I1056
sS'fighter'
p1057
I1057
sS'beechcroft'
p1058
I1058
sS'lana'
p1059
I1059
sS'expressionless'
p1060
I1060
sS'age'
p1061
I1061
sS'hitandrun'
p1062
I1062
sS'walker'
p1063
I1063
sS'grownup'
p1064
I719
sS'hello'
p1065
I1065
sS'"littl'
p1066
I1066
sS'essay'
p1067
I1067
sS'code'
p1068
I1068
sS'partial'
p1069
I1069
sS'fastsho'
p1070
I1070
sS'scratch'
p1071
I1071
sS'young'
p1072
I1072
sS'send'
p1073
I1073
sS'leonard"'
p1074
I1074
sS'sens'
p1075
I1075
sS'sent'
p1076
I1076
sS'unzip'
p1077
I1077
sS'garden'
p1078
I1078
sS'result"'
p1079
I1079
sS'wipe'
p1080
I1080
sS'tri'
p1081
I1081
sS'magic'
p1082
I1082
sS'harbor'
p1083
I1083
sS'kansa'
p1084
I1084
sS'sabr'
p1085
I1085
sS'race'
p1086
I1086
sS'whackoff'
p1087
I1087
sS'marri'
p1088
I1088
sS'rack'
p1089
I1089
sS'natur'
p1090
I1090
sS'pants"'
p1091
I1091
sS'unhappy"'
p1092
I1092
sS'spaghetti'
p1093
I1093
sS'victor'
p1094
I1094
sS'index'
p1095
I1095
sS'sauerkraut'
p1096
I1096
sS'that"'
p1097
I1097
sS'knees"'
p1098
I2023
sS'indian'
p1099
I1099
sS'indec'
p1100
I1100
sS'injustic'
p1101
I1101
sS'ahhhhh'
p1102
I1102
sS'led'
p1103
I1103
sS'leg'
p1104
I1104
sS'punch'
p1105
I1105
sS'let'
p1106
I1106
sS'everything"'
p1107
I1107
sS'"next'
p1108
I1108
sS'great'
p1109
I1109
sS'"lingeri'
p1110
I1110
sS'greas'
p1111
I1111
sS'screech'
p1112
I1112
sS'defeat'
p1113
I1113
sS'popcorn'
p1114
I1114
sS'emot'
p1115
I1115
sS'disciplin'
p1116
I1116
sS'slid'
p1117
I1117
sS'repugn'
p1118
I1118
sS'zip'
p1119
I1119
sS'doubl'
p1120
I1120
sS'"see'
p1121
I1028
sS'eleven'
p1122
I1122
sS'ball"'
p1123
I1123
sS'doubt'
p1124
I1124
sS'sir"'
p1125
I1125
sS'pencil'
p1126
I1126
sS'babi'
p1127
I1127
sS'deflat'
p1128
I2030
sS'gambl'
p1129
I1129
sS'bodili'
p1130
I1130
sS'this'
p1131
I1131
sS'pour'
p1132
I1132
sS'thin'
p1133
I1133
sS'drill'
p1134
I1134
sS'"miss'
p1135
I1135
sS'scatter'
p1136
I1136
sS'bend'
p1137
I1137
sS'dressings"'
p1138
I1138
sS'weaker'
p1139
I1139
sS'bent'
p1140
I1140
sS'process'
p1141
I1141
sS'lock'
p1142
I1142
sS'slim'
p1143
I1143
sS'rode'
p1144
I1144
sS'high'
p1145
I1145
sS'block"'
p1146
I1589
sS'slip'
p1147
I1147
sS'crimin'
p1148
I1148
sS'weaken'
p1149
I1149
sS'high"'
p1150
I3930
sS'rhubarb'
p1151
I1151
sS'class"'
p1152
I1152
sS'delay'
p1153
I1153
sS'paler'
p1154
I1154
sS'chinks"'
p1155
I1155
sS'inhal'
p1156
I1156
sS'singular'
p1157
I1157
sS'"you\'d'
p1158
I1158
sS'ben"'
p1159
I1213
sS'"you\'v'
p1160
I1160
sS'hawk'
p1161
I1225
sS'"you\'r'
p1162
I1162
sS'classi'
p1163
I1163
sS'"be'
p1164
I1164
sS'counter'
p1165
I1165
sS'or'
p1166
I4917
sS'issu'
p1167
I1167
sS'allow'
p1168
I1168
sS'thigh'
p1169
I1169
sS'jigger'
p1170
I1170
sS'tribe'
p1171
I960
sS'move'
p1172
I1172
sS'perfect'
p1173
I1173
sS'important"'
p1174
I1174
sS'chosen'
p1175
I1175
sS'silken'
p1176
I1176
sS'decad'
p1177
I1177
sS'creamcolor'
p1178
I1178
sS'cuss'
p1179
I1179
sS'"acn'
p1180
I1180
sS'belch'
p1181
I1181
sS'bat'
p1182
I2941
sS'dock'
p1183
I1183
sS'snake'
p1184
I1184
sS'kiss'
p1185
I1185
sS'cage'
p1186
I1186
sS'betti'
p1187
I1187
sS'anyth'
p1188
I1188
sS'truth'
p1189
I1189
sS'beneath'
p1190
I1190
sS'"janic'
p1191
I1191
sS'"each'
p1192
I1192
sS'strode'
p1193
I1193
sS'societi'
p1194
I1194
sS'bump'
p1195
I1195
sS'thirteen'
p1196
I1197
sS"'"
p1197
I1198
sS'cunt"'
p1198
I1199
sS'"wait'
p1199
I1200
sS'lattic'
p1200
I1201
sS'stare'
p1201
I2041
sS'shut'
p1202
I1203
sS'templ'
p1203
I1204
sS'shun'
p1204
I1474
sS'spill'
p1205
I1206
sS'things"'
p1206
I1207
sS'could'
p1207
I1208
sS'tone"'
p1208
I2043
sS'david'
p1209
I1211
sS'length'
p1210
I1212
sS'notebook'
p1211
I1159
sS'outsid'
p1212
I1214
sS'scare'
p1213
I1215
sS'"kitten"'
p1214
I1216
sS'manuscript'
p1215
I1217
sS'blown'
p1216
I1218
sS'scene'
p1217
I1219
sS'jesus'
p1218
I1220
sS'have"'
p1219
I1221
sS'pranc'
p1220
I1222
sS'owner'
p1221
I1223
sS'wins"'
p1222
I1224
sS'exhal'
p1223
I1161
sS'start'
p1224
I2044
sS'licens'
p1225
I1227
sS'two"'
p1226
I1228
sS'system'
p1227
I1229
sS'"naw"'
p1228
I1230
sS'bartend'
p1229
I1231
sS'unbear'
p1230
I1232
sS'stomach'
p1231
I1233
sS'gummi'
p1232
I1234
sS'grandpa'
p1233
I1235
sS'anybodi'
p1234
I1236
sS'steel'
p1235
I1237
sS'dresser'
p1236
I2668
sS'unmar'
p1237
I1238
sS'"ball'
p1238
I1239
sS'bother'
p1239
I1240
sS'later"'
p1240
I1241
sS'"hank"'
p1241
I1242
sS'fucker"'
p1242
I1243
sS'steer'
p1243
I1244
sS'beggar'
p1244
I1245
sS'terribl'
p1245
I1246
sS'westlak'
p1246
I1247
sS'tonight'
p1247
I1248
sS'can\'t"'
p1248
I1249
sS'brokendown'
p1249
I1250
sS'thurber"'
p1250
I1251
sS'depict'
p1251
I1252
sS'lila'
p1252
I1253
sS'soak'
p1253
I1254
sS'messeng'
p1254
I1255
sS'twentytwo'
p1255
I1257
sS'soap'
p1256
I1258
sS'toughest'
p1257
I1259
sS'dimes"'
p1258
I1260
sS'sodapop'
p1259
I1261
sS'vise'
p1260
I1262
sS'lunch"'
p1261
I1263
sS'medal'
p1262
I1264
sS'disobedi'
p1263
I2054
sS'bred'
p1264
I1266
sS'stronger'
p1265
I1267
sS'brea'
p1266
I1268
sS'face'
p1267
I1269
sS"you'll"
p1268
I1270
sS'"henry"'
p1269
I1271
sS'fact'
p1270
I1272
sS'bring'
p1271
I1273
sS'newsreel'
p1272
I1274
sS'mean"'
p1273
I1763
sS'bedroom'
p1274
I1276
sS'trivial'
p1275
I1277
sS'"becaus'
p1276
I1278
sS'hari"'
p1277
I1279
sS'footbal'
p1278
I1280
sS'wiseass'
p1279
I1281
sS'nois'
p1280
I1282
sS'jaw'
p1281
I1283
sS'movi'
p1282
I1171
sS'jar'
p1283
I1284
sS'jap'
p1284
I1285
sS'should'
p1285
I1286
sS'few"'
p1286
I1287
sS'jam'
p1287
I1288
sS'suppos'
p1288
I1289
sS'135126'
p1289
I1290
sS'flinch'
p1290
I1291
sS'hope'
p1291
I1292
sS'meant'
p1292
I1293
sS'welloff'
p1293
I1294
sS'familiar'
p1294
I1295
sS'broadway"'
p1295
I1296
sS'lucki'
p1296
I1830
sS'smash'
p1297
I1298
sS'h'
p1298
I1299
sS'stuff'
p1299
I1300
sS'bannist'
p1300
I1301
sS'overtheshould'
p1301
I1302
sS'end"'
p1302
I1893
sS'wire'
p1303
I1304
sS'"chinaski'
p1304
I1305
sS'destini'
p1305
I1306
sS'"sir"'
p1306
I1307
sS'pistol'
p1307
I1308
sS'dislik'
p1308
I1309
sS'drum'
p1309
I1310
sS'drug'
p1310
I1311
sS'marti'
p1311
I1312
sS'doorway'
p1312
I1313
sS'"katherine"'
p1313
I1314
sS'toilet'
p1314
I1315
sS'roundhous'
p1315
I1316
sS'snakelik'
p1316
I1317
sS'"jose'
p1317
I1318
sS'mailman'
p1318
I1319
sS'quotat'
p1319
I1320
sS'lt'
p1320
I3952
sS'drank'
p1321
I1322
sS'immedi'
p1322
I1323
sS'deliber'
p1323
I1324
sS'togeth'
p1324
I1325
sS'ador'
p1325
I1326
sS'"out"'
p1326
I2083
sS'disdain'
p1327
I1328
sS'bathtub'
p1328
I1329
sS'spittl'
p1329
I1330
sS'purchas'
p1330
I1331
sS'ripe'
p1331
I1332
sS'vs'
p1332
I1333
sS'plunger"'
p1333
I1334
sS'of"'
p1334
I1335
sS'tattoo'
p1335
I1336
sS'dab'
p1336
I3954
sS'juan'
p1337
I1337
sS'competit'
p1338
I1338
sS'ball'
p1339
I1339
sS'drink'
p1340
I2189
sS'upon'
p1341
I1341
sS'coffe'
p1342
I1342
sS'countri'
p1343
I244
sS'dust'
p1344
I1344
sS'fielder'
p1345
I1345
sS'off'
p1346
I1346
sS'marmount"'
p1347
I1347
sS'shotgun'
p1348
I1348
sS'exampl'
p1349
I1349
sS'command'
p1350
I1350
sS'paus'
p1351
I1351
sS'going"'
p1352
I1352
sS'flesh'
p1353
I2246
sS'"\'ye'
p1354
I1354
sS'glue'
p1355
I1355
sS'web'
p1356
I1356
sS'"kitti'
p1357
I1357
sS'wed'
p1358
I1358
sS'crack'
p1359
I2286
sS'5'
p1360
I4947
sS'room"'
p1361
I1361
sS'taunt'
p1362
I1362
sS'piec'
p1363
I1363
sS'haul'
p1364
I1364
sS'five'
p1365
I1365
sS'desk'
p1366
I1366
sS'moment"'
p1367
I1367
sS'tick'
p1368
I1368
sS'pier'
p1369
I1369
sS'placenta'
p1370
I1370
sS'crisp'
p1371
I1371
sS'wimp"'
p1372
I2333
sS'corpor'
p1373
I1373
sS'stagger'
p1374
I1374
sS'quinn'
p1375
I1375
sS'captur'
p1376
I1376
sS'daylight'
p1377
I1377
sS'flush'
p1378
I1378
sS'guarante'
p1379
I1379
sS'transport'
p1380
I1380
sS'"what'
p1381
I1381
sS'disbelief'
p1382
I1382
sS'avoid'
p1383
I1383
sS'shone'
p1384
I1384
sS'passion'
p1385
I1385
sS'halfopen'
p1386
I1386
sS'stairway'
p1387
I1387
sS'"watch'
p1388
I1388
sS'mantl'
p1389
I1389
sS'easily"'
p1390
I1390
sS'up\'"'
p1391
I1391
sS'stage'
p1392
I1392
sS'sister'
p1393
I1393
sS'"becker"'
p1394
I1394
sS'chops"'
p1395
I1395
sS'hens"'
p1396
I1396
sS'"ear'
p1397
I1397
sS'lung'
p1398
I1398
sS'pussi'
p1399
I1399
sS'waterfal'
p1400
I1400
sS'mere'
p1401
I1401
sS'watchman'
p1402
I1402
sS'"strike'
p1403
I1403
sS'place"'
p1404
I1404
sS'trickl'
p1405
I1405
sS'deliveri'
p1406
I2538
sS'road"'
p1407
I1407
sS'"down'
p1408
I1408
sS'they"'
p1409
I1409
sS'facehigh'
p1410
I1410
sS'grate'
p1411
I1411
sS'"couldn\'t'
p1412
I1412
sS'neither"'
p1413
I1413
sS'count'
p1414
I1414
sS'wife'
p1415
I4956
sS'smooth'
p1416
I1416
sS'"jefferson'
p1417
I1417
sS'"nobodi'
p1418
I1418
sS'"one'
p1419
I1419
sS'otherwis'
p1420
I1420
sS'problem'
p1421
I1421
sS'ink'
p1422
I1422
sS'eddie"'
p1423
I1423
sS'useful"'
p1424
I1424
sS'"order"'
p1425
I1425
sS'repeat'
p1426
I4692
sS'monday'
p1427
I1427
sS'again"'
p1428
I2677
sS'repeal'
p1429
I1429
sS'veil'
p1430
I1430
sS'in"'
p1431
I1431
sS'"fellows"'
p1432
I1432
sS'rule'
p1433
I1433
sS'gardena'
p1434
I1434
sS'pension'
p1435
I1435
sS'inning'
p1436
I1436
sS'threeyear'
p1437
I4958
sS'party"'
p1438
I1438
sS'upsid'
p1439
I1439
sS'smokes"'
p1440
I1440
sS'bike'
p1441
I1441
sS'hedg'
p1442
I1442
sS'worth'
p1443
I1443
sS'ugli'
p1444
I1444
sS'blanket'
p1445
I1445
sS"we'll"
p1446
I1446
sS'pinch'
p1447
I1447
sS'stink"'
p1448
I1448
sS'nigger'
p1449
I1449
sS'math'
p1450
I3974
sS'reinvent'
p1451
I1451
sS'triumph'
p1452
I1452
sS'chew'
p1453
I1453
sS'horn'
p1454
I1454
sS'preacher'
p1455
I1455
sS'"west"'
p1456
I1456
sS'hors'
p1457
I1457
sS'dogtrot'
p1458
I1458
sS'7th'
p1459
I1459
sS'amus'
p1460
I1460
sS'told'
p1461
I1461
sS'butch"'
p1462
I1462
sS'machine"'
p1463
I1463
sS'pleasur'
p1464
I1464
sS'daughter'
p1465
I1465
sS'adopt'
p1466
I357
sS'smoke'
p1467
I1466
sS'bunker'
p1468
I1467
sS'studi'
p1469
I1468
sS'glu'
p1470
I1469
sS'servicemen'
p1471
I1470
sS'newspap'
p1472
I1471
sS'infield'
p1473
I1472
sS'hah"'
p1474
I1473
sS'thrust'
p1475
I1205
sS'attitud'
p1476
I1475
sS'plow'
p1477
I1476
sS'nine'
p1478
I1770
sS'sweater'
p1479
I1477
sS'pier"'
p1480
I1478
sS'cottag'
p1481
I1479
sS'theatr'
p1482
I1480
sS'award'
p1483
I1481
sS'it'
p1484
I1482
sS'drinking"'
p1485
I1483
sS'word'
p1486
I1484
sS'wore'
p1487
I1485
sS'society"'
p1488
I1486
sS'work'
p1489
I1487
sS'worn'
p1490
I1488
sS'wors'
p1491
I1489
sS'elbow'
p1492
I1490
sS'flunk'
p1493
I1491
sS'flung'
p1494
I1492
sS'india'
p1495
I1493
sS'indic'
p1496
I1494
sS'"love'
p1497
I1495
sS'basebal'
p1498
I1496
sS'jiggl'
p1499
I1497
sS'sever'
p1500
I1498
sS'interview'
p1501
I1499
sS'disappoint'
p1502
I1500
sS'beach'
p1503
I1502
sS'recogn'
p1504
I1503
sS'"home'
p1505
I1504
sS'ladder'
p1506
I1505
sS'after'
p1507
I1506
sS'growl'
p1508
I2989
sS'lay'
p1509
I1508
sS'law'
p1510
I1509
sS'lap'
p1511
I1510
sS'averag'
p1512
I1511
sS'domin'
p1513
I1512
sS'green'
p1514
I1513
sS'south'
p1515
I1514
sS'worst'
p1516
I1515
sS'order'
p1517
I1516
sS'tipto'
p1518
I1517
sS'130507'
p1519
I1518
sS'typewrit'
p1520
I1519
sS'mangalor'
p1521
I1520
sS'ears"'
p1522
I1521
sS'hopeless"'
p1523
I1522
sS'mayor'
p1524
I1523
sS'"say'
p1525
I1524
sS'offic'
p1526
I1525
sS'shear'
p1527
I1526
sS'versus'
p1528
I1527
sS'then'
p1529
I1528
sS'them'
p1530
I1529
sS'safe'
p1531
I1530
sS'break'
p1532
I1531
sS'band'
p1533
I1532
sS'bang'
p1534
I1533
sS'they'
p1535
I1534
sS'young"'
p1536
I1535
sS'bank'
p1537
I1536
sS'bread'
p1538
I1537
sS'spigot'
p1539
I1538
sS'l'
p1540
I1539
sS'appointment"'
p1541
I1540
sS'flounc'
p1542
I1541
sS'flock'
p1543
I1542
sS'daniel'
p1544
I1543
sS'"n"'
p1545
I1544
sS'monro'
p1546
I1545
sS'forth'
p1547
I1546
sS'forti'
p1548
I1547
sS'putti'
p1549
I1548
sS'colorless'
p1550
I1549
sS'dancing"'
p1551
I1550
sS'standard'
p1552
I1551
sS'"north"'
p1553
I1552
sS'"surrend'
p1554
I1553
sS'lousi'
p1555
I1554
sS'baseman'
p1556
I1555
sS'nightgown'
p1557
I5667
sS'angl'
p1558
I1556
sS'"no'
p1559
I1557
sS'thick'
p1560
I1558
sS'hourandahalf'
p1561
I1559
sS'john'
p1562
I1560
sS'tourniquet'
p1563
I1561
sS'wienerschnitzel"'
p1564
I1562
sS'"mommy"'
p1565
I1563
sS'happili'
p1566
I1564
sS'target'
p1567
I1565
sS'hike'
p1568
I1566
sS'dog"'
p1569
I1567
sS'tackler'
p1570
I1568
sS'merci'
p1571
I1569
sS'iron'
p1572
I1570
sS'minut'
p1573
I1571
sS'manner'
p1574
I1572
sS'tuned"'
p1575
I1573
sS'strength'
p1576
I1574
sS'often"'
p1577
I1575
sS'terrif'
p1578
I1576
sS'"just'
p1579
I5549
sS'germani'
p1580
I1577
sS'sue'
p1581
I1578
sS'volleybal'
p1582
I1579
sS'gravi'
p1583
I1580
sS'grave'
p1584
I1581
sS'excus'
p1585
I1582
sS'real"'
p1586
I1583
sS'"madhous'
p1587
I1584
sS'aunt'
p1588
I1585
sS'toast'
p1589
I1586
sS'em"'
p1590
I1587
sS'do'
p1591
I1588
sS'nasti'
p1592
I1590
sS'likewis'
p1593
I1591
sS'dc'
p1594
I1592
sS'da'
p1595
I1593
sS'dr'
p1596
I1594
sS'mantlepiece"'
p1597
I1595
sS'columbine"'
p1598
I1596
sS'septemb'
p1599
I1597
sS'steal'
p1600
I1598
sS'dies"'
p1601
I1599
sS'"drink"'
p1602
I1600
sS'scourg'
p1603
I1601
sS'term"'
p1604
I1602
sS'awar'
p1605
I1603
sS'away'
p1606
I1604
sS'gentleman'
p1607
I1605
sS'awak'
p1608
I1606
sS'drawn'
p1609
I1607
sS'we'
p1610
I1609
sS'diana"'
p1611
I1610
sS'tenperc'
p1612
I1611
sS'unfold'
p1613
I1612
sS'kitchen'
p1614
I1613
sS'cop'
p1615
I1614
sS'cot'
p1616
I1615
sS'cow'
p1617
I1616
sS'col'
p1618
I1617
sS'con'
p1619
I1618
sS'eyesight'
p1620
I1619
sS'tough'
p1621
I1620
sS'spear'
p1622
I1621
sS'trunk'
p1623
I1622
sS'burned"'
p1624
I1623
sS'guid'
p1625
I1624
sS'speak'
p1626
I1625
sS'endur'
p1627
I295
sS'unclutt'
p1628
I1627
sS'nexttolast'
p1629
I1628
sS'ident'
p1630
I1629
sS'sculpt'
p1631
I1630
sS'properti'
p1632
I1631
sS'hitler"'
p1633
I1632
sS'air'
p1634
I1633
sS'aim'
p1635
I1634
sS'known"'
p1636
I1635
sS'stink'
p1637
I1636
sS'dizzi'
p1638
I1637
sS'brake'
p1639
I1638
sS'girls"'
p1640
I1639
sS'descend'
p1641
I1640
sS'"bodili'
p1642
I1641
sS'unconcern'
p1643
I1642
sS'wheel'
p1644
I2629
sS'evid'
p1645
I1644
sS'pigeontoe"'
p1646
I1645
sS'hang'
p1647
I1646
sS'rain'
p1648
I4344
sS'hand'
p1649
I1648
sS'rais'
p1650
I1649
sS'vermont'
p1651
I1650
sS'kept'
p1652
I1651
sS'plate"'
p1653
I1652
sS'drip'
p1654
I1653
sS'the'
p1655
I1654
sS"she'll"
p1656
I1655
sS'bastard"'
p1657
I1656
sS'victim'
p1658
I1657
sS'dignifi'
p1659
I1658
sS'tired"'
p1660
I1659
sS"ma'am"
p1661
I1660
sS'spread'
p1662
I1661
sS'board'
p1663
I1662
sS'mayb'
p1664
I1663
sS'tarzan'
p1665
I1664
sS'boxer'
p1666
I1665
sS'god"'
p1667
I1666
sS'retreat'
p1668
I1667
sS'country"'
p1669
I1668
sS'hill"'
p1670
I1669
sS'night'
p1671
I1670
sS'born'
p1672
I1671
sS'rile'
p1673
I1672
sS'neva'
p1674
I1673
sS'flatten'
p1675
I1674
sS'bore'
p1676
I1675
sS'"barney'
p1677
I1676
sS'graduate"'
p1678
I1677
sS'remind'
p1679
I1678
sS'tonight"'
p1680
I1679
sS'violinist'
p1681
I1680
sS'eleph'
p1682
I1681
sS'"look"'
p1683
I1682
sS'peek'
p1684
I1683
sS'peel'
p1685
I1684
sS'cabbi'
p1686
I1685
sS'peer'
p1687
I1687
sS'post'
p1688
I1688
sS'navy"'
p1689
I1690
sS'spies"'
p1690
I1691
sS'miracul'
p1691
I1692
sS'garage"'
p1692
I1693
sS'needle"'
p1693
I1694
sS'bounc'
p1694
I1695
sS'float'
p1695
I1696
sS'profession'
p1696
I1697
sS'bound'
p1697
I1698
sS'lewi'
p1698
I1699
sS'opportun'
p1699
I1700
sS'wag'
p1700
I1701
sS'wad'
p1701
I1702
sS'fight'
p1702
I1703
sS'way'
p1703
I1704
sS'wax'
p1704
I1705
sS'was'
p1705
I1706
sS'war'
p1706
I1707
sS'lowest'
p1707
I1708
sS'textbooks"'
p1708
I1709
sS'maxim'
p1709
I3038
sS'nauseat'
p1710
I2118
sS'dead'
p1711
I3039
sS'pay"'
p1712
I1713
sS'prisoner"'
p1713
I1714
sS'true'
p1714
I1715
sS'reset'
p1715
I1716
sS'brubak'
p1716
I1717
sS'"li'
p1717
I1718
sS'absenc'
p1718
I1719
sS'retir'
p1719
I1720
sS'chestnut'
p1720
I2119
sS'alongsid'
p1721
I1722
sS'score"'
p1722
I1723
sS'funeral"'
p1723
I1724
sS'balzac'
p1724
I1725
sS'prayer'
p1725
I1726
sS'juice"'
p1726
I1727
sS'mold'
p1727
I1728
sS'"dan'
p1728
I1729
sS'bed"'
p1729
I1730
sS'"when'
p1730
I1731
sS'test'
p1731
I1732
sS'shrink'
p1732
I1733
sS'hurry"'
p1733
I1734
sS'realiti'
p1734
I1735
sS"o'clock"
p1735
I1736
sS'mail"'
p1736
I1737
sS'promise"'
p1737
I1738
sS'gobbl'
p1738
I1739
sS'"public'
p1739
I1740
sS'twoandonehalf'
p1740
I1741
sS'loyal'
p1741
I1742
sS'cheater'
p1742
I1743
sS'simplecrazi'
p1743
I1744
sS'broke'
p1744
I1745
sS'consum'
p1745
I1746
sS'middl'
p1746
I1747
sS'drake"'
p1747
I1748
sS'zone'
p1748
I1749
sS'hump'
p1749
I1750
sS'flash'
p1750
I1751
sS'turn"'
p1751
I1752
sS'brown'
p1752
I1753
sS'kitten'
p1753
I1754
sS'disqualifi'
p1754
I1755
sS'gun'
p1755
I1756
sS'gum'
p1756
I1757
sS'gut'
p1757
I1758
sS'sidewalk'
p1758
I1759
sS'"i\'ll'
p1759
I1760
sS'upper'
p1760
I1761
sS'brave'
p1761
I1762
sS'luck"'
p1762
I1275
sS'sucker"'
p1763
I1764
sS'cost'
p1764
I3613
sS'helpless'
p1765
I1766
sS'rapist'
p1766
I1767
sS'appear'
p1767
I1768
sS'uniform'
p1768
I1769
sS'indiffer'
p1769
I5150
sS'appeal'
p1770
I1771
sS'shape'
p1771
I204
sS'"anybodi'
p1772
I1772
sS"hadn't"
p1773
I1773
sS'teacher'
p1774
I1774
sS'buck'
p1775
I1775
sS'pillow'
p1776
I1776
sS'lovefeel'
p1777
I1777
sS'extra'
p1778
I1778
sS'mobil'
p1779
I1779
sS'market'
p1780
I1780
sS'streetcar'
p1781
I1781
sS'prove'
p1782
I1782
sS'live'
p1783
I1783
sS'retire"'
p1784
I1784
sS'club'
p1785
I1785
sS'slogan'
p1786
I1786
sS'cute"'
p1787
I1787
sS'car'
p1788
I1788
sS'prepar'
p1789
I1789
sS'cap'
p1790
I1790
sS'cat'
p1791
I1791
sS'hardest'
p1792
I1792
sS'inferior'
p1793
I4047
sS'cal'
p1794
I1794
sS'cab'
p1795
I1795
sS'heart'
p1796
I1796
sS'vase"'
p1797
I1797
sS'whitechapel"'
p1798
I1798
sS'chip'
p1799
I1799
sS"didn't"
p1800
I1800
sS'heard'
p1801
I1801
sS'chin'
p1802
I1802
sS'occur'
p1803
I1803
sS'occup'
p1804
I1804
sS'"mani'
p1805
I1805
sS'$32"'
p1806
I1806
sS'135142'
p1807
I1807
sS'write'
p1808
I1808
sS'flank'
p1809
I1809
sS'nose"'
p1810
I1810
sS'baseball"'
p1811
I1812
sS'superintend'
p1812
I1813
sS'dive'
p1813
I1814
sS'pave'
p1814
I1815
sS'candycov'
p1815
I1816
sS'favorit'
p1816
I1817
sS'offens'
p1817
I1818
sS'anoth'
p1818
I2132
sS'benni'
p1819
I1820
sS'forfeit'
p1820
I1821
sS'infiltr'
p1821
I1822
sS'counteressay'
p1822
I1823
sS'no"'
p1823
I1824
sS'brain'
p1824
I1825
sS'cold'
p1825
I1826
sS'still'
p1826
I1827
sS'sprinkl'
p1827
I1828
sS'prosper"'
p1828
I1829
sS'asshole"'
p1829
I1297
sS'window'
p1830
I1831
sS'won"'
p1831
I1832
sS'non'
p1832
I1833
sS'recal'
p1833
I1834
sS'halt'
p1834
I1835
sS'littlest'
p1835
I4136
sS'nod'
p1836
I1837
sS'half'
p1837
I1838
sS'not'
p1838
I1839
sS'now'
p1839
I1840
sS'hall'
p1840
I1841
sS'nor'
p1841
I1842
sS'drop'
p1842
I1843
sS'magazin'
p1843
I1844
sS'courag'
p1844
I1845
sS'em'
p1845
I1846
sS'en'
p1846
I1847
sS'replac'
p1847
I1848
sS'yeah'
p1848
I1849
sS'year'
p1849
I1850
sS'car"'
p1850
I1851
sS'happen'
p1851
I1852
sS'punk"'
p1852
I1853
sS'shown'
p1853
I1854
sS'space'
p1854
I1855
sS'could"'
p1855
I1856
sS'thong'
p1856
I1857
sS'interesting"'
p1857
I1858
sS'carv'
p1858
I1859
sS'argu'
p1859
I1860
sS'cart'
p1860
I1861
sS'quart'
p1861
I1862
sS'rebel'
p1862
I1863
sS'card'
p1863
I1864
sS'directions"'
p1864
I1865
sS'peasantserv'
p1865
I1866
sS'happening"'
p1866
I1867
sS'show"'
p1867
I1868
sS'honest'
p1868
I1869
sS'profess'
p1869
I1870
sS'blind'
p1870
I1871
sS'wedg'
p1871
I121
sS'ended"'
p1872
I1873
sS'ring'
p1873
I1874
sS'drove'
p1874
I1875
sS'tomorrow'
p1875
I1876
sS'size'
p1876
I1877
sS'sheer'
p1877
I1878
sS'sheet'
p1878
I1879
sS'silent'
p1879
I1880
sS'caught'
p1880
I1881
sS'breed'
p1881
I1882
sS'gravy"'
p1882
I1883
sS'silenc'
p1883
I1884
sS'breez'
p1884
I1885
sS'"still'
p1885
I1886
sS'friend'
p1886
I1887
sS'baldi'
p1887
I1888
sS'thaw'
p1888
I1889
sS'especi'
p1889
I1890
sS'than'
p1890
I1891
sS'recruit'
p1891
I1892
sS'temporarili'
p1892
I1303
sS'lie"'
p1893
I1894
sS'delic'
p1894
I1895
sS'angel'
p1895
I1896
sS'anywher'
p1896
I1897
sS'slap'
p1897
I1898
sS'slam'
p1898
I1899
sS'deliv'
p1899
I1900
sS'anger'
p1900
I1901
sS'breakfast'
p1901
I1902
sS'doorbel'
p1902
I1903
sS'engin'
p1903
I1904
sS'harry"'
p1904
I1905
sS'espous'
p1905
I1906
sS'begin'
p1906
I1907
sS'prick'
p1907
I1908
sS'price'
p1908
I1909
sS'"how\'d'
p1909
I1910
sS'america'
p1910
I1911
sS'rescu'
p1911
I1912
sS'egg'
p1912
I1913
sS'tooth'
p1913
I365
sS'fretag'
p1914
I1915
sS'knuckl'
p1915
I1916
sS'abraham'
p1916
I1917
sS'steadi'
p1917
I1918
sS'while"'
p1918
I1919
sS'german'
p1919
I1920
sS'unwrinkl'
p1920
I1921
sS'"dog'
p1921
I1922
sS'"doe'
p1922
I1923
sS'fifth'
p1923
I1924
sS'ground'
p1924
I1925
sS'onli'
p1925
I1926
sS'"seem'
p1926
I1927
sS'"everyth'
p1927
I1928
sS'stain'
p1928
I1929
sS'slouch'
p1929
I1930
sS'pumpkin'
p1930
I1931
sS'beachbal'
p1931
I1932
sS'stroll'
p1932
I1933
sS'truli'
p1933
I1934
sS'next"'
p1934
I1935
sS'leather'
p1935
I1936
sS'seldom'
p1936
I1937
sS'hostil'
p1937
I1938
sS'friends"'
p1938
I1939
sS'husband'
p1939
I1940
sS'concert'
p1940
I1941
sS'hurt"'
p1941
I1942
sS'burst'
p1942
I513
sS'asleep'
p1943
I1944
sS'sport'
p1944
I1945
sS'dismissed"'
p1945
I1946
sS'concern'
p1946
I1947
sS'come"'
p1947
I1948
sS'3'
p1948
I1949
sS'between'
p1949
I1950
sS'import'
p1950
I1951
sS'stupid"'
p1951
I1952
sS'prettiest'
p1952
I1953
sS'blame'
p1953
I1954
sS'monk'
p1954
I1955
sS'nearbi'
p1955
I1956
sS'"nineteen"'
p1956
I1957
sS'"really"'
p1957
I1958
sS'"peopl'
p1958
I1959
sS"couldn't"
p1959
I1961
sS'four"'
p1960
I1962
sS'damag'
p1961
I1963
sS'odel'
p1962
I1964
sS'aviat'
p1963
I1965
sS'fangs"'
p1964
I1966
sS'jerk"'
p1965
I1967
sS'these'
p1966
I1968
sS'trick'
p1967
I1969
sS'scuf'
p1968
I1970
sS'shirtfront'
p1969
I1971
sS'"plenti'
p1970
I1972
sS'soil'
p1971
I1973
sS'worri'
p1972
I1974
sS'eras'
p1973
I1975
sS'develop'
p1974
I1976
sS'food'
p1975
I1977
sS'limited"'
p1976
I1978
sS'charge"'
p1977
I1979
sS'medit'
p1978
I1980
sS'finish'
p1979
I1981
sS'closest'
p1980
I1982
sS'someon'
p1981
I1983
sS'"twenti'
p1982
I1984
sS'fruit'
p1983
I1985
sS'dreiser'
p1984
I1987
sS'"yep"'
p1985
I1988
sS'demean'
p1986
I1989
sS'"follow'
p1987
I1990
sS'halfarm'
p1988
I1991
sS'bases"'
p1989
I1992
sS'am"'
p1990
I1993
sS'neon'
p1991
I1994
sS'touch'
p1992
I1995
sS'speed'
p1993
I1996
sS'death'
p1994
I1997
sS'europ'
p1995
I1998
sS'upton'
p1996
I1999
sS'senseless'
p1997
I2000
sS'funer'
p1998
I2588
sS'treatment'
p1999
I2001
sS'struck'
p2000
I2002
sS'either"'
p2001
I2003
sS'breeding"'
p2002
I2004
sS'earli'
p2003
I954
sS'ma\'am"'
p2004
I956
sS'hover'
p2005
I2007
sS'read'
p2006
I2008
sS'ruler'
p2007
I2009
sS'ladi'
p2008
I2010
sS'gonna'
p2009
I2011
sS'entertainment"'
p2010
I2012
sS'abitch'
p2011
I980
sS'rear'
p2012
I2014
sS'apathet'
p2013
I2015
sS'benefit'
p2014
I2016
sS'suckingoff"'
p2015
I2017
sS'credit"'
p2016
I2018
sS'blackthorne"'
p2017
I2019
sS'squirm'
p2018
I2020
sS'squirt'
p2019
I2021
sS'uneasi'
p2020
I2022
sS'throb'
p2021
I1098
sS'sixth'
p2022
I2024
sS'tuition'
p2023
I2025
sS'1934'
p2024
I2026
sS'1939'
p2025
I2027
sS'throw'
p2026
I2028
sS'hack"'
p2027
I2029
sS'contagi'
p2028
I1128
sS'friendship'
p2029
I5063
sS'chop'
p2030
I2033
sS'fell'
p2031
I3089
sS'wolf'
p2032
I2035
sS'indiana"'
p2033
I2036
sS'earring'
p2034
I2037
sS'drain"'
p2035
I2038
sS'nurs'
p2036
I2039
sS'your'
p2037
I2040
sS'lob'
p2038
I1202
sS'fast'
p2039
I2042
sS'area'
p2040
I1209
sS'los'
p2041
I1226
sS'fascin'
p2042
I2045
sS'starv'
p2043
I2046
sS'low'
p2044
I2047
sS'lot'
p2045
I2048
sS'mearsstarbuck'
p2046
I2049
sS'shortarm'
p2047
I2051
sS'pitcher'
p2048
I2052
sS'you"'
p2049
I2053
sS'wellbuilt'
p2050
I1265
sS'bathtub"'
p2051
I2055
sS'cat"'
p2052
I2056
sS'stanford'
p2053
I2057
sS'vaselin'
p2054
I2058
sS'mutil'
p2055
I2059
sS'nerv'
p2056
I2060
sS'colli'
p2057
I2061
sS'everywhere"'
p2058
I2062
sS'you'
p2059
I2063
sS'juic'
p2060
I2064
sS'poor'
p2061
I2065
sS'move"'
p2062
I2066
sS'drift'
p2063
I2067
sS'cocksuck'
p2064
I2068
sS'peak'
p2065
I2069
sS'squint'
p2066
I2070
sS'peac'
p2067
I2071
sS'pool'
p2068
I2072
sS'pickford'
p2069
I2073
sS'fool"'
p2070
I2074
sS'hardon'
p2071
I2075
sS'moonlight'
p2072
I2076
sS'"suppos'
p2073
I2077
sS'monti'
p2074
I2078
sS'month'
p2075
I2079
sS'anybody"'
p2076
I2080
sS'carpet'
p2077
I2081
sS'gymnast'
p2078
I2082
sS'squadron"'
p2079
I2084
sS'"hi'
p2080
I2085
sS'possessed"'
p2081
I2086
sS'"ha'
p2082
I2087
sS'horror'
p2083
I2088
sS'"he'
p2084
I2089
sS'allur'
p2085
I2090
sS'veri'
p2086
I2091
sS"i'll"
p2087
I2092
sS'ass'
p2088
I2093
sS'casual'
p2089
I2094
sS'answer"'
p2090
I2095
sS'lurch'
p2091
I2096
sS'milk'
p2092
I3103
sS'him"'
p2093
I2098
sS'cannib'
p2094
I2099
sS'theatric'
p2095
I2100
sS'reality"'
p2096
I2101
sS'excess'
p2097
I2102
sS'street"'
p2098
I2103
sS'strong'
p2099
I2104
sS'arena'
p2100
I2105
sS'inattent'
p2101
I2106
sS'ahead'
p2102
I2107
sS'barrel"'
p2103
I2108
sS'soldier'
p2104
I2109
sS'amount'
p2105
I2110
sS'partaken'
p2106
I2111
sS'correct'
p2107
I749
sS'butterflies"'
p2108
I2112
sS'story"'
p2109
I2113
sS'famili'
p2110
I2114
sS'dangl'
p2111
I2115
sS'0'
p2112
I3107
sS'formul'
p2113
I2117
sS'taken'
p2114
I1711
sS'virgin"'
p2115
I1721
sS'jr"'
p2116
I2120
sS'tumbl'
p2117
I2121
sS'hurri'
p2118
I2122
sS'classmat'
p2119
I2123
sS'"rememb'
p2120
I2124
sS'histori'
p2121
I2125
sS'take"'
p2122
I2126
sS'"swim'
p2123
I2127
sS'cowl'
p2124
I2128
sS'gardener"'
p2125
I2129
sS'gas"'
p2126
I2130
sS'disrob'
p2127
I5604
sS'telephone"'
p2128
I2131
sS'underwear"'
p2129
I1819
sS'stayer'
p2130
I2133
sS'idaho'
p2131
I2134
sS'skywrit'
p2132
I2135
sS'sneak'
p2133
I2136
sS'"butch"'
p2134
I2137
sS'embrac'
p2135
I2138
sS'courts"'
p2136
I2139
sS'gasp'
p2137
I2140
sS'daddy"'
p2138
I2141
sS'a'
p2139
I2142
sS'assign'
p2140
I2143
sS'bugl'
p2141
I2144
sS'calm"'
p2142
I2145
sS'dread'
p2143
I2146
sS'dream'
p2144
I2147
sS'help'
p2145
I2148
sS'moscowitz'
p2146
I2149
sS'soon'
p2147
I2150
sS'held'
p2148
I2151
sS'hell'
p2149
I2152
sS'panties"'
p2150
I2153
sS'feel'
p2151
I5086
sS'full"'
p2152
I2155
sS'astonish'
p2153
I2156
sS'sunday"'
p2154
I2157
sS"haven't"
p2155
I2158
sS'fool'
p2156
I2159
sS'tenhour'
p2157
I2160
sS'ya'
p2158
I2161
sS'sentenc'
p2159
I2162
sS'vomit'
p2160
I2163
sS'foot'
p2161
I2164
sS'fairi'
p2162
I2165
sS'fuckers"'
p2163
I2166
sS'fine"'
p2164
I2167
sS'bless'
p2165
I2168
sS'westphal'
p2166
I2169
sS'twice"'
p2167
I2170
sS'fulli'
p2168
I2171
sS"isn't"
p2169
I2172
sS'pretenti'
p2170
I5090
sS'house"'
p2171
I2173
sS'heavi'
p2172
I2174
sS'beyond'
p2173
I2175
sS'event'
p2174
I2176
sS'safeti'
p2175
I2177
sS'halfran'
p2176
I2178
sS'robert'
p2177
I2179
sS'publish'
p2178
I2180
sS'fountain'
p2179
I2181
sS'7'
p2180
I2182
sS'"mari'
p2181
I2184
sS'shrivel'
p2182
I2185
sS'america"'
p2183
I2186
sS'smock'
p2184
I2187
sS'thirtyf'
p2185
I2188
sS'bald'
p2186
I1340
sS'dirt'
p2187
I2190
sS'puf'
p2188
I2191
sS'dung'
p2189
I2192
sS'westphal"'
p2190
I2193
sS'reason'
p2191
I2194
sS'base'
p2192
I2195
sS'put'
p2193
I1210
sS'pus'
p2194
I2197
sS'american'
p2195
I2198
sS'grandstand'
p2196
I2199
sS'lifetim'
p2197
I2200
sS'"unskil'
p2198
I2201
sS'feelings"'
p2199
I2202
sS'gettoknoweachoth'
p2200
I2203
sS'elder'
p2201
I2204
sS'river'
p2202
I2205
sS'membran'
p2203
I2206
sS'minutes"'
p2204
I2207
sS'miss'
p2205
I2208
sS'eddi'
p2206
I2209
sS'airplanes"'
p2207
I2210
sS'blossom'
p2208
I2211
sS'station'
p2209
I2212
sS'fingernail'
p2210
I2213
sS'banana'
p2211
I2214
sS'behind'
p2212
I2215
sS'bowel'
p2213
I2216
sS'asshol'
p2214
I2217
sS'grew'
p2215
I2218
sS'handshake"'
p2216
I2219
sS'grey'
p2217
I2220
sS'groceri'
p2218
I2221
sS'bridg'
p2219
I2222
sS'toward'
p2220
I2223
sS'comrad'
p2221
I2224
sS'brains"'
p2222
I2225
sS'"clare'
p2223
I2226
sS'lid'
p2224
I2227
sS'lie'
p2225
I3962
sS'crap"'
p2226
I2229
sS'lit'
p2227
I2230
sS'lip'
p2228
I2231
sS'"bone'
p2229
I2232
sS'eaten'
p2230
I2233
sS'suitcas'
p2231
I2234
sS'raped"'
p2232
I2235
sS'"everybodi'
p2233
I2236
sS'dunno"'
p2234
I2237
sS'clear'
p2235
I2238
sS'salari'
p2236
I2239
sS'tongu'
p2237
I2240
sS'usual'
p2238
I2241
sS'nonchal'
p2239
I2242
sS'barney"'
p2240
I2243
sS'sheik'
p2241
I2244
sS'pretti'
p2242
I2245
sS'less'
p2243
I1353
sS'juke'
p2244
I2247
sS'custodian'
p2245
I2248
sS'heaven"'
p2246
I2249
sS'pois'
p2247
I2250
sS'cocksuckers"'
p2248
I2251
sS'famous'
p2249
I2252
sS'basement'
p2250
I2253
sS'whackingoff"'
p2251
I3869
sS'heinie"'
p2252
I2255
sS'"v"'
p2253
I2256
sS'close'
p2254
I2257
sS'grandmoth'
p2255
I2258
sS'particip'
p2256
I2259
sS'won'
p2257
I2260
sS'piss'
p2258
I2261
sS'isol'
p2259
I2262
sS'spray'
p2260
I2263
sS'postur'
p2261
I2264
sS'distinguish'
p2262
I2265
sS'both'
p2263
I2266
sS"wouldn't"
p2264
I2267
sS'tux'
p2265
I2268
sS'buzz'
p2266
I2632
sS'snatchthought'
p2267
I2270
sS'stoplight'
p2268
I2271
sS'"baldi'
p2269
I2272
sS'live"'
p2270
I2273
sS'jeff'
p2271
I2274
sS'eucker'
p2272
I2671
sS'forgiv'
p2273
I2276
sS'stamp'
p2274
I2277
sS'damp'
p2275
I2278
sS'empti'
p2276
I2279
sS'damn'
p2277
I2280
sS'threaten'
p2278
I2281
sS'"seat'
p2279
I2282
sS'box'
p2280
I3138
sS'windmil'
p2281
I2284
sS'like"'
p2282
I2285
sS'wet'
p2283
I1359
sS'ruller'
p2284
I2287
sS'look'
p2285
I2288
sS'socialist'
p2286
I2289
sS'governor'
p2287
I2290
sS'rope'
p2288
I2291
sS'pace'
p2289
I2292
sS'while'
p2290
I2765
sS'ought'
p2291
I2294
sS'loot'
p2292
I2295
sS'loos'
p2293
I2296
sS'loop'
p2294
I2297
sS'pack'
p2295
I2298
sS'pirozzi'
p2296
I2299
sS'readi'
p2297
I2300
sS'forebear'
p2298
I2301
sS'lawyer"'
p2299
I2302
sS'shaw'
p2300
I2303
sS'prick"'
p2301
I2837
sS'clear"'
p2302
I2305
sS'belong'
p2303
I2306
sS'grand'
p2304
I2307
sS'hallway'
p2305
I2308
sS'maneuv'
p2306
I2309
sS'imagin'
p2307
I2228
sS'temporari'
p2308
I2311
sS'extrem'
p2309
I694
sS'older'
p2310
I2313
sS'brillianc'
p2311
I2314
sS'"our'
p2312
I2315
sS'coup'
p2313
I2316
sS'chore'
p2314
I2317
sS'cave'
p2315
I2318
sS'cocki'
p2316
I2319
sS'wise"'
p2317
I2320
sS'"like'
p2318
I2321
sS'vomithead"'
p2319
I2322
sS'baptiz'
p2320
I2323
sS'administ'
p2321
I2324
sS'shortcut'
p2322
I2325
sS'useless'
p2323
I2326
sS'march'
p2324
I2327
sS'longer"'
p2325
I2328
sS'cock"'
p2326
I3001
sS'game'
p2327
I2330
sS'like'
p2328
I2331
sS'outright'
p2329
I2332
sS'onion'
p2330
I1372
sS'signal'
p2331
I2334
sS'popular'
p2332
I2335
sS'throat"'
p2333
I2336
sS'scared"'
p2334
I2337
sS'some'
p2335
I2338
sS'undress'
p2336
I2339
sS'inhaling"'
p2337
I2340
sS'chocol'
p2338
I2341
sS'turgenev'
p2339
I2342
sS'amput'
p2340
I2343
sS'run'
p2341
I2344
sS'heed'
p2342
I2345
sS'rum'
p2343
I2346
sS'rub'
p2344
I2347
sS'booklet'
p2345
I2348
sS'rug'
p2346
I2349
sS'step'
p2347
I2350
sS'father"'
p2348
I2351
sS'rut'
p2349
I2352
sS'shine'
p2350
I2353
sS'"more'
p2351
I2354
sS'forget"'
p2352
I2355
sS'uniform"'
p2353
I2356
sS'block'
p2354
I2357
sS'smelli'
p2355
I2358
sS'within'
p2356
I2359
sS'amaz'
p2357
I2360
sS'himself'
p2358
I4944
sS'crapper'
p2359
I2362
sS'"anna"'
p2360
I2363
sS'reed'
p2361
I2364
sS'branch'
p2362
I5682
sS'russian'
p2363
I2365
sS'dull'
p2364
I2366
sS'chelsey'
p2365
I2367
sS'skull'
p2366
I2368
sS'similar'
p2367
I2369
sS'bever'
p2368
I2370
sS'135258'
p2369
I2371
sS'lectur'
p2370
I3379
sS'incomplet'
p2371
I2373
sS'cotton'
p2372
I2374
sS'"christ'
p2373
I2375
sS'pronounc'
p2374
I2376
sS'titl'
p2375
I2377
sS'"push'
p2376
I2378
sS'nap'
p2377
I2379
sS'does"'
p2378
I3422
sS'middleag'
p2379
I2381
sS'clean'
p2380
I2382
sS'bodies"'
p2381
I2383
sS'resign'
p2382
I2384
sS'william'
p2383
I3435
sS'drag'
p2384
I2386
sS'evan'
p2385
I2387
sS'"listen"'
p2386
I2388
sS'evad'
p2387
I2389
sS'flyshit'
p2388
I2390
sS"she'd"
p2389
I2391
sS'depth'
p2390
I2392
sS'pussy"'
p2391
I2393
sS'kati'
p2392
I2394
sS'headtohead'
p2393
I2395
sS'go'
p2394
I3496
sS'baron'
p2395
I2397
sS'shack'
p2396
I2398
sS'"fuck"'
p2397
I2399
sS'airplan'
p2398
I2400
sS'sausag'
p2399
I2401
sS'wave'
p2400
I2402
sS'"don\'t"'
p2401
I2403
sS'"are'
p2402
I2404
sS'more"'
p2403
I3582
sS'kitti'
p2404
I2406
sS'nausea'
p2405
I2407
sS'stiff'
p2406
I2408
sS'asparagus'
p2407
I2409
sS'button'
p2408
I2410
sS'teeth"'
p2409
I2411
sS'suit"'
p2410
I2412
sS'picker'
p2411
I2413
sS'"here"'
p2412
I2414
sS'uniqu'
p2413
I3165
sS'jump'
p2414
I2416
sS'booth'
p2415
I2417
sS'mussolini'
p2416
I2418
sS'click'
p2417
I2419
sS'fli'
p2418
I2420
sS'poke'
p2419
I2421
sS'soup'
p2420
I3167
sS'cell'
p2421
I2423
sS'brooch'
p2422
I2424
sS'weirdo'
p2423
I2425
sS'becom'
p2424
I2426
sS'convert'
p2425
I2427
sS'convers'
p2426
I2428
sS'play"'
p2427
I3751
sS'impass'
p2428
I2430
sS'noisili'
p2429
I2431
sS'"jim"'
p2430
I2432
sS'chang'
p2431
I2433
sS'gene'
p2432
I2434
sS'chanc'
p2433
I2435
sS'wig'
p2434
I2436
sS'danger'
p2435
I2437
sS'clare'
p2436
I3782
sS'win'
p2437
I2439
sS'wit'
p2438
I2440
sS'dentist"'
p2439
I2441
sS'cloud'
p2440
I2442
sS'crap'
p2441
I2443
sS'servant"'
p2442
I2444
sS'cram'
p2443
I2445
sS'remaind'
p2444
I2446
sS'"jame'
p2445
I2447
sS'guy"'
p2446
I3174
sS'"to'
p2447
I2449
sS'huxley'
p2448
I2450
sS'starter'
p2449
I2451
sS'wellvers'
p2450
I2452
sS'crossey'
p2451
I2453
sS'ride'
p2452
I2454
sS'meet'
p2453
I2455
sS'control'
p2454
I2456
sS'iodin'
p2455
I2457
sS'skirt'
p2456
I2458
sS'"pretti'
p2457
I2459
sS'georg'
p2458
I2460
sS'speech"'
p2459
I2461
sS'"some'
p2460
I2462
sS'circular'
p2461
I2463
sS'fare'
p2462
I2464
sS'pink'
p2463
I3178
sS'sonof'
p2464
I2466
sS'fart'
p2465
I2467
sS'bakeri'
p2466
I2468
sS'masturb'
p2467
I2469
sS'nativ'
p2468
I2470
sS'scoop'
p2469
I2471
sS'reenrol'
p2470
I2472
sS'hand"'
p2471
I2474
sS'"cost'
p2472
I2475
sS'cornhol'
p2473
I4056
sS"won't"
p2474
I2477
sS'walnut'
p2475
I2478
sS'"ok"'
p2476
I2479
sS'hills"'
p2477
I2480
sS'pure'
p2478
I3185
sS'handl'
p2479
I2482
sS'auto'
p2480
I2483
sS'sweeti'
p2481
I2484
sS'catcher'
p2482
I2254
sS'front'
p2483
I2485
sS'anymore""did'
p2484
I2486
sS'religionist'
p2485
I2487
sS'somewher'
p2486
I2488
sS'"did'
p2487
I2489
sS'slide'
p2488
I2490
sS'upward'
p2489
I2491
sS'map'
p2490
I2492
sS'chunk'
p2491
I2493
sS'sandi'
p2492
I2494
sS'wine"'
p2493
I2495
sS'cigarettes"'
p2494
I2496
sS'illf'
p2495
I2497
sS'special'
p2496
I2498
sS'143'
p2497
I3192
sS'butch'
p2498
I2500
sS'influenc'
p2499
I2501
sS'confess'
p2500
I2502
sS'wondrous'
p2501
I2503
sS'"world'
p2502
I2504
sS'wick'
p2503
I2505
sS'time"'
p2504
I2506
sS'umbrella'
p2505
I2507
sS'"sick'
p2506
I2508
sS'fly"'
p2507
I2509
sS'billy"'
p2508
I4106
sS'sneer'
p2509
I2511
sS'etern'
p2510
I2512
sS'ask'
p2511
I2196
sS'timer'
p2512
I2513
sS'keep'
p2513
I2514
sS'keel'
p2514
I2515
sS'curti'
p2515
I2516
sS'bitch'
p2516
I2517
sS'drinker'
p2517
I2518
sS'lighter"'
p2518
I2519
sS'fella'
p2519
I2520
sS'attach'
p2520
I2521
sS'attack'
p2521
I2522
sS'accessori'
p2522
I3205
sS'final'
p2523
I2524
sS'beard'
p2524
I2525
sS'big'
p2525
I2526
sS'fuzzi'
p2526
I2527
sS'"rape"'
p2527
I2528
sS'tissu'
p2528
I2529
sS'ben'
p2529
I2530
sS'beg'
p2530
I4424
sS'bed'
p2531
I2532
sS'bee'
p2532
I2533
sS'berat'
p2533
I2534
sS'arc'
p2534
I5161
sS'bare'
p2535
I5162
sS'bet'
p2536
I2537
sS'rhythmic'
p2537
I1406
sS'squadron'
p2538
I2539
sS'tabl'
p2539
I4477
sS'need'
p2540
I2541
sS'screw'
p2541
I2542
sS'bastard'
p2542
I2684
sS'sprinkler'
p2543
I2544
sS'"job"'
p2544
I2546
sS'so'
p2545
I2547
sS'"he\'ll'
p2546
I2548
sS'mongrel'
p2547
I2549
sS'singl'
p2548
I2550
sS'beef"'
p2549
I2551
sS'deploy'
p2550
I2552
sS'discov'
p2551
I2553
sS'presid'
p2552
I3987
sS'arcad'
p2553
I2554
sS'urg'
p2554
I2555
sS'upset'
p2555
I2556
sS'grateful"'
p2556
I2557
sS'children"'
p2557
I2558
sS'affair'
p2558
I2559
sS'join"'
p2559
I2560
sS'anyway'
p2560
I2561
sS'slow"'
p2561
I2562
sS'passo'
p2562
I2563
sS'molest'
p2563
I2564
sS'tire'
p2564
I2565
sS'winner'
p2565
I2566
sS'forev'
p2566
I4653
sS'manufactur'
p2567
I2568
sS'sassi'
p2568
I2569
sS'120'
p2569
I2570
sS'joint'
p2570
I4695
sS'122'
p2571
I2572
sS'123'
p2572
I2573
sS'124'
p2573
I2574
sS'125'
p2574
I2575
sS'126'
p2575
I2576
sS'127'
p2576
I2577
sS'128'
p2577
I2578
sS'129'
p2578
I2579
sS'endless'
p2579
I2580
sS'"attitude"'
p2580
I2581
sS'talking"'
p2581
I2582
sS'she'
p2582
I2583
sS'contain'
p2583
I2584
sS'grab'
p2584
I2585
sS'"open'
p2585
I2586
sS'hardwood'
p2586
I2587
sS'shake'
p2587
I3222
sS'driveway'
p2588
I2589
sS'study"'
p2589
I2590
sS'statz'
p2590
I2591
sS'tend'
p2591
I2592
sS'written'
p2592
I4796
sS'"three"'
p2593
I2031
sS'limit"'
p2594
I2595
sS'neither'
p2595
I2596
sS'mind"'
p2596
I2597
sS'bleed'
p2597
I2598
sS'"dad"'
p2598
I2599
sS'key'
p2599
I2600
sS'succeed'
p2600
I5176
sS'admir'
p2601
I2602
sS'"balls"'
p2602
I2603
sS'jim'
p2603
I2604
sS'"wors'
p2604
I2605
sS'studying"'
p2605
I2606
sS'tuesday'
p2606
I2607
sS'together"'
p2607
I2608
sS'quit'
p2608
I2609
sS'slowli'
p2609
I2610
sS'cent'
p2610
I2611
sS'willi'
p2611
I2612
sS'treat'
p2612
I2613
sS'whisper'
p2613
I2614
sS'field'
p2614
I4127
sS'"with'
p2615
I2615
sS'"ahhhhh'
p2616
I2616
sS'furnitur'
p2617
I2617
sS'novel'
p2618
I2618
sS'connors"'
p2619
I2619
sS'harder'
p2620
I2620
sS'resaltado'
p2621
I2621
sS'harden'
p2622
I2622
sS'marshbird'
p2623
I2623
sS'ya"'
p2624
I2624
sS'fondl'
p2625
I2625
sS'reviv'
p2626
I2626
sS'parti'
p2627
I2627
sS'began'
p2628
I5038
sS'speaker'
p2629
I5051
sS'underground'
p2630
I2630
sS'killer'
p2631
I3230
sS'forgotten'
p2632
I2269
sS'ankl'
p2633
I2633
sS'effect'
p2634
I2634
sS'"turn'
p2635
I2635
sS'grundy"'
p2636
I2636
sS'part"'
p2637
I5105
sS'i'
p2638
I5116
sS'well'
p2639
I2639
sS'/"'
p2640
I2640
sS'46'
p2641
I2641
sS'grenad'
p2642
I2642
sS'rifl'
p2643
I2643
sS'44'
p2644
I2644
sS'distanc'
p2645
I2645
sS'disinterest'
p2646
I4739
sS'43'
p2647
I2646
sS'himmlen'
p2648
I5153
sS'skill'
p2649
I2648
sS'comentario'
p2650
I2649
sS'"locat'
p2651
I2650
sS'claim'
p2652
I2651
sS'snicker'
p2653
I2652
sS'titti'
p2654
I2653
sS'"here'
p2655
I2654
sS'kick'
p2656
I5203
sS'"flip"'
p2657
I2656
sS'sandrina'
p2658
I2657
sS'finger\'"'
p2659
I2658
sS'burden'
p2660
I2659
sS'sissi'
p2661
I2660
sS'lost'
p2662
I2661
sS'"two'
p2663
I2662
sS'buddies"'
p2664
I2663
sS'irresist'
p2665
I2664
sS'necessari'
p2666
I2665
sS'lose'
p2667
I2666
sS'rotc'
p2668
I2667
sS'candl'
p2669
I3873
sS'page'
p2670
I2669
sS'candi'
p2671
I2670
sS'"somebodi'
p2672
I2275
sS'homo'
p2673
I2672
sS'home'
p2674
I2673
sS'turd"'
p2675
I2674
sS'peter'
p2676
I2675
sS'librari'
p2677
I2676
sS'whiskey"'
p2678
I1428
sS'chickenbrain'
p2679
I2678
sS'glendal'
p2680
I2679
sS'journal'
p2681
I2680
sS'pete"'
p2682
I2681
sS'usag'
p2683
I2682
sS'schoolyard'
p2684
I2683
sS'"where'
p2685
I5372
sS'fewstep'
p2686
I2687
sS'tortur'
p2687
I2688
sS'washington'
p2688
I2689
sS'predictability"'
p2689
I2690
sS'engineer"'
p2690
I2691
sS'times"'
p2691
I2692
sS'"into'
p2692
I2693
sS'plant"'
p2693
I2694
sS'museum'
p2694
I2695
sS'backhand'
p2695
I2696
sS'"hank'
p2696
I2697
sS'north'
p2697
I2698
sS'hmmmm"'
p2698
I2699
sS'pistol"'
p2699
I2700
sS'hi'
p2700
I2701
sS'gain'
p2701
I2702
sS'whistl'
p2702
I2703
sS'ha'
p2703
I2704
sS'eat'
p2704
I2705
sS'hd'
p2705
I2706
sS'he'
p2706
I2707
sS'notice"'
p2707
I2708
sS'limit'
p2708
I2709
sS'eyes"'
p2709
I2710
sS'daniel"'
p2710
I2711
sS'display'
p2711
I2712
sS'evalu'
p2712
I2713
sS'friend"'
p2713
I2714
sS'twist'
p2714
I2715
sS'"children'
p2715
I2716
sS'penni'
p2716
I2717
sS'sapien'
p2717
I1327
sS'contest'
p2718
I2718
sS'futur'
p2719
I2719
sS'cardboard'
p2720
I2720
sS'talkin'
p2721
I2721
sS'josephin'
p2722
I2722
sS'yours"'
p2723
I2723
sS'stay'
p2724
I2724
sS'stab'
p2725
I2725
sS'upset"'
p2726
I2726
sS'appoint'
p2727
I2727
sS'unsteadili'
p2728
I2728
sS'atheist'
p2729
I2729
sS'portion'
p2730
I2730
sS'decemb'
p2731
I2731
sS'"the'
p2732
I2732
sS'better"'
p2733
I2733
sS'knelt'
p2734
I2734
sS'protest'
p2735
I2735
sS'captain'
p2736
I2736
sS'rules"'
p2737
I2737
sS'whose'
p2738
I2738
sS'accus'
p2739
I2739
sS'accur'
p2740
I2740
sS'swam'
p2741
I2741
sS'fokker'
p2742
I2742
sS'sorri'
p2743
I2743
sS'up"'
p2744
I2744
sS'teaspoon'
p2745
I58
sS'sway'
p2746
I2746
sS'appal'
p2747
I2747
sS'otherwise"'
p2748
I2748
sS'voic'
p2749
I2749
sS'vase'
p2750
I2750
sS'today"'
p2751
I2751
sS'"you\'ll'
p2752
I2752
sS'affect'
p2753
I2753
sS'mountainlik'
p2754
I2754
sS'demerit'
p2755
I2755
sS'herbert'
p2756
I2756
sS'quilt'
p2757
I2757
sS'me"'
p2758
I2758
sS'"twentythre'
p2759
I2759
sS'mama"'
p2760
I2760
sS'even'
p2761
I2761
sS'oldest'
p2762
I2762
sS'cappalletti'
p2763
I2763
sS'asid'
p2764
I2764
sS'accolad'
p2765
I2293
sS'new'
p2766
I2766
sS'net'
p2767
I2767
sS'ever'
p2768
I2768
sS'abov'
p2769
I2769
sS'join'
p2770
I4287
sS'men'
p2771
I232
sS'drew'
p2772
I2771
sS'landlord"'
p2773
I2772
sS'108'
p2774
I2773
sS'109'
p2775
I2774
sS'"anna'
p2776
I2775
sS'102'
p2777
I2776
sS'103'
p2778
I2777
sS'100'
p2779
I2778
sS"aren't"
p2780
I250
sS'106'
p2781
I2780
sS'107'
p2782
I2781
sS'104'
p2783
I2782
sS'105'
p2784
I2783
sS'"pigeonto'
p2785
I2784
sS'dri'
p2786
I2785
sS'counti'
p2787
I2786
sS'bayonet'
p2788
I2787
sS'homemad'
p2789
I2788
sS'avenu'
p2790
I300
sS'movie"'
p2791
I2790
sS'"touch'
p2792
I2791
sS'shitstop"'
p2793
I2792
sS'stories"'
p2794
I2793
sS'overhead'
p2795
I343
sS'calm'
p2796
I2795
sS'right"'
p2797
I2796
sS'recommend'
p2798
I348
sS'type'
p2799
I2798
sS'skincolor'
p2800
I351
sS'chevi'
p2801
I497
sS'culver'
p2802
I2801
sS'wart'
p2803
I2802
sS'warn'
p2804
I2803
sS'warm'
p2805
I2804
sS'rimless'
p2806
I385
sS'adult'
p2807
I2806
sS'tightrop'
p2808
I2807
sS'ward'
p2809
I2808
sS'stinki'
p2810
I2809
sS'rightw'
p2811
I396
sS'room'
p2812
I2811
sS'roof'
p2813
I2812
sS'bungalow'
p2814
I2813
sS'"bust'
p2815
I2814
sS'arm"'
p2816
I421
sS'"count'
p2817
I2816
sS'laid"'
p2818
I2817
sS'give'
p2819
I2818
sS'"pick'
p2820
I2819
sS'honey'
p2821
I2820
sS'strop'
p2822
I2821
sS'polic'
p2823
I2822
sS'scrambl'
p2824
I2824
sS'answer'
p2825
I2825
sS'"finish'
p2826
I2826
sS'confid'
p2827
I480
sS'food"'
p2828
I2828
sS'substanc'
p2829
I2829
sS'"harri'
p2830
I494
sS'halfslic'
p2831
I2831
sS'misfit'
p2832
I2832
sS'loyalti'
p2833
I2833
sS'attempt'
p2834
I2834
sS'driblet'
p2835
I2835
sS'third'
p2836
I2836
sS'grant'
p2837
I2304
sS'janic'
p2838
I2838
sS'still"'
p2839
I2839
sS'deck'
p2840
I2840
sS'mumbl'
p2841
I2841
sS'down"'
p2842
I2842
sS'gentl'
p2843
I2843
sS'then"'
p2844
I2844
sS'better'
p2845
I2845
sS'spoken'
p2846
I505
sS'chubbi'
p2847
I506
sS'schmidt'
p2848
I603
sS'girlwoman'
p2849
I2849
sS'bastards"'
p2850
I2850
sS'anim'
p2851
I2851
sS'overestim'
p2852
I2852
sS'promis'
p2853
I2853
sS'piano"'
p2854
I2854
sS'onethird'
p2855
I2855
sS'grammar'
p2856
I2856
sS'meat'
p2857
I2857
sS'week"'
p2858
I2858
sS'roast'
p2859
I2859
sS'went'
p2860
I2860
sS'side'
p2861
I667
sS'bone'
p2862
I2862
sS'luck'
p2863
I671
sS'hitchhik'
p2864
I2864
sS'navi'
p2865
I2865
sS'enorm'
p2866
I2866
sS'taught'
p2867
I2867
sS'forgot'
p2868
I2868
sS'haircut'
p2869
I2869
sS'velvet'
p2870
I2870
sS'dime'
p2871
I2310
sS'"stinki'
p2872
I2871
sS'bellybutton'
p2873
I738
sS'is"'
p2874
I2873
sS'24"'
p2875
I2874
sS'situat'
p2876
I2875
sS'greasi'
p2877
I2876
sS'loui'
p2878
I2877
sS'fleck'
p2879
I2878
sS'startl'
p2880
I2879
sS'loud'
p2881
I2880
sS'grade'
p2882
I2881
sS'"america'
p2883
I2882
sS'inflam'
p2884
I2312
sS'gamble"'
p2885
I2883
sS'buttock'
p2886
I2884
sS'hook'
p2887
I2885
sS'ditch'
p2888
I830
sS'hood'
p2889
I2887
sS'spinach'
p2890
I2888
sS'wants"'
p2891
I2889
sS'sometim'
p2892
I2890
sS'begin"'
p2893
I2891
sS'down\'"'
p2894
I2892
sS'dwell'
p2895
I2893
sS'gym'
p2896
I2894
sS'peculiar'
p2897
I2895
sS'silli'
p2898
I2896
sS'affront'
p2899
I2897
sS'consequ'
p2900
I2898
sS'body"'
p2901
I2899
sS'matter'
p2902
I2900
sS'street'
p2903
I4248
sS'girl"'
p2904
I2902
sS'others"'
p2905
I2903
sS'mind'
p2906
I2904
sS'mine'
p2907
I2905
sS'delmor'
p2908
I2906
sS'seed'
p2909
I2907
sS'seen'
p2910
I2908
sS'seem'
p2911
I2909
sS'do"'
p2912
I2910
sS'gorki'
p2913
I2911
sS'chest'
p2914
I2912
sS'chees'
p2915
I2913
sS'home\'"'
p2916
I2914
sS'quarterback'
p2917
I2915
sS'crippl'
p2918
I2916
sS'tell"'
p2919
I2917
sS'marin'
p2920
I2918
sS'regular'
p2921
I2919
sS'see"'
p2922
I2920
sS'tradit'
p2923
I2921
sS'don'
p2924
I2922
sS'alarm'
p2925
I2923
sS'dog'
p2926
I2924
sS'doe'
p2927
I2925
sS'dos'
p2928
I2926
sS'"there"'
p2929
I2927
sS'misanthrop'
p2930
I2928
sS'visitor'
p2931
I2929
sS'"goodby'
p2932
I2930
sS'despit'
p2933
I2931
sS'pledg'
p2934
I2932
sS'explain'
p2935
I2933
sS'sugar'
p2936
I2934
sS'field"'
p2937
I2935
sS'stop'
p2938
I2936
sS'coast'
p2939
I2937
sS'watermelon'
p2940
I2938
sS'saroyan'
p2941
I2939
sS'parachut'
p2942
I2940
sS'earn'
p2943
I1182
sS'bar'
p2944
I2942
sS'whitechapel'
p2945
I2943
sS'bag'
p2946
I2944
sS'bad'
p2947
I2945
sS'troop'
p2948
I2946
sS'beebe'
p2949
I2947
sS'wear"'
p2950
I2948
sS'pete'
p2951
I2949
sS'said'
p2952
I2950
sS'sail'
p2953
I2951
sS"there'l"
p2954
I2952
sS'weari'
p2955
I2953
sS'against'
p2956
I2954
sS'"upon'
p2957
I2955
sS'"peanut'
p2958
I2956
sS'lowli'
p2959
I2957
sS'gusher'
p2960
I2958
sS'boys"'
p2961
I2959
sS'sam'
p2962
I2960
sS'recur'
p2963
I2961
sS'three'
p2964
I2962
sS'now"'
p2965
I2963
sS'tine'
p2966
I2964
sS'trigger'
p2967
I2965
sS'interest'
p2968
I2966
sS'basic'
p2969
I2967
sS'basin'
p2970
I2968
sS'sadist"'
p2971
I2969
sS'tini'
p2972
I2970
sS'threw'
p2973
I2971
sS'deeper'
p2974
I2972
sS'sag'
p2975
I526
sS'dismiss'
p2976
I2974
sS'111'
p2977
I5616
sS'unpopular'
p2978
I2975
sS'tank'
p2979
I2976
sS'servic'
p2980
I2977
sS'gasolin'
p2981
I2978
sS'near'
p2982
I2979
sS'lacrosse"'
p2983
I3297
sS'neat'
p2984
I2980
sS'seven'
p2985
I2981
sS'is'
p2986
I2982
sS'over"'
p2987
I2983
sS'shame'
p2988
I2984
sS'in'
p2989
I2985
sS'disappear'
p2990
I2986
sS'if'
p2991
I2987
sS'grown'
p2992
I2988
sS'practice"'
p2993
I1507
sS'belli'
p2994
I2990
sS'receiv'
p2995
I2991
sS'make'
p2996
I2992
sS'coach"'
p2997
I2993
sS'smoke"'
p2998
I2994
sS'elli'
p2999
I2995
sS'can"'
p3000
I2996
sS'overh'
p3001
I2997
sS'garlic'
p3002
I2998
sS'"thump'
p3003
I2999
sS'jealous'
p3004
I3000
sS'albino'
p3005
I2329
sS"he'll"
p3006
I3002
sS'fake"'
p3007
I3003
sS'kid'
p3008
I3004
sS'butter'
p3009
I3005
sS'unbuckl'
p3010
I3006
sS'inherit'
p3011
I3007
sS'bottle"'
p3012
I3008
sS'left'
p3013
I3009
sS'yeh'
p3014
I3010
sS'agon'
p3015
I3011
sS'salivari'
p3016
I3012
sS'just'
p3017
I3013
sS'unfair'
p3018
I3014
sS'germany"'
p3019
I3015
sS'human'
p3020
I3016
sS'sailor"'
p3021
I3017
sS'yes'
p3022
I3018
sS'yet'
p3023
I3019
sS'languag'
p3024
I3020
sS'save'
p3025
I3021
sS'snatch"'
p3026
I3022
sS'"shit'
p3027
I537
sS'perfunctori'
p3028
I3024
sS'applic'
p3029
I3025
sS'fighter"'
p3030
I3026
sS'"yeah'
p3031
I3027
sS'discreet'
p3032
I3028
sS'elabor'
p3033
I3029
sS'a\'s"'
p3034
I3030
sS'athlet'
p3035
I3031
sS'shoulder'
p3036
I3032
sS'airhead'
p3037
I3033
sS'justice"'
p3038
I3034
sS'manual'
p3039
I3035
sS'digniti'
p3040
I3036
sS'deal'
p3041
I3037
sS'somehow'
p3042
I1710
sS'holdup'
p3043
I1712
sS'dear'
p3044
I3040
sS'heritag'
p3045
I3041
sS'marmount'
p3046
I3042
sS'kukluxklansman'
p3047
I3043
sS'darl'
p3048
I3044
sS'"ready"'
p3049
I3045
sS'creatur'
p3050
I3046
sS'bold'
p3051
I3047
sS'burn'
p3052
I3048
sS'buri'
p3053
I3049
sS'firemen'
p3054
I3051
sS'bolt'
p3055
I3052
sS'westview'
p3056
I3053
sS'crucifix'
p3057
I501
sS'commit'
p3058
I3055
sS'anthropolog'
p3059
I3056
sS'telephon'
p3060
I3057
sS'for"'
p3061
I3058
sS'eastside"'
p3062
I3059
sS'down'
p3063
I3060
sS'education"'
p3064
I3061
sS'fraction'
p3065
I3062
sS'fork'
p3066
I3063
sS'secondhand'
p3067
I3064
sS'form'
p3068
I3065
sS'forc'
p3069
I3066
sS'forg'
p3070
I3067
sS'ford'
p3071
I3068
sS'"run"'
p3072
I3069
sS'chinaski"'
p3073
I3070
sS'what"'
p3074
I3071
sS'"well'
p3075
I3072
sS'daddi'
p3076
I3073
sS'whiskey'
p3077
I3074
sS'rejected"'
p3078
I3075
sS'featur'
p3079
I3076
sS'toss'
p3080
I3077
sS'drive'
p3081
I546
sS'mewks"'
p3082
I3079
sS'glanc'
p3083
I3080
sS'die"'
p3084
I3081
sS'ship'
p3085
I3082
sS'shit'
p3086
I3083
sS'sticki'
p3087
I3084
sS'communic'
p3088
I3085
sS'faction'
p3089
I3086
sS'slink'
p3090
I3087
sS'felt'
p3091
I3088
sS'journey'
p3092
I2034
sS'femal'
p3093
I3090
sS'potato'
p3094
I3091
sS'salt'
p3095
I3092
sS'jacket'
p3096
I3093
sS'ignor'
p3097
I3094
sS'teeth'
p3098
I3095
sS'daili'
p3099
I3096
sS'befriend'
p3100
I3097
sS'skip'
p3101
I3098
sS'mile'
p3102
I3099
sS'skim'
p3103
I3100
sS'skin'
p3104
I3101
sS'mill'
p3105
I3102
sS'skid'
p3106
I2097
sS'21st'
p3107
I3104
sS'depend'
p3108
I3105
sS'father'
p3109
I3106
sS'deject'
p3110
I2116
sS'me'
p3111
I3108
sS'clare"'
p3112
I3109
sS'string'
p3113
I3110
sS'penniless'
p3114
I3111
sS'ma'
p3115
I3112
sS'did'
p3116
I3113
sS'die'
p3117
I3114
sS'dig'
p3118
I3115
sS'item'
p3119
I3116
sS'dip'
p3120
I3117
sS'round'
p3121
I3118
sS"it'll"
p3122
I3119
sS'shave'
p3123
I3120
sS'else"'
p3124
I3121
sS'swimming"'
p3125
I3122
sS'asham'
p3126
I3123
sS'halfmast"'
p3127
I3124
sS'drunkard'
p3128
I3125
sS'dwarf'
p3129
I3126
sS'wail'
p3130
I3127
sS'wearili'
p3131
I3128
sS'clerk'
p3132
I3129
sS'makeup'
p3133
I3130
sS'french'
p3134
I3131
sS'"would'
p3135
I3132
sS'drainag'
p3136
I3134
sS'deceiv'
p3137
I3135
sS'50cent'
p3138
I3136
sS'wait'
p3139
I3137
sS'invis'
p3140
I2283
sS'boy'
p3141
I3139
sS'insan'
p3142
I3140
sS'shift'
p3143
I3141
sS'bow'
p3144
I3142
sS'here"'
p3145
I3143
sS'bob'
p3146
I3144
sS'elect'
p3147
I3145
sS'stiletto'
p3148
I3146
sS'drainage"'
p3149
I3147
sS'ways"'
p3150
I3148
sS'wealth'
p3151
I3149
sS'sharper'
p3152
I3150
sS'sake'
p3153
I3151
sS'univers'
p3154
I3152
sS'visit'
p3155
I3153
sS'everybodi'
p3156
I3154
sS'ahhh'
p3157
I3155
sS'sharpen'
p3158
I3156
sS'swagger'
p3159
I3157
sS'ferris"'
p3160
I3158
sS'ooh'
p3161
I3159
sS'downtown'
p3162
I3160
sS'rigid'
p3163
I3161
sS'examin'
p3164
I3162
sS'effort'
p3165
I3163
sS'inside"'
p3166
I3164
sS'soul'
p3167
I2415
sS'"john'
p3168
I3166
sS'wallet'
p3169
I2422
sS'sour'
p3170
I3168
sS'9th'
p3171
I3169
sS'locker"'
p3172
I3170
sS'nearest'
p3173
I3171
sS'reflector'
p3174
I3172
sS'edna'
p3175
I3173
sS'fuck'
p3176
I2448
sS'agent'
p3177
I3175
sS'drawer'
p3178
I3176
sS'crazi'
p3179
I3177
sS'purs'
p3180
I2465
sS'subnorm'
p3181
I3179
sS'dogfight'
p3182
I3180
sS'tilt'
p3183
I3181
sS'till'
p3184
I3182
sS'sunday'
p3185
I3183
sS'purg'
p3186
I3184
sS'sword'
p3187
I2481
sS'tile'
p3188
I3186
sS'146'
p3189
I3187
sS'147'
p3190
I3188
sS'144'
p3191
I3189
sS'145'
p3192
I3190
sS'142'
p3193
I3191
sS'mat'
p3194
I2499
sS'140'
p3195
I3193
sS'141'
p3196
I3194
sS'may'
p3197
I3195
sS'max'
p3198
I3196
sS'148'
p3199
I3197
sS'149'
p3200
I3198
sS'lord"'
p3201
I3199
sS'fastshoes\'"'
p3202
I3200
sS'mae'
p3203
I3201
sS'mad'
p3204
I3202
sS'tablecloth'
p3205
I3203
sS'grow'
p3206
I3204
sS'man'
p3207
I2523
sS'twobyfour'
p3208
I3206
sS'neck'
p3209
I3207
sS'johnson'
p3210
I3208
sS'6th'
p3211
I3209
sS'"daddi'
p3212
I3210
sS'ann"'
p3213
I3211
sS'switch'
p3214
I3212
sS'jail'
p3215
I3213
sS'basket'
p3216
I3214
sS'tall'
p3217
I3215
sS'talk'
p3218
I3216
sS'cute'
p3219
I3217
sS'gradual'
p3220
I3218
sS'graduat'
p3221
I3219
sS'cunts"'
p3222
I3220
sS'"someday'
p3223
I3221
sS'pitch'
p3224
I2438
sS'equip'
p3225
I3223
sS'group'
p3226
I3224
sS'thank'
p3227
I3225
sS'maid'
p3228
I3226
sS'"tough'
p3229
I3227
sS'main'
p3230
I3228
sS'scenery"'
p3231
I3229
sS'automobil'
p3232
I2631
sS'shatter'
p3233
I3231
sS'lunch'
p3234
I3232
sS'hung"'
p3235
I3233
sS'agoni'
p3236
I3234
sS'bullshit'
p3237
I3235
sS'possess'
p3238
I3236
sS'peasant'
p3239
I3237
sS'rock'
p3240
I3238
sS'got"'
p3241
I3239
sS'continu'
p3242
I3240
sS'unlock'
p3243
I3241
sS'girl'
p3244
I3242
sS'3rd'
p3245
I3243
sS'yes"'
p3246
I3244
sS'both"'
p3247
I4302
sS'twelv'
p3248
I568
sS'blubber'
p3249
I3247
sS'chines'
p3250
I3248
sS'earlier'
p3251
I3249
sS'monster'
p3252
I3250
sS'cured"'
p3253
I3251
sS'elephant"'
p3254
I3252
sS'romant'
p3255
I3253
sS'cough'
p3256
I3254
sS'"hello'
p3257
I3255
sS'thing'
p3258
I3256
sS'"buddi'
p3259
I3257
sS'think'
p3260
I3258
sS'first'
p3261
I3259
sS'kernel'
p3262
I3260
sS'carri'
p3263
I3261
sS'housekeep'
p3264
I3262
sS'eye"'
p3265
I3263
sS'catech'
p3266
I3264
sS'arch'
p3267
I3265
sS'slept'
p3268
I3266
sS'fierc'
p3269
I3267
sS'ambul'
p3270
I3268
sS'"german"'
p3271
I3269
sS'kirkpatrick'
p3272
I3270
sS'"there'
p3273
I3271
sS'"talk'
p3274
I3272
sS'butt'
p3275
I3273
sS'greenberg'
p3276
I3274
sS'11'
p3277
I3275
sS'10'
p3278
I3276
sS'13'
p3279
I3277
sS'12'
p3280
I3278
sS'15'
p3281
I3279
sS'14'
p3282
I3280
sS'17'
p3283
I3281
sS'16'
p3284
I3282
sS'19'
p3285
I3283
sS'18'
p3286
I3284
sS'gotta'
p3287
I3285
sS'helping"'
p3288
I3286
sS'betty"'
p3289
I3287
sS'were'
p3290
I3288
sS'"want'
p3291
I3289
sS'coconut'
p3292
I3290
sS'lick'
p3293
I3291
sS'seam'
p3294
I3292
sS'customers"'
p3295
I3293
sS'"free"'
p3296
I3294
sS'bet"'
p3297
I3295
sS'lullabi'
p3298
I3296
sS'larri'
p3299
I2361
sS'comedian'
p3300
I3298
sS'"priest"'
p3301
I3299
sS'nazi'
p3302
I3300
sS'creative"'
p3303
I3301
sS'clung'
p3304
I3302
sS'squar'
p3305
I3303
sS'dryfuck'
p3306
I3304
sS'squad'
p3307
I3305
sS'advis'
p3308
I3306
sS'damn"'
p3309
I3307
sS'pain'
p3310
I3308
sS'trace'
p3311
I3309
sS'normal'
p3312
I3310
sS'track'
p3313
I3311
sS'paid'
p3314
I3312
sS'champagn'
p3315
I3313
sS'pair'
p3316
I3314
sS'tommygun'
p3317
I3315
sS'voice"'
p3318
I3316
sS'pathet'
p3319
I3317
sS'alone"'
p3320
I3318
sS'lenni'
p3321
I3319
sS'shop'
p3322
I3320
sS'shot'
p3323
I3321
sS'show'
p3324
I3322
sS'hairs"'
p3325
I3323
sS'shoe'
p3326
I3324
sS'corner'
p3327
I3325
sS'fenc'
p3328
I3326
sS'plume'
p3329
I3327
sS'dick'
p3330
I3328
sS'peepee"'
p3331
I3329
sS'black'
p3332
I3330
sS'enthusiasm'
p3333
I3331
sS'"joe'
p3334
I3332
sS'get'
p3335
I3333
sS'orang'
p3336
I4312
sS'stomp'
p3337
I3335
sS'dorsey"'
p3338
I3336
sS'sideway'
p3339
I3337
sS'stupid'
p3340
I3338
sS'nostril'
p3341
I3339
sS'disease"'
p3342
I4314
sS'trilog'
p3343
I3341
sS'sear'
p3344
I3342
sS'menac'
p3345
I3343
sS'streets"'
p3346
I3344
sS'seat'
p3347
I3345
sS'"gimm'
p3348
I3346
sS'pissedoff'
p3349
I3347
sS'seal'
p3350
I3348
sS'wonder'
p3351
I3349
sS'ornament'
p3352
I3350
sS'label'
p3353
I3351
sS'enough'
p3354
I3352
sS'across'
p3355
I3353
sS'dempsey'
p3356
I3354
sS'doing"'
p3357
I3355
sS'parent'
p3358
I3356
sS'"what"'
p3359
I3357
sS'jr'
p3360
I3358
sS'"carrot'
p3361
I3359
sS'sea"'
p3362
I3360
sS'tub'
p3363
I3361
sS'timmi'
p3364
I3362
sS'tug'
p3365
I3363
sS'tuck'
p3366
I3364
sS'check"'
p3367
I3365
sS'restroom'
p3368
I3366
sS'audienc'
p3369
I3367
sS'improv'
p3370
I3368
sS'among'
p3371
I3369
sS'acceler'
p3372
I3370
sS'stretcher'
p3373
I3371
sS'cancer'
p3374
I3372
sS'cancel'
p3375
I3373
sS'undershirt'
p3376
I3374
sS'suicid'
p3377
I3441
sS'mark'
p3378
I3376
sS'fucked"'
p3379
I3377
sS'"washington'
p3380
I3378
sS'repres'
p3381
I2372
sS'those'
p3382
I3380
sS'sound'
p3383
I3381
sS'"hide'
p3384
I3382
sS'"nothing"'
p3385
I3383
sS'1100'
p3386
I3384
sS'cock'
p3387
I3523
sS'advantag'
p3388
I3386
sS'destin'
p3389
I3387
sS'sudden'
p3390
I3388
sS'doctor'
p3391
I3389
sS'pay'
p3392
I3390
sS'same'
p3393
I3391
sS'speech'
p3394
I3601
sS'pan'
p3395
I3393
sS'oil'
p3396
I3394
sS'inbetween'
p3397
I3395
sS'bathroom"'
p3398
I3396
sS'been"'
p3399
I3397
sS'drain'
p3400
I3398
sS'argument"'
p3401
I3399
sS'watch"'
p3402
I3400
sS'execut'
p3403
I3401
sS'money'
p3404
I3402
sS'blanket"'
p3405
I3403
sS'asleep"'
p3406
I3404
sS'gangl'
p3407
I3405
sS'sprang'
p3408
I3406
sS'parad'
p3409
I3407
sS'ahhhh'
p3410
I3733
sS'4'
p3411
I3409
sS'grip'
p3412
I3410
sS'gloom'
p3413
I4320
sS'"lilli'
p3414
I3412
sS'mop'
p3415
I3413
sS'mow'
p3416
I3414
sS'wife"'
p3417
I3415
sS'gang"'
p3418
I3416
sS'mom'
p3419
I3417
sS'grin'
p3420
I3418
sS'chamber'
p3421
I3419
sS'nose'
p3422
I3420
sS'nice'
p3423
I3421
sS'draw'
p3424
I2380
sS'dole'
p3425
I3423
sS'"goodnight'
p3426
I3424
sS'nazism'
p3427
I3425
sS'broke"'
p3428
I3426
sS'sunbath'
p3429
I3427
sS'station"'
p3430
I3428
sS'knife'
p3431
I3429
sS'raincoat'
p3432
I3430
sS'cab"'
p3433
I3431
sS'broken'
p3434
I3432
sS'pustul'
p3435
I3433
sS'chlorin'
p3436
I3434
sS'fingerfuck'
p3437
I2385
sS'roar'
p3438
I3436
sS'smear'
p3439
I3437
sS'out"'
p3440
I3438
sS'road'
p3441
I3439
sS'schoolbook'
p3442
I3440
sS'prohibit'
p3443
I4326
sS'mari'
p3444
I3375
sS'morning"'
p3445
I3442
sS'strip'
p3446
I3444
sS'"please"'
p3447
I3445
sS'brute'
p3448
I3446
sS'drill"'
p3449
I3447
sS'daytim'
p3450
I4017
sS'tobacco"'
p3451
I3449
sS'land"'
p3452
I3450
sS'strawberri'
p3453
I3451
sS'possibl'
p3454
I3452
sS"wasn't"
p3455
I3453
sS'unusu'
p3456
I3454
sS'blackbird'
p3457
I3455
sS'unscath'
p3458
I3456
sS'deep'
p3459
I3457
sS'general'
p3460
I4094
sS'file'
p3461
I3459
sS'cultur'
p3462
I3460
sS'girlfriend'
p3463
I3461
sS'student"'
p3464
I3462
sS'puke"'
p3465
I3463
sS'fill'
p3466
I3464
sS'tedious'
p3467
I3465
sS'again'
p3468
I3466
sS'personnel'
p3469
I3467
sS'"jack'
p3470
I3468
sS'sick"'
p3471
I3469
sS'outfield'
p3472
I3470
sS'lousiest'
p3473
I3471
sS'sewer'
p3474
I3472
sS'escap'
p3475
I3473
sS'forget'
p3476
I3474
sS'dollar'
p3477
I3475
sS'emili'
p3478
I3476
sS'sunk'
p3479
I3477
sS'turnip"'
p3480
I3478
sS'semest'
p3481
I3479
sS'children'
p3482
I3480
sS'north"'
p3483
I3481
sS'felton'
p3484
I3482
sS'mother"'
p3485
I3483
sS'polish"'
p3486
I3484
sS'hideous'
p3487
I3485
sS'"everi'
p3488
I3486
sS'fals'
p3489
I3487
sS'allowance"'
p3490
I3488
sS'lever"'
p3491
I3489
sS'scout'
p3492
I3490
sS'fall'
p3493
I3491
sS'hotcak'
p3494
I3492
sS'neighborhood'
p3495
I3493
sS'clinch'
p3496
I3494
sS'christ"'
p3497
I4366
sS'untangl'
p3498
I2396
sS'lawyer'
p3499
I3497
sS'further'
p3500
I3498
sS'marksmen'
p3501
I3499
sS'quiet"'
p3502
I3500
sS'ribbon'
p3503
I3501
sS'excit'
p3504
I3502
sS'waffl'
p3505
I3503
sS'stood'
p3506
I3504
sS'abe'
p3507
I3505
sS'microphon'
p3508
I3506
sS'milk"'
p3509
I489
sS'stoop'
p3510
I3508
sS'disench'
p3511
I3509
sS'hurdl'
p3512
I3510
sS'public'
p3513
I3511
sS'movement'
p3514
I3512
sS'5000'
p3515
I3513
sS'knockwurst'
p3516
I3514
sS'"lousy"'
p3517
I3515
sS'"$250'
p3518
I3628
sS'beacon'
p3519
I3517
sS'valv'
p3520
I3518
sS'valu'
p3521
I3519
sS'fatter'
p3522
I3520
sS'search'
p3523
I3521
sS'milki'
p3524
I3522
sS'fenster'
p3525
I3385
sS'thirtysix'
p3526
I3524
sS'lawrenc'
p3527
I4503
sS'sadist'
p3528
I3526
sS'shortcak'
p3529
I3527
sS'memor'
p3530
I3528
sS'eye'
p3531
I3529
sS'liber'
p3532
I3530
sS'tackl'
p3533
I3531
sS'two'
p3534
I1986
sS'lady"'
p3535
I3533
sS'"smile'
p3536
I3534
sS'splash'
p3537
I3535
sS'raft'
p3538
I3536
sS'diamond'
p3539
I3537
sS'desir'
p3540
I3538
sS'brisk'
p3541
I3539
sS'ahead"'
p3542
I3540
sS'leonard'
p3543
I3541
sS"ain't"
p3544
I3542
sS'particular'
p3545
I3543
sS'magnific'
p3546
I3544
sS'town'
p3547
I3545
sS'dictat'
p3548
I4611
sS'none'
p3549
I3547
sS'hour'
p3550
I3548
sS'hous'
p3551
I3549
sS'wipe"'
p3552
I3550
sS'roosevelt'
p3553
I3551
sS'requested"'
p3554
I3552
sS'remain'
p3555
I3553
sS'nothing"'
p3556
I3554
sS'needlepoint'
p3557
I3555
sS'chickenshit"'
p3558
I3556
sS'explod'
p3559
I3557
sS'vaudevill'
p3560
I3558
sS'socal'
p3561
I3559
sS'explor'
p3562
I3560
sS'explos'
p3563
I3561
sS'sharp'
p3564
I3562
sS'"this'
p3565
I4348
sS'siren'
p3566
I3564
sS'awkward'
p3567
I3565
sS'secur'
p3568
I3566
sS'comfort'
p3569
I3567
sS'steps"'
p3570
I3568
sS'eat"'
p3571
I3569
sS'needl'
p3572
I3570
sS'genius"'
p3573
I3571
sS'salesclerk'
p3574
I3572
sS'blood'
p3575
I3573
sS'bloom'
p3576
I3574
sS'chute'
p3577
I3575
sS'coat'
p3578
I3576
sS'wobbl'
p3579
I3577
sS'spoon'
p3580
I3578
sS'bather'
p3581
I3579
sS'"seerik'
p3582
I3580
sS'curledup'
p3583
I3581
sS'"whoever'
p3584
I2405
sS'"one"'
p3585
I3583
sS'ok"'
p3586
I3584
sS'through'
p3587
I3585
sS'male"'
p3588
I3586
sS'suffer'
p3589
I3587
sS'24'
p3590
I3588
sS'25'
p3591
I3589
sS'26'
p3592
I3590
sS'27'
p3593
I3591
sS'20'
p3594
I3592
sS'21'
p3595
I3593
sS'22'
p3596
I3594
sS'shortstop'
p3597
I3595
sS'28'
p3598
I3597
sS'29'
p3599
I3598
sS'drinks"'
p3600
I3599
sS'late'
p3601
I3600
sS'pad'
p3602
I3392
sS'peni'
p3603
I3602
sS'lookout'
p3604
I3603
sS'good'
p3605
I3604
sS'goop'
p3606
I3605
sS'complain'
p3607
I3606
sS'chesterfields"'
p3608
I3607
sS'"chuck"'
p3609
I3608
sS'10incher'
p3610
I3609
sS'easili'
p3611
I3610
sS'token'
p3612
I3611
sS'clamp'
p3613
I3612
sS'mental'
p3614
I3614
sS'fish'
p3615
I3615
sS'hard'
p3616
I3616
sS'idea'
p3617
I3617
sS'connect'
p3618
I3618
sS'fist'
p3619
I3619
sS'energi'
p3620
I3620
sS'orient'
p3621
I3621
sS'flower'
p3622
I3622
sS'kickbal'
p3623
I3623
sS'admiss'
p3624
I3624
sS'suprem'
p3625
I3625
sS'pigeon'
p3626
I3626
sS'"go'
p3627
I3627
sS'bulls\x92ey'
p3628
I3629
sS'jimmy"'
p3629
I3630
sS'difficulti'
p3630
I3631
sS'suspici'
p3631
I3632
sS'pleasant'
p3632
I3633
sS'toy'
p3633
I3634
sS'"she'
p3634
I3635
sS'copper'
p3635
I3636
sS'fortyseven'
p3636
I3637
sS'doctor"'
p3637
I3638
sS'remarkable"'
p3638
I3639
sS'"lift"'
p3639
I3640
sS'done'
p3640
I3641
sS'dong'
p3641
I3642
sS'razor'
p3642
I3643
sS'family"'
p3643
I3644
sS'5th'
p3644
I3645
sS'construct'
p3645
I3646
sS'oranges"'
p3646
I5095
sS'leash'
p3647
I3648
sS'mama'
p3648
I3649
sS'twenti'
p3649
I3650
sS'park'
p3650
I3651
sS'madmen'
p3651
I3652
sS'dentist'
p3652
I3653
sS'don"'
p3653
I3654
sS'binoc'
p3654
I3655
sS'b'
p3655
I3656
sS'contrari'
p3656
I3657
sS'gotten'
p3657
I3658
sS'youth'
p3658
I3659
sS'dogcatch'
p3659
I3660
sS'plead'
p3660
I3661
sS'bodyenglish'
p3661
I3662
sS'egg"'
p3662
I3663
sS'happens"'
p3663
I3664
sS'mountain'
p3664
I3665
sS'built'
p3665
I3666
sS'blanco'
p3666
I3667
sS'couch'
p3667
I3668
sS'build'
p3668
I3669
sS'shower"'
p3669
I3670
sS'chart'
p3670
I3671
sS'most'
p3671
I3672
sS'"tell'
p3672
I3673
sS'age"'
p3673
I3674
sS'charg'
p3674
I3675
sS'ko'
p3675
I3676
sS'weenie"'
p3676
I3677
sS'halfback'
p3677
I3678
sS'woodhaven'
p3678
I3679
sS'slimi'
p3679
I3680
sS'fine'
p3680
I3681
sS'find'
p3681
I3682
sS'ambit'
p3682
I3683
sS'nervous'
p3683
I3684
sS'california"'
p3684
I3685
sS'motorcycle"'
p3685
I3686
sS'8'
p3686
I3687
sS'unhappi'
p3687
I3688
sS'mein'
p3688
I3689
sS'express'
p3689
I3690
sS'spi'
p3690
I3691
sS'batter'
p3691
I3692
sS'breast'
p3692
I3693
sS'salut'
p3693
I3694
sS'silk'
p3694
I3695
sS'uncomfort'
p3695
I3696
sS'idiot"'
p3696
I3697
sS'common'
p3697
I3698
sS'"no"'
p3698
I3699
sS'thedriveway'
p3699
I3700
sS'vine'
p3700
I3701
sS'queer"'
p3701
I3702
sS'tender'
p3702
I3703
sS'reserv'
p3703
I3704
sS'hungry"'
p3704
I3705
sS'expert'
p3705
I3706
sS'someth'
p3706
I3707
sS'smallest'
p3707
I3708
sS'cleansed"'
p3708
I4376
sS'experi'
p3709
I3710
sS'altern'
p3710
I3711
sS'popup'
p3711
I3712
sS'appreci'
p3712
I3713
sS'"\'the'
p3713
I3714
sS'unrol'
p3714
I3715
sS'mailbox'
p3715
I3716
sS'"daddy"'
p3716
I3717
sS'aircraft'
p3717
I3718
sS'"not'
p3718
I3719
sS'"now'
p3719
I3720
sS'infal'
p3720
I3721
sS'purpl'
p3721
I3722
sS'popul'
p3722
I3723
sS'confides"'
p3723
I3724
sS'alon'
p3724
I3725
sS'afar'
p3725
I3726
sS'simpli'
p3726
I3727
sS'point'
p3727
I3728
sS'hangov'
p3728
I3729
sS'bremen\'"'
p3729
I3730
sS'throughout'
p3730
I3731
sS'secret'
p3731
I3732
sS'pile'
p3732
I3408
sS'atlantic"'
p3733
I3734
sS'dance"'
p3734
I3735
sS'exercis'
p3735
I3736
sS'gas'
p3736
I3737
sS'gap'
p3737
I3738
sS'understand'
p3738
I3740
sS'chatter'
p3739
I3741
sS'ignit'
p3740
I3742
sS'bill'
p3741
I3743
sS'fun'
p3742
I3744
sS'everyon'
p3743
I3745
sS'prejudic'
p3744
I3746
sS'husband"'
p3745
I3747
sS'itself'
p3746
I3748
sS'slavery"'
p3747
I3749
sS'transom'
p3748
I3750
sS'centuri'
p3749
I3752
sS'key"'
p3750
I3753
sS'menen'
p3751
I3754
sS'newhal'
p3752
I3755
sS'whore"'
p3753
I3756
sS'some"'
p3754
I3757
sS'flurri'
p3755
I3758
sS'itch'
p3756
I3759
sS'yesterday'
p3757
I3760
sS'moment'
p3758
I3761
sS'stripe'
p3759
I3762
sS'timid'
p3760
I3763
sS'carload'
p3761
I3764
sS'task'
p3762
I3765
sS'chemistri'
p3763
I3766
sS'spent'
p3764
I3767
sS'unlac'
p3765
I3768
sS'withdraw'
p3766
I3769
sS'protrud'
p3767
I3770
sS'tast'
p3768
I3771
sS'howl'
p3769
I3772
sS'hardons"'
p3770
I3773
sS'obscur'
p3771
I3774
sS'apes"'
p3772
I3775
sS'snot'
p3773
I4389
sS'lives"'
p3774
I3777
sS'wage'
p3775
I3778
sS'"journal'
p3776
I3779
sS'cur'
p3777
I3780
sS'cup'
p3778
I3781
sS'"flip'
p3779
I3783
sS'"afraid'
p3780
I3784
sS'monkeyface"'
p3781
I3785
sS'frenet'
p3782
I3786
sS'insol'
p3783
I3787
sS'horsesho'
p3784
I3788
sS'bit'
p3785
I3789
sS'knock'
p3786
I3790
sS'semi'
p3787
I3791
sS'glove'
p3788
I3792
sS'princip'
p3789
I3793
sS'foolish'
p3790
I3794
sS'sequin'
p3791
I3795
sS'downstair'
p3792
I3796
sS'often'
p3793
I3797
sS'flank"'
p3794
I3798
sS'duck'
p3795
I3799
sS'back'
p3796
I3800
sS'bach'
p3797
I3801
sS'strongest'
p3798
I3802
sS'mirror'
p3799
I3803
sS'pet'
p3800
I3804
sS'barefist'
p3801
I3805
sS'pew'
p3802
I3806
sS'good"'
p3803
I3807
sS'mathemat'
p3804
I3808
sS'larg'
p3805
I3809
sS'pee'
p3806
I3810
sS'pea'
p3807
I3811
sS'either'
p3808
I3812
sS'patient'
p3809
I3813
sS'"now"'
p3810
I3814
sS'public"'
p3811
I3815
sS'collector"'
p3812
I3816
sS'usc'
p3813
I5354
sS'morri'
p3814
I3818
sS'exams"'
p3815
I3819
sS'boy"'
p3816
I3820
sS'dispens'
p3817
I3821
sS'130739'
p3818
I3822
sS'martinez'
p3819
I3823
sS'jimmi'
p3820
I3824
sS'includ'
p3821
I3825
sS'forward'
p3822
I3826
sS'makebeliev'
p3823
I3827
sS'boyd'
p3824
I3828
sS'lifeguard'
p3825
I3829
sS'antigerman'
p3826
I3830
sS'jumbl'
p3827
I3831
sS'cathol'
p3828
I3832
sS'constant'
p3829
I3833
sS'curs'
p3830
I3834
sS'metal'
p3831
I4400
sS'cure'
p3832
I3836
sS'curb'
p3833
I3837
sS'curl'
p3834
I3838
sS'cafe'
p3835
I3839
sS'yearbook'
p3836
I3840
sS'"simpl'
p3837
I3841
sS'orders"'
p3838
I3842
sS'cellar'
p3839
I3843
sS'neck"'
p3840
I3844
sS'lend'
p3841
I3845
sS'cater'
p3842
I3846
sS'"pardon'
p3843
I4401
sS'desert'
p3844
I3848
sS'deserv'
p3845
I3849
sS'red"'
p3846
I3850
sS'bucks"'
p3847
I3851
sS'"probably"'
p3848
I3852
sS'wirecov'
p3849
I3853
sS'noon'
p3850
I653
sS'sherril"'
p3851
I3855
sS'happy"'
p3852
I3856
sS'"came'
p3853
I3857
sS'literari'
p3854
I3858
sS'privat'
p3855
I3859
sS'joe"'
p3856
I3860
sS'sensit'
p3857
I3861
sS'peanut'
p3858
I3862
sS'elsewher'
p3859
I3863
sS'mower'
p3860
I3864
sS'becam'
p3861
I926
sS'"three'
p3862
I657
sS'random'
p3863
I4405
sS'dessert'
p3864
I3868
sS'volum'
p3865
I3870
sS'untouch'
p3866
I3871
sS'surgeon'
p3867
I3872
sS'help"'
p3868
I3874
sS'umpir'
p3869
I3875
sS'broom"'
p3870
I3876
sS'shock'
p3871
I3877
sS'other"'
p3872
I3878
sS'gentil'
p3873
I5673
sS'crop'
p3874
I3879
sS'chicago'
p3875
I3880
sS'payday'
p3876
I3881
sS'clipboard'
p3877
I3882
sS'involv'
p3878
I3883
sS'goodlook'
p3879
I3884
sS'bodi'
p3880
I3885
sS'lovely"'
p3881
I3886
sS'intercept'
p3882
I3887
sS'sink'
p3883
I3888
sS'sing'
p3884
I3889
sS'mewk'
p3885
I3890
sS'sinc'
p3886
I3891
sS'39'
p3887
I3892
sS'38'
p3888
I3893
sS'talent'
p3889
I3894
sS'shorts"'
p3890
I4413
sS'33'
p3891
I3896
sS'32'
p3892
I3897
sS'31'
p3893
I3898
sS'30'
p3894
I3899
sS'37'
p3895
I3900
sS'36'
p3896
I3901
sS'35'
p3897
I3902
sS'34'
p3898
I3050
sS'climb'
p3899
I3904
sS'honor'
p3900
I3905
sS'nazis"'
p3901
I3906
sS'limp'
p3902
I3907
sS'presidenti'
p3903
I3908
sS'"befor'
p3904
I3909
sS'"bullshit"'
p3905
I3910
sS'checker'
p3906
I3911
sS'injured"'
p3907
I3912
sS'name"'
p3908
I3913
sS'trail'
p3909
I3914
sS'train'
p3910
I3915
sS'"naw'
p3911
I3916
sS'basket"'
p3912
I3917
sS'account'
p3913
I3918
sS'alik'
p3914
I3919
sS'oil"'
p3915
I3920
sS'f'
p3916
I3921
sS'unreal'
p3917
I3922
sS'obvious'
p3918
I3923
sS'aliv'
p3919
I3924
sS'employe'
p3920
I3925
sS'sanitarium'
p3921
I3926
sS'contempl'
p3922
I3927
sS'$350'
p3923
I3928
sS'tub"'
p3924
I3929
sS'water"'
p3925
I1150
sS'everywher'
p3926
I3931
sS'"whatev'
p3927
I3932
sS'lamp'
p3928
I3933
sS'democraci'
p3929
I3934
sS'line"'
p3930
I3935
sS'stock'
p3931
I3936
sS'frogs"'
p3932
I3937
sS'wateri'
p3933
I3938
sS'bluff'
p3934
I3939
sS'physic'
p3935
I3940
sS'drape'
p3936
I3941
sS'gone"'
p3937
I3942
sS'correspond'
p3938
I3943
sS'wanted"'
p3939
I3944
sS'furious'
p3940
I3945
sS'bunch'
p3941
I3946
sS'birthplac'
p3942
I3947
sS'la'
p3943
I3948
sS'labor'
p3944
I3949
sS'kindergarten'
p3945
I3950
sS'"pork'
p3946
I3951
sS'"pull'
p3947
I1321
sS'stopped"'
p3948
I3953
sS'later'
p3949
I3903
sS'dan'
p3950
I3955
sS'spell'
p3951
I3956
sS'day'
p3952
I3957
sS'flail'
p3953
I3958
sS'thrill'
p3954
I3959
sS'"becker'
p3955
I3960
sS'"batch'
p3956
I3961
sS'intellig'
p3957
I3963
sS'lesion'
p3958
I3964
sS'sweatshirt'
p3959
I3965
sS'sexual'
p3960
I3966
sS'don\'t"'
p3961
I3967
sS'defend'
p3962
I3968
sS'stub'
p3963
I3969
sS'mate'
p3964
I3970
sS'mata'
p3965
I3971
sS'stun'
p3966
I3972
sS'defens'
p3967
I3973
sS'red'
p3968
I1450
sS'"breed'
p3969
I3975
sS'takeov'
p3970
I3976
sS'insid'
p3971
I3977
sS'frank'
p3972
I3978
sS'salami'
p3973
I3979
sS'sergeant"'
p3974
I3980
sS'afterward'
p3975
I3981
sS'"can'
p3976
I3982
sS'steak'
p3977
I3983
sS'yard'
p3978
I3984
sS'neckti'
p3979
I3985
sS'mortal'
p3980
I4028
sS'waitress'
p3981
I3988
sS'williams"'
p3982
I3989
sS'franki'
p3983
I3990
sS'sack'
p3984
I3991
sS'facil'
p3985
I3992
sS'has'
p3986
I3993
sS'ancient'
p3987
I3994
sS'monkey'
p3988
I3995
sS'love"'
p3989
I3996
sS'bologna'
p3990
I3997
sS'messag'
p3991
I3998
sS'halfa'
p3992
I5397
sS'baby"'
p3993
I4000
sS'popup\'"'
p3994
I4001
sS'nut'
p3995
I4423
sS'frank"'
p3996
I4003
sS'bulldog'
p3997
I4004
sS'lowbal'
p3998
I4005
sS'nobodi'
p3999
I4006
sS'dreari'
p4000
I4007
sS'hungov'
p4001
I4008
sS'ladylik'
p4002
I4009
sS'shrapnel'
p4003
I4010
sS'ballard'
p4004
I4011
sS'structur'
p4005
I4012
sS'untroubl'
p4006
I4013
sS'lover'
p4007
I4014
sS'shithol'
p4008
I4015
sS'pot"'
p4009
I4016
sS'clothes"'
p4010
I3448
sS'cards"'
p4011
I4018
sS'have'
p4012
I4019
sS'throat'
p4013
I4020
sS'marines"'
p4014
I4021
sS'tenyearold'
p4015
I4022
sS'mix'
p4016
I4023
sS'"listen'
p4017
I4024
sS'"virginia'
p4018
I4025
sS'business"'
p4019
I4026
sS'unless'
p4020
I4027
sS'looking"'
p4021
I1689
sS'firefli'
p4022
I4029
sS'eight'
p4023
I4030
sS'"ben"'
p4024
I4031
sS'herman'
p4025
I4342
sS'face"'
p4026
I4033
sS'gather'
p4027
I4034
sS'request'
p4028
I4035
sS'offspr'
p4029
I4036
sS'occasion'
p4030
I4037
sS'recess'
p4031
I4038
sS'"abe'
p4032
I4039
sS'seagul'
p4033
I4040
sS'betsi'
p4034
I4041
sS'bicycl'
p4035
I4042
sS'sonofabitch'
p4036
I4043
sS'"watch"'
p4037
I4044
sS'sparkl'
p4038
I4045
sS'communist'
p4039
I4046
sS'team"'
p4040
I3596
sS'starch'
p4041
I4048
sS'beat'
p4042
I4049
sS'tripl'
p4043
I4050
sS'bear'
p4044
I4051
sS'bimini'
p4045
I4052
sS'bean'
p4046
I4053
sS'beak'
p4047
I4054
sS'increas'
p4048
I4055
sS'anything"'
p4049
I1836
sS'organ'
p4050
I4057
sS'ashtray'
p4051
I4058
sS'eyebrow'
p4052
I4059
sS'gibson'
p4053
I4060
sS'conform'
p4054
I4061
sS'growing"'
p4055
I4062
sS'straight"'
p4056
I4063
sS'jane"'
p4057
I4064
sS'pattern'
p4058
I4065
sS'indoctrin'
p4059
I4066
sS'catching"'
p4060
I4067
sS'sorrow'
p4061
I4068
sS'straighta'
p4062
I4069
sS'"goodbye"'
p4063
I4070
sS'"fantastic"'
p4064
I4071
sS'thanks"'
p4065
I4072
sS'wiggl'
p4066
I4073
sS'"catch'
p4067
I4074
sS'joke'
p4068
I4075
sS'unbutton'
p4069
I4076
sS'equat'
p4070
I4077
sS'swim'
p4071
I4078
sS'freeli'
p4072
I4079
sS'swallow'
p4073
I4080
sS'glorious'
p4074
I4081
sS'hokum'
p4075
I4082
sS'comment'
p4076
I4083
sS'laugh'
p4077
I4084
sS'done"'
p4078
I4085
sS'hub"'
p4079
I4086
sS'home"'
p4080
I4087
sS'gaze'
p4081
I4088
sS'babies"'
p4082
I4089
sS'electr'
p4083
I4090
sS'curtain'
p4084
I4091
sS'muddi'
p4085
I4092
sS'bull'
p4086
I4093
sS'fellow'
p4087
I3458
sS'homer'
p4088
I4095
sS'plain'
p4089
I4096
sS'tshirt'
p4090
I4097
sS'aw'
p4091
I4098
sS'started"'
p4092
I4099
sS'almost'
p4093
I4100
sS'look"'
p4094
I4101
sS'fischman'
p4095
I4102
sS'whirl'
p4096
I4103
sS'though"'
p4097
I4104
sS'japanes'
p4098
I4105
sS'infer'
p4099
I4107
sS'tighten'
p4100
I4108
sS'"jimmy"'
p4101
I4109
sS'caesarean'
p4102
I4110
sS'fucker'
p4103
I4111
sS'"butch'
p4104
I4112
sS'flew'
p4105
I5422
sS'canva'
p4106
I4114
sS'francisco'
p4107
I1426
sS'elinor'
p4108
I4445
sS'center'
p4109
I4116
sS'weapon'
p4110
I4117
sS'thought'
p4111
I4118
sS'choos'
p4112
I4119
sS'binocular'
p4113
I4120
sS'latest'
p4114
I4121
sS'wagner'
p4115
I4122
sS'bullshit"'
p4116
I4123
sS'flashlight'
p4117
I4124
sS'shortstop"'
p4118
I4125
sS'kampf'
p4119
I4126
sS'1110'
p4120
I713
sS'work"'
p4121
I4128
sS'lake'
p4122
I4129
sS'bench'
p4123
I4130
sS'add'
p4124
I4131
sS'sedan'
p4125
I4132
sS'280'
p4126
I4133
sS'match'
p4127
I4134
sS'seat"'
p4128
I4135
sS'realiz'
p4129
I4137
sS'insert'
p4130
I4138
sS'backbon'
p4131
I4139
sS'success'
p4132
I4140
sS'mustach'
p4133
I4141
sS'lowpay'
p4134
I4142
sS'soft'
p4135
I4143
sS'heel'
p4136
I4144
sS'propel'
p4137
I4145
sS'hail'
p4138
I4146
sS'hair'
p4139
I4147
sS'proper'
p4140
I4148
sS'trap'
p4141
I5428
sS'regain'
p4142
I4149
sS'pepper'
p4143
I4150
sS'hose'
p4144
I4151
sS'stuff"'
p4145
I4152
sS'slight'
p4146
I4153
sS'although'
p4147
I4154
sS'about'
p4148
I4155
sS'actual'
p4149
I4156
sS'justin'
p4150
I4157
sS'happen"'
p4151
I4158
sS'halffil'
p4152
I4159
sS'discard'
p4153
I4160
sS'tomb'
p4154
I4161
sS'"david'
p4155
I4162
sS'desper'
p4156
I4163
sS'guard'
p4157
I4164
sS'awhil'
p4158
I4165
sS'david"'
p4159
I4166
sS'go"'
p4160
I4167
sS'minute"'
p4161
I4168
sS'gredi'
p4162
I4169
sS'biggest'
p4163
I4170
sS'maze'
p4164
I4171
sS'buy'
p4165
I4172
sS'unexpect'
p4166
I4173
sS'bus'
p4167
I4174
sS'brand'
p4168
I4175
sS'but'
p4169
I4176
sS'bun'
p4170
I4177
sS'smart"'
p4171
I4178
sS'bum'
p4172
I4179
sS'bug'
p4173
I4180
sS'wish'
p4174
I4181
sS'flip'
p4175
I4182
sS'yorker"'
p4176
I4183
sS'pin'
p4177
I4184
sS'garter'
p4178
I4185
sS'dure'
p4179
I4186
sS'circus'
p4180
I4187
sS'pie'
p4181
I4188
sS'bits"'
p4182
I4189
sS'our'
p4183
I4190
sS'pit'
p4184
I4191
sS'campus'
p4185
I4192
sS'probabl'
p4186
I4193
sS'firstrat'
p4187
I4194
sS'peckermind'
p4188
I4195
sS'48'
p4189
I4196
sS'49'
p4190
I4197
sS'latrin'
p4191
I4198
sS'47'
p4192
I4199
sS'accident"'
p4193
I4200
sS'45'
p4194
I4201
sS'42'
p4195
I4202
sS'detail'
p4196
I4203
sS'40'
p4197
I4204
sS'41'
p4198
I4205
sS'anyhow"'
p4199
I4206
sS'out'
p4200
I4207
sS'adam'
p4201
I724
sS'pineappl'
p4202
I4209
sS'130512'
p4203
I4210
sS'wallow'
p4204
I4211
sS'sped'
p4205
I4212
sS'death"'
p4206
I4213
sS'basketbal'
p4207
I4214
sS'philipp'
p4208
I4215
sS'"whitling'
p4209
I4216
sS'jab'
p4210
I4217
sS"needn't"
p4211
I4218
sS'pupil'
p4212
I4219
sS'yell'
p4213
I4220
sS'foothil'
p4214
I4221
sS'8th'
p4215
I4222
sS'hatr'
p4216
I4223
sS'sleep'
p4217
I4224
sS'hate'
p4218
I4225
sS'trolley'
p4219
I4226
sS'"aw'
p4220
I4227
sS'undef'
p4221
I4228
sS'"as'
p4222
I4229
sS'poorest'
p4223
I4230
sS'under'
p4224
I4231
sS'"an'
p4225
I4232
sS'"prosper'
p4226
I2810
sS'"ah'
p4227
I4234
sS'everi'
p4228
I4235
sS'risk'
p4229
I4236
sS'rise'
p4230
I4237
sS'tenni'
p4231
I4238
sS'jack'
p4232
I4239
sS'senil'
p4233
I4240
sS'school'
p4234
I4241
sS'huddl'
p4235
I4242
sS'"don\'t'
p4236
I4243
sS'enjoy'
p4237
I4244
sS'"all'
p4238
I4245
sS'direct'
p4239
I4246
sS'nail'
p4240
I4247
sS'louder'
p4241
I2901
sS'hundred"'
p4242
I4249
sS'blue'
p4243
I4250
sS'creamshit'
p4244
I4251
sS'hide'
p4245
I4252
sS'christ'
p4246
I4253
sS'records"'
p4247
I4254
sS'beaten'
p4248
I4255
sS'nicelook'
p4249
I4256
sS'blur'
p4250
I4257
sS'leave"'
p4251
I4258
sS'liberti'
p4252
I4259
sS'friendship"'
p4253
I4260
sS'hardbal'
p4254
I4261
sS'through"'
p4255
I4262
sS'studio'
p4256
I4263
sS'path'
p4257
I4264
sS'enrol'
p4258
I4265
sS'worse"'
p4259
I4266
sS'beefcak'
p4260
I4267
sS'senior"'
p4261
I2510
sS'anymor'
p4262
I4268
sS'precis'
p4263
I4269
sS'cradl'
p4264
I4270
sS'portabl'
p4265
I4271
sS'tremend'
p4266
I4272
sS'coaching"'
p4267
I4273
sS'stray'
p4268
I4274
sS'strap'
p4269
I4275
sS'pyramid'
p4270
I4475
sS'sleeth"'
p4271
I4277
sS'would'
p4272
I4278
sS'tail'
p4273
I4279
sS'spike'
p4274
I4280
sS'"i'
p4275
I4281
sS'phone'
p4276
I4282
sS'off"'
p4277
I4283
sS'pouch'
p4278
I4284
sS'must'
p4279
I4285
sS'shoot'
p4280
I4286
sS'dodg'
p4281
I760
sS'henri'
p4282
I4288
sS'mt'
p4283
I4289
sS'crushed"'
p4284
I4290
sS'mr'
p4285
I4291
sS'my'
p4286
I4292
sS'shook'
p4287
I4293
sS'loosen'
p4288
I4294
sS'mouth"'
p4289
I4295
sS'attract'
p4290
I4296
sS'end'
p4291
I4297
sS'ceremoni'
p4292
I4298
sS'gate'
p4293
I4299
sS'collaps'
p4294
I4300
sS'poker'
p4295
I4301
sS'mess'
p4296
I3245
sS'befor'
p4297
I4303
sS'parallel'
p4298
I4304
sS'writer"'
p4299
I4305
sS'candid'
p4300
I739
sS'enter'
p4301
I4307
sS'deform'
p4302
I4308
sS'"c\'s"'
p4303
I4309
sS'over'
p4304
I4310
sS'clench'
p4305
I4311
sS'uncross'
p4306
I3334
sS'becaus'
p4307
I4313
sS'london'
p4308
I3340
sS'fade'
p4309
I4315
sS'hypocrisi'
p4310
I4316
sS'"drink'
p4311
I4317
sS'"new'
p4312
I4318
sS'"maybe"'
p4313
I4319
sS'choic'
p4314
I3411
sS'victori'
p4315
I4321
sS'seagulls"'
p4316
I4322
sS'chuck'
p4317
I4323
sS'awful"'
p4318
I4324
sS'each'
p4319
I4325
sS'hank'
p4320
I1643
sS'#68754'
p4321
I4327
sS'diana'
p4322
I4328
sS'unscrew'
p4323
I4329
sS'saturday'
p4324
I4330
sS'depress'
p4325
I4331
sS'goe'
p4326
I4332
sS'god'
p4327
I4333
sS'laid'
p4328
I4334
sS'adjust'
p4329
I746
sS'got'
p4330
I4336
sS'washer'
p4331
I4337
sS'day"'
p4332
I4338
sS'swell'
p4333
I4339
sS'outfit"'
p4334
I4340
sS'worthwhil'
p4335
I4341
sS'free'
p4336
I4343
sS'throughit'
p4337
I4488
sS'evil'
p4338
I1647
sS'glisten'
p4339
I4345
sS'135116'
p4340
I4346
sS'"betti'
p4341
I4347
sS'sank'
p4342
I748
sS'onto'
p4343
I4349
sS'rang'
p4344
I4350
sS'too"'
p4345
I4351
sS'rank'
p4346
I4353
sS'restrict'
p4347
I4354
sS'alreadi'
p4348
I4355
sS'"arms"'
p4349
I4356
sS'sober'
p4350
I4357
sS'yes\'"'
p4351
I4358
sS'top'
p4352
I4359
sS'twentyf'
p4353
I4360
sS'submachin'
p4354
I4361
sS'too'
p4355
I4362
sS'toe'
p4356
I4363
sS'phillips"'
p4357
I4364
sS'murder'
p4358
I4365
sS'"big'
p4359
I3495
sS'tool'
p4360
I4367
sS'took'
p4361
I4368
sS'kindest'
p4362
I4369
sS'western'
p4363
I4370
sS'enough"'
p4364
I4371
sS'gurgl'
p4365
I4372
sS'lather'
p4366
I4373
sS'"good'
p4367
I4374
sS'"make'
p4368
I4375
sS'flame'
p4369
I2183
sS'to"'
p4370
I4377
sS'rag'
p4371
I4378
sS'fashion'
p4372
I4379
sS'"holi'
p4373
I4380
sS'handkerchief'
p4374
I4381
sS'ran'
p4375
I4382
sS'ram'
p4376
I4383
sS'raw'
p4377
I4384
sS'pylon'
p4378
I4385
sS'ocean'
p4379
I4491
sS'ray'
p4380
I4387
sS'harper'
p4381
I4388
sS'thorough'
p4382
I3776
sS'thoma'
p4383
I4390
sS'evangelist'
p4384
I4391
sS'plenti'
p4385
I4392
sS'though'
p4386
I4393
sS'milkman'
p4387
I4394
sS'coin'
p4388
I4395
sS'everyth'
p4389
I4494
sS'f\'"'
p4390
I4397
sS'glow'
p4391
I4398
sS'flop'
p4392
I4399
sS'flow'
p4393
I3835
sS'crankshaft'
p4394
I30
sS'yank'
p4395
I4402
sS'bait'
p4396
I4403
sS'abl'
p4397
I4404
sS'queen'
p4398
I3867
sS'radio'
p4399
I4406
sS'"crazy"'
p4400
I4407
sS'queer'
p4401
I4408
sS'radic'
p4402
I4409
sS'earth'
p4403
I4410
sS'bail'
p4404
I4411
sS'absolut'
p4405
I4412
sS'spite'
p4406
I3895
sS'disgust'
p4407
I4414
sS'goodbye"'
p4408
I4415
sS'pop"'
p4409
I4416
sS'highchair'
p4410
I4417
sS'watch'
p4411
I4418
sS'about"'
p4412
I4419
sS'report'
p4413
I4420
sS'twice'
p4414
I4421
sS'situation"'
p4415
I4422
sS'liquor'
p4416
I4002
sS'"foller'
p4417
I2531
sS'player"'
p4418
I4425
sS'game"'
p4419
I4426
sS'12/05/2011'
p4420
I829
sS'"or'
p4421
I4428
sS'"oh'
p4422
I4429
sS'"ok'
p4423
I4430
sS'finger'
p4424
I4431
sS'"on'
p4425
I4432
sS'enunci'
p4426
I4433
sS'approach'
p4427
I4434
sS'"of'
p4428
I4435
sS'weak'
p4429
I4436
sS'boss'
p4430
I4437
sS'weav'
p4431
I4438
sS'wear'
p4432
I4439
sS'spurt'
p4433
I2536
sS'news'
p4434
I4440
sS'protect'
p4435
I4441
sS'"bring'
p4436
I4442
sS'fault'
p4437
I4443
sS'henry"'
p4438
I4444
sS'jello'
p4439
I4115
sS'jelli'
p4440
I4446
sS'sullivan'
p4441
I4447
sS'whackedoff'
p4442
I4448
sS'"and'
p4443
I4449
sS'trust'
p4444
I4450
sS'"ani'
p4445
I4451
sS'hitler'
p4446
I4452
sS'nake'
p4447
I4453
sS'bathroom'
p4448
I4454
sS'teacher"'
p4449
I4455
sS'jobless'
p4450
I4456
sS'beef'
p4451
I4457
sS'"you'
p4452
I4458
sS'rematch"'
p4453
I4459
sS'shout'
p4454
I4460
sS'been'
p4455
I4461
sS'beer'
p4456
I4462
sS'beet'
p4457
I4463
sS'schoolroom'
p4458
I4464
sS'deep"'
p4459
I4465
sS'embezzl'
p4460
I4466
sS'sonofabitch"'
p4461
I4467
sS'els'
p4462
I4504
sS'catch'
p4463
I4469
sS'"hey"'
p4464
I4470
sS'windup'
p4465
I4471
sS'cracker'
p4466
I4472
sS'lesser'
p4467
I4473
sS'"stay'
p4468
I4474
sS'garag'
p4469
I4276
sS'"a'
p4470
I4476
sS'dying"'
p4471
I4478
sS'"mrs'
p4472
I4479
sS'disjoint'
p4473
I5473
sS'inpati'
p4474
I4481
sS'suggest'
p4475
I4482
sS'wound'
p4476
I4484
sS'forehead'
p4477
I4485
sS'complet'
p4478
I4486
sS'social'
p4479
I765
sS'camouflag'
p4480
I2543
sS'made"'
p4481
I4489
sS'"0'
p4482
I4490
sS'aisl'
p4483
I4386
sS'chicks"'
p4484
I4492
sS'mother'
p4485
I4493
sS'"both'
p4486
I4396
sS'afraid"'
p4487
I4495
sS'grader'
p4488
I4496
sS'councilman'
p4489
I4497
sS'advance"'
p4490
I4498
sS'"fuck'
p4491
I4499
sS'eli'
p4492
I4500
sS'office"'
p4493
I4501
sS'expos'
p4494
I4502
sS'barker'
p4495
I3525
sS'cherri'
p4496
I4468
sS'gave'
p4497
I4505
sS'whipped"'
p4498
I4506
sS'sussex'
p4499
I4507
sS'sholom'
p4500
I4508
sS'apart'
p4501
I4509
sS'59'
p4502
I4510
sS'58'
p4503
I4511
sS'gift'
p4504
I4512
sS'55'
p4505
I4513
sS'54'
p4506
I4514
sS'57'
p4507
I4515
sS'hunt'
p4508
I4525
sS'51'
p4509
I4517
sS'50'
p4510
I4518
sS'53'
p4511
I4519
sS'52'
p4512
I4520
sS'hunk'
p4513
I4521
sS'hung'
p4514
I4522
sS'5"'
p4515
I4523
sS'flagpol'
p4516
I4524
sS'56'
p4517
I4516
sS'watching"'
p4518
I4526
sS'zoom'
p4519
I4527
sS'stockboy'
p4520
I4528
sS'accost'
p4521
I4529
sS'helpin'
p4522
I4530
sS'"keep'
p4523
I4531
sS"noman'sland"
p4524
I4532
sS'ice'
p4525
I4533
sS'convict'
p4526
I4534
sS'427'
p4527
I4535
sS'cord'
p4528
I4536
sS'knickers"'
p4529
I4537
sS'payment'
p4530
I4032
sS'blooper'
p4531
I4538
sS'cork'
p4532
I4539
sS'discount'
p4533
I4540
sS'"ten'
p4534
I4541
sS'corp'
p4535
I4542
sS'plug'
p4536
I4543
sS'cowboy'
p4537
I4544
sS'choke'
p4538
I4545
sS'surround'
p4539
I4546
sS'unfortun'
p4540
I4547
sS'dinner'
p4541
I4548
sS'plus'
p4542
I4549
sS'twitch'
p4543
I4550
sS'duke'
p4544
I4551
sS'froze'
p4545
I4552
sS'civic'
p4546
I4553
sS'civil'
p4547
I4554
sS'regist'
p4548
I4555
sS'fern'
p4549
I4556
sS'cafeteria'
p4550
I4557
sS'storag'
p4551
I4558
sS'130300'
p4552
I4559
sS'frustrat'
p4553
I4560
sS'sunlight'
p4554
I4561
sS'stuck'
p4555
I4562
sS'anderson'
p4556
I4563
sS'fought'
p4557
I4564
sS'creameri'
p4558
I4565
sS'gin'
p4559
I4566
sS'head'
p4560
I4567
sS'heal'
p4561
I4568
sS'floorboard'
p4562
I4569
sS'heat'
p4563
I4570
sS'hear'
p4564
I4571
sS'refriger'
p4565
I4572
sS'counsel'
p4566
I4573
sS'latch'
p4567
I4575
sS'trim'
p4568
I4576
sS'backped'
p4569
I4577
sS'reenter'
p4570
I4578
sS'furi'
p4571
I4579
sS'check'
p4572
I4580
sS'no'
p4573
I4581
sS'tit'
p4574
I4582
sS'when'
p4575
I4583
sS'gangedup'
p4576
I4584
sS'"hi"'
p4577
I4585
sS'tin'
p4578
I4586
sS'tie'
p4579
I4587
sS'depot'
p4580
I4588
sS'cynic"'
p4581
I4589
sS'fischman"'
p4582
I4590
sS'consid'
p4583
I4591
sS'younger'
p4584
I4592
sS'"mama'
p4585
I4593
sS'longer'
p4586
I4594
sS'bullet'
p4587
I4595
sS'"hit'
p4588
I823
sS'backward'
p4589
I4597
sS'coach'
p4590
I4598
sS'snif'
p4591
I4599
sS'rob'
p4592
I4600
sS'focus'
p4593
I4601
sS'stumbl'
p4594
I4602
sS'"crossey'
p4595
I4603
sS'row'
p4596
I4604
sS'witness"'
p4597
I4605
sS'1940'
p4598
I4606
sS'aplomb'
p4599
I4607
sS'poetess'
p4600
I4608
sS'questions"'
p4601
I4609
sS'henderson'
p4602
I4610
sS'dey'
p4603
I3546
sS'becker"'
p4604
I4612
sS'winning"'
p4605
I4613
sS'cook'
p4606
I4614
sS'cool'
p4607
I4615
sS'policeman'
p4608
I4616
sS'best"'
p4609
I4617
sS'brother'
p4610
I4618
sS'married"'
p4611
I4619
sS'quick'
p4612
I4620
sS'lever'
p4613
I4621
sS'cloudi'
p4614
I4622
sS'pork'
p4615
I4623
sS'slower'
p4616
I4624
sS'tougher'
p4617
I4625
sS'trend'
p4618
I4626
sS'pore'
p4619
I4627
sS'heini'
p4620
I4628
sS'hair"'
p4621
I4629
sS'port'
p4622
I4630
sS'stomach"'
p4623
I4631
sS'exam"'
p4624
I4632
sS'repli'
p4625
I4633
sS'523'
p4626
I4634
sS'afterwards"'
p4627
I4635
sS'drink"'
p4628
I4636
sS'water'
p4629
I4637
sS'fluke'
p4630
I4638
sS'say"'
p4631
I4639
sS'horsedrawn'
p4632
I4640
sS'shove'
p4633
I4641
sS'blotch'
p4634
I4642
sS'proud'
p4635
I4643
sS'beautiful"'
p4636
I4644
sS'stand"'
p4637
I4645
sS'thirti'
p4638
I4646
sS'healthi'
p4639
I4647
sS'guilti'
p4640
I4648
sS'beer"'
p4641
I4650
sS'"me'
p4642
I4651
sS'"mi'
p4643
I4652
sS'upstair'
p4644
I2567
sS'"mr'
p4645
I4654
sS'durham'
p4646
I4655
sS'touchdown'
p4647
I4656
sS'projector'
p4648
I4657
sS'"those'
p4649
I4658
sS'anda'
p4650
I4659
sS'percept'
p4651
I4660
sS'sweatpant'
p4652
I4661
sS'onetwo'
p4653
I4662
sS'today'
p4654
I4663
sS'barkeep'
p4655
I4664
sS'chapter'
p4656
I4665
sS'subnormal"'
p4657
I4666
sS'drown'
p4658
I4667
sS'dismal'
p4659
I4668
sS'three"'
p4660
I4669
sS'wrong"'
p4661
I5311
sS'garbageman'
p4662
I4671
sS'suffoc'
p4663
I4672
sS'ferri'
p4664
I4673
sS'judg'
p4665
I4674
sS'purpos'
p4666
I4675
sS'laughter'
p4667
I4676
sS'streak'
p4668
I4677
sS'stream'
p4669
I4678
sS'dogfac'
p4670
I4679
sS'hours"'
p4671
I3563
sS'dress'
p4672
I4681
sS'1'
p4673
I4682
sS'alway'
p4674
I4683
sS'vital'
p4675
I4684
sS'anyon'
p4676
I4685
sS'fourth'
p4677
I4686
sS'jackedoff'
p4678
I4687
sS'$100'
p4679
I4688
sS'"ah"'
p4680
I4689
sS'4th'
p4681
I4690
sS'eighti'
p4682
I4691
sS'practic'
p4683
I4693
sS'fastshoes"'
p4684
I4694
sS'121'
p4685
I2571
sS'different"'
p4686
I4696
sS'inform'
p4687
I4697
sS'combin'
p4688
I4698
sS'paid"'
p4689
I4699
sS'mortenson"'
p4690
I4700
sS'worship'
p4691
I4701
sS'canari'
p4692
I4702
sS'dollars"'
p4693
I4703
sS"he'd"
p4694
I4704
sS'platform'
p4695
I4705
sS'corner"'
p4696
I4706
sS'whirlpool'
p4697
I4707
sS'underneath'
p4698
I4708
sS'hamilton'
p4699
I4709
sS'bath'
p4700
I4710
sS'wagon'
p4701
I4711
sS'term'
p4702
I4712
sS'name'
p4703
I4713
sS'opera'
p4704
I4714
sS'stir'
p4705
I4715
sS'hank"'
p4706
I4716
sS'"insid'
p4707
I4717
sS'soon"'
p4708
I4718
sS"weren't"
p4709
I2429
sS'individu'
p4710
I4719
sS'straightarm'
p4711
I4720
sS'begun'
p4712
I4721
sS'semipro'
p4713
I4722
sS'mortenson'
p4714
I4723
sS"shouldn't"
p4715
I4724
sS'uncl'
p4716
I4725
sS'factori'
p4717
I4726
sS'glimps'
p4718
I4727
sS'"eastsid'
p4719
I4728
sS'schmele'
p4720
I4729
sS'flyer'
p4721
I4730
sS'theori'
p4722
I4731
sS'flare'
p4723
I4732
sS'yur'
p4724
I4733
sS'refus'
p4725
I4734
sS'motion'
p4726
I4735
sS'turn'
p4727
I4736
sS'place'
p4728
I4737
sS'swine'
p4729
I4738
sS'swing'
p4730
I90
sS'turd'
p4731
I4740
sS'imposs'
p4732
I4741
sS'1000'
p4733
I4742
sS'origin'
p4734
I4743
sS'suspend'
p4735
I4744
sS'release"'
p4736
I4745
sS'shitsniff'
p4737
I4746
sS'given'
p4738
I4747
sS'teenag'
p4739
I4748
sS'virgin'
p4740
I4749
sS'handcrank'
p4741
I146
sS'marine"'
p4742
I4751
sS'circl'
p4743
I4752
sS'insane"'
p4744
I4753
sS'white'
p4745
I4754
sS'hug'
p4746
I4755
sS'hub'
p4747
I4756
sS'hum'
p4748
I176
sS'copi'
p4749
I4758
sS'huh'
p4750
I4759
sS'eagl'
p4751
I4760
sS'hut'
p4752
I4761
sS'tempera'
p4753
I4762
sS'holder'
p4754
I4763
sS'serv'
p4755
I4764
sS'wide'
p4756
I4765
sS'return"'
p4757
I4766
sS'why"'
p4758
I4767
sS'balanc'
p4759
I4768
sS'posit'
p4760
I4769
sS'seri'
p4761
I4770
sS'and'
p4762
I4771
sS'morrie"'
p4763
I4772
sS'ann'
p4764
I257
sS'ani'
p4765
I4774
sS'ant'
p4766
I4775
sS'rent'
p4767
I4776
sS'#69'
p4768
I4777
sS'"can\'t'
p4769
I4832
sS'pencil"'
p4770
I4778
sS'sperm'
p4771
I2476
sS'late"'
p4772
I4779
sS'all'
p4773
I4780
sS'hoover'
p4774
I4781
sS'librarian'
p4775
I4782
sS'shooter'
p4776
I4783
sS'hands"'
p4777
I4784
sS'readjust'
p4778
I4785
sS'obedi'
p4779
I4786
sS'abe"'
p4780
I4787
sS'senior'
p4781
I4788
sS'babbl'
p4782
I382
sS'hungri'
p4783
I4790
sS'perch'
p4784
I4791
sS'cheat'
p4785
I4792
sS'cheap'
p4786
I4793
sS'hack'
p4787
I4794
sS'trot'
p4788
I4795
sS'genius'
p4789
I5525
sS'state'
p4790
I2593
sS'gulp'
p4791
I4797
sS'hit"'
p4792
I2594
sS'wool'
p4793
I4799
sS'icebox'
p4794
I4800
sS'nobl'
p4795
I4801
sS'lighter'
p4796
I4802
sS'"jesus'
p4797
I4803
sS'"ann"'
p4798
I4804
sS'"how'
p4799
I4805
sS'picnic'
p4800
I4806
sS'1922'
p4801
I4807
sS'#3'
p4802
I4808
sS'stanley'
p4803
I4809
sS'#7'
p4804
I4810
sS'hiss'
p4805
I4811
sS'illusionari'
p4806
I4812
sS'likeabl'
p4807
I4813
sS'guitar'
p4808
I4814
sS'labor"'
p4809
I4815
sS'comb'
p4810
I4816
sS'come'
p4811
I4817
sS'berri'
p4812
I4818
sS'23'
p4813
I4819
sS'quiet'
p4814
I4820
sS'farmer"'
p4815
I4821
sS'way"'
p4816
I4822
sS'"get'
p4817
I4823
sS'fortyfour'
p4818
I4824
sS'color'
p4819
I4825
sS'pot'
p4820
I4826
sS'period'
p4821
I4827
sS'insist'
p4822
I637
sS'60'
p4823
I4829
sS'61'
p4824
I4830
sS'62'
p4825
I645
sS'63'
p4826
I646
sS'64'
p4827
I4833
sS'65'
p4828
I4834
sS'66'
p4829
I4835
sS'67'
p4830
I4836
sS'68'
p4831
I4837
sS'69'
p4832
I4838
sS'poe'
p4833
I4839
sS'sidelin'
p4834
I4840
sS'coupl'
p4835
I4841
sS'diseas'
p4836
I4842
sS'ravioli'
p4837
I4843
sS'500'
p4838
I4844
sS'andrew'
p4839
I4845
sS'tiger'
p4840
I4846
sS'padlock'
p4841
I4847
sS'robber'
p4842
I4848
sS'pilot'
p4843
I4849
sS'case'
p4844
I4850
sS'shaft'
p4845
I4851
sS'myself'
p4846
I4852
sS'cast'
p4847
I4853
sS'life"'
p4848
I4854
sS'mound'
p4849
I4855
sS'puncher'
p4850
I772
sS'"pete"'
p4851
I4857
sS'helmet'
p4852
I4858
sS'author'
p4853
I4859
sS'bowl'
p4854
I4860
sS'eighteen"'
p4855
I4861
sS'eventu'
p4856
I4862
sS'hermit'
p4857
I4863
sS'week'
p4858
I4864
sS'barefoot'
p4859
I4865
sS'applaud'
p4860
I4866
sS'nest'
p4861
I4867
sS'driver'
p4862
I4868
sS'weed'
p4863
I4869
sS'driven'
p4864
I4870
sS'puke'
p4865
I3532
sS'"sleeth'
p4866
I4871
sS'weep'
p4867
I4872
sS'cartoon'
p4868
I4873
sS'applaus'
p4869
I4874
sS'handsom'
p4870
I4875
sS'reliev'
p4871
I4876
sS'hustl'
p4872
I4877
sS'without'
p4873
I4878
sS'relief'
p4874
I4879
sS'model'
p4875
I4880
sS'clog'
p4876
I4881
sS'violenc'
p4877
I4882
sS'violent'
p4878
I4883
sS'kill'
p4879
I4884
sS'polish'
p4880
I4885
sS'"mister'
p4881
I4886
sS'satin'
p4882
I4887
sS'twentythre'
p4883
I4888
sS'halfway'
p4884
I4889
sS'blow'
p4885
I4890
sS'football"'
p4886
I4891
sS'strikeout'
p4887
I4892
sS'rose'
p4888
I4893
sS'except'
p4889
I4894
sS'bones"'
p4890
I4895
sS'gym"'
p4891
I4896
sS'kirbi'
p4892
I4897
sS'katherin'
p4893
I4898
sS'snore'
p4894
I982
sS'sample"'
p4895
I4900
sS'dull"'
p4896
I4901
sS'woman"'
p4897
I4902
sS'"step'
p4898
I4903
sS'slice'
p4899
I4904
sS'slick'
p4900
I4905
sS'legal'
p4901
I4906
sS'moon'
p4902
I4907
sS'unbeliev'
p4903
I4908
sS'garbag'
p4904
I4909
sS'inspect'
p4905
I4910
sS'on'
p4906
I4911
sS'ok'
p4907
I4912
sS'oh'
p4908
I4913
sS'of'
p4909
I4914
sS'stand'
p4910
I4915
sS'stank'
p4911
I4916
sS'showboat'
p4912
I1166
sS'stop"'
p4913
I4918
sS'routin'
p4914
I4919
sS'leftw'
p4915
I1765
sS'rich"'
p4916
I1256
sS'there'
p4917
I4921
sS'"shit"'
p4918
I4922
sS'dilling'
p4919
I5550
sS'valley'
p4920
I4924
sS'"what\'d'
p4921
I4925
sS'jug'
p4922
I4926
sS'untap'
p4923
I4927
sS'"dump'
p4924
I4928
sS'illus'
p4925
I4929
sS'faster'
p4926
I4930
sS'stanhop'
p4927
I4931
sS'culture"'
p4928
I4932
sS'"plane'
p4929
I4933
sS'eh"'
p4930
I4934
sS'decenc'
p4931
I5552
sS'grass'
p4932
I4936
sS'"chelsey'
p4933
I4937
sS'taylor'
p4934
I4938
sS'frighten'
p4935
I4939
sS'accountability"'
p4936
I4940
sS'muzzl'
p4937
I4941
sS'"dishwasher"'
p4938
I4942
sS'"both"'
p4939
I4943
sS'idiot'
p4940
I4945
sS'rubber'
p4941
I4946
sS'compet'
p4942
I1360
sS'call"'
p4943
I4948
sS'trash'
p4944
I4949
sS'stocki'
p4945
I4950
sS'orchard"'
p4946
I4951
sS'symbol'
p4947
I4952
sS'fetid'
p4948
I4953
sS'serious'
p4949
I4596
sS'brass'
p4950
I4955
sS"ko'd"
p4951
I1415
sS'uglier'
p4952
I4957
sS'son"'
p4953
I1437
sS'lace'
p4954
I4959
sS'lack'
p4955
I4960
sS'abil'
p4956
I4961
sS'follow'
p4957
I4962
sS'liar"'
p4958
I4963
sS'thursday'
p4959
I4964
sS'program'
p4960
I4965
sS'"burglar"'
p4961
I4966
sS'woman'
p4962
I4967
sS'baron"'
p4963
I4968
sS"they'll"
p4964
I4969
sS'song'
p4965
I4970
sS'far'
p4966
I4971
sS'knickershitter"'
p4967
I4972
sS'fat'
p4968
I4973
sS'ultraviolet'
p4969
I4974
sS'failur'
p4970
I4975
sS'ticket'
p4971
I4976
sS'lisp'
p4972
I4977
sS'list'
p4973
I4978
sS'becker'
p4974
I4979
sS'align'
p4975
I5555
sS'ten'
p4976
I4981
sS'tea'
p4977
I4982
sS'somewhere"'
p4978
I4983
sS'biolog'
p4979
I4984
sS'should"'
p4980
I4985
sS'what'
p4981
I4986
sS'"start'
p4982
I4987
sS'sun'
p4983
I4988
sS'whimper'
p4984
I4989
sS'crush'
p4985
I4990
sS'"fucking"'
p4986
I4991
sS'feidman'
p4987
I4992
sS'themselv'
p4988
I4993
sS'halfass'
p4989
I4994
sS'goodby'
p4990
I4995
sS'"blue'
p4991
I4996
sS'gun"'
p4992
I4997
sS'"martinez'
p4993
I4998
sS'horse"'
p4994
I4999
sS'know"'
p4995
I5000
sS'proceed'
p4996
I5001
sS'faint'
p4997
I5002
sS'minor'
p4998
I5003
sS'folderol'
p4999
I5004
sS'flat'
p5000
I5005
sS'flap'
p5001
I5006
sS'flag'
p5002
I5007
sS'floyd'
p5003
I5008
sS'stick'
p5004
I5009
sS'known'
p5005
I5010
sS'glad'
p5006
I5011
sS'valuabl'
p5007
I5012
sS'tough"'
p5008
I5013
sS'shit"'
p5009
I5014
sS'handeddown'
p5010
I5015
sS'"mine'
p5011
I5016
sS'allegi'
p5012
I5017
sS'balls"'
p5013
I5018
sS'swung'
p5014
I5019
sS'heavier"'
p5015
I5020
sS'cours'
p5016
I5021
sS'court'
p5017
I5022
sS'goal'
p5018
I5023
sS'divid'
p5019
I5024
sS'rather'
p5020
I5025
sS'"king'
p5021
I5026
sS'divis'
p5022
I5027
sS'cuddl'
p5023
I5028
sS'sandwich'
p5024
I5029
sS'resourc'
p5025
I5030
sS'reflect'
p5026
I5031
sS'short'
p5027
I5032
sS'caus'
p5028
I5033
sS'shore'
p5029
I5034
sS'shade'
p5030
I5035
sS'music"'
p5031
I5036
sS'"voic'
p5032
I5037
sS'balloon'
p5033
I2628
sS'"in'
p5034
I5039
sS'headlight'
p5035
I5570
sS"don't"
p5036
I5040
sS'"if'
p5037
I5041
sS'mission'
p5038
I5042
sS'scientist'
p5039
I5043
sS'beers"'
p5040
I5044
sS'"it'
p5041
I5045
sS'"is'
p5042
I5046
sS'sinclair'
p5043
I842
sS'style'
p5044
I5048
sS'call'
p5045
I2794
sS'pray'
p5046
I5049
sS'mattress'
p5047
I5050
sS'soccer'
p5048
I5052
sS'might'
p5049
I5053
sS'return'
p5050
I5054
sS'little"'
p5051
I5055
sS'crapper"'
p5052
I5056
sS'inch'
p5053
I5574
sS'somebodi'
p5054
I5058
sS'"octob'
p5055
I5059
sS'bigger'
p5056
I5060
sS'level'
p5057
I5061
sS'highperch'
p5058
I5062
sS'fasten'
p5059
I4954
sS'"sick"'
p5060
I2032
sS'"yeh'
p5061
I5064
sS'weight'
p5062
I5065
sS'expect'
p5063
I5066
sS'inflict'
p5064
I5067
sS'alcohol'
p5065
I5068
sS'"jim'
p5066
I3516
sS'hill'
p5067
I5069
sS'deadend'
p5068
I5070
sS'fiber'
p5069
I5071
sS'advanc'
p5070
I5072
sS'halfdead'
p5071
I5073
sS'friday'
p5072
I5074
sS'guess'
p5073
I5075
sS'lobbi'
p5074
I5577
sS'teach'
p5075
I5077
sS'guy'
p5076
I5078
sS'thrown'
p5077
I5079
sS'perhap'
p5078
I5080
sS'threat'
p5079
I5081
sS'fallen'
p5080
I5082
sS'feed'
p5081
I5083
sS'sympathi'
p5082
I5084
sS'student'
p5083
I5578
sS'hello\'"'
p5084
I2154
sS'feet'
p5085
I5087
sS'attendant"'
p5086
I5088
sS'sailor'
p5087
I5089
sS'least'
p5088
I2473
sS'blank'
p5089
I5091
sS'fanci'
p5090
I5092
sS'moan'
p5091
I5093
sS'"'
p5092
I5094
sS'paint'
p5093
I3647
sS'stori'
p5094
I5096
sS'storm'
p5095
I5097
sS'plasterlik'
p5096
I5098
sS'didn\'t"'
p5097
I5099
sS'fuchsias"'
p5098
I5100
sS'store'
p5099
I5101
sS'luckili'
p5100
I5102
sS'pump'
p5101
I5103
sS'hotel'
p5102
I5104
sS'paycheck'
p5103
I2637
sS'fidget'
p5104
I5106
sS'"welcom'
p5105
I5107
sS'immediately"'
p5106
I5108
sS'king'
p5107
I5109
sS'kind'
p5108
I5110
sS'whenev'
p5109
I5111
sS'katy"'
p5110
I5112
sS'remov'
p5111
I5113
sS'buttermilk'
p5112
I5114
sS'pullov'
p5113
I5115
sS'glower'
p5114
I2638
sS'stall'
p5115
I5117
sS'foreleg'
p5116
I5118
sS'danc'
p5117
I5119
sS'cleaner'
p5118
I5120
sS'igor'
p5119
I5121
sS'huh"'
p5120
I5122
sS'broadcasting"'
p5121
I5123
sS'bad"'
p5122
I5124
sS'dedic'
p5123
I5125
sS'gene"'
p5124
I5126
sS'window"'
p5125
I5127
sS'screwdriv'
p5126
I5128
sS'pianist'
p5127
I5129
sS'reach'
p5128
I5130
sS'77'
p5129
I5131
sS'76'
p5130
I5132
sS'75'
p5131
I5133
sS'74'
p5132
I5134
sS'73'
p5133
I5135
sS'72'
p5134
I5136
sS'71'
p5135
I5137
sS'70'
p5136
I5138
sS'79'
p5137
I5139
sS'78'
p5138
I5140
sS'"mother"'
p5139
I5141
sS'night"'
p5140
I5142
sS'part'
p5141
I5143
sS'yeah"'
p5142
I5144
sS'fond'
p5143
I5145
sS'hip'
p5144
I5146
sS'his'
p5145
I5147
sS'hit'
p5146
I5148
sS'hid'
p5147
I5149
sS'him'
p5148
I5151
sS'redbrown'
p5149
I5152
sS'merits"'
p5150
I2647
sS'"give'
p5151
I5154
sS'dayold'
p5152
I5155
sS'relentless'
p5153
I5156
sS'wrote'
p5154
I5157
sS'dump'
p5155
I5158
sS'manchuria'
p5156
I5159
sS'leaving"'
p5157
I5160
sS'barb'
p5158
I2535
sS'dumb'
p5159
I4649
sS'are'
p5160
I5163
sS'bark'
p5161
I5164
sS'arm'
p5162
I5165
sS'various'
p5163
I5166
sS'"yes"'
p5164
I5167
sS'hot"'
p5165
I5168
sS'"that'
p5166
I5169
sS'misstep'
p5167
I5170
sS'bibl'
p5168
I5171
sS'sold'
p5169
I5173
sS'sole'
p5170
I5174
sS'outfit'
p5171
I5175
sS'bar"'
p5172
I2601
sS'solv'
p5173
I5177
sS'hairi'
p5174
I5178
sS'motorcycl'
p5175
I5179
sS'cynic'
p5176
I5180
sS'flier'
p5177
I5181
sS'sweet'
p5178
I5182
sS'knew"'
p5179
I5183
sS'sweep'
p5180
I5184
sS'turnov'
p5181
I5185
sS'overlook'
p5182
I5186
sS'due'
p5183
I5187
sS'there"'
p5184
I5188
sS'dug'
p5185
I5189
sS'whom'
p5186
I5190
sS'pa'
p5187
I5191
sS'brick'
p5188
I5192
sS'pm'
p5189
I5193
sS'flight'
p5190
I5194
sS'slot"'
p5191
I5195
sS'"poultri'
p5192
I5196
sS'demand'
p5193
I5197
sS'instructor'
p5194
I5198
sS'heighten'
p5195
I5199
sS'frozen'
p5196
I5200
sS'batch'
p5197
I5201
sS'parents"'
p5198
I5202
sS'homework'
p5199
I2655
sS'pearshap'
p5200
I5204
sS'punchlin'
p5201
I5205
sS'"easi'
p5202
I5206
sS'rip'
p5203
I5207
sS'where"'
p5204
I5208
sS'"straight'
p5205
I5209
sS'rim'
p5206
I5210
sS'frantic'
p5207
I5211
sS'rid'
p5208
I5212
sS'rib'
p5209
I5213
sS'shirt'
p5210
I5214
sS'minim'
p5211
I5215
sS'itchi'
p5212
I5216
sS'away"'
p5213
I5217
sS'kimono'
p5214
I5218
sS'9'
p5215
I5219
sS'higher'
p5216
I5220
sS'tiresom'
p5217
I5221
sS'wherev'
p5218
I5222
sS'"cut'
p5219
I5223
sS'lower'
p5220
I5224
sS'machineri'
p5221
I5225
sS'people"'
p5222
I5226
sS'cheek'
p5223
I5227
sS'"am'
p5224
I4233
sS'cheer'
p5225
I5228
sS'gunfir'
p5226
I5229
sS'roaches"'
p5227
I5230
sS'"yeah"'
p5228
I5231
sS'edgi'
p5229
I5232
sS'interschool'
p5230
I5233
sS'meanest'
p5231
I5235
sS'"class'
p5232
I5236
sS'case"'
p5233
I5237
sS'"emili'
p5234
I5238
sS'workin\'"'
p5235
I5239
sS'mailed"'
p5236
I5240
sS'awaken'
p5237
I5241
sS'forefing'
p5238
I5242
sS'confront'
p5239
I5243
sS'eastsid'
p5240
I5244
sS'earthquak'
p5241
I5245
sS'table"'
p5242
I5246
sS'collect'
p5243
I5247
sS'yorker'
p5244
I5248
sS'understood'
p5245
I5249
sS'litter'
p5246
I5250
sS'uppercut'
p5247
I5251
sS'"we'
p5248
I5252
sS'surpris'
p5249
I5253
sS'vulgari'
p5250
I5254
sS'pros'
p5251
I5255
sS'prop'
p5252
I5256
sS'"thoma'
p5253
I5257
sS'prom'
p5254
I5258
sS'lacefield'
p5255
I5259
sS'anna'
p5256
I5260
sS'kong"'
p5257
I5261
sS'"w"'
p5258
I5262
sS'squeez'
p5259
I5263
sS'cautious'
p5260
I5264
sS'lifeless'
p5261
I5265
sS'wanna'
p5262
I5266
sS'pro"'
p5263
I5267
sS'miracl'
p5264
I5268
sS'announc'
p5265
I5269
sS'woundup'
p5266
I5270
sS'pundit'
p5267
I5271
sS'question'
p5268
I5272
sS'long'
p5269
I5273
sS'cloth'
p5270
I5274
sS'crank'
p5271
I5275
sS'sheets"'
p5272
I5276
sS'upright'
p5273
I5277
sS'john"'
p5274
I5278
sS'junior'
p5275
I5279
sS'patriot'
p5276
I5280
sS'consist'
p5277
I5281
sS"hasn't"
p5278
I5282
sS'row"'
p5279
I5283
sS'longwood'
p5280
I5284
sS'highlight'
p5281
I5285
sS'freak'
p5282
I5286
sS'113'
p5283
I5618
sS'thirtytwo'
p5284
I5288
sS'"college"'
p5285
I5289
sS'bicep'
p5286
I5290
sS'problem"'
p5287
I5291
sS'rainbow'
p5288
I5292
sS'meanwhil'
p5289
I5293
sS'"yeh"'
p5290
I5294
sS'parlor'
p5291
I5295
sS'mock'
p5292
I5296
sS'department"'
p5293
I5297
sS'mustard'
p5294
I5298
sS'dismantl'
p5295
I5299
sS'lampshad'
p5296
I5300
sS'wearisom'
p5297
I5301
sS'evil"'
p5298
I5302
sS'back"'
p5299
I5303
sS'pervert'
p5300
I5304
sS'edg'
p5301
I5305
sS'alien'
p5302
I5306
sS'spring'
p5303
I991
sS'gang'
p5304
I5307
sS'deal"'
p5305
I5308
sS'snail"'
p5306
I5309
sS'note"'
p5307
I5310
sS'uturn'
p5308
I4670
sS'dandi'
p5309
I5312
sS'"it\'ll'
p5310
I5313
sS'spook'
p5311
I5314
sS'jim"'
p5312
I5315
sS'disgrac'
p5313
I5316
sS'dealt'
p5314
I5317
sS'outdo'
p5315
I5318
sS'fireman"'
p5316
I5319
sS'pleas'
p5317
I5320
sS'someday'
p5318
I5321
sS'smaller'
p5319
I5322
sS"you'd"
p5320
I5323
sS'"chinaski"'
p5321
I5324
sS'sweetie"'
p5322
I5325
sS'melodrama"'
p5323
I5326
sS'fold'
p5324
I5327
sS"you'r"
p5325
I5328
sS"you'v"
p5326
I5329
sS'folk'
p5327
I5330
sS'19th'
p5328
I5331
sS'can'
p5329
I1793
sS'you\'"'
p5330
I5332
sS'chose'
p5331
I5333
sS'giant'
p5332
I5334
sS'youngest'
p5333
I5335
sS'miser'
p5334
I5336
sS'ones"'
p5335
I5337
sS'survivor'
p5336
I5338
sS'larger'
p5337
I5339
sS'armpit'
p5338
I5340
sS'pigeonto'
p5339
I5341
sS'typic'
p5340
I5342
sS'pajama'
p5341
I5343
sS'"brilliant"'
p5342
I5344
sS'appli'
p5343
I5345
sS'confession'
p5344
I5346
sS'apt'
p5345
I5347
sS'journalist"'
p5346
I5348
sS'motor'
p5347
I5349
sS'falsiti'
p5348
I5350
sS'ape'
p5349
I5351
sS'use'
p5350
I5352
sS'fee'
p5351
I5353
sS'from'
p5352
I3817
sS'usa'
p5353
I5355
sS'"music'
p5354
I5356
sS'"stop"'
p5355
I5357
sS'frog'
p5356
I5358
sS'few'
p5357
I5359
sS'sort'
p5358
I5360
sS'clever'
p5359
I5361
sS'porch'
p5360
I5362
sS'hard"'
p5361
I5363
sS'impress'
p5362
I5364
sS'sore'
p5363
I5365
sS'rabbit'
p5364
I5366
sS'sculptor'
p5365
I5367
sS'women'
p5366
I5368
sS'us"'
p5367
I5369
sS'duster'
p5368
I5370
sS'lumber'
p5369
I5371
sS'freedom'
p5370
I2686
sS'"light'
p5371
I5373
sS'tap'
p5372
I5374
sS'carrot'
p5373
I5375
sS'thirsti'
p5374
I5376
sS'americanes'
p5375
I5377
sS'rape'
p5376
I5378
sS'counterfeit'
p5377
I5379
sS'sir'
p5378
I5380
sS'sip'
p5379
I5381
sS'sit'
p5380
I5382
sS'six'
p5381
I5383
sS'unskil'
p5382
I5384
sS'instead'
p5383
I5385
sS'"twentytwo"'
p5384
I5386
sS'trustworthy"'
p5385
I5387
sS'panic'
p5386
I5388
sS'sin'
p5387
I5389
sS'cupboard'
p5388
I5390
sS'attend'
p5389
I5391
sS'therewa'
p5390
I5392
sS'wrist'
p5391
I5393
sS'attent'
p5392
I5394
sS'taco'
p5393
I5395
sS'"suck'
p5394
I5396
sS'quinn"'
p5395
I1053
sS'fratern'
p5396
I5398
sS'jap"'
p5397
I5399
sS'2122'
p5398
I5400
sS'light'
p5399
I5401
sS'unhitch'
p5400
I5402
sS'bleari'
p5401
I5403
sS'wrinkl'
p5402
I5404
sS'133'
p5403
I5405
sS'132'
p5404
I5406
sS'131'
p5405
I5407
sS'130'
p5406
I5408
sS'137'
p5407
I5409
sS'136'
p5408
I5410
sS'135'
p5409
I5411
sS'134'
p5410
I5412
sS'139'
p5411
I5413
sS'138'
p5412
I5414
sS'superior'
p5413
I5415
sS'world"'
p5414
I5416
sS'redhead'
p5415
I5417
sS'holiday'
p5416
I5418
sS'crash'
p5417
I5419
sS'flour'
p5418
I5420
sS'ackerman"'
p5419
I5421
sS'happened"'
p5420
I4113
sS'badge"'
p5421
I5423
sS'emerald'
p5422
I5424
sS'billi'
p5423
I5425
sS'"purg'
p5424
I5426
sS'"fine"'
p5425
I5427
sS'weather'
p5426
I5650
sS'polit'
p5427
I2827
sS'depriv'
p5428
I5429
sS'freckl'
p5429
I5430
sS'"honest'
p5430
I5431
sS'88'
p5431
I5432
sS'89'
p5432
I5433
sS'82'
p5433
I5434
sS'83'
p5434
I5435
sS'80'
p5435
I5436
sS'81'
p5436
I5437
sS'86'
p5437
I5438
sS'87'
p5438
I5439
sS'84'
p5439
I5440
sS'85'
p5440
I5441
sS'tests"'
p5441
I5442
sS'anyhow'
p5442
I5443
sS'walls"'
p5443
I5444
sS'write"'
p5444
I3443
sS'g'
p5445
I5446
sS'fascism'
p5446
I5447
sS'"hell'
p5447
I5448
sS'"up'
p5448
I5449
sS'"uh'
p5449
I5450
sS'bois'
p5450
I1811
sS'droop'
p5451
I5452
sS'trembl'
p5452
I5453
sS'their'
p5453
I5454
sS'drool'
p5454
I5455
sS'pancak'
p5455
I5456
sS'boil'
p5456
I5457
sS'shelf'
p5457
I5458
sS'juli'
p5458
I5459
sS'shallow'
p5459
I5460
sS'shelv'
p5460
I5461
sS'martinez"'
p5461
I5462
sS'"god'
p5462
I5463
sS'liquid'
p5463
I5464
sS'"got'
p5464
I5465
sS'"may'
p5465
I5466
sS'tommi'
p5466
I5467
sS'clip'
p5467
I5468
sS'splatter'
p5468
I5469
sS'meatbal'
p5469
I5470
sS'footwork'
p5470
I5659
sS'"well"'
p5471
I5472
sS'pinbal'
p5472
I4480
sS'afraid'
p5473
I5474
sS'florid'
p5474
I5475
sS'rout'
p5475
I5476
sS'purple"'
p5476
I5477
sS'hatch"'
p5477
I5478
sS'campus"'
p5478
I5479
sS'which'
p5479
I5480
sS'"time"'
p5480
I5481
sS'^^'
p5481
I5482
sS'who'
p5482
I5483
sS'whi'
p5483
I5484
sS'class'
p5484
I5485
sS'looker'
p5485
I5486
sS'weeni'
p5486
I5487
sS'pipe'
p5487
I5488
sS'determin'
p5488
I5489
sS'one"'
p5489
I5490
sS'word"'
p5490
I5491
sS'"choos'
p5491
I5492
sS'utter'
p5492
I5493
sS'chicken'
p5493
I3986
sS'nearer'
p5494
I5495
sS'ear'
p5495
I5496
sS'locat'
p5496
I5497
sS'highheel'
p5497
I5498
sS'true"'
p5498
I5499
sS'"congratulations"'
p5499
I5500
sS'combo'
p5500
I5501
sS'piano'
p5501
I5502
sS'nonunion'
p5502
I5503
sS'spun'
p5503
I5504
sS'cube'
p5504
I4680
sS'watercolor'
p5505
I5506
sS'made'
p5506
I5663
sS'hotplat'
p5507
I3709
sS'chance"'
p5508
I5508
sS'please"'
p5509
I5509
sS'"edna'
p5510
I5510
sS'wallpap'
p5511
I5511
sS'goggl'
p5512
I5512
sS'view'
p5513
I1686
sS'buzzer'
p5514
I5514
sS'knowledg'
p5515
I5515
sS'"shortcake"'
p5516
I5516
sS'"poor'
p5517
I5517
sS'distract'
p5518
I5518
sS'closer'
p5519
I5519
sS'entranc'
p5520
I5520
sS'panti'
p5521
I5521
sS'closet'
p5522
I5522
sS'monstrous'
p5523
I5523
sS'xray'
p5524
I5524
sS'"think'
p5525
I729
sS'"jimmi'
p5526
I5526
sS'bought'
p5527
I5527
sS'exam'
p5528
I5528
sS'joy'
p5529
I5529
sS'"come"'
p5530
I5530
sS'salesgirl'
p5531
I5531
sS'job'
p5532
I5532
sS'entir'
p5533
I5533
sS'joe'
p5534
I5534
sS'spoil'
p5535
I5535
sS'floss'
p5536
I5626
sS'swift'
p5537
I5536
sS'close"'
p5538
I5537
sS'grain'
p5539
I5538
sS'wall'
p5540
I5539
sS'arriv'
p5541
I5540
sS'walk'
p5542
I5541
sS'respect'
p5543
I5542
sS'fenster"'
p5544
I5543
sS'numbers"'
p5545
I5544
sS'withdrawn'
p5546
I5545
sS'decent'
p5547
I5546
sS'"i\'v'
p5548
I5547
sS'compos'
p5549
I5548
sS'730'
p5550
I4920
sS'besid'
p5551
I4923
sS'"i\'m'
p5552
I5551
sS'"i\'d'
p5553
I4935
sS'nickel'
p5554
I5553
sS'saner'
p5555
I5554
sS'vanilla'
p5556
I4980
sS'chips"'
p5557
I5556
sS'will'
p5558
I5557
sS'"forget'
p5559
I5558
sS'headlock'
p5560
I5560
sS'wild'
p5561
I5561
sS'weatherton'
p5562
I5562
sS'layer'
p5563
I5563
sS'thus'
p5564
I5564
sS'lingeri'
p5565
I5565
sS'rooster'
p5566
I5566
sS'motiv'
p5567
I5567
sS'whore'
p5568
I5568
sS'apart"'
p5569
I5569
sS'wealthi'
p5570
I4483
sS'cross'
p5571
I5571
sS'member'
p5572
I5572
sS'largest'
p5573
I5573
sS'misogynist'
p5574
I5057
sS'difficult'
p5575
I5575
sS'"they'
p5576
I5576
sS'diploma'
p5577
I5076
sS'"then'
p5578
I5085
sS'pedal'
p5579
I5579
sS'collar'
p5580
I5580
sS'pissant"'
p5581
I5581
sS'gutter'
p5582
I5582
sS'get"'
p5583
I5583
sS'english'
p5584
I5584
sS'catcher"'
p5585
I5585
sS'camel'
p5586
I5586
sS'obtain'
p5587
I5587
sS'crier'
p5588
I5588
sS'heavili'
p5589
I5589
sS'biologist'
p5590
I5590
sS'rapid'
p5591
I5591
sS'drunk'
p5592
I5592
sS'sky'
p5593
I5593
sS'discuss'
p5594
I5594
sS'book'
p5595
I5681
sS'ski'
p5596
I5596
sS'enact'
p5597
I5597
sS'rememb'
p5598
I601
sS'came"'
p5599
I5599
sS'agnost'
p5600
I5600
sS'know'
p5601
I5601
sS'knot'
p5602
I5602
sS'press'
p5603
I5603
sS'knox'
p5604
I5234
sS'"but'
p5605
I5605
sS"who'd"
p5606
I5606
sS'"your'
p5607
I5607
sS'"because"'
p5608
I5608
sS'loser'
p5609
I5609
sS'nick"'
p5610
I5610
sS'exceed'
p5611
I5611
sS'115'
p5612
I5612
sS'114'
p5613
I5613
sS'117'
p5614
I5614
sS'116'
p5615
I5615
sS'holler'
p5616
I3739
sS'110'
p5617
I5617
sS'tackier'
p5618
I5287
sS'112'
p5619
I5619
sS'star'
p5620
I5620
sS'119'
p5621
I5621
sS'118'
p5622
I5622
sS'lead'
p5623
I5623
sS'leak'
p5624
I5624
sS'lean'
p5625
I5625
sS'leap'
p5626
I3133
sS'leav'
p5627
I5627
sS'settl'
p5628
I5628
sS'leader'
p5629
I5629
sS'throttl'
p5630
I5630
sS'mitt'
p5631
I5631
sS'ripper'
p5632
I5632
sS'baldy"'
p5633
I5633
sS'slug'
p5634
I5634
sS'rare'
p5635
I5635
sS'himself"'
p5636
I5636
sS'linger'
p5637
I5637
sS'perki'
p5638
I5638
sS'"best'
p5639
I5639
sS'mister"'
p5640
I5640
sS'shortsandstock'
p5641
I5641
sS'fear'
p5642
I5494
sS'swear'
p5643
I5642
sS'sweat'
p5644
I5643
sS'mine"'
p5645
I5644
sS'own'
p5646
I5645
sS'"mommi'
p5647
I5646
sS'owe'
p5648
I5647
sS'clifton'
p5649
I4574
sS'automat'
p5650
I5649
sS'cri'
p5651
I5445
sS'champ'
p5652
I5651
sS'brush'
p5653
I5652
sS'mad"'
p5654
I5653
sS'transfer'
p5655
I5654
sS'spiral'
p5656
I5655
sS'appl'
p5657
I5656
sS'cliff'
p5658
I5686
sS'marie"'
p5659
I5658
sS'nourish'
p5660
I5471
sS'unwrap'
p5661
I5660
sS'mutter'
p5662
I5661
sS'porterhous'
p5663
I5662
sS'this"'
p5664
I5507
sS'hitter'
p5665
I5664
sS'whether'
p5666
I5665
sS'injur'
p5667
I5666
sS'troubl'
p5668
I330
sS'record'
p5669
I5668
sS'below'
p5670
I5669
sS'cake'
p5671
I5670
sS'arni'
p5672
I5671
sS'meaningless'
p5673
I5672
sS'"so'
p5674
I5559
sS'farnsworth'
p5675
I5674
sS'champion'
p5676
I5675
sS'booz'
p5677
I5676
sS'liverwurst'
p5678
I5677
sS'glint'
p5679
I5678
sS'boot'
p5680
I5679
sS'bitchwhore"'
p5681
I5680
sS'other'
p5682
I5595
sS'sick'
p5683
I5598
sS'squeak'
p5684
I5683
sS'my"'
p5685
I5684
sS'humbl'
p5686
I5685
sS'squeal'
p5687
I5657
sS'profit'
p5688
I5687
sS'diploma"'
p5689
I5688
sS'"pay'
p5690
I5689
s.