(dp0
S'jam\x94'
p1
I0
sS'some\x85\x94'
p2
I1
sS'pardon'
p3
I2
sS'besid'
p4
I4023
sS'hatr'
p5
I3
sS'leave\x94'
p6
I4
sS'yellow'
p7
I5
sS'four'
p8
I6
sS'bell\x94'
p9
I7
sS'flabbi'
p10
I3478
sS'sleep'
p11
I8
sS'understandable\x94'
p12
I9
sS'bottles\x85\x94'
p13
I11
sS'change\x94'
p14
I12
sS'hate'
p15
I13
sS'whose'
p16
I15
sS'pedro'
p17
I16
sS'vile'
p18
I2210
sS'shot\x94'
p19
I3780
sS'tommy\x92'
p20
I18
sS'tommy\x94'
p21
I19
sS'ate\x94'
p22
I21
sS'me\x94'
p23
I22
sS'forebod'
p24
I23
sS'bike'
p25
I24
sS'later\x94'
p26
I3838
sS'buddi'
p27
I25
sS'under'
p28
I26
sS'looka'
p29
I2362
sS'worth'
p30
I28
sS'\x93wait\x85wait\x85someth'
p31
I29
sS'her\x94'
p32
I30
sS'file'
p33
I4064
sS'everi'
p34
I33
sS'appal'
p35
I34
sS'you\x92d'
p36
I35
sS'rise'
p37
I36
sS'voic'
p38
I37
sS'loaner\x94'
p39
I38
sS'jack'
p40
I40
sS'boot'
p41
I4382
sS'you\x92v'
p42
I41
sS'appar'
p43
I42
sS'you\x92r'
p44
I43
sS'frightening\x94'
p45
I44
sS'vast'
p46
I715
sS'school'
p47
I46
sS'through\x94'
p48
I47
sS'\x93small'
p49
I48
sS'burbank\x94'
p50
I49
sS'wooden'
p51
I50
sS'halfastring\x94'
p52
I51
sS'wednesday'
p53
I53
sS'glass\x94'
p54
I54
sS'goofy\x94'
p55
I55
sS'enquir'
p56
I56
sS'math'
p57
I3692
sS'think\x85\x94'
p58
I58
sS'enjoy'
p59
I60
sS'chew'
p60
I61
sS'\x93she'
p61
I62
sS'rustl'
p62
I63
sS'pubic'
p63
I66
sS'direct'
p64
I67
sS'somewhere\x85\x94'
p65
I68
sS'nail'
p66
I69
sS'rudson'
p67
I70
sS'second'
p68
I71
sS'street'
p69
I72
sS'manur'
p70
I73
sS'7th'
p71
I74
sS'loomer'
p72
I3695
sS'up\x94'
p73
I76
sS'ploy'
p74
I2785
sS'to\x85crack'
p75
I4213
sS'even'
p76
I77
sS'dialogu'
p77
I79
sS'captain'
p78
I80
sS'hide'
p79
I81
sS'christ'
p80
I82
sS'solemn'
p81
I84
sS'thunder'
p82
I85
sS'introspect'
p83
I87
sS'\x93hard'
p84
I88
sS'poison'
p85
I89
sS'delusions\x94'
p86
I90
sS'better\x94'
p87
I91
sS'\x93steady\x94'
p88
I92
sS'aliens\x94'
p89
I93
sS'new'
p90
I94
sS'you\x92\x94'
p91
I95
sS'ever'
p92
I96
sS'exhal'
p93
I3575
sS'told'
p94
I97
sS'specialist'
p95
I98
sS'elimin'
p96
I99
sS'behavior'
p97
I2956
sS'flip'
p98
I4342
sS'bimbo\x94'
p99
I102
sS'never'
p100
I103
sS'here'
p101
I104
sS'19601967'
p102
I105
sS'met'
p103
I106
sS'they\x92r'
p104
I107
sS'path'
p105
I108
sS'cardboard'
p106
I109
sS'interpret'
p107
I110
sS'today\x94'
p108
I112
sS'cindi'
p109
I113
sS'funny\x85\x94'
p110
I114
sS'rendered\x94'
p111
I2960
sS'anymor'
p112
I116
sS'\x93why\x94'
p113
I117
sS'hat\x94'
p114
I790
sS'affairs\x94'
p115
I119
sS'dri'
p116
I120
sS'credit'
p117
I121
sS'merrygoround'
p118
I122
sS'cradl'
p119
I123
sS'smoke'
p120
I124
sS'fumbl'
p121
I125
sS'california'
p122
I1705
sS'welllivedin'
p123
I127
sS'sorri'
p124
I128
sS'you\x92ll'
p125
I130
sS'look\x85here\x85her'
p126
I131
sS'hunch'
p127
I133
sS'propag'
p128
I1356
sS'sweetest'
p129
I135
sS'newspap'
p130
I136
sS'win\x94'
p131
I137
sS'brought'
p132
I138
sS'sneer'
p133
I2008
sS'remnant'
p134
I140
sS'\x93\x91ain\x92t\x92'
p135
I4404
sS'cigarette\x94'
p136
I141
sS'around\x94'
p137
I142
sS'total'
p138
I143
sS'anyhow'
p139
I3706
sS'unit'
p140
I146
sS'\x93blackmail'
p141
I147
sS'cough'
p142
I1520
sS'spoke'
p143
I150
sS'would'
p144
I151
sS'swat'
p145
I152
sS'choochoo'
p146
I153
sS'sweater'
p147
I154
sS'leaki'
p148
I155
sS'exacta'
p149
I156
sS'tail'
p150
I2232
sS'executioners\x94'
p151
I158
sS'\x93look'
p152
I159
sS'call'
p153
I160
sS'calm'
p154
I161
sS'recommend'
p155
I162
sS'la\x94'
p156
I163
sS'type'
p157
I164
sS'until'
p158
I165
sS'subconsci'
p159
I3626
sS'track\x94'
p160
I2235
sS'dunde'
p161
I167
sS'\x93when'
p162
I168
sS'\x93listen\x94'
p163
I169
sS'\x93peopl'
p164
I170
sS'\x93unfold'
p165
I171
sS'wart'
p166
I172
sS'relat'
p167
I173
sS'man\x85\x94'
p168
I1526
sS'notic'
p169
I175
sS'hurt'
p170
I176
sS'warn'
p171
I177
sS'phone'
p172
I178
sS'nitro\x94'
p173
I179
sS'warm'
p174
I180
sS'nitro\x92'
p175
I181
sS'holi'
p176
I182
sS'hurl'
p177
I183
sS'hole'
p178
I184
sS'hold'
p179
I185
sS'pouch'
p180
I186
sS'\x93tommy\x94'
p181
I187
sS'must'
p182
I188
sS'me'
p183
I189
sS'1990'
p184
I190
sS'1993'
p185
I191
sS'1992'
p186
I192
sS'fellows\x94'
p187
I193
sS'wore'
p188
I1169
sS'1997'
p189
I195
sS'henri'
p190
I196
sS'1999'
p191
I197
sS'1998'
p192
I340
sS'setup'
p193
I637
sS'work'
p194
I200
sS'\x93uh\x85al'
p195
I201
sS'worm'
p196
I202
sS'worn'
p197
I1206
sS'year\x94'
p198
I1529
sS'grover'
p199
I1219
sS'mr'
p200
I206
sS'elbow'
p201
I207
sS'my'
p202
I208
sS'could'
p203
I3713
sS'shook'
p204
I210
sS'right\x94'
p205
I211
sS'loosen'
p206
I1269
sS'quiver'
p207
I213
sS'flunk'
p208
I1289
sS'all\x85\x94'
p209
I4363
sS'\x91contact\x92\x94'
p210
I215
sS'indic'
p211
I216
sS'ballgam'
p212
I217
sS'honey'
p213
I218
sS'\x93ha'
p214
I219
sS'\x93seem'
p215
I220
sS'\x93he'
p216
I221
sS'divorce\x94'
p217
I1335
sS'basebal'
p218
I223
sS'fortyf'
p219
I1806
sS'\x93hi'
p220
I225
sS'he\x92d'
p221
I1534
sS'attract'
p222
I227
sS'gigant'
p223
I229
sS'hog'
p224
I230
sS'out\x85\x94'
p225
I231
sS'end'
p226
I232
sS'turn'
p227
I233
sS'polic'
p228
I234
sS'anywhere\x94'
p229
I236
sS'length'
p230
I3716
sS'\x93carmen\x94'
p231
I238
sS'intestin'
p232
I239
sS'how'
p233
I240
sS'hot'
p234
I241
sS'halfbad'
p235
I3717
sS'silent'
p236
I1569
sS'hop'
p237
I244
sS'scrambl'
p238
I245
sS'answer'
p239
I246
sS'company\x94'
p240
I247
sS'finger\x94'
p241
I248
sS'confid'
p242
I249
sS'overpopul'
p243
I250
sS'recogn'
p244
I251
sS'elizabeth'
p245
I252
sS'mess'
p246
I253
sS'chines'
p247
I255
sS'after'
p248
I256
sS'bitch\x94'
p249
I2983
sS'lump'
p250
I258
sS'befor'
p251
I260
sS'wrong'
p252
I261
sS'lay'
p253
I262
sS'beauti'
p254
I263
sS'\x93rememb'
p255
I265
sS'lap'
p256
I266
sS'frenchmen\x94'
p257
I267
sS'las'
p258
I268
sS'icecream'
p259
I3948
sS'profess'
p260
I1542
sS'off\x94'
p261
I270
sS'third'
p262
I271
sS'spout'
p263
I272
sS'darling\x94'
p264
I273
sS'\x93final'
p265
I3419
sS'lost'
p266
I4193
sS'revolv'
p267
I274
sS'think'
p268
I1544
sS'wink'
p269
I276
sS'furri'
p270
I277
sS'green'
p271
I278
sS'south'
p272
I3721
sS'enter'
p273
I280
sS'exclus'
p274
I1963
sS'water\x92\x94'
p275
I2257
sS'first'
p276
I1545
sS'order'
p277
I284
sS'wind'
p278
I285
sS'wine'
p279
I286
sS'carnat'
p280
I288
sS'diddl'
p281
I289
sS'deck'
p282
I290
sS'over'
p283
I291
sS'failur'
p284
I2259
sS'orang'
p285
I293
sS'becaus'
p286
I294
sS'is\x94'
p287
I295
sS'toddl'
p288
I3592
sS'finished\x94'
p289
I298
sS'london'
p290
I299
sS'boys\x94'
p291
I300
sS'you\x92ll\x85\x94'
p292
I301
sS'lady\x85fil'
p293
I302
sS'windshield'
p294
I303
sS'dreamer'
p295
I305
sS'tony\x85\x94'
p296
I306
sS'jenkins\x94'
p297
I65
sS'it\x85\x94'
p298
I311
sS'fix'
p299
I312
sS'denver'
p300
I315
sS'strang'
p301
I2262
sS'better'
p302
I317
sS'carri'
p303
I1550
sS'offic'
p304
I319
sS'fig'
p305
I321
sS'fade'
p306
I322
sS'400'
p307
I323
sS'then'
p308
I326
sS'them'
p309
I327
sS'anim'
p310
I328
sS'\x93yes\x94'
p311
I329
sS'sixbit'
p312
I330
sS'fellow\x94'
p313
I331
sS'slate'
p314
I333
sS'camera\x94'
p315
I334
sS'disturb'
p316
I335
sS'finish'
p317
I2561
sS'nasty\x94'
p318
I336
sS'break'
p319
I337
sS'stranger\x92'
p320
I338
sS'bang'
p321
I339
sS'promis'
p322
I341
sS'they'
p323
I342
sS'go\x94'
p324
I343
sS'one'
p325
I1555
sS'silver'
p326
I346
sS'\x93liar'
p327
I347
sS'prize'
p328
I348
sS'piss\x94'
p329
I349
sS'choic'
p330
I350
sS'\x9346\x94'
p331
I351
sS'she\x85\x94'
p332
I352
sS'victori'
p333
I353
sS'oxygen'
p334
I354
sS'close'
p335
I2832
sS'barton'
p336
I356
sS'detroit'
p337
I357
sS'grapefruit\x94'
p338
I358
sS'roast'
p339
I359
sS'each'
p340
I360
sS'$50'
p341
I361
sS'went'
p342
I362
sS'fishstick'
p343
I3000
sS'eats\x94'
p344
I199
sS'bone'
p345
I365
sS'mean'
p346
I366
sS'papers\x94'
p347
I368
sS'hanger'
p348
I369
sS'ready\x94'
p349
I370
sS'chose'
p350
I3406
sS'unscrew'
p351
I371
sS'spider'
p352
I372
sS'vote'
p353
I1558
sS'turnip'
p354
I374
sS'huddl'
p355
I375
sS'forgot'
p356
I376
sS'logo'
p357
I377
sS'then\x94'
p358
I378
sS'mount\x94'
p359
I379
sS'ears\x94'
p360
I380
sS'depress'
p361
I381
sS'\x93barton'
p362
I382
sS'velvet'
p363
I384
sS'snail'
p364
I3003
sS'goe'
p365
I386
sS'smirk'
p366
I387
sS'motel'
p367
I388
sS'down\x94'
p368
I389
sS'who\x94'
p369
I3005
sS'laid'
p370
I391
sS'twit\x94'
p371
I393
sS'bellybutton'
p372
I394
sS'refills\x85'
p373
I395
sS'got'
p374
I396
sS'\x93thanks\x94'
p375
I4073
sS'sellout'
p376
I397
sS'rail'
p377
I399
sS'wellhung'
p378
I1283
sS'free'
p379
I401
sS'dizzy\x94'
p380
I402
sS'\x91what\x92\x94'
p381
I403
sS'ancient'
p382
I3739
sS'240'
p383
I405
sS'week\x92'
p384
I39
sS'week\x94'
p385
I408
sS'\x93bass'
p386
I409
sS'tabasco'
p387
I410
sS'lousi'
p388
I411
sS'extortion\x94'
p389
I412
sS'ate'
p390
I413
sS'puzzl'
p391
I415
sS'handspr'
p392
I416
sS'\x9335'
p393
I417
sS'doesn\x92t'
p394
I418
sS'\x93either'
p395
I3741
sS'modest\x94'
p396
I420
sS'loui'
p397
I421
sS'renew'
p398
I422
sS'cense\x94'
p399
I423
sS'unabl'
p400
I424
sS'startl'
p401
I425
sS'soda'
p402
I426
sS'halfaclass'
p403
I428
sS'onto'
p404
I658
sS'caught'
p405
I1573
sS'thumbtack'
p406
I431
sS'flick'
p407
I2279
sS'rang'
p408
I433
sS'don\x92t'
p409
I434
sS'grade'
p410
I435
sS'accent'
p411
I3745
sS'19601970'
p412
I437
sS'wast'
p413
I438
sS'thereof'
p414
I439
sS'buttock'
p415
I440
sS'lifetim'
p416
I3177
sS'hook'
p417
I442
sS'cones\x94'
p418
I443
sS'alreadi'
p419
I444
sS'176'
p420
I446
sS'thick'
p421
I447
sS'massiv'
p422
I448
sS'uncollect'
p423
I449
sS'cohort'
p424
I4080
sS'hood'
p425
I450
sS'toy'
p426
I452
sS'mother\x92'
p427
I2282
sS'leper\x92'
p428
I454
sS'their'
p429
I3748
sS'jerko\x94'
p430
I456
sS'top'
p431
I457
sS'\x93ok\x94'
p432
I458
sS'sometim'
p433
I459
sS'that\x85listen'
p434
I2638
sS'opportunity\x94'
p435
I461
sS'heads\x94'
p436
I462
sS'2'
p437
I1580
sS'master'
p438
I464
sS'too'
p439
I465
sS'hollywood'
p440
I466
sS'john'
p441
I467
sS'\x93there\x92'
p442
I2023
sS'listen'
p443
I468
sS'door\x85'
p444
I469
sS'church\x94'
p445
I470
sS'murder'
p446
I471
sS'plush'
p447
I2845
sS'circl'
p448
I1582
sS'cabby\x94'
p449
I4370
sS'\x93yeah'
p450
I473
sS'took'
p451
I475
sS'\x93sorry\x94'
p452
I32
sS'nirvana'
p453
I477
sS'door\x94'
p454
I478
sS'\x93$50\x94'
p455
I479
sS'\x93impossible\x94'
p456
I480
sS'\x93sit'
p457
I481
sS'somewhat'
p458
I482
sS'ride\x94'
p459
I2772
sS'crawl'
p460
I484
sS'\x93year'
p461
I485
sS'toronto'
p462
I486
sS'sanderson'
p463
I699
sS'see\x94'
p464
I488
sS'silli'
p465
I489
sS'target'
p466
I490
sS'coward'
p467
I492
sS'tree'
p468
I493
sS'hors'
p469
I1434
sS'aztec'
p470
I495
sS'long\x94'
p471
I496
sS'shower'
p472
I497
sS'matter'
p473
I498
sS'flame'
p474
I499
sS'nervous'
p475
I2777
sS'minut'
p476
I500
sS'louie\x94'
p477
I501
sS'recheck'
p478
I502
sS'rag'
p479
I504
sS'now\x85move\x94'
p480
I505
sS'sure\x94'
p481
I506
sS'relight'
p482
I508
sS'easy\x94'
p483
I509
sS'ran'
p484
I510
sS'ram'
p485
I511
sS'mind'
p486
I512
sS'mine'
p487
I513
sS'glass'
p488
I514
sS'1972'
p489
I515
sS'raw'
p490
I516
sS'rat'
p491
I517
sS'seed'
p492
I518
sS'manner'
p493
I519
sS'rap'
p494
I520
sS'seen'
p495
I521
sS'seem'
p496
I522
sS'power\x94'
p497
I523
sS'seek'
p498
I524
sS'seminar'
p499
I525
sS'dozen'
p500
I526
sS'1969'
p501
I527
sS'3234'
p502
I528
sS'\x93how'
p503
I529
sS'seethrough'
p504
I2347
sS'game\x85\x94'
p505
I3760
sS'my32'
p506
I2468
sS'wipe'
p507
I3350
sS'chest'
p508
I534
sS'client'
p509
I535
sS'that\x85\x94'
p510
I536
sS'hum'
p511
I1590
sS'thoma'
p512
I538
sS'\x93gimm'
p513
I539
sS'kerosen'
p514
I541
sS'something\x94'
p515
I1591
sS'collateral\x94'
p516
I543
sS'emissari'
p517
I544
sS'wriggl'
p518
I545
sS'blue'
p519
I546
sS'crippl'
p520
I547
sS'germani'
p521
I304
sS'elev'
p522
I3032
sS'plenti'
p523
I550
sS'though'
p524
I551
sS'glob'
p525
I552
sS'object'
p526
I553
sS'what'
p527
I2301
sS'to\x94'
p528
I555
sS'in\x94'
p529
I4338
sS'quit'
p530
I4015
sS'\x93mind'
p531
I556
sS'\x93mine'
p532
I557
sS'mouth'
p533
I558
sS'letter'
p534
I559
sS'poopoo\x94'
p535
I560
sS'everyth'
p536
I844
sS'grave'
p537
I562
sS'glow'
p538
I563
sS'zealand'
p539
I564
sS'backwoodsman\x94'
p540
I3035
sS'flop'
p541
I567
sS'metal'
p542
I568
sS'included\x94'
p543
I1080
sS'rancid'
p544
I570
sS'freeway'
p545
I571
sS'manson\x85\x94'
p546
I572
sS'floor\x94'
p547
I573
sS'umbil'
p548
I575
sS'scotch'
p549
I577
sS'scream'
p550
I578
sS'came'
p551
I579
sS'yank'
p552
I580
sS'trigger\x94'
p553
I581
sS'rhythm\x94'
p554
I582
sS'abl'
p555
I2307
sS'hemingway\x94'
p556
I1597
sS'bimbo'
p557
I585
sS'face\x94'
p558
I587
sS'radio'
p559
I589
sS'lethal'
p560
I590
sS'good\x94'
p561
I3040
sS'\x93spanki'
p562
I592
sS'involv'
p563
I593
sS'insurance\x94'
p564
I594
sS'nobodi'
p565
I3769
sS'\x93damn'
p566
I596
sS'shithouses\x94'
p567
I597
sS'buss'
p568
I598
sS'explain'
p569
I599
sS'times\x94'
p570
I4138
sS'releas'
p571
I3704
sS'restaur'
p572
I600
sS'bust'
p573
I601
sS'medicine\x94'
p574
I3764
sS'busi'
p575
I603
sS'bliss'
p576
I604
sS'disgust'
p577
I605
sS'\x93doe'
p578
I606
sS'havin\x92\x94'
p579
I607
sS'haven\x92t'
p580
I608
sS'fourandonehalf'
p581
I609
sS'do'
p582
I610
sS'movies\x94'
p583
I2314
sS'10'
p584
I1604
sS'seclud'
p585
I3553
sS'\x93mister'
p586
I614
sS'uhhh'
p587
I615
sS'stop'
p588
I616
sS'13'
p589
I1605
sS'ceil'
p590
I618
sS'pocket'
p591
I619
sS'next'
p592
I3471
sS'giggl'
p593
I620
sS'night\x94'
p594
I2662
sS'ever\x94'
p595
I621
sS'\x93it\x92'
p596
I3418
sS'15'
p597
I1607
sS'gut\x85\x94'
p598
I623
sS'dr'
p599
I624
sS'bar'
p600
I626
sS'noon'
p601
I3308
sS'working\x85\x94'
p602
I627
sS'sauc'
p603
I628
sS'twice'
p604
I629
sS'bad'
p605
I630
sS'$240'
p606
I2318
sS'won\x92t'
p607
I633
sS'beadi'
p608
I634
sS'septemb'
p609
I635
sS'sorry\x85but'
p610
I636
sS'brief\x94'
p611
I2848
sS'blew'
p612
I638
sS'fair'
p613
I639
sS'nut'
p614
I641
sS'\x93\x91asshole\x92'
p615
I3046
sS'sultri'
p616
I3784
sS'shorts\x94'
p617
I643
sS'bled'
p618
I644
sS'musso\x92s\x94'
p619
I645
sS'result'
p620
I2981
sS'possible\x94'
p621
I2022
sS'fail'
p622
I648
sS'bee'
p623
I3786
sS'percuss'
p624
I651
sS'best'
p625
I652
sS'subject'
p626
I653
sS'awar'
p627
I654
sS'said'
p628
I656
sS'busy\x94'
p629
I657
sS'\x93spike'
p630
I3840
sS'home\x94'
p631
I4065
sS'8jb'
p632
I660
sS'brewster'
p633
I661
sS'benefactor\x94'
p634
I3050
sS'away'
p635
I663
sS'hanging\x94'
p636
I665
sS'pacif'
p637
I2326
sS'figur'
p638
I668
sS'crumpl'
p639
I1614
sS'do\x85\x94'
p640
I670
sS'finger'
p641
I671
sS'awak'
p642
I672
sS'365'
p643
I673
sS'approach'
p644
I674
sS'knock\x94'
p645
I675
sS'inton'
p646
I676
sS'we'
p647
I677
sS'them\x94'
p648
I678
sS'benefactor\x85it'
p649
I679
sS'optimist'
p650
I4190
sS'weak'
p651
I681
sS'\x93good\x94'
p652
I682
sS'jerkoff\x94'
p653
I683
sS'380'
p654
I684
sS'lazi'
p655
I685
sS'\x93hire'
p656
I686
sS'wear'
p657
I687
sS'unfold'
p658
I688
sS'news'
p659
I689
sS'advertis'
p660
I690
sS'\x93hello'
p661
I691
sS'roller'
p662
I692
sS'kitchen'
p663
I693
sS'cop'
p664
I694
sS'empty\x94'
p665
I2724
sS'expos'
p666
I696
sS'cow'
p667
I697
sS'about\x94'
p668
I698
sS'movement'
p669
I2319
sS'against'
p670
I700
sS'piti'
p671
I701
sS'brag'
p672
I702
sS'steer'
p673
I3791
sS'\x93babe'
p674
I704
sS'\x93toss'
p675
I705
sS'\x93babi'
p676
I706
sS'\x93psst\x85\x94'
p677
I877
sS'kansa'
p678
I3361
sS'con'
p679
I708
sS'\x93grover'
p680
I709
sS'tone'
p681
I711
sS'toni'
p682
I712
sS'cindy\x94'
p683
I714
sS'cindy\x92'
p684
I716
sS'2nd'
p685
I717
sS'102'
p686
I718
sS'canyon'
p687
I719
sS'written'
p688
I3949
sS'nonexistent\x94'
p689
I720
sS'dougla'
p690
I721
sS'trust'
p691
I722
sS'speak'
p692
I723
sS'code'
p693
I3310
sS'bathroom'
p694
I724
sS'said\x94'
p695
I4258
sS'angel'
p696
I1624
sS'beef'
p697
I727
sS'union'
p698
I729
sS'fri'
p699
I730
sS'three'
p700
I731
sS'been'
p701
I732
sS'\x93yellow'
p702
I733
sS'character\x94'
p703
I734
sS'beer'
p704
I735
sS'much'
p705
I736
sS'\x93sorri'
p706
I4005
sS'monkey'
p707
I3740
sS'interest'
p708
I737
sS'basic'
p709
I738
sS'dying\x94'
p710
I739
sS'warmth'
p711
I740
sS'tini'
p712
I741
sS'threw'
p713
I742
sS'life'
p714
I743
sS'here\x85\x94'
p715
I744
sS'clowns\x94'
p716
I745
sS'spit'
p717
I746
sS'dixi'
p718
I747
sS'greyhound'
p719
I1626
sS'dismiss'
p720
I749
sS'gong\x85\x94'
p721
I2341
sS'thing\x94'
p722
I751
sS'ani'
p723
I1627
sS'sidewalk'
p724
I3801
sS'lift'
p725
I754
sS'els'
p726
I881
sS'catch'
p727
I757
sS'i\x92d\x85\x94'
p728
I758
sS'chili'
p729
I759
sS'spin'
p730
I760
sS'bookstor'
p731
I761
sS'chill'
p732
I762
sS'ugli'
p733
I763
sS'\x93depend'
p734
I764
sS'has'
p735
I765
sS'tank'
p736
I766
sS'servic'
p737
I768
sS'\x93barfly\x94'
p738
I769
sS'\x93red'
p739
I770
sS'i\x94'
p740
I771
sS'\x93oh\x94'
p741
I772
sS'air'
p742
I773
sS'aim'
p743
I78
sS'near'
p744
I775
sS'ugliest'
p745
I776
sS'\x93sound'
p746
I777
sS'vagu'
p747
I778
sS'doormat'
p748
I781
sS'stink'
p749
I782
sS'dizzi'
p750
I783
sS'\x93all'
p751
I784
sS'were\x94'
p752
I786
sS'is'
p753
I787
sS'ir'
p754
I788
sS'it'
p755
I789
sS'sammy\x94'
p756
I406
sS'need'
p757
I3804
sS'ceiling\x94'
p758
I792
sS'brake'
p759
I793
sS'jest'
p760
I794
sS'in'
p761
I795
sS'now\x94'
p762
I796
sS'door\x85\x94'
p763
I655
sS'if'
p764
I798
sS'belli'
p765
I799
sS'turkeyneck'
p766
I2349
sS'suggest'
p767
I801
sS'make'
p768
I802
sS'here\x85y'
p769
I803
sS'forehead'
p770
I804
sS'excited\x94'
p771
I805
sS'complex'
p772
I806
sS'split'
p773
I807
sS'money\x94'
p774
I808
sS'big'
p775
I3073
sS'19551973'
p776
I810
sS'complet'
p777
I811
sS'wheel'
p778
I812
sS'known\x94'
p779
I813
sS'evid'
p780
I814
sS'french\x85th'
p781
I815
sS'frenchmen'
p782
I816
sS'permit'
p783
I817
sS'hang'
p784
I818
sS'\x93whiskey'
p785
I2164
sS'rain'
p786
I819
sS'hand'
p787
I820
sS'action'
p788
I2353
sS'rais'
p789
I821
sS'meatcha\x94'
p790
I822
sS'jealous'
p791
I823
sS'nip'
p792
I824
sS'kid'
p793
I825
sS'butter'
p794
I826
sS'unbuckl'
p795
I827
sS'kept'
p796
I828
sS'1979'
p797
I829
sS'1978'
p798
I830
sS'1977'
p799
I831
sS'1975'
p800
I832
sS'1974'
p801
I949
sS'1973'
p802
I834
sS'drip'
p803
I835
sS'\x93real'
p804
I836
sS'aisl'
p805
I837
sS'lately\x94'
p806
I3814
sS'contact'
p807
I839
sS'sonofabitch\x94'
p808
I840
sS'greatest'
p809
I841
sS'mother'
p810
I842
sS'beach\x94'
p811
I843
sS'the'
p812
I561
sS'left'
p813
I846
sS'endless'
p814
I3903
sS'pittanc'
p815
I848
sS'just'
p816
I849
sS'\x93boy'
p817
I850
sS'photo'
p818
I851
sS'nowaday'
p819
I852
sS'\x93dog'
p820
I853
sS'month\x94'
p821
I854
sS'rodent'
p822
I855
sS'fact'
p823
I3851
sS'\x93mean'
p824
I856
sS'human'
p825
I857
sS'gullibl'
p826
I858
sS'tonight\x94'
p827
I859
sS'yes'
p828
I860
sS'\x93somehow'
p829
I3817
sS'yet'
p830
I862
sS'languag'
p831
I2455
sS'previous'
p832
I864
sS'\x93for'
p833
I865
sS'\x91link\x92'
p834
I866
sS'hal'
p835
I867
sS'ham'
p836
I3379
sS'easi'
p837
I869
sS'martinelli'
p838
I1960
sS'seems\x94'
p839
I871
sS'\x93\x91thundered\x92\x94'
p840
I872
sS'\x93whi'
p841
I873
sS'had'
p842
I874
sS'\x93who'
p843
I875
sS'5s'
p844
I876
sS'spread'
p845
I878
sS'board'
p846
I879
sS'cherri'
p847
I756
sS'east'
p848
I882
sS'hat'
p849
I883
sS'red\x92'
p850
I3579
sS'gave'
p851
I884
sS'told\x94'
p852
I885
sS'21st'
p853
I2328
sS'9780061492624'
p854
I4140
sS'mayb'
p855
I887
sS'\x93fuck'
p856
I3888
sS'quite\x94'
p857
I889
sS'bushi'
p858
I890
sS'ramrod'
p859
I891
sS'\x93loco'
p860
I892
sS'background'
p861
I893
sS'30'
p862
I3430
sS'roach'
p863
I894
sS'burnt'
p864
I895
sS'\x93mess'
p865
I896
sS'apart'
p866
I897
sS'shoulder'
p867
I898
sS'icewat'
p868
I899
sS'\x91zip'
p869
I900
sS'59'
p870
I901
sS'ditto'
p871
I902
sS'gift'
p872
I903
sS'nudg'
p873
I355
sS'nude'
p874
I906
sS'negat'
p875
I907
sS'50'
p876
I908
sS'violent\x94'
p877
I3766
sS'55'
p878
I905
sS'pavement'
p879
I910
sS'snug'
p880
I2364
sS'debilit'
p881
I914
sS'night'
p882
I915
sS'hung'
p883
I916
sS'#3\x94'
p884
I917
sS'signal'
p885
I3090
sS'right'
p886
I919
sS'old'
p887
I920
sS'gawker'
p888
I921
sS'crowd'
p889
I922
sS'mash'
p890
I4367
sS'51'
p891
I924
sS'furlong'
p892
I1807
sS'somehow'
p893
I925
sS'dead'
p894
I926
sS'born'
p895
I927
sS'intern'
p896
I2119
sS'curiosity\x94'
p897
I3829
sS'celine\x97wa'
p898
I930
sS'detection\x94'
p899
I931
sS'dear'
p900
I932
sS'pain'
p901
I1660
sS'bore'
p902
I934
sS'good\x85\x94'
p903
I936
sS'for'
p904
I937
sS'remind'
p905
I909
sS'constip'
p906
I939
sS'ear'
p907
I4330
sS'advance\x94'
p908
I1135
sS'course\x85her'
p909
I941
sS'\x93bad'
p910
I942
sS'\x93whatcha'
p911
I1144
sS'bastard\x94'
p912
I944
sS'umm'
p913
I1163
sS'dream\x94'
p914
I946
sS'burningend'
p915
I947
sS'cord'
p916
I950
sS'holiday'
p917
I3623
sS'upcom'
p918
I4033
sS'sensibl'
p919
I445
sS'enter\x94'
p920
I953
sS'bold'
p921
I954
sS'peel'
p922
I955
sS'evidence\x94'
p923
I956
sS'5\x94'
p924
I957
sS'burn'
p925
I1229
sS'buri'
p926
I960
sS'blackmail'
p927
I961
sS'justice\x94'
p928
I963
sS'sift'
p929
I964
sS'firemen'
p930
I965
sS'\x93writers\x92'
p931
I1257
sS'paid'
p932
I1666
sS'crow'
p933
I3376
sS'\x93whoever'
p934
I969
sS'post'
p935
I970
sS'disposal\x94'
p936
I2524
sS'ha\x94'
p937
I1287
sS'proceed'
p938
I2376
sS'mirage\x94'
p939
I1301
sS'sleep\x94'
p940
I1303
sS'slither'
p941
I974
sS'reordered\x85'
p942
I975
sS'eat'
p943
I4331
sS'cowboy'
p944
I977
sS'twenties\x94'
p945
I979
sS'choke'
p946
I980
sS'surround'
p947
I1348
sS'unfortun'
p948
I982
sS'custom\x94'
p949
I983
sS'indicated\x94'
p950
I984
sS'plus'
p951
I985
sS'afternoon'
p952
I986
sS'coars'
p953
I988
sS'ajax'
p954
I1517
sS'ago\x94'
p955
I989
sS'twitch'
p956
I990
sS'miracul'
p957
I991
sS'malt'
p958
I2410
sS'sack\x94'
p959
I3541
sS'\x93cut'
p960
I994
sS'telephon'
p961
I995
sS'froze'
p962
I996
sS'is\x85\x94'
p963
I997
sS'stockpiles\x94'
p964
I998
sS'\x93nah\x85\x94'
p965
I2323
sS'float'
p966
I1000
sS'profession'
p967
I1001
sS'up\x92\x94'
p968
I1002
sS'bath'
p969
I993
sS'down'
p970
I1004
sS'pair'
p971
I1671
sS'this\x85flash'
p972
I3103
sS'knee'
p973
I1672
sS'song\x94'
p974
I1009
sS'profit\x94'
p975
I1010
sS'stall'
p976
I1011
sS'storag'
p977
I1012
sS'wan'
p978
I1014
sS'brother\x94'
p979
I1015
sS'deal'
p980
I1016
sS'frustrat'
p981
I1017
sS'sense\x94'
p982
I4082
sS'fight'
p983
I1019
sS'avail'
p984
I1020
sS'stuck'
p985
I1021
sS'\x93noth'
p986
I1022
sS'way'
p987
I1023
sS'wax'
p988
I1024
sS'handicapp'
p989
I1026
sS'd\x92heat'
p990
I1027
sS'was'
p991
I1028
sS'war'
p992
I1029
sS'\x93he\x92ll'
p993
I1030
sS'fork'
p994
I1031
sS'martel'
p995
I1032
sS'head'
p996
I1033
sS'form'
p997
I1034
sS'offer'
p998
I1035
sS'forc'
p999
I1036
sS'some'
p1000
I3108
sS'\x93jesus\x94'
p1001
I1038
sS'6'
p1002
I2385
sS'heat'
p1003
I1041
sS'hear'
p1004
I1042
sS'like\x85a'
p1005
I1043
sS'\x9350'
p1006
I1044
sS'\x93over'
p1007
I1045
sS'gstring'
p1008
I1046
sS'\x93ye'
p1009
I3842
sS'mail\x94'
p1010
I1049
sS'spun'
p1011
I3889
sS'rattl'
p1012
I1050
sS'prowl'
p1013
I1945
sS'tell'
p1014
I1053
sS'$230\x94'
p1015
I1054
sS'whiskey'
p1016
I1055
sS'main'
p1017
I4046
sS'zaro'
p1018
I1056
sS'sweet'
p1019
I2890
sS'buying\x94'
p1020
I3958
sS'retir'
p1021
I1059
sS'sealant'
p1022
I2807
sS'later'
p1023
I1681
sS'toss'
p1024
I1063
sS'why\x94'
p1025
I1064
sS'linger'
p1026
I4267
sS'\x93where\x94'
p1027
I1066
sS'roug'
p1028
I3823
sS'whereabout'
p1029
I1067
sS'exist'
p1030
I1068
sS'glanc'
p1031
I1069
sS'ladies\x92'
p1032
I3114
sS'\x93maybe\x94'
p1033
I1070
sS'ship'
p1034
I1071
sS'weeni'
p1035
I2472
sS'check'
p1036
I1073
sS'shit'
p1037
I1074
sS'sticki'
p1038
I1075
sS'floor'
p1039
I1076
sS'dante\x94'
p1040
I1077
sS'stake'
p1041
I1078
sS'dante\x92'
p1042
I1079
sS'ny'
p1043
I1081
sS'test'
p1044
I1084
sS'tie'
p1045
I1085
sS'smell'
p1046
I1086
sS'shrink'
p1047
I767
sS'for\x94'
p1048
I1088
sS'nut\x94'
p1049
I1089
sS'intend'
p1050
I1090
sS'\x93stop'
p1051
I1091
sS'put'
p1052
I2608
sS'felt'
p1053
I1092
sS'notepad'
p1054
I1093
sS'\x93\x91we\x92'
p1055
I1095
sS'fountain\x94'
p1056
I4131
sS'fell'
p1057
I1096
sS'muse'
p1058
I1097
sS'consid'
p1059
I1098
sS'doubl'
p1060
I3469
sS'fornic'
p1061
I1100
sS'19741977'
p1062
I4299
sS'\x93live'
p1063
I3024
sS'derail'
p1064
I2105
sS'\x93hey\x94'
p1065
I1102
sS'femal'
p1066
I1104
sS'what\x94'
p1067
I1105
sS'hands\x94'
p1068
I1106
sS'what\x92'
p1069
I1107
sS'bullet'
p1070
I1108
sS'potato'
p1071
I1109
sS'bottom'
p1072
I938
sS'tomcat'
p1073
I4416
sS'gorilla'
p1074
I1111
sS'lazarus'
p1075
I1113
sS'ignor'
p1076
I1114
sS'so\x94'
p1077
I1115
sS'\x93salesman'
p1078
I1116
sS'time'
p1079
I1117
sS'push'
p1080
I1118
sS'round\x94'
p1081
I1119
sS'backward'
p1082
I1120
sS'daili'
p1083
I1122
sS'passenger\x92'
p1084
I1123
sS'concept'
p1085
I1124
sS'dust\x94'
p1086
I1125
sS'whoever'
p1087
I1126
sS'skip'
p1088
I1127
sS'keep'
p1089
I3715
sS'celebr'
p1090
I1128
sS'focus'
p1091
I1129
sS'invent'
p1092
I1130
sS'known'
p1093
I2400
sS'mild'
p1094
I1133
sS'irregular\x94'
p1095
I367
sS'band\x94'
p1096
I940
sS'skin'
p1097
I1136
sS'shot'
p1098
I1696
sS'chair'
p1099
I1138
sS'skid'
p1100
I1139
sS'row'
p1101
I1140
sS'ballet'
p1102
I785
sS'middl'
p1103
I1142
sS'depend'
p1104
I1143
sS'fire\x94'
p1105
I4241
sS'eleph'
p1106
I943
sS'hump'
p1107
I1145
sS'flash'
p1108
I1146
sS'father'
p1109
I1147
sS'whirl'
p1110
I3834
sS'1944'
p1111
I1148
sS'sucker\x85'
p1112
I1149
sS'else\x94'
p1113
I1150
sS'mind\x94'
p1114
I3856
sS'sing'
p1115
I3417
sS'\x93stand'
p1116
I1152
sS'sucker\x94'
p1117
I1153
sS'brown'
p1118
I1154
sS'stand\x94'
p1119
I1155
sS'sourc'
p1120
I451
sS'\x93amo'
p1121
I31
sS'beautiful\x94'
p1122
I1158
sS'jerk'
p1123
I1159
sS'here\x92'
p1124
I1160
sS'\x91motherfucker\x92\x94'
p1125
I1161
sS'here\x94'
p1126
I1162
sS'trachea\x94'
p1127
I945
sS'\x93becaus'
p1128
I1165
sS'mckelvey'
p1129
I1166
sS'word'
p1130
I1167
sS'\x91probably\x92'
p1131
I441
sS'room'
p1132
I194
sS'pm\x94'
p1133
I1170
sS'dim'
p1134
I1171
sS'temple\x94'
p1135
I1172
sS'say\x94'
p1136
I1173
sS'\x93that\x92'
p1137
I1174
sS'slip'
p1138
I3539
sS'level'
p1139
I1175
sS'did'
p1140
I1176
sS'die'
p1141
I1177
sS'who'
p1142
I3832
sS'dig'
p1143
I1178
sS'i\x92ll'
p1144
I1179
sS'gum'
p1145
I948
sS'item'
p1146
I1181
sS'afterwards\x94'
p1147
I1182
sS'team'
p1148
I1184
sS'drink\x94'
p1149
I1185
sS'lever'
p1150
I1186
sS'\x93\x85death\x94'
p1151
I1187
sS'round'
p1152
I1188
sS'cloudi'
p1153
I1189
sS'i\x92m'
p1154
I3861
sS'shave'
p1155
I1191
sS'upper'
p1156
I1192
sS'questions\x94'
p1157
I1193
sS'regret'
p1158
I1194
sS'lime\x92'
p1159
I1195
sS'tougher'
p1160
I1196
sS'sigh'
p1161
I1198
sS'post\x94'
p1162
I1199
sS'sign'
p1163
I1201
sS'everytim'
p1164
I1202
sS'heavyweight'
p1165
I2683
sS'cost'
p1166
I1204
sS'roof'
p1167
I203
sS'come\x94'
p1168
I1704
sS'vacancy\x94'
p1169
I1208
sS'helpless'
p1170
I1209
sS'fear'
p1171
I344
sS'8\x94'
p1172
I4296
sS'appear'
p1173
I1211
sS'need\x94'
p1174
I2392
sS'bloodsuck'
p1175
I1212
sS'mister'
p1176
I1706
sS'freaki'
p1177
I1215
sS'remain'
p1178
I2414
sS'melt'
p1179
I1217
sS'beginning\x85\x94'
p1180
I1218
sS'sinc'
p1181
I3420
sS'wors'
p1182
I205
sS'sour\x94'
p1183
I474
sS'somalia'
p1184
I1221
sS'wallet\x94'
p1185
I1222
sS'profits\x94'
p1186
I1223
sS'ground'
p1187
I1709
sS'boost'
p1188
I1225
sS'meld'
p1189
I1226
sS'lady\x85\x94'
p1190
I2415
sS'zaronian'
p1191
I1228
sS'pose'
p1192
I959
sS'balconi'
p1193
I4360
sS'wearili'
p1194
I1230
sS'honeydun'
p1195
I1231
sS'\x93fuckinga\x94'
p1196
I1232
sS'\x93mr'
p1197
I1233
sS'gawk'
p1198
I1234
sS'thirsty\x85\x94'
p1199
I1235
sS'water'
p1200
I1236
sS'job\x94'
p1201
I978
sS'\x93mi'
p1202
I1238
sS'address'
p1203
I1239
sS'married\x94'
p1204
I1240
sS'locat'
p1205
I3871
sS'along'
p1206
I1242
sS'\x93uh'
p1207
I3147
sS'\x93there'
p1208
I1244
sS'wait'
p1209
I1245
sS'box'
p1210
I1246
sS'buck'
p1211
I1247
sS'insan'
p1212
I1248
sS'shove'
p1213
I1249
sS'guy'
p1214
I4364
sS'shift'
p1215
I1250
sS'worldwid'
p1216
I1251
sS'husband'
p1217
I1757
sS'\x93play'
p1218
I1252
sS'buddy\x94'
p1219
I1253
sS'daylight\x94'
p1220
I1408
sS'perfect\x94'
p1221
I4418
sS'behav'
p1222
I1255
sS'healthi'
p1223
I1256
sS'corp'
p1224
I966
sS'weird'
p1225
I649
sS'somebody\x92'
p1226
I3436
sS'guilti'
p1227
I1260
sS'pillow'
p1228
I1261
sS'ourselv'
p1229
I1262
sS'patrons\x92'
p1230
I3044
sS'love'
p1231
I1264
sS'extra'
p1232
I1265
sS'jar'
p1233
I3877
sS'prefer'
p1234
I332
sS'vodka'
p1235
I212
sS'swerv'
p1236
I1270
sS'upstair'
p1237
I3878
sS'\x93john'
p1238
I1272
sS'fake'
p1239
I1273
sS'\x93but\x94'
p1240
I1274
sS'pages\x94'
p1241
I1275
sS'sonofabitch'
p1242
I3879
sS'firearm'
p1243
I1277
sS'market'
p1244
I1278
sS'bloodi'
p1245
I1279
sS'franci'
p1246
I1281
sS'andi'
p1247
I1282
sS'earthlings\x94'
p1248
I1284
sS'prove'
p1249
I1285
sS'sake'
p1250
I1286
sS'super'
p1251
I971
sS'\x93i\x92ll\x85\x94'
p1252
I1288
sS'joyous'
p1253
I237
sS'visit'
p1254
I1290
sS'heard\x94'
p1255
I1291
sS'everybodi'
p1256
I1293
sS'live'
p1257
I1294
sS'jam'
p1258
I3881
sS'ass\x85\x94'
p1259
I1295
sS'teeth'
p1260
I2176
sS'tit\x97ran'
p1261
I1296
sS'guy\x94'
p1262
I1297
sS'screech'
p1263
I3431
sS'guy\x92'
p1264
I1298
sS'today'
p1265
I1299
sS'barkeep'
p1266
I1300
sS'plug'
p1267
I972
sS'\x93holi'
p1268
I1302
sS'\x93keep'
p1269
I973
sS'afford'
p1270
I1304
sS'peopl'
p1271
I1305
sS'paid\x94'
p1272
I1306
sS'teaser'
p1273
I1307
sS'drown'
p1274
I1308
sS'\x93rum'
p1275
I1309
sS'examin'
p1276
I1310
sS'socal'
p1277
I2428
sS'\x93sexist'
p1278
I1312
sS'piano'
p1279
I3885
sS'\x93tip'
p1280
I1314
sS'esophagus\x94'
p1281
I1047
sS'car'
p1282
I1316
sS'prepar'
p1283
I1317
sS'pretend'
p1284
I407
sS'\x93jack\x94'
p1285
I1319
sS'soul'
p1286
I1320
sS'\x93known'
p1287
I1321
sS'cat'
p1288
I1322
sS'fli'
p1289
I1323
sS'wallet'
p1290
I1324
sS'hardest'
p1291
I1325
sS'vega'
p1292
I1326
sS'can'
p1293
I1327
sS'9th'
p1294
I1328
sS'tabul'
p1295
I1329
sS'webster'
p1296
I1330
sS'purpos'
p1297
I1331
sS'laughter'
p1298
I1332
sS'\x93huh\x94'
p1299
I1333
sS'heart'
p1300
I1334
sS'want'
p1301
I222
sS'\x93i\x92d'
p1302
I1336
sS'believe\x94'
p1303
I1337
sS'dod\x94'
p1304
I1339
sS'fuck'
p1305
I1341
sS'\x93i\x92m'
p1306
I1343
sS'heard'
p1307
I1344
sS'crazi'
p1308
I1345
sS'drag\x94'
p1309
I1346
sS'chin'
p1310
I86
sS'god\x94'
p1311
I981
sS'council'
p1312
I1349
sS'past'
p1313
I2288
sS'spa'
p1314
I1350
sS'230'
p1315
I1351
sS'occur'
p1316
I1352
sS'occup'
p1317
I1353
sS'pink'
p1318
I1354
sS'subnorm'
p1319
I1355
sS'bleari'
p1320
I1357
sS'get'
p1321
I1729
sS'\x93meet'
p1322
I4413
sS'pine'
p1323
I1359
sS'1'
p1324
I1360
sS'alway'
p1325
I1361
sS'beer\x94'
p1326
I1362
sS'talking\x85\x94'
p1327
I3106
sS'pure'
p1328
I1363
sS'11\x85\x94'
p1329
I1364
sS'\x93then'
p1330
I2687
sS'case\x94'
p1331
I1365
sS'pint'
p1332
I1366
sS'jazz'
p1333
I1731
sS'bulb\x94'
p1334
I1369
sS'tohil'
p1335
I1370
sS'may'
p1336
I1371
sS'spot'
p1337
I1373
sS'know\x94'
p1338
I2440
sS'usabl'
p1339
I1375
sS'dormant'
p1340
I3158
sS'mac'
p1341
I1377
sS'mile'
p1342
I1688
sS'mad'
p1343
I1379
sS'wrong\x94'
p1344
I1381
sS'date'
p1345
I1382
sS'shuffl'
p1346
I1203
sS'suck'
p1347
I1384
sS'way\x94'
p1348
I1733
sS'dove'
p1349
I1386
sS'grow'
p1350
I1387
sS'cute\x94'
p1351
I1388
sS'man'
p1352
I1389
sS'\x93see'
p1353
I1734
sS'frenchman\x94'
p1354
I1391
sS'quickly\x94'
p1355
I1392
sS'neck'
p1356
I531
sS'6th'
p1357
I1394
sS'guess\x94'
p1358
I1396
sS'favorit'
p1359
I1397
sS'avenu'
p1360
I1398
sS'offens'
p1361
I1399
sS'inform'
p1362
I1401
sS'switch'
p1363
I1402
sS'cindy\x97wel'
p1364
I1403
sS'so'
p1365
I1404
sS'swollen'
p1366
I976
sS'basket'
p1367
I1406
sS'tall'
p1368
I1407
sS'19811984'
p1369
I1409
sS'talk'
p1370
I1410
sS'subnormal\x94'
p1371
I1411
sS'selection\x94'
p1372
I755
sS'cute'
p1373
I3855
sS'19781994'
p1374
I1414
sS'stilt'
p1375
I1415
sS'\x93onehundredseventyf'
p1376
I1416
sS'gradual'
p1377
I1417
sS'footstep'
p1378
I1418
sS'haircut'
p1379
I1419
sS'blare'
p1380
I1420
sS'kong'
p1381
I1421
sS'brain'
p1382
I1422
sS'\x93and'
p1383
I1423
sS'bass\x92'
p1384
I1424
sS'shake'
p1385
I1426
sS'\x93listen'
p1386
I1427
sS'cold'
p1387
I1428
sS'yes\x94'
p1388
I1429
sS'canari'
p1389
I1430
sS'jock'
p1390
I281
sS'aren\x92t'
p1391
I1432
sS'thank'
p1392
I1433
sS'been\x85\x94'
p1393
I4081
sS'gentleman\x94'
p1394
I1435
sS'walnut\x94'
p1395
I1380
sS'punk\x94'
p1396
I1437
sS'speaking\x85\x94'
p1397
I1438
sS'car\x94'
p1398
I1439
sS'window'
p1399
I1441
sS'stroll'
p1400
I1740
sS'thump'
p1401
I1444
sS'mail'
p1402
I1445
sS'swastika'
p1403
I1446
sS'\x93we\x92r'
p1404
I1447
sS'apron'
p1405
I1448
sS'tonic'
p1406
I1449
sS'\x93what'
p1407
I1450
sS'lookin\x92'
p1408
I1451
sS'3'
p1409
I1785
sS'nod'
p1410
I1453
sS'sighted\x94'
p1411
I1454
sS'insomnia'
p1412
I1455
sS'initi'
p1413
I1456
sS'nation'
p1414
I1457
sS'lunch'
p1415
I1458
sS'\x93make'
p1416
I1459
sS'\x93we\x92v'
p1417
I3180
sS'half'
p1418
I1461
sS'not'
p1419
I1462
sS'happening\x94'
p1420
I1463
sS'son'
p1421
I1003
sS'hall'
p1422
I1465
sS'nor'
p1423
I1466
sS'reluct'
p1424
I3906
sS'soprano\x94'
p1425
I1468
sS'term'
p1426
I1469
sS'\x93hell'
p1427
I1470
sS'centuri'
p1428
I2973
sS'name'
p1429
I1471
sS'drop'
p1430
I1473
sS'47'
p1431
I4379
sS'feelings\x85\x94'
p1432
I1474
sS'separ'
p1433
I1475
sS'\x93good'
p1434
I1476
sS'magazin'
p1435
I1477
sS'\x93\x91tiein\x92'
p1436
I1478
sS'police\x94'
p1437
I1479
sS'\x93this'
p1438
I1480
sS'pizza'
p1439
I1481
sS'interesting\x94'
p1440
I1483
sS'\x93help'
p1441
I1484
sS'won\x94'
p1442
I1485
sS'somehow\x94'
p1443
I1486
sS'eyelid'
p1444
I1487
sS'eh'
p1445
I1488
sS'desires\x94'
p1446
I3867
sS'yeah'
p1447
I1489
sS'\x93haven\x92t'
p1448
I144
sS'wrap'
p1449
I680
sS'hawaii\x94'
p1450
I1492
sS'harpercollin'
p1451
I1494
sS'year'
p1452
I1495
sS'prostitut'
p1453
I1496
sS'happen'
p1454
I1497
sS'dollars\x94'
p1455
I1498
sS'buzz'
p1456
I2877
sS'\x93fix'
p1457
I1500
sS'hal\x94'
p1458
I1501
sS'3rd'
p1459
I1502
sS'space'
p1460
I1503
sS'heavili'
p1461
I4147
sS'thirst'
p1462
I1504
sS'flesh'
p1463
I4137
sS'personally\x94'
p1464
I1505
sS'bitch'
p1465
I3732
sS'void'
p1466
I1506
sS'luke\x94'
p1467
I1507
sS'no\x94'
p1468
I1508
sS'sensor'
p1469
I1509
sS'correct'
p1470
I1510
sS'3day'
p1471
I1511
sS'coffe'
p1472
I4108
sS'and\x94'
p1473
I3734
sS'1995'
p1474
I1513
sS'trouble\x94'
p1475
I1514
sS'envelop'
p1476
I1515
sS'cart'
p1477
I1516
sS'exactly\x94'
p1478
I3919
sS'\x93veri'
p1479
I118
sS'doubt\x94'
p1480
I1518
sS'offer\x94'
p1481
I1519
sS'last\x85\x94'
p1482
I4344
sS'7785'
p1483
I149
sS'abner'
p1484
I2430
sS'card'
p1485
I1523
sS'care'
p1486
I1524
sS'there\x85\x94'
p1487
I2479
sS'underwear'
p1488
I174
sS'glory\x94'
p1489
I3922
sS'amos\x94'
p1490
I928
sS'1994'
p1491
I3932
sS'waiter'
p1492
I204
sS'dunno'
p1493
I1530
sS'punk'
p1494
I1531
sS'\x93mayb'
p1495
I1532
sS'refus'
p1496
I1533
sS'honest'
p1497
I226
sS'motion'
p1498
I1535
sS'motion\x94'
p1499
I1072
sS'place'
p1500
I1537
sS'swine'
p1501
I1538
sS'swing'
p1502
I1539
sS'turf'
p1503
I1540
sS'bird\x94'
p1504
I1541
sS'turd'
p1505
I269
sS'nicknam'
p1506
I1543
sS'childhood'
p1507
I275
sS'\x93luke'
p1508
I283
sS'blind'
p1509
I1546
sS'buzzer'
p1510
I3925
sS'bad\x94'
p1511
I1548
sS'\x9360\x94'
p1512
I1549
sS'soda\x94'
p1513
I318
sS'onc'
p1514
I1551
sS'\x93the'
p1515
I1553
sS'\x93get'
p1516
I1554
sS'yourself'
p1517
I345
sS'stairway'
p1518
I4242
sS'fast'
p1519
I2092
sS'law\x94'
p1520
I14
sS'\x93we\x92ll'
p1521
I1559
sS'ring'
p1522
I1560
sS'drove'
p1523
I1561
sS'open'
p1524
I1562
sS'tomorrow'
p1525
I1563
sS'size'
p1526
I1564
sS'urin'
p1527
I1565
sS'given'
p1528
I1566
sS'boulevard'
p1529
I1567
sS'christma'
p1530
I1083
sS'convent'
p1531
I1570
sS'bet\x94'
p1532
I419
sS'beerspit'
p1533
I1572
sS'bite'
p1534
I631
sS'slept'
p1535
I1574
sS'\x93burnt'
p1536
I1576
sS'carson'
p1537
I1577
sS'citi'
p1538
I1578
sS'jugs\x94'
p1539
I324
sS'shiver'
p1540
I463
sS'averag'
p1541
I1581
sS'escort'
p1542
I472
sS'white'
p1543
I1583
sS'friend'
p1544
I1585
sS'bitpart'
p1545
I3203
sS'not\x94'
p1546
I1587
sS'funer'
p1547
I3931
sS'alone\x94'
p1548
I1183
sS'that'
p1549
I1589
sS'\x93spell'
p1550
I537
sS'idea\x94'
p1551
I542
sS'copi'
p1552
I1592
sS'huh'
p1553
I1593
sS'snatch'
p1554
I1594
sS'\x93great\x94'
p1555
I1595
sS'butt'
p1556
I584
sS'floppi'
p1557
I1598
sS'peck'
p1558
I595
sS'holder'
p1559
I1600
sS'than'
p1560
I1601
sS'serv'
p1561
I287
sS'wide'
p1562
I612
sS'\x93these'
p1563
I617
sS'12'
p1564
I1606
sS'#8\x94'
p1565
I622
sS'14'
p1566
I1608
sS'17'
p1567
I1609
sS'16'
p1568
I1610
sS'19'
p1569
I1611
sS'18'
p1570
I1612
sS'gotta'
p1571
I1613
sS'wasn\x92t'
p1572
I669
sS'glide'
p1573
I2509
sS'quicksilv'
p1574
I1615
sS'were'
p1575
I1616
sS'posit'
p1576
I1617
sS'matter\x85\x94'
p1577
I1618
sS'sell\x94'
p1578
I1619
sS'hopping\x94'
p1579
I1620
sS'and'
p1580
I1621
sS'lick'
p1581
I1622
sS'san'
p1582
I1623
sS'sam'
p1583
I726
sS'aunt\x94'
p1584
I1625
sS'sag'
p1585
I748
sS'anywher'
p1586
I752
sS'slap'
p1587
I1628
sS'sad'
p1588
I1629
sS'dash'
p1589
I1630
sS'say'
p1590
I1631
sS'slam'
p1591
I1632
sS'comedian'
p1592
I1633
sS'rent'
p1593
I1634
sS'made'
p1594
I4334
sS'deliv'
p1595
I1635
sS'anger'
p1596
I1636
sS'breakfast'
p1597
I1637
sS'saw'
p1598
I1638
sS'sparrow\x92'
p1599
I3935
sS'sat'
p1600
I1640
sS'caus'
p1601
I2478
sS'\x93600'
p1602
I1642
sS'engin'
p1603
I1643
sS'battery\x85\x94'
p1604
I1644
sS'advic'
p1605
I1645
sS'aunt\x92'
p1606
I1646
sS'note'
p1607
I1647
sS'berni'
p1608
I870
sS'\x93just'
p1609
I1650
sS'take'
p1610
I1651
sS'advis'
p1611
I1652
sS'destroy'
p1612
I1653
sS'wonder'
p1613
I1774
sS'noth'
p1614
I1655
sS'anymore\x94'
p1615
I1656
sS'closer'
p1616
I3938
sS'betty\x94'
p1617
I1013
sS'sure'
p1618
I1659
sS'prick'
p1619
I933
sS'earth\x94'
p1620
I1661
sS'normal'
p1621
I1662
sS'track'
p1622
I1663
sS'price'
p1623
I1664
sS'the32'
p1624
I1499
sS'entranc'
p1625
I3940
sS'zigzag'
p1626
I967
sS'butterfli'
p1627
I1667
sS'don\x92t\x94'
p1628
I1668
sS'assault'
p1629
I1669
sS'forever\x94'
p1630
I2994
sS'20%'
p1631
I1670
sS'frig'
p1632
I1005
sS'shoetop'
p1633
I1008
sS'bit\x94'
p1634
I1673
sS'\x93but'
p1635
I1674
sS'saunter'
p1636
I1675
sS'\x93franc'
p1637
I3049
sS'closer\x94'
p1638
I1677
sS'\x93beyond'
p1639
I1057
sS'napkin'
p1640
I1062
sS'drive'
p1641
I1683
sS'tooth'
p1642
I1367
sS'meanwhil'
p1643
I1685
sS'much\x94'
p1644
I1686
sS'potatoes\x94'
p1645
I1687
sS'babbl'
p1646
I1690
sS'hungri'
p1647
I1691
sS'on\x94'
p1648
I1692
sS'diaper'
p1649
I1693
sS'shop'
p1650
I1694
sS'man\x92'
p1651
I1695
sS'man\x94'
p1652
I1137
sS'show'
p1653
I1697
sS'german'
p1654
I1698
sS'cheap'
p1655
I1699
sS'yawn'
p1656
I3160
sS'\x93luke\x85\x94'
p1657
I1700
sS'shoe'
p1658
I1701
sS'permiss'
p1659
I1702
sS'hack'
p1660
I1703
sS'corner'
p1661
I1207
sS'present'
p1662
I4044
sS'unfinish'
p1663
I1213
sS'contemporari'
p1664
I1707
sS'fifth'
p1665
I1708
sS'trot'
p1666
I1224
sS'can\x92t'
p1667
I1710
sS'onli'
p1668
I1711
sS'slow'
p1669
I1237
sS'dice'
p1670
I1713
sS'\x93can'
p1671
I1714
sS'true'
p1672
I1715
sS'plume'
p1673
I1716
sS'dick'
p1674
I1717
sS'the45'
p1675
I1271
sS'gulp'
p1676
I1721
sS'wench'
p1677
I2639
sS'sucker'
p1678
I2532
sS'black'
p1679
I1722
sS'daylight'
p1680
I4215
sS'dizzy\x85what'
p1681
I3954
sS'day\x94'
p1682
I1724
sS'surviv'
p1683
I3639
sS'53rd'
p1684
I1726
sS'turkey\x94'
p1685
I3904
sS'suspect\x94'
p1686
I1728
sS'psychiatrist'
p1687
I1358
sS'lou\x94'
p1688
I1730
sS'samuel'
p1689
I1368
sS'officer\x94'
p1690
I2718
sS'midriff'
p1691
I1732
sS'230\x94'
p1692
I1051
sS'moon\x94'
p1693
I1390
sS'factotum'
p1694
I1735
sS'lighter'
p1695
I1736
sS'deck\x94'
p1696
I1737
sS'\x93sammy\x94'
p1697
I235
sS'neither'
p1698
I3953
sS'requir'
p1699
I1443
sS'truli'
p1700
I1741
sS'prime'
p1701
I1742
sS'reveal'
p1702
I1743
sS'artist'
p1703
I59
sS'leather'
p1704
I1747
sS'saliva'
p1705
I1748
sS'mckelvey\x94'
p1706
I1749
sS'greengray'
p1707
I1750
sS'stupid'
p1708
I1751
sS'doing\x94'
p1709
I1752
sS'nostril'
p1710
I1753
sS'\x93fill'
p1711
I1754
sS'\x93\x91fruition\x92\x94'
p1712
I1755
sS'where'
p1713
I1756
sS'collect\x94'
p1714
I314
sS'\x93sometimes\x85\x94'
p1715
I1758
sS'picnic'
p1716
I1759
sS'seen\x94'
p1717
I1760
sS'burst'
p1718
I1761
sS'humans\x94'
p1719
I1763
sS'seat'
p1720
I1599
sS'dunno\x85\x94'
p1721
I1765
sS'\x93him'
p1722
I4304
sS'#9'
p1723
I1767
sS'#8'
p1724
I1400
sS'asleep'
p1725
I1769
sS'joke\x94'
p1726
I297
sS'#3'
p1727
I1771
sS'#7'
p1728
I1773
sS'concern'
p1729
I1654
sS'830'
p1730
I1775
sS'detect'
p1731
I1776
sS'candy\x94'
p1732
I1777
sS'smishstick'
p1733
I1778
sS'hollywood\x94'
p1734
I3959
sS'glaze'
p1735
I1780
sS'\x93experience\x94'
p1736
I1781
sS'6th\x94'
p1737
I1782
sS'\x93spat'
p1738
I1784
sS'glorious'
p1739
I3994
sS'behind'
p1740
I1718
sS'between'
p1741
I1786
sS'import'
p1742
I1787
sS'across'
p1743
I1788
sS'hairs\x94'
p1744
I1789
sS'noisi'
p1745
I4255
sS'august'
p1746
I1790
sS'crazy\x94'
p1747
I1791
sS'spring'
p1748
I3107
sS'screen'
p1749
I1792
sS'smear'
p1750
I3568
sS'friends\x94'
p1751
I1793
sS'supermarket'
p1752
I1794
sS'\x93hollywood'
p1753
I1795
sS'dummies\x94'
p1754
I1797
sS'pluck'
p1755
I1798
sS'\x92em'
p1756
I1799
sS'\x93didn\x92t'
p1757
I1800
sS'come'
p1758
I1801
sS'she\x92ll'
p1759
I1802
sS'browsing\x85ask'
p1760
I1803
sS'next\x94'
p1761
I1804
sS'fit'
p1762
I309
sS'\x93sure\x94'
p1763
I1808
sS'quiet'
p1764
I1809
sS'confisc'
p1765
I1810
sS'haunch'
p1766
I1811
sS'space\x94'
p1767
I1812
sS'\x93wait'
p1768
I2512
sS'mani'
p1769
I1813
sS'evict'
p1770
I1814
sS'sorry\x94'
p1771
I3542
sS'among'
p1772
I1815
sS'\x93wish'
p1773
I1816
sS'panick'
p1774
I1817
sS'\x93and\x85\x94'
p1775
I1818
sS'color'
p1776
I1819
sS'camcord'
p1777
I1772
sS'period'
p1778
I1821
sS'insist'
p1779
I1822
sS'charge\x94'
p1780
I1823
sS'train\x94'
p1781
I1824
sS'colon'
p1782
I1826
sS'cancel'
p1783
I1827
sS'boat'
p1784
I1829
sS'save'
p1785
I1830
sS'fallen'
p1786
I1831
sS'coupl'
p1787
I1832
sS'\x93of'
p1788
I1833
sS'stretch'
p1789
I1834
sS'west'
p1790
I1584
sS'\x93ok'
p1791
I1836
sS'birth\x94'
p1792
I1837
sS'will'
p1793
I4054
sS'suicid'
p1794
I243
sS'mark'
p1795
I1839
sS'person\x92'
p1796
I101
sS'\x93or'
p1797
I1841
sS'\x93where\x92'
p1798
I1842
sS'carrots\x94'
p1799
I1843
sS'psychiatrist\x92'
p1800
I1845
sS'somebodies\x94'
p1801
I1846
sS'\x93has'
p1802
I1847
sS'won\x92t\x94'
p1803
I1849
sS'she\x85she\x85\x94'
p1804
I2651
sS'\x93tomorrow'
p1805
I1850
sS'blame'
p1806
I1851
sS'thousand'
p1807
I1852
sS'resolut'
p1808
I1853
sS'andrew'
p1809
I1854
sS'19461966'
p1810
I1205
sS'buy\x94'
p1811
I1856
sS'\x93sir\x94'
p1812
I1858
sS'rememb'
p1813
I4388
sS'\x91ladi'
p1814
I1860
sS'former'
p1815
I1861
sS'\x93hal'
p1816
I912
sS'pilot'
p1817
I1863
sS'case'
p1818
I1864
sS'myself'
p1819
I1865
sS'bathroom\x94'
p1820
I1866
sS'these'
p1821
I1867
sS'slumber'
p1822
I1868
sS'virgins\x85'
p1823
I1869
sS'background\x85\x94'
p1824
I1870
sS'straighten'
p1825
I1871
sS'best\x94'
p1826
I2917
sS'trick'
p1827
I1873
sS'career'
p1828
I3980
sS'\x93within'
p1829
I728
sS'now\x85\x94'
p1830
I1876
sS'15%'
p1831
I1877
sS'mound'
p1832
I1878
sS'cock'
p1833
I1879
sS'\x93contact'
p1834
I1880
sS'tiein'
p1835
I1881
sS'asshole\x94'
p1836
I3982
sS'\x93hmmm\x85\x94'
p1837
I1883
sS'room\x94'
p1838
I4272
sS'\x93visa\x94'
p1839
I1884
sS'kitty\x94'
p1840
I1885
sS'endure\x94'
p1841
I1886
sS'worri'
p1842
I1887
sS'halftomato'
p1843
I1888
sS'1894'
p1844
I3258
sS'sudden'
p1845
I1890
sS'\x93pardon'
p1846
I1891
sS'dundee\x92'
p1847
I2579
sS'nofault'
p1848
I2529
sS'shrinks\x94'
p1849
I3259
sS'pat'
p1850
I1895
sS'\x93ha\x94'
p1851
I1896
sS'doctor'
p1852
I1897
sS'somewhere\x85i\x92l'
p1853
I1898
sS'pay'
p1854
I1899
sS'$25'
p1855
I1900
sS'doorway'
p1856
I3987
sS'same'
p1857
I1902
sS'trip'
p1858
I1903
sS'gentlemen'
p1859
I1904
sS'ya'
p1860
I2531
sS'pad'
p1861
I1907
sS'photo\x94'
p1862
I1908
sS'moment\x85\x94'
p1863
I1909
sS'\x93your'
p1864
I3261
sS'care\x94'
p1865
I1911
sS'oil'
p1866
I1040
sS'pornograph'
p1867
I1913
sS'art\x94'
p1868
I1914
sS'sideway'
p1869
I1915
sS'nest'
p1870
I1917
sS'assist'
p1871
I1918
sS'someon'
p1872
I2602
sS'preced'
p1873
I3819
sS'blackmail\x94'
p1874
I1920
sS'fruit'
p1875
I1921
sS'mcculler'
p1876
I1922
sS'jerk\x94'
p1877
I1923
sS'\x93two'
p1878
I1924
sS'handsom'
p1879
I1259
sS'drain'
p1880
I1928
sS'reliev'
p1881
I1929
sS'i\x92ll\x85\x94'
p1882
I1930
sS'no'
p1883
I1931
sS'hustl'
p1884
I1932
sS'without'
p1885
I1933
sS'31'
p1886
I3429
sS'halfastr'
p1887
I1934
sS'somebodi'
p1888
I2534
sS'model'
p1889
I1936
sS'coke\x94'
p1890
I1937
sS'\x93you'
p1891
I1938
sS'playsuit'
p1892
I1939
sS'\x93forget'
p1893
I1940
sS'summer'
p1894
I1941
sS'215'
p1895
I1942
sS'affair'
p1896
I1943
sS'execut'
p1897
I1944
sS'tip'
p1898
I373
sS'neon'
p1899
I1948
sS'rest'
p1900
I1949
sS'pocket\x94'
p1901
I1951
sS'violent'
p1902
I1952
sS'johnny\x94'
p1903
I1953
sS'kill'
p1904
I1954
sS'\x93barkeep\x94'
p1905
I1955
sS'touch'
p1906
I1956
sS'speed'
p1907
I1957
sS'halfway'
p1908
I1958
sS'blow'
p1909
I1959
sS'sure\x85\x94'
p1910
I1961
sS'death'
p1911
I1962
sS'uncap'
p1912
I1964
sS'nick'
p1913
I3266
sS'rose'
p1914
I1965
sS'\x93who\x94'
p1915
I1966
sS'bobbi'
p1916
I1967
sS'senseless'
p1917
I640
sS'except'
p1918
I1969
sS'littl'
p1919
I1970
sS'complain'
p1920
I2537
sS'know\x85\x94'
p1921
I1972
sS'mann'
p1922
I1973
sS'bank'
p1923
I1018
sS'exercis'
p1924
I1975
sS'stopwatch'
p1925
I1976
sS'struck'
p1926
I1977
sS'heavier'
p1927
I1978
sS'and\x85what'
p1928
I1979
sS'pot'
p1929
I1820
sS'kingdom'
p1930
I427
sS'hover'
p1931
I1982
sS'out\x94'
p1932
I1983
sS'around'
p1933
I1984
sS'amo'
p1934
I1985
sS'gloom'
p1935
I1986
sS'read'
p1936
I1987
sS'\x93stiff'
p1937
I1988
sS'nitro\x85\x94'
p1938
I4368
sS'mop'
p1939
I1989
sS'$475'
p1940
I1990
sS'gonna'
p1941
I1991
sS'dart'
p1942
I1992
sS'dark'
p1943
I1993
sS'sonata\x94'
p1944
I1994
sS'traffic'
p1945
I1995
sS'pop'
p1946
I2635
sS'grammar'
p1947
I1997
sS'snare'
p1948
I1998
sS'execution'
p1949
I1999
sS'excret'
p1950
I2000
sS'dare'
p1951
I1058
sS'divorc'
p1952
I2002
sS'etc'
p1953
I3986
sS'roulett'
p1954
I2003
sS'towel'
p1955
I2004
sS'\x93balloons\x94'
p1956
I2005
sS'tv\x94'
p1957
I2006
sS'\x93hang'
p1958
I2007
sS'\x93you\x92ll'
p1959
I2009
sS'roll'
p1960
I2010
sS'cowboy\x94'
p1961
I2011
sS'chamber'
p1962
I2012
sS'either'
p1963
I2013
sS'view'
p1964
I3924
sS'think\x94'
p1965
I2014
sS'tic'
p1966
I2015
sS'manag'
p1967
I2016
sS'facsimil'
p1968
I3852
sS'bones\x94'
p1969
I2018
sS'doll'
p1970
I2019
sS'either\x94'
p1971
I2020
sS'polo'
p1972
I2021
sS'lefthanded\x94'
p1973
I647
sS'id'
p1974
I797
sS'telephone\x85\x94'
p1975
I325
sS'mocked\x94'
p1976
I2024
sS'gross'
p1977
I2025
sS'slice'
p1978
I2026
sS'cookoff'
p1979
I2027
sS'both'
p1980
I2868
sS'demise\x94'
p1981
I1746
sS'\x93freez'
p1982
I507
sS'definit'
p1983
I2030
sS'legal'
p1984
I2031
sS'moon'
p1985
I2032
sS'stakeout\x94'
p1986
I2033
sS'exit'
p1987
I2034
sS'unbeliev'
p1988
I2035
sS'linoleum'
p1989
I2036
sS'nights\x94'
p1990
I2037
sS'others\x97deja'
p1991
I1689
sS'knife'
p1992
I2039
sS'woman\x94'
p1993
I2040
sS'tony\x92'
p1994
I2041
sS'tony\x94'
p1995
I2042
sS'woman\x92'
p1996
I2043
sS'raincoat'
p1997
I2044
sS'throb'
p1998
I2045
sS'garbag'
p1999
I2046
sS'broken'
p2000
I2048
sS'let\x92'
p2001
I2049
sS'found'
p2002
I2550
sS'\x93me'
p2003
I2900
sS'slowli'
p2004
I4016
sS'hereinaft'
p2005
I2053
sS'dick\x94'
p2006
I2054
sS'frenchman'
p2007
I20
sS'necess'
p2008
I2536
sS'on'
p2009
I2056
sS'stone'
p2010
I2057
sS'\x93cheep\x94'
p2011
I2058
sS'ok'
p2012
I2059
sS'gate\x94'
p2013
I2060
sS'oh'
p2014
I2061
sS'roar'
p2015
I2062
sS'of'
p2016
I2063
sS'ach'
p2017
I2064
sS'address\x94'
p2018
I2065
sS'drag'
p2019
I3282
sS'acm'
p2020
I2067
sS'side'
p2021
I364
sS'chop'
p2022
I83
sS'stand'
p2023
I2070
sS'neighbor'
p2024
I2071
sS'\x93oh'
p2025
I1835
sS'ow'
p2026
I1200
sS'luck'
p2027
I2074
sS'backup'
p2028
I2075
sS'or'
p2029
I2076
sS'road'
p2030
I2077
sS'heater'
p2031
I2078
sS'sick\x94'
p2032
I2081
sS'schmantz'
p2033
I4390
sS'mari'
p2034
I1838
sS'playground'
p2035
I2084
sS'homeless'
p2036
I2085
sS'strip'
p2037
I2086
sS'\x93on'
p2038
I2087
sS'your'
p2039
I2088
sS'peek\x94'
p2040
I2089
sS'chinaski'
p2041
I2090
sS'breath'
p2042
I1840
sS'you\x85\x94'
p2043
I4270
sS'log'
p2044
I2093
sS'her'
p2045
I2094
sS'area'
p2046
I2095
sS'there'
p2047
I2096
sS'hey'
p2048
I2097
sS'los'
p2049
I707
sS'starv'
p2050
I2100
sS'low'
p2051
I2101
sS'lot'
p2052
I2102
sS'rome\x94'
p2053
I2211
sS'premis'
p2054
I2104
sS'heh'
p2055
I2106
sS'brand\x94'
p2056
I2107
sS'billion'
p2057
I2108
sS'bottl'
p2058
I2109
sS'enough'
p2059
I2110
sS'regard'
p2060
I888
sS'concess'
p2061
I2112
sS'more\x85\x94'
p2062
I2113
sS'http//wwwharpercollinsebookscom'
p2063
I2115
sS'preselect'
p2064
I2116
sS'\x93and\x94'
p2065
I2117
sS'instrument/'
p2066
I2118
sS'walkway'
p2067
I2120
sS'with'
p2068
I2121
sS'fool\x94'
p2069
I2122
sS'seconds\x94'
p2070
I4234
sS'longer'
p2071
I2123
sS'18911961'
p2072
I2124
sS'pull'
p2073
I2125
sS'hire'
p2074
I2126
sS'dirti'
p2075
I2127
sS'stanford'
p2076
I2128
sS'\x93old'
p2077
I2129
sS'itself\x94'
p2078
I2130
sS'toilet'
p2079
I3998
sS'walk\x94'
p2080
I3939
sS'grasp'
p2081
I2133
sS'move\x94'
p2082
I2134
sS'pulp'
p2083
I2135
sS'puls'
p2084
I2136
sS'connect'
p2085
I2562
sS'aa'
p2086
I2138
sS'eye\x85\x94'
p2087
I1338
sS'hadn\x92t'
p2088
I2140
sS'course\x94'
p2089
I2563
sS'creat'
p2090
I2142
sS'frighten'
p2091
I2143
sS'am'
p2092
I2145
sS'deep'
p2093
I2146
sS'fellow'
p2094
I2147
sS'as'
p2095
I2148
sS'at'
p2096
I2149
sS'aw'
p2097
I2150
sS'momentarili'
p2098
I2152
sS'sheath'
p2099
I774
sS'jargon'
p2100
I2154
sS'xwive'
p2101
I2155
sS'ass\x92'
p2102
I725
sS'11'
p2103
I1603
sS'beyond'
p2104
I2566
sS'musso\x92'
p2105
I2159
sS'idiot'
p2106
I2160
sS'chaser'
p2107
I3753
sS'rubber'
p2108
I2162
sS'tight'
p2109
I2163
sS'so\x92'
p2110
I1521
sS'5'
p2111
I2165
sS'creeps\x94'
p2112
I2166
sS'agreed\x94'
p2113
I574
sS'accomplishment\x94'
p2114
I1925
sS'you'
p2115
I2169
sS'he\x94'
p2116
I132
sS'lapel'
p2117
I2172
sS'eh\x94'
p2118
I2173
sS'la'
p2119
I3610
sS'he\x92'
p2120
I2174
sS'sublim'
p2121
I2175
sS'\x93befor'
p2122
I880
sS'cat\x92'
p2123
I2178
sS'walking\x94'
p2124
I576
sS'cat\x94'
p2125
I2180
sS'lousy\x94'
p2126
I1855
sS'\x93everyth'
p2127
I2182
sS'brass'
p2128
I2183
sS'\x93like'
p2129
I2184
sS'peac'
p2130
I2186
sS'pool'
p2131
I2187
sS'lipstick'
p2132
I2573
sS'mortuary\x94'
p2133
I2189
sS'land\x94'
p2134
I2190
sS'escal'
p2135
I2191
sS'blinky\x94'
p2136
I2192
sS'wife'
p2137
I4340
sS'then\x97ther'
p2138
I2194
sS'\x93no'
p2139
I2195
sS'uglier'
p2140
I2196
sS'dog'
p2141
I569
sS'mask'
p2142
I2197
sS'hardon'
p2143
I2198
sS'another\x94'
p2144
I2199
sS'moonlight'
p2145
I2200
sS'mass'
p2146
I2202
sS'scare'
p2147
I3720
sS'god'
p2148
I2203
sS'wake'
p2149
I2204
sS'you\x94'
p2150
I2205
sS'\x93kiss'
p2151
I2206
sS'all'
p2152
I2207
sS'creep\x94'
p2153
I2208
sS'forget'
p2154
I2209
sS'pti'
p2155
I17
sS'him\x94'
p2156
I2212
sS'lack'
p2157
I2213
sS'dollar'
p2158
I2214
sS'month'
p2159
I2215
sS'zing'
p2160
I2216
sS'\x93how\x92d'
p2161
I2217
sS'this\x94'
p2162
I4402
sS'\x93doesn\x92t\x94'
p2163
I2219
sS'follow'
p2164
I2220
sS'loll'
p2165
I2580
sS'enamor'
p2166
I2222
sS'children'
p2167
I2223
sS'patienc'
p2168
I3149
sS'auckland'
p2169
I2225
sS'should\x94'
p2170
I296
sS'\x93lost'
p2171
I2227
sS'quiet\x94'
p2172
I2228
sS'stiffs\x94'
p2173
I2229
sS'palac'
p2174
I2230
sS'horn'
p2175
I3831
sS'to'
p2176
I2231
sS'\x93tiger'
p2177
I157
sS'\x93gin'
p2178
I2233
sS'selected\x94'
p2179
I2234
sS'light\x85rocket'
p2180
I166
sS'hour\x94'
p2181
I2236
sS'has\x94'
p2182
I2237
sS'smile'
p2183
I2238
sS'christ\x94'
p2184
I2239
sS'hideous'
p2185
I198
sS'somewhere\x94'
p2186
I2242
sS'introduc'
p2187
I2243
sS'ta'
p2188
I2244
sS'sound'
p2189
I2245
sS'woman'
p2190
I2246
sS'deeper'
p2191
I2247
sS'shut'
p2192
I2248
sS'fals'
p2193
I2249
sS'fuck\x94'
p2194
I2250
sS'reader'
p2195
I2251
sS'fuck\x92'
p2196
I254
sS'fat'
p2197
I2253
sS'saw\x94'
p2198
I2254
sS'army\x94'
p2199
I2585
sS'scout'
p2200
I2256
sS'mechan'
p2201
I282
sS'maybe\x94'
p2202
I2258
sS'fall'
p2203
I292
sS'veri'
p2204
I2260
sS'ticket'
p2205
I2261
sS'fag'
p2206
I316
sS'condition'
p2207
I2263
sS'bookstore\x94'
p2208
I3316
sS'heaven'
p2209
I2267
sS'question\x85\x94'
p2210
I2268
sS'drunk/lik'
p2211
I2269
sS'harri'
p2212
I2270
sS'lisp'
p2213
I2271
sS'semiwealthi'
p2214
I2272
sS'list'
p2215
I2273
sS'stumbl'
p2216
I1134
sS'pussywhip'
p2217
I2275
sS'small'
p2218
I2276
sS'ecco'
p2219
I2277
sS'louie'
p2220
I2278
sS'mother\x94'
p2221
I432
sS'four\x85\x94'
p2222
I3837
sS'neighborhood'
p2223
I2280
sS'briefed\x94'
p2224
I2281
sS'ten'
p2225
I453
sS'\x91nail'
p2226
I2284
sS'ted'
p2227
I2285
sS'faulkner\x92'
p2228
I2286
sS'cash'
p2229
I2287
sS'\x9289'
p2230
I487
sS'liar\x94'
p2231
I491
sS'biolog'
p2232
I494
sS'lawyer'
p2233
I2291
sS'pass'
p2234
I2292
sS'really\x94'
p2235
I2293
sS'further'
p2236
I2294
sS'psycho'
p2237
I3323
sS'jerkoff\x85\x94'
p2238
I2298
sS'excit'
p2239
I2299
sS'waffl'
p2240
I307
sS'dial'
p2241
I554
sS'stood'
p2242
I2302
sS'drill'
p2243
I3514
sS'clock'
p2244
I2303
sS'\x93could'
p2245
I2304
sS'sun'
p2246
I2305
sS'disgusting\x94'
p2247
I2306
sS'stool'
p2248
I583
sS'brief'
p2249
I2308
sS'maybel'
p2250
I2309
sS'milk'
p2251
I2310
sS'crush'
p2252
I2311
sS'seminerv'
p2253
I2312
sS'\x93where'
p2254
I2313
sS'intersect'
p2255
I611
sS'honor\x94'
p2256
I3368
sS'deepli'
p2257
I2315
sS'\x93early\x94'
p2258
I625
sS'method'
p2259
I2317
sS'bestknown'
p2260
I632
sS'outcom'
p2261
I310
sS'\x93nah'
p2262
I2320
sS'\x93grapefruit'
p2263
I2321
sS'full'
p2264
I2322
sS'halfass'
p2265
I2324
sS'mull'
p2266
I2325
sS'\x93drag'
p2267
I667
sS'hallucinating\x94'
p2268
I2327
sS'decid'
p2269
I1141
sS'\x93billi'
p2270
I2329
sS'nake'
p2271
I4239
sS'wild'
p2272
I4057
sS'cockroach'
p2273
I2601
sS'scarlatti'
p2274
I2333
sS'excess'
p2275
I2334
sS'greed'
p2276
I2336
sS'goodby'
p2277
I2337
sS'strong'
p2278
I2338
sS'valu'
p2279
I2339
sS'tomorrow\x94'
p2280
I750
sS'\x93do'
p2281
I4058
sS'ecstat'
p2282
I2343
sS'ahead'
p2283
I2344
sS'buddy\x85\x94'
p2284
I4059
sS'telecast'
p2285
I2348
sS'soldier'
p2286
I800
sS'airport'
p2287
I2350
sS'\x93fine'
p2288
I2351
sS'social'
p2289
I2340
sS'real'
p2290
I1981
sS'shorthand\x94'
p2291
I863
sS'\x93belan'
p2292
I2355
sS'talk\x94'
p2293
I845
sS'steps\x94'
p2294
I2358
sS'grand\x94'
p2295
I2359
sS'eat\x94'
p2296
I2360
sS'this\x85\x94'
p2297
I904
sS'nontransfer'
p2298
I1916
sS'go\x85\x94'
p2299
I2365
sS'\x91i'
p2300
I2366
sS'little\x85ah'
p2301
I2368
sS'10022'
p2302
I2369
sS'dangl'
p2303
I2370
sS'select'
p2304
I2371
sS'charm\x94'
p2305
I2372
sS'comin\x92'
p2306
I2373
sS'\x93please\x94'
p2307
I2374
sS'eye'
p2308
I2375
sS'ripe'
p2309
I1678
sS'1971'
p2310
I2377
sS'petti'
p2311
I2378
sS'faint'
p2312
I2734
sS'regist'
p2313
I999
sS'hours\x94'
p2314
I228
sS'acrobat'
p2315
I2382
sS'error'
p2316
I2957
sS'splash'
p2317
I2383
sS'morn'
p2318
I2384
sS'gorgeous'
p2319
I1039
sS'taken'
p2320
I2386
sS'chicken'
p2321
I3865
sS'kick'
p2322
I4170
sS'brow'
p2323
I2388
sS'more'
p2324
I2389
sS'flat'
p2325
I2390
sS'desir'
p2326
I1197
sS'twentyfour'
p2327
I1385
sS'brisk'
p2328
I1087
sS'act\x94'
p2329
I2394
sS'\x93deja'
p2330
I1103
sS'gentleman'
p2331
I2396
sS'tohil\x94'
p2332
I2397
sS'stick'
p2333
I2398
sS'broke'
p2334
I2399
sS'magnific'
p2335
I1132
sS'compani'
p2336
I2401
sS'doom'
p2337
I2402
sS'glad'
p2338
I2403
sS'town'
p2339
I2404
sS'none'
p2340
I2405
sS'courts\x94'
p2341
I2406
sS'hour'
p2342
I2407
sS'hous'
p2343
I2408
sS'sure\x85suppos'
p2344
I2409
sS'\x91we\x92\x94'
p2345
I666
sS'duet\x94'
p2346
I2411
sS'histori'
p2347
I2412
sS'hogs\x92'
p2348
I2413
sS'number\x94'
p2349
I1216
sS'\x93drop'
p2350
I1227
sS'learn'
p2351
I2416
sS'never\x94'
p2352
I2417
sS'deal\x94'
p2353
I3385
sS'funny\x94'
p2354
I2418
sS'pick'
p2355
I2352
sS'explod'
p2356
I2419
sS'gnaw'
p2357
I2420
sS'jackhammer\x94'
p2358
I2421
sS'\x93punk\x94'
p2359
I2422
sS'watch\x94'
p2360
I2424
sS'a\x85hunch\x85\x94'
p2361
I2425
sS'vw'
p2362
I4072
sS'fellow\x97wa'
p2363
I4288
sS'shard'
p2364
I2426
sS'accept'
p2365
I2427
sS'pessim'
p2366
I1311
sS'pervert\x94'
p2367
I2429
sS'\x93what\x94'
p2368
I1315
sS'intercours'
p2369
I2431
sS'gloomi'
p2370
I1156
sS'weren\x92t'
p2371
I2433
sS'partner'
p2372
I1525
sS'lady\x94'
p2373
I2435
sS'swung'
p2374
I2436
sS'dress'
p2375
I2437
sS'huge'
p2376
I2439
sS'siren'
p2377
I1374
sS'cours'
p2378
I1378
sS'court'
p2379
I2442
sS'\x93an'
p2380
I2443
sS'\x93will'
p2381
I2444
sS'secur'
p2382
I565
sS'gaffey'
p2383
I2446
sS'wouldn\x92t'
p2384
I1405
sS'rye'
p2385
I2448
sS'fruition'
p2386
I2449
sS'goad'
p2387
I2450
sS'\x93jesus'
p2388
I2451
sS'inan'
p2389
I2218
sS'\x93as'
p2390
I2453
sS'\x93let\x92'
p2391
I2454
sS'simpl'
p2392
I2456
sS'\x93at'
p2393
I2457
sS'nothing\x94'
p2394
I2458
sS'plant'
p2395
I2395
sS'tattoo'
p2396
I2460
sS'tough\x94'
p2397
I2461
sS'celine\x92'
p2398
I2462
sS'embrac'
p2399
I2463
sS'blood'
p2400
I2464
sS'gasp'
p2401
I2465
sS'wave'
p2402
I3342
sS'it\x94'
p2403
I2623
sS'shit\x94'
p2404
I2469
sS'a'
p2405
I2470
sS'short'
p2406
I2471
sS'confus'
p2407
I429
sS'want\x94'
p2408
I2474
sS'pucker'
p2409
I2475
sS'crafti'
p2410
I483
sS'assign'
p2411
I2477
sS'hog\x92'
p2412
I1641
sS'wrench'
p2413
I951
sS'shade'
p2414
I2480
sS'cigarett'
p2415
I2481
sS'influenti'
p2416
I2482
sS'shadi'
p2417
I2483
sS'ahead\x94'
p2418
I2484
sS'\x93how\x92ll'
p2419
I968
sS'http//wwwharpercollinsebooksca'
p2420
I2486
sS'imit'
p2421
I2487
sS'poopoo'
p2422
I3686
sS'purchas'
p2423
I4063
sS'\x93space'
p2424
I1575
sS'pant'
p2425
I2489
sS'\x93swore'
p2426
I2490
sS'ahead\x85\x94'
p2427
I2491
sS'soon'
p2428
I2492
sS'america\x92'
p2429
I2493
sS'trade'
p2430
I2494
sS'cook'
p2431
I1596
sS'paper'
p2432
I2496
sS'through'
p2433
I2497
sS'4'
p2434
I1974
sS'hell'
p2435
I2498
sS'eye\x94'
p2436
I3465
sS'\x93care'
p2437
I1783
sS'fulsom'
p2438
I2501
sS'understand\x94'
p2439
I2630
sS'24'
p2440
I2503
sS'25'
p2441
I2504
sS'26'
p2442
I2505
sS'27'
p2443
I2506
sS'20'
p2444
I2507
sS'21'
p2445
I2508
sS'22'
p2446
I1552
sS'23'
p2447
I2510
sS'flea'
p2448
I4143
sS'bunch\x94'
p2449
I1168
sS'they\x92ll'
p2450
I2513
sS'28'
p2451
I2514
sS'29'
p2452
I2515
sS'roof\x94'
p2453
I2516
sS'late'
p2454
I2517
sS'barefoot'
p2455
I2565
sS'house\x94'
p2456
I2518
sS'6\x94'
p2457
I2519
sS'eunuch'
p2458
I2520
sS'cool'
p2459
I2521
sS'might'
p2460
I2522
sS'alter'
p2461
I1872
sS'peni'
p2462
I1875
sS'fool'
p2463
I2525
sS'black\x94'
p2464
I2526
sS'ant'
p2465
I2527
sS'good'
p2466
I2528
sS'return'
p2467
I1892
sS'\x93etch\x85\x94'
p2468
I2530
sS'food'
p2469
I1905
sS'sentenc'
p2470
I664
sS'\x93she\x92'
p2471
I2459
sS'inch'
p2472
I4097
sS'bad\x85\x94'
p2473
I2533
sS'goos'
p2474
I1935
sS'foot'
p2475
I1679
sS'detach'
p2476
I1848
sS'dumplings\x94'
p2477
I1971
sS'yeah\x85\x94'
p2478
I2538
sS'\x93how\x94'
p2479
I3477
sS'\x93belane\x94'
p2480
I4122
sS'goofi'
p2481
I2540
sS'wash'
p2482
I2541
sS'minute\x85\x94'
p2483
I3790
sS'mysteri'
p2484
I2543
sS'tear'
p2485
I2544
sS'\x93so'
p2486
I2545
sS'\x93our'
p2487
I2546
sS'habitu'
p2488
I2547
sS'drink\x85'
p2489
I2548
sS'responsible\x94'
p2490
I2549
sS'fulli'
p2491
I2051
sS'that\x85look'
p2492
I2551
sS'\x93huh'
p2493
I2552
sS'week'
p2494
I2553
sS'mental'
p2495
I2554
sS'weight'
p2496
I2555
sS'fish'
p2497
I2556
sS'hard'
p2498
I2557
sS'idea'
p2499
I2558
sS'realli'
p2500
I2559
sS'heavi'
p2501
I2560
sS'life\x94'
p2502
I1912
sS'expect'
p2503
I2137
sS'fist'
p2504
I2141
sS'guys\x94'
p2505
I2564
sS'into'
p2506
I3178
sS'playful\x94'
p2507
I2151
sS'thing'
p2508
I1536
sS'comic'
p2509
I2567
sS'clarify\x94'
p2510
I2568
sS'\x93money'
p2511
I2170
sS'beers\x94'
p2512
I2570
sS'flower'
p2513
I2179
sS'safeti'
p2514
I2572
sS'ok\x94'
p2515
I2188
sS'join'
p2516
I2574
sS'panties\x94'
p2517
I2575
sS'ryde'
p2518
I2576
sS'\x93ummm\x85\x94'
p2519
I2577
sS'pigeon'
p2520
I2578
sS'publish'
p2521
I398
sS'research'
p2522
I2221
sS'bubbl'
p2523
I2581
sS'fountain'
p2524
I2582
sS'cause\x94'
p2525
I2354
sS'7'
p2526
I2584
sS'print'
p2527
I2255
sS'\x93tommi'
p2528
I2586
sS'highway'
p2529
I2587
sS'jolli'
p2530
I2588
sS'ass'
p2531
I2589
sS'thirtyf'
p2532
I2283
sS'candyass'
p2533
I2591
sS'drink'
p2534
I4105
sS'clue'
p2535
I3317
sS'bass'
p2536
I2593
sS'watched\x94'
p2537
I2594
sS'advanc'
p2538
I2595
sS'pud'
p2539
I2596
sS'upon'
p2540
I4106
sS'#604'
p2541
I2240
sS'gone\x85\x94'
p2542
I2599
sS'guess'
p2543
I2647
sS'leave\x85th'
p2544
I2332
sS'\x93lick'
p2545
I4107
sS'pleasant'
p2546
I2603
sS'quick'
p2547
I2604
sS'reason'
p2548
I2605
sS'all\x94'
p2549
I2606
sS'disneyland'
p2550
I2357
sS'mirag'
p2551
I3367
sS'doll\x94'
p2552
I1682
sS'animals\x85\x94'
p2553
I2609
sS'teach'
p2554
I2610
sS'luger'
p2555
I2611
sS'\x93nicky\x94'
p2556
I1007
sS'chinese\x94'
p2557
I2387
sS'fiat'
p2558
I2614
sS'\x932800'
p2559
I3830
sS'\x93bill'
p2560
I2615
sS'didn\x92t'
p2561
I2618
sS'omin'
p2562
I2619
sS'american'
p2563
I1727
sS'witnesses\x94'
p2564
I2621
sS'deja'
p2565
I2622
sS'unscrambl'
p2566
I2467
sS'mcdonald\x92'
p2567
I2624
sS'clump'
p2568
I868
sS'virgin'
p2569
I1571
sS'\x93harri'
p2570
I2627
sS'feed'
p2571
I2628
sS'lime\x94'
p2572
I2629
sS'notifi'
p2573
I2502
sS'feel'
p2574
I2631
sS'number'
p2575
I2632
sS'tangl'
p2576
I2633
sS'feet'
p2577
I2634
sS'sailor'
p2578
I2542
sS'smaller'
p2579
I2636
sS'done'
p2580
I2637
sS'wish\x94'
p2581
I1602
sS'blank'
p2582
I2640
sS'horribl'
p2583
I2641
sS'philosopher\x94'
p2584
I4178
sS'mist'
p2585
I2571
sS'miss'
p2586
I2643
sS'\x93uhuh'
p2587
I2644
sS'\x93well\x94'
p2588
I2645
sS'moan'
p2589
I2646
sS'eddi'
p2590
I2600
sS'swarm'
p2591
I1342
sS'5th'
p2592
I2649
sS'least'
p2593
I2650
sS'lady\x85lady\x85\x94'
p2594
I460
sS'stori'
p2595
I2652
sS'storm'
p2596
I2653
sS'natur'
p2597
I2654
sS'twenti'
p2598
I2655
sS'huh\x94'
p2599
I2657
sS'brains\x94'
p2600
I2658
sS'service\x94'
p2601
I2659
sS'congeni'
p2602
I2660
sS'weenie\x94'
p2603
I2661
sS'\x93what\x92'
p2604
I2434
sS'cobra\x94'
p2605
I2663
sS'\x93confidenti'
p2606
I2664
sS'bowel'
p2607
I2252
sS'hotel'
p2608
I2666
sS'park'
p2609
I2667
sS'asshol'
p2610
I2668
sS'faulkner'
p2611
I2916
sS'dentist'
p2612
I2669
sS'part'
p2613
I2670
sS'boredom'
p2614
I2671
sS'consult'
p2615
I2672
sS'\x93trade'
p2616
I2673
sS'\x93baby\x94'
p2617
I2316
sS'anoth'
p2618
I2447
sS'kind'
p2619
I2676
sS'b'
p2620
I2677
sS'\x93they'
p2621
I2678
sS'tongue\x94'
p2622
I2679
sS'perfum'
p2623
I2680
sS'age\x94'
p2624
I2681
sS'fight\x94'
p2625
I2682
sS'honey\x94'
p2626
I613
sS'vocal'
p2627
I2684
sS'banana'
p2628
I2685
sS'groceri'
p2629
I2686
sS'see\x85\x94'
p2630
I400
sS'cares\x94'
p2631
I2688
sS'store'
p2632
I2689
sS'\x93i\x92ll'
p2633
I2690
sS'toward'
p2634
I2691
sS'danc'
p2635
I2692
sS'\x93well'
p2636
I2693
sS'\x93anybodi'
p2637
I1712
sS'vacant'
p2638
I2695
sS'together\x94'
p2639
I4092
sS'\x93nick\x94'
p2640
I2696
sS'chipmunk'
p2641
I2697
sS'plead'
p2642
I2698
sS'excreta\x94'
p2643
I2699
sS'\x93same'
p2644
I2700
sS'\x93watcha'
p2645
I2701
sS'expir'
p2646
I2702
sS'604\x94'
p2647
I2703
sS'\x93drink'
p2648
I2080
sS'remember\x94'
p2649
I2705
sS'overweight'
p2650
I3008
sS'sell'
p2651
I2707
sS'mountain'
p2652
I2708
sS'zero'
p2653
I2290
sS'info\x85\x94'
p2654
I2709
sS'cave'
p2655
I2710
sS'minutes\x94'
p2656
I2711
sS'filthy\x94'
p2657
I1210
sS'lit'
p2658
I2713
sS'also'
p2659
I2714
sS'lip'
p2660
I2715
sS'build'
p2661
I1082
sS'pianist'
p2662
I2717
sS'yeah\x94'
p2663
I2665
sS'norm\x94'
p2664
I2720
sS'play'
p2665
I2722
sS'head\x94'
p2666
I2723
sS'reach'
p2667
I2727
sS'react'
p2668
I2728
sS'pain\x94'
p2669
I1280
sS'75'
p2670
I2730
sS'hopeless'
p2671
I2731
sS'charl'
p2672
I2732
sS'70'
p2673
I2733
sS'\x91baby\x92'
p2674
I2735
sS'fattening\x94'
p2675
I2736
sS'charg'
p2676
I2737
sS'\x93celin'
p2677
I2738
sS'give'
p2678
I214
sS'compar'
p2679
I3394
sS'bug'
p2680
I2740
sS'huh\x85\x94'
p2681
I2741
sS'clear'
p2682
I2742
sS'\x93christ'
p2683
I2743
sS'cover'
p2684
I2744
sS'gin'
p2685
I2745
sS'fee\x94'
p2686
I2746
sS'crap\x94'
p2687
I2747
sS'\x93sir'
p2688
I2748
sS'clean'
p2689
I2749
sS'repli'
p2690
I2750
sS'weigh'
p2691
I2751
sS'scholarship'
p2692
I2753
sS'first\x94'
p2693
I2754
sS'knuckl'
p2694
I2755
sS'awesom'
p2695
I2756
sS'\x93$10000'
p2696
I2757
sS'commerc'
p2697
I2758
sS'gold'
p2698
I2759
sS'sparrow'
p2699
I2760
sS'fond'
p2700
I2761
sS'years\x94'
p2701
I2762
sS'\x93aren\x92t'
p2702
I2763
sS'stunner'
p2703
I2764
sS'\x93hmm\x85listen'
p2704
I2765
sS'nodul'
p2705
I2766
sS'uncov'
p2706
I2767
sS'reput'
p2707
I2768
sS'fine'
p2708
I2769
sS'find'
p2709
I2770
sS'giant'
p2710
I2771
sS'leaving\x94'
p2711
I1101
sS'210'
p2712
I2774
sS'pretti'
p2713
I2775
sS'music'
p2714
I2776
sS'wla\x94'
p2715
I2098
sS'ruin'
p2716
I2778
sS'writer'
p2717
I2779
sS'solut'
p2718
I2780
sS'relent'
p2719
I3399
sS'ball'
p2720
I4101
sS'peculiar'
p2721
I2782
sS'handicapped\x94'
p2722
I4086
sS'stronger\x94'
p2723
I2783
sS'money'
p2724
I1946
sS'suspect'
p2725
I1220
sS'mailbag'
p2726
I2787
sS'right\x85wel'
p2727
I2788
sS'unhappi'
p2728
I2789
sS'hip'
p2729
I2790
sS'\x93sleep'
p2730
I2791
sS'those\x94'
p2731
I2792
sS'hit'
p2732
I2793
sS'king'
p2733
I2675
sS'toll\x94'
p2734
I2795
sS'door\x85got'
p2735
I2796
sS'william'
p2736
I3280
sS'express'
p2737
I2797
sS'\x93i\x85\x94'
p2738
I2798
sS'men\x92'
p2739
I2799
sS'famous'
p2740
I2800
sS'jeanni'
p2741
I2801
sS'sons\x94'
p2742
I2802
sS'actress'
p2743
I2367
sS'fingernail'
p2744
I2804
sS'\x93with'
p2745
I2805
sS'him'
p2746
I2806
sS'merci'
p2747
I2841
sS'vodka7'
p2748
I2808
sS'bar\x94'
p2749
I2809
sS'm5r'
p2750
I2810
sS'days\x94'
p2751
I2811
sS'tube\x94'
p2752
I2642
sS'gotten'
p2753
I2814
sS'\x93zip'
p2754
I2815
sS'forster'
p2755
I2816
sS'nowher'
p2756
I2817
sS'rear'
p2757
I3062
sS'brilliant\x94'
p2758
I2818
sS'we\x92r'
p2759
I2820
sS'dant'
p2760
I2821
sS'we\x92v'
p2761
I2822
sS'\x93tony\x92'
p2762
I2823
sS'dump'
p2763
I2824
sS'\x93here\x92'
p2764
I2825
sS'\x93here\x94'
p2765
I2826
sS'sex'
p2766
I2827
sS'see'
p2767
I2828
sS'dumb'
p2768
I2829
sS'are'
p2769
I2830
sS'we\x92d'
p2770
I2831
sS'reserv'
p2771
I1061
sS'refrigerator\x94'
p2772
I2833
sS'arm'
p2773
I2834
sS'\x93everi'
p2774
I2835
sS'struggl'
p2775
I2836
sS'isn\x92t'
p2776
I2837
sS'gain\x94'
p2777
I2838
sS'spiritu'
p2778
I2839
sS'he\x85got'
p2779
I2840
sS'douglas\x94'
p2780
I2523
sS'jenkin'
p2781
I2842
sS'someth'
p2782
I2843
sS'\x93got'
p2783
I2844
sS'crossword'
p2784
I911
sS'\x93three'
p2785
I2846
sS'7\x94'
p2786
I1267
sS'fant'
p2787
I2849
sS'cheap\x94'
p2788
I2850
sS'cutout'
p2789
I2851
sS'thrive'
p2790
I2852
sS'piss'
p2791
I2853
sS'redsdal'
p2792
I4152
sS'sniff'
p2793
I3979
sS'bibl'
p2794
I2854
sS'goddamn'
p2795
I2855
sS'sold'
p2796
I2856
sS'\x93betti'
p2797
I2857
sS'isol'
p2798
I1906
sS'billy\x94'
p2799
I2859
sS'outfit'
p2800
I2860
sS'hill'
p2801
I2861
sS'\x93sometim'
p2802
I2862
sS'french'
p2803
I2863
sS'percent'
p2804
I3057
sS'solv'
p2805
I2864
sS'purpl'
p2806
I2865
sS'\x93david'
p2807
I2866
sS'popul'
p2808
I2867
sS'mark\x94'
p2809
I1950
sS'last'
p2810
I2869
sS'cash\x94'
p2811
I2870
sS'alon'
p2812
I2871
sS'\x93place'
p2813
I2872
sS'weeks\x94'
p2814
I2873
sS'alive\x94'
p2815
I2874
sS'\x93hmm\x94'
p2816
I2875
sS'it\x85now'
p2817
I2876
sS'forgotten'
p2818
I935
sS'\x93disgusting\x94'
p2819
I2878
sS'centuries\x94'
p2820
I2879
sS'whole'
p2821
I2880
sS'blaze'
p2822
I3333
sS'load'
p2823
I2882
sS'snubnos'
p2824
I2883
sS'\x93so\x94'
p2825
I2885
sS'mind\x85\x94'
p2826
I2886
sS'martel\x94'
p2827
I2887
sS'\x93never'
p2828
I2694
sS'hmm\x85\x94'
p2829
I2889
sS'\x93who\x92'
p2830
I1968
sS'loan'
p2831
I2891
sS'chicken\x94'
p2832
I2892
sS'consumm'
p2833
I2893
sS'decompil'
p2834
I2894
sS'pm'
p2835
I4348
sS'fashion'
p2836
I2895
sS'hangov'
p2837
I2896
sS'suppli'
p2838
I2897
sS'away\x94'
p2839
I2898
sS'charges\x94'
p2840
I2899
sS'dream'
p2841
I2485
sS'communiti'
p2842
I2901
sS'belt'
p2843
I2902
sS'breast'
p2844
I3594
sS'horse\x94'
p2845
I2445
sS'help'
p2846
I2488
sS'begin\x94'
p2847
I2050
sS'due'
p2848
I2906
sS'empti'
p2849
I2907
sS'teacher'
p2850
I1579
sS'they\x92d'
p2851
I2909
sS'\x93like\x94'
p2852
I2910
sS'secret'
p2853
I2911
sS'use\x94'
p2854
I2912
sS'damn'
p2855
I2913
sS'checkbook'
p2856
I2914
sS'where\x94'
p2857
I1739
sS'brick'
p2858
I847
sS'silenc'
p2859
I1493
sS'panamerican'
p2860
I2918
sS'po'
p2861
I2345
sS'\x93green'
p2862
I2920
sS'where\x92'
p2863
I1825
sS'\x93say'
p2864
I2922
sS'\x93jeannie\x94'
p2865
I2923
sS'\x93well\x85she\x92'
p2866
I2924
sS'minc'
p2867
I2925
sS'flight'
p2868
I2926
sS'taken\x85\x94'
p2869
I2927
sS'boy'
p2870
I2928
sS'fire'
p2871
I2929
sS'driver\x92'
p2872
I2111
sS'gat'
p2873
I2931
sS'gas'
p2874
I2932
sS'great'
p2875
I3422
sS'maid\x94'
p2876
I2934
sS'wannab'
p2877
I2935
sS'people\x94'
p2878
I2936
sS'gal'
p2879
I2937
sS'understand'
p2880
I2938
sS'liver'
p2881
I2939
sS'\x93ladi'
p2882
I2940
sS'gag'
p2883
I2941
sS'stinks\x94'
p2884
I2943
sS'loom'
p2885
I2944
sS'fur'
p2886
I2945
sS'look'
p2887
I2946
sS'\x93pleas'
p2888
I3525
sS'frozen'
p2889
I2947
sS'ski'
p2890
I4168
sS'straight'
p2891
I2949
sS'bill'
p2892
I2950
sS'pill'
p2893
I1980
sS'rope'
p2894
I2951
sS'33'
p2895
I3427
sS'while'
p2896
I2953
sS'\x93paid'
p2897
I2954
sS'ought'
p2898
I2955
sS'abov'
p2899
I100
sS'mortician'
p2900
I383
sS'fun'
p2901
I2958
sS'john\x85\x94'
p2902
I2959
sS'jeannie\x85\x94'
p2903
I115
sS'loos'
p2904
I2961
sS'pack'
p2905
I2962
sS'outmaneuv'
p2906
I134
sS'touchkey'
p2907
I2964
sS'pound'
p2908
I2965
sS'\x93is'
p2909
I4391
sS'blond'
p2910
I2966
sS'readi'
p2911
I2967
sS'vacat'
p2912
I2968
sS'\x93come'
p2913
I2969
sS'rip'
p2914
I2970
sS'and\x85billi'
p2915
I2971
sS'namepl'
p2916
I2972
sS'\x93jeanni'
p2917
I2704
sS'there\x94'
p2918
I2974
sS'cage\x94'
p2919
I2975
sS'rid'
p2920
I2976
sS'vanish'
p2921
I2977
sS'dedic'
p2922
I2978
sS'there\x92'
p2923
I2979
sS'chase'
p2924
I2980
sS'fun\x94'
p2925
I2982
sS'\x93bernie\x94'
p2926
I257
sS'\x93wouldn\x92t'
p2927
I2984
sS'shirt'
p2928
I2985
sS'grant'
p2929
I1340
sS'\x93acm'
p2930
I2987
sS'decoy'
p2931
I2017
sS'dye'
p2932
I1738
sS'belong'
p2933
I2989
sS'butcher'
p2934
I2990
sS'shorter'
p2935
I2991
sS'funni'
p2936
I2992
sS'live\x94'
p2937
I320
sS'race\x94'
p2938
I2995
sS'grand'
p2939
I2996
sS'9'
p2940
I2997
sS'ray'
p2941
I2998
sS'town\x94'
p2942
I2999
sS'price\x94'
p2943
I363
sS'lid'
p2944
I3001
sS'hittin\x92'
p2945
I3002
sS'itch'
p2946
I385
sS'imagin'
p2947
I3004
sS'\x93suck'
p2948
I390
sS'ladi'
p2949
I3006
sS'cigar'
p2950
I3007
sS'compart'
p2951
I2432
sS'who\x92'
p2952
I3009
sS'estat'
p2953
I2079
sS'popcorn'
p2954
I3439
sS'moment'
p2955
I3011
sS'temporari'
p2956
I3012
sS'uncoil'
p2957
I3013
sS'bob'
p2958
I1258
sS'recent'
p2959
I3016
sS'postag'
p2960
I3017
sS'lower'
p2961
I3018
sS'task'
p2962
I476
sS'\x93know'
p2963
I3020
sS'machineri'
p2964
I3021
sS'older'
p2965
I3023
sS'bod'
p2966
I2181
sS'cheek'
p2967
I3025
sS'\x93ummm\x85whi'
p2968
I3026
sS'person'
p2969
I3027
sS'cheer'
p2970
I533
sS'gunfir'
p2971
I3029
sS'\x93shut'
p2972
I3030
sS'picki'
p2973
I3031
sS'withdraw'
p2974
I549
sS'grip'
p2975
I2963
sS'\x93what\x92ll'
p2976
I3033
sS'buster\x94'
p2977
I3034
sS'tast'
p2978
I566
sS'spend'
p2979
I2193
sS'can\x92t\x94'
p2980
I3037
sS'butthol'
p2981
I3038
sS'hahaha\x94'
p2982
I3039
sS'is\x85th'
p2983
I591
sS'\x93brewster'
p2984
I3658
sS'desk'
p2985
I4186
sS'4th'
p2986
I3041
sS'\x93deja\x94'
p2987
I3042
sS'shape'
p2988
I3043
sS'good\x85'
p2989
I3045
sS'loaner'
p2990
I3022
sS'\x93clue'
p2991
I3047
sS'women\x92'
p2992
I3048
sS'couch'
p2993
I2712
sS'women\x94'
p2994
I662
sS'desserts\x85you\x92v'
p2995
I3051
sS'\x93date'
p2996
I3052
sS'cut'
p2997
I3053
sS'it\x92'
p2998
I2625
sS'moist'
p2999
I3054
sS'illinois\x94'
p3000
I3055
sS'eeri'
p3001
I3056
sS'forster\x94'
p3002
I710
sS'too\x94'
p3003
I3058
sS'\x93heh'
p3004
I3059
sS'grim'
p3005
I3060
sS'grapefruit'
p3006
I3061
sS'grin'
p3007
I2001
sS'snap'
p3008
I3063
sS'\x93kill'
p3009
I3064
sS'useless'
p3010
I2716
sS'\x91whi'
p3011
I3066
sS'unsheath'
p3012
I3067
sS'australia'
p3013
I2224
sS'march'
p3014
I3069
sS'\x93where\x92d'
p3015
I3070
sS'\x93couldn\x92t'
p3016
I3071
sS'\x93blinky\x94'
p3017
I3072
sS'\x93yep\x94'
p3018
I1268
sS'lucky\x94'
p3019
I3074
sS'origin'
p3020
I3075
sS'transmit'
p3021
I3076
sS'game'
p3022
I3077
sS'tabl'
p3023
I3803
sS'on\x85\x94'
p3024
I3078
sS'\x93$10000\x94'
p3025
I3079
sS'grovers\x94'
p3026
I3080
sS'snore'
p3027
I3081
sS'forget\x94'
p3028
I1157
sS'awaken'
p3029
I3083
sS'paint'
p3030
I2648
sS'grovers\x92'
p3031
I3084
sS'bruis'
p3032
I3085
sS'knock'
p3033
I3086
sS'd'
p3034
I3087
sS'\x93really\x94'
p3035
I3088
sS'forefing'
p3036
I3089
sS'mint'
p3037
I2988
sS'glove'
p3038
I3091
sS'earthquak'
p3039
I3092
sS'chorus'
p3040
I3093
sS'collect'
p3041
I3094
sS'plumber\x94'
p3042
I3095
sS'plumber\x92'
p3043
I3096
sS'$5000'
p3044
I2819
sS'nuts\x94'
p3045
I4195
sS'popular'
p3046
I3099
sS'foolish'
p3047
I3100
sS'right\x85but'
p3048
I3101
sS'two'
p3049
I2381
sS'\x93uhuh\x94'
p3050
I1006
sS'often'
p3051
I3104
sS'door'
p3052
I2391
sS'acknowledg'
p3053
I1052
sS'him\x85\x94'
p3054
I1037
sS'back'
p3055
I3109
sS'ah'
p3056
I4025
sS'understood'
p3057
I3110
sS'palm'
p3058
I3111
sS'sight'
p3059
I3112
sS'mirror'
p3060
I3113
sS'insur'
p3061
I548
sS'sprint'
p3062
I3115
sS'surpris'
p3063
I3116
sS'pale'
p3064
I3117
sS'old\x94'
p3065
I3118
sS'look\x85\x94'
p3066
I3119
sS'scale'
p3067
I3120
sS'chocol'
p3068
I3121
sS'culprit'
p3069
I3122
sS'pet'
p3070
I3123
sS'stagger'
p3071
I4201
sS'per'
p3072
I3125
sS'prop'
p3073
I3126
sS'pen'
p3074
I3127
sS'death\x92\x94'
p3075
I3128
sS'larg'
p3076
I3129
sS'sickening\x94'
p3077
I3130
sS'matter\x94'
p3078
I3131
sS'mortuari'
p3079
I3132
sS'lime'
p3080
I3133
sS'reproduc'
p3081
I3134
sS'dangerous\x94'
p3082
I3135
sS'nose'
p3083
I3136
sS'machin'
p3084
I3137
sS'be'
p3085
I3138
sS'book'
p3086
I4386
sS'ebook'
p3087
I3139
sS'run'
p3088
I3140
sS'rum'
p3089
I3141
sS'rub'
p3090
I3142
sS'302'
p3091
I3143
sS'\x93take'
p3092
I3144
sS'rug'
p3093
I3145
sS'stupid\x94'
p3094
I3146
sS'stem'
p3095
I1243
sS'hatch'
p3096
I3963
sS'step'
p3097
I3148
sS'tinker'
p3098
I1254
sS'\x93he\x92'
p3099
I3150
sS'squeez'
p3100
I3151
sS'santa'
p3101
I3152
sS'\x93up'
p3102
I3153
sS'crap'
p3103
I3464
sS'\x93buddi'
p3104
I3155
sS'by'
p3105
I3156
sS'buttermilk'
p3106
I3157
sS'shine'
p3107
I2616
sS'faith'
p3108
I3159
sS'myself\x94'
p3109
I3657
sS'most'
p3110
I2729
sS'soft'
p3111
I4207
sS'pigeon\x94'
p3112
I3162
sS'life\x92'
p3113
I2569
sS'drama'
p3114
I3163
sS'question\x94'
p3115
I3164
sS'idl'
p3116
I3165
sS'catnip'
p3117
I3166
sS'heel'
p3118
I4209
sS'white\x94'
p3119
I3168
sS'\x93put'
p3120
I3169
sS'wwwauthortrackercom'
p3121
I886
sS'block'
p3122
I3171
sS'plan'
p3123
I3172
sS'hell\x92'
p3124
I1413
sS'rain\x94'
p3125
I3220
sS'univers'
p3126
I1859
sS'hell\x94'
p3127
I3176
sS'irrit'
p3128
I1180
sS'hemingway'
p3129
I1110
sS'within'
p3130
I3179
sS'ugly\x94'
p3131
I1460
sS'themselves\x94'
p3132
I3181
sS'dame'
p3133
I2921
sS'jimmi'
p3134
I3182
sS'undul'
p3135
I3183
sS'chocolates\x85\x94'
p3136
I3184
sS'holster'
p3137
I3185
sS'repaid'
p3138
I3186
sS'chang'
p3139
I3187
sS'lesson'
p3140
I3188
sS'\x93jack'
p3141
I3189
sS'nsw'
p3142
I3190
sS'coin'
p3143
I3191
sS'ballsass'
p3144
I3193
sS'living\x94'
p3145
I3194
sS'france\x94'
p3146
I3195
sS'problem\x94'
p3147
I3196
sS'question'
p3148
I1528
sS'percept'
p3149
I1649
sS'long'
p3150
I1557
sS'body\x94'
p3151
I3200
sS'\x93master'
p3152
I3201
sS'\x93scare'
p3153
I3473
sS'includ'
p3154
I1586
sS'suit'
p3155
I3205
sS'forward'
p3156
I3206
sS'barkeep\x94'
p3157
I3474
sS'madrig'
p3158
I3208
sS'spat'
p3159
I3209
sS'doodl'
p3160
I3210
sS'rates\x94'
p3161
I3211
sS'camcorder\x94'
p3162
I3212
sS'himself'
p3163
I3213
sS'bucks\x94'
p3164
I3214
sS'rooster'
p3165
I4068
sS'crapper'
p3166
I958
sS'inept'
p3167
I3217
sS'slump'
p3168
I3218
sS'halfal'
p3169
I3219
sS'\x93correct'
p3170
I1556
sS'glamour'
p3171
I3221
sS'cloth'
p3172
I3222
sS'link'
p3173
I3223
sS'translat'
p3174
I3224
sS'atom'
p3175
I3225
sS'bunghol'
p3176
I2739
sS'line'
p3177
I3226
sS'angri'
p3178
I3227
sS'info'
p3179
I3229
sS'hair'
p3180
I4214
sS'gramp'
p3181
I3232
sS'skull'
p3182
I3233
sS'sick\x85\x94'
p3183
I3235
sS'up'
p3184
I1764
sS'us'
p3185
I3237
sS'planet'
p3186
I3238
sS'neck\x94'
p3187
I3239
sS'rear\x85\x94'
p3188
I3240
sS'those'
p3189
I1862
sS'\x93how\x92'
p3190
I3242
sS'uk'
p3191
I1292
sS'\x93you\x94'
p3192
I3244
sS'while\x94'
p3193
I4260
sS'bodies\x94'
p3194
I3245
sS'bell'
p3195
I3246
sS'spike'
p3196
I3247
sS'hand\x85it\x92'
p3197
I4211
sS'freak'
p3198
I3248
sS'curs'
p3199
I3249
sS'm'
p3200
I3250
sS'\x93feel'
p3201
I3251
sS'was\x94'
p3202
I64
sS'chap'
p3203
I3253
sS'outfit\x97pink'
p3204
I3254
sS'curb'
p3205
I3255
sS'$20'
p3206
I3481
sS'alive\x85somewhere\x85and'
p3207
I3256
sS'home'
p3208
I4220
sS'\x93mari'
p3209
I3068
sS'curl'
p3210
I1894
sS'doe'
p3211
I3260
sS'\x93begin'
p3212
I4341
sS'cotton'
p3213
I1910
sS'\x93have'
p3214
I3262
sS'damned\x94'
p3215
I1919
sS'by\x94'
p3216
I3698
sS'blade'
p3217
I4222
sS'this\x85spac'
p3218
I3265
sS'club'
p3219
I2721
sS'nap'
p3220
I3267
sS'boy\x94'
p3221
I3268
sS'petroleum'
p3222
I2380
sS'aunt'
p3223
I3270
sS'9\x94'
p3224
I3271
sS'zaros\x94'
p3225
I3272
sS'mock'
p3226
I3273
sS'nice'
p3227
I3274
sS'tongu'
p3228
I3275
sS'confidential\x94'
p3229
I3276
sS'dali'
p3230
I3278
sS'\x93are'
p3231
I3279
sS'bianca'
p3232
I1568
sS'chirp'
p3233
I809
sS'insect'
p3234
I2066
sS'visa\x94'
p3235
I3283
sS'drab'
p3236
I3284
sS'inflat'
p3237
I3285
sS'open\x94'
p3238
I3286
sS'introductions\x85\x94'
p3239
I3287
sS'score'
p3240
I3288
sS'\x93hold'
p3241
I3269
sS'deserv'
p3242
I3711
sS'ago'
p3243
I3290
sS'lane'
p3244
I3291
sS'land'
p3245
I3292
sS'kidding\x94'
p3246
I3293
sS'\x93luke\x94'
p3247
I3294
sS'\x93hogs\x92'
p3248
I602
sS'rather'
p3249
I3296
sS'\x93should'
p3250
I2361
sS'oppress'
p3251
I3298
sS'blinki'
p3252
I3299
sS'2000'
p3253
I3300
sS'2001'
p3254
I3301
sS'2007'
p3255
I3302
sS'leak'
p3256
I4228
sS'far'
p3257
I3304
sS'fresh'
p3258
I3305
sS'wive'
p3259
I3306
sS'buffalo'
p3260
I3307
sS'tube'
p3261
I2028
sS'pissedoff'
p3262
I3309
sS'sum\x94'
p3263
I2029
sS'edg'
p3264
I3312
sS'scratch'
p3265
I3313
sS'merced'
p3266
I3314
sS'large\x94'
p3267
I3315
sS'alien'
p3268
I2265
sS'like\x94'
p3269
I3028
sS'\x93miss'
p3270
I3318
sS'eyelids\x94'
p3271
I3319
sS'gang'
p3272
I3320
sS'pooper\x94'
p3273
I2942
sS'go'
p3274
I2289
sS'cocksucker\x94'
p3275
I2297
sS'unfulfil'
p3276
I3324
sS'that\x92'
p3277
I3325
sS'fante\x94'
p3278
I4233
sS'privat'
p3279
I3327
sS'asphalt'
p3280
I3328
sS'we\x92ll'
p3281
I2346
sS'young'
p3282
I3330
sS'send'
p3283
I3331
sS'other\x94'
p3284
I3332
sS'bum'
p3285
I4328
sS'\x93one'
p3286
I1527
sS'becam'
p3287
I2881
sS'http//wwwharpercollinsebooksconz'
p3288
I3334
sS'visitor'
p3289
I3335
sS'celin'
p3290
I3336
sS'sens'
p3291
I3337
sS'sent'
p3292
I3338
sS'play\x94'
p3293
I1639
sS'\x93goodby'
p3294
I3340
sS'pymbl'
p3295
I3341
sS'\x93screw'
p3296
I2466
sS'mous'
p3297
I3343
sS'penny\x94'
p3298
I4238
sS'electron'
p3299
I3345
sS'volum'
p3300
I3346
sS'stalem'
p3301
I3347
sS'untouch'
p3302
I3348
sS'kitti'
p3303
I3349
sS'\x936\x94'
p3304
I2438
sS'tri'
p3305
I3351
sS'baby\x85\x94'
p3306
I3352
sS'magic'
p3307
I3353
sS'stiff'
p3308
I3354
sS'harbor'
p3309
I2201
sS'911'
p3310
I3356
sS'button'
p3311
I3357
sS'shock'
p3312
I3358
sS'hungry\x94'
p3313
I3359
sS'everything\x94'
p3314
I3360
sS'destouch'
p3315
I2038
sS'this'
p3316
I3505
sS'race'
p3317
I3363
sS'\x93hmmm\x85can\x92t'
p3318
I3364
sS'that\x94'
p3319
I3322
sS'\x93down'
p3320
I3365
sS'frog\x92'
p3321
I3366
sS'\x93someth'
p3322
I1025
sS'marri'
p3323
I962
sS'rack'
p3324
I3369
sS'license\x94'
p3325
I3370
sS'pleas'
p3326
I3371
sS'pimp\x94'
p3327
I4031
sS'cap'
p3328
I1318
sS'fortun'
p3329
I3374
sS'anybody\x94'
p3330
I3375
sS'vary\x94'
p3331
I2335
sS'\x93to'
p3332
I3377
sS'\x93you\x92d'
p3333
I3378
sS'jump'
p3334
I3380
sS'fold'
p3335
I3381
sS'\x93tri'
p3336
I3382
sS'video'
p3337
I3383
sS'booth'
p3338
I3384
sS'yet\x97blinky\x92'
p3339
I918
sS'download'
p3340
I3386
sS'\x93you\x92r'
p3341
I3387
sS'odd'
p3342
I3388
sS'click'
p3343
I3389
sS'\x93you\x92v'
p3344
I3390
sS'index'
p3345
I3391
sS'poke'
p3346
I3392
sS'power'
p3347
I3393
sS'rate'
p3348
I2719
sS'soup'
p3349
I3395
sS'resembl'
p3350
I3396
sS'something\x85\x94'
p3351
I3397
sS'danger'
p3352
I3448
sS'access'
p3353
I3398
sS'rotten'
p3354
I2781
sS'sour'
p3355
I3400
sS'shouldn\x92t'
p3356
I3401
sS'bird'
p3357
I3402
sS'armpit'
p3358
I3404
sS'caper'
p3359
I3405
sS'detective\x94'
p3360
I2952
sS'leg'
p3361
I3407
sS'\x93depends\x94'
p3362
I2674
sS'\x93follow'
p3363
I3409
sS'punch'
p3364
I3410
sS'does\x94'
p3365
I3241
sS'bodi'
p3366
I3411
sS'help\x94'
p3367
I3412
sS'\x93perhaps\x94'
p3368
I3105
sS'relax\x94'
p3369
I2158
sS'sink'
p3370
I3415
sS'cab'
p3371
I3416
sS'midfifti'
p3372
I2773
sS'cold\x94'
p3373
I1482
sS'becom'
p3374
I2903
sS'miser'
p3375
I2993
sS'more\x94'
p3376
I3421
sS'39'
p3377
I2933
sS'38'
p3378
I3423
sS'talent'
p3379
I3424
sS'convers'
p3380
I3425
sS'derbi'
p3381
I3426
sS'\x93easi'
p3382
I2356
sS'32'
p3383
I3428
sS'morning\x85\x94'
p3384
I1723
sS'decades\x94'
p3385
I3252
sS'37'
p3386
I913
sS'36'
p3387
I3432
sS'35'
p3388
I3433
sS'34'
p3389
I3434
sS'informed\x94'
p3390
I3435
sS'\x93east'
p3391
I3437
sS'\x93be'
p3392
I2295
sS'earli'
p3393
I1805
sS'typic'
p3394
I1828
sS'have\x94'
p3395
I3813
sS'honor'
p3396
I3442
sS'chanc'
p3397
I3443
sS'out'
p3398
I3673
sS'control'
p3399
I3521
sS'sealed\x94'
p3400
I3445
sS'figures\x94'
p3401
I3446
sS'nearest'
p3402
I2132
sS'pitch'
p3403
I3449
sS'win'
p3404
I3450
sS'limp'
p3405
I3451
sS'trachea'
p3406
I3452
sS'selfcent'
p3407
I3453
sS'apt'
p3408
I3454
sS'bend'
p3409
I3538
sS'motor'
p3410
I2266
sS'duck'
p3411
I3456
sS'\x93hey'
p3412
I3065
sS'farthead'
p3413
I3458
sS'egg'
p3414
I1680
sS'cloud'
p3415
I3459
sS'bartender\x92'
p3416
I1676
sS'\x93happen'
p3417
I3461
sS'use'
p3418
I3462
sS'fee'
p3419
I3463
sS'from'
p3420
I3154
sS'zip'
p3421
I3466
sS'&'
p3422
I3467
sS'missing\x94'
p3423
I3468
sS'hardon\x94'
p3424
I3175
sS'water\x94'
p3425
I3470
sS'throw'
p3426
I2055
sS'few'
p3427
I3472
sS'doubt'
p3428
I3202
sS'pig\x94'
p3429
I3207
sS'\x93corner'
p3430
I3475
sS'thoroughly\x94'
p3431
I3476
sS'bernie\x94'
p3432
I3228
sS'sign\x85\x94'
p3433
I2047
sS'fit\x94'
p3434
I3479
sS'sort'
p3435
I3480
sS'jack\x94'
p3436
I3263
sS'turnoff'
p3437
I3482
sS'babe'
p3438
I3483
sS'rich'
p3439
I3484
sS'summer\x94'
p3440
I3485
sS'porch'
p3441
I3486
sS'babi'
p3442
I3487
sS'pocket\x85\x94'
p3443
I45
sS'about'
p3444
I4262
sS'recal'
p3445
I4074
sS'trail'
p3446
I3491
sS'train'
p3447
I3492
sS'rabbit'
p3448
I3494
sS'8'
p3449
I2786
sS'central'
p3450
I2784
sS'dobbs\x94'
p3451
I3496
sS'gone\x94'
p3452
I3497
sS'women'
p3453
I3498
sS'link\x94'
p3454
I3499
sS'into\x97no'
p3455
I3500
sS'retriev'
p3456
I3501
sS'ace'
p3457
I3502
sS'salad'
p3458
I3503
sS'drawer'
p3459
I3504
sS'piece\x94'
p3460
I3362
sS'unpeel'
p3461
I3506
sS'ride'
p3462
I3507
sS'when'
p3463
I3508
sS'stroke'
p3464
I3509
sS'pour'
p3465
I3510
sS'septuagenarian'
p3466
I3511
sS'obvious'
p3467
I3512
sS'numbered\x94'
p3468
I2613
sS'celine\x85\x94'
p3469
I1719
sS'action\x94'
p3470
I3515
sS'\x93i\x92v'
p3471
I1347
sS'scribbl'
p3472
I3517
sS'coffin'
p3473
I3518
sS'aliv'
p3474
I3519
sS'proof'
p3475
I3520
sS'employe'
p3476
I3444
sS'slid'
p3477
I3522
sS'lemm'
p3478
I3523
sS'tap'
p3479
I3524
sS'bent'
p3480
I3460
sS'patron'
p3481
I3526
sS'monica'
p3482
I3527
sS'process'
p3483
I3528
sS'lock'
p3484
I3529
sS'rode'
p3485
I3488
sS'beltwhip'
p3486
I3531
sS'$600'
p3487
I3532
sS'\x93jack\x85\x94'
p3488
I3533
sS'high'
p3489
I3534
sS'luggag'
p3490
I3535
sS'slit'
p3491
I3536
sS'his'
p3492
I3537
sS'peepe'
p3493
I2612
sS'tab'
p3494
I2626
sS'235'
p3495
I3540
sS'shrimp'
p3496
I2068
sS'skirt'
p3497
I3543
sS'\x93ask'
p3498
I3544
sS'everywher'
p3499
I3545
sS'\x93here'
p3500
I2069
sS'whitehair'
p3501
I3547
sS'sip'
p3502
I3548
sS'cogit'
p3503
I1768
sS'\x93guess\x94'
p3504
I3549
sS'sit'
p3505
I3550
sS'halfcook'
p3506
I3551
sS'\x91screw'
p3507
I3552
sS'copyright'
p3508
I3554
sS'pocket\x85i'
p3509
I3555
sS'groundless'
p3510
I3556
sS'luke'
p3511
I3204
sS'instead'
p3512
I3558
sS'ferdinand'
p3513
I3559
sS'nasti'
p3514
I3560
sS'defeat'
p3515
I3438
sS'purs'
p3516
I3562
sS'\x93whatev'
p3517
I3563
sS'inhal'
p3518
I3564
sS'attend'
p3519
I3565
sS'sir'
p3520
I3546
sS'watch'
p3521
I3567
sS'act'
p3522
I2072
sS'wife\x94'
p3523
I2073
sS'can\x94'
p3524
I3403
sS'wrist'
p3525
I3572
sS'men'
p3526
I1725
sS'\x93tell'
p3527
I3574
sS'coast'
p3528
I1744
sS'\x91scotch'
p3529
I3576
sS'fratern'
p3530
I3577
sS'scale\x94'
p3531
I3578
sS'raggedyass'
p3532
I2423
sS'pissing\x94'
p3533
I2131
sS'classi'
p3534
I3581
sS'light'
p3535
I3582
sS'counter'
p3536
I3583
sS'phone\x94'
p3537
I3584
sS'president\x94'
p3538
I3585
sS'scoop'
p3539
I3586
sS'name\x94'
p3540
I3587
sS'name\x92'
p3541
I3588
sS'3l2'
p3542
I3589
sS'sir\x94'
p3543
I2161
sS'tilt'
p3544
I3591
sS'practic'
p3545
I3773
sS'loud'
p3546
I4375
sS'wrinkl'
p3547
I2803
sS'ha'
p3548
I3870
sS'\x93bring'
p3549
I3595
sS'thigh'
p3550
I3596
sS'\x93tohil'
p3551
I2296
sS'time\x94'
p3552
I3598
sS'move'
p3553
I3599
sS'\x93shit'
p3554
I3600
sS'spank'
p3555
I3601
sS'own'
p3556
I4282
sS'earth'
p3557
I3602
sS'pedal'
p3558
I4114
sS'screwiest'
p3559
I3604
sS'hock'
p3560
I3605
sS'bunch'
p3561
I3606
sS'perfect'
p3562
I3607
sS'write'
p3563
I3608
sS'\x93sonni'
p3564
I3609
sS'sessions\x94'
p3565
I2091
sS'chosen'
p3566
I3611
sS'hobbi'
p3567
I3612
sS'\x93give'
p3568
I3613
sS'cigarettes\x94'
p3569
I3614
sS'li'
p3570
I3615
sS'kindergarten'
p3571
I3616
sS'age'
p3572
I3295
sS'\x93right\x94'
p3573
I3617
sS'flank'
p3574
I3618
sS'horror'
p3575
I3619
sS'paperclip'
p3576
I3620
sS'receipt\x94'
p3577
I3621
sS'decad'
p3578
I3622
sS'bye'
p3579
I2590
sS'filthi'
p3580
I3697
sS'this\x85you'
p3581
I3624
sS'\x93recently\x94'
p3582
I2986
sS'toppl'
p3583
I3215
sS'auto'
p3584
I3628
sS'modest\x85\x94'
p3585
I3557
sS'churn'
p3586
I3629
sS'foxx'
p3587
I4094
sS'flew'
p3588
I3630
sS'relentless'
p3589
I3631
sS'158'
p3590
I3632
sS'spat\x85\x94'
p3591
I3633
sS'\x93scotch'
p3592
I3634
sS'snake'
p3593
I3635
sS'kiss'
p3594
I3636
sS'\x93billy\x94'
p3595
I586
sS'\x93would'
p3596
I3638
sS'garner'
p3597
I2083
sS'cage'
p3598
I3640
sS'day'
p3599
I3641
sS'things\x94'
p3600
I3642
sS'billi'
p3601
I3643
sS'relax'
p3602
I3644
sS'somewher'
p3603
I3645
sS'betti'
p3604
I3646
sS'met\x94'
p3605
I3647
sS'anyth'
p3606
I3648
sS'edit'
p3607
I3649
sS'unlimit'
p3608
I3650
sS'jeannie\x94'
p3609
I4289
sS'poetri'
p3610
I3652
sS'slide'
p3611
I3653
sS'book\x94'
p3612
I3654
sS'trap'
p3613
I3655
sS'lung'
p3614
I4290
sS'stock'
p3615
I3561
sS'doin\x92'
p3616
I1060
sS'skate'
p3617
I2274
sS'arkansa'
p3618
I3659
sS'2900'
p3619
I3660
sS'\x93what\x92r'
p3620
I3661
sS'bump'
p3621
I3662
sS'booki'
p3622
I3663
sS'rectifi'
p3623
I4293
sS'dy'
p3624
I3665
sS'search'
p3625
I3666
sS'sanderson\x94'
p3626
I3667
sS'sanderson\x97'
p3627
I3668
sS'our'
p3628
I3669
sS'80'
p3629
I3670
sS'\x93time'
p3630
I3848
sS'sexual'
p3631
I148
sS'garden\x94'
p3632
I4295
sS'special'
p3633
I3672
sS'drinking\x94'
p3634
I3192
sS'\x93even'
p3635
I3674
sS'airlin'
p3636
I3675
sS'alien\x85tel'
p3637
I3676
sS'60'
p3638
I3677
sS'http//wwwharpercollinsebookscomau'
p3639
I3678
sS'casket'
p3640
I3679
sS'deja\x94'
p3641
I3566
sS'hive'
p3642
I3680
sS'\x93did'
p3643
I3681
sS'\x93pooper'
p3644
I3682
sS'hand\x94'
p3645
I3683
sS'sport\x94'
p3646
I3684
sS'stuf'
p3647
I3685
sS'twoandonehalfminut'
p3648
I588
sS'ain\x92t'
p3649
I3687
sS'delicatelook'
p3650
I3688
sS'smog'
p3651
I3689
sS'\x93mister\x94'
p3652
I3690
sS'\x93send'
p3653
I3691
sS'red'
p3654
I57
sS'statist'
p3655
I2813
sS'stare'
p3656
I3693
sS'harold'
p3657
I224
sS'umbrella'
p3658
I75
sS'insid'
p3659
I3696
sS'frank'
p3660
I1472
sS'\x93doin\x92'
p3661
I1762
sS'templ'
p3662
I3699
sS'tiger'
p3663
I3700
sS'\x93molly\x94'
p3664
I3701
sS'york'
p3665
I3702
sS'\x93was'
p3666
I3703
sS'usual'
p3667
I4133
sS'invas'
p3668
I139
sS'van'
p3669
I4302
sS'it\x92ll'
p3670
I145
sS'combin'
p3671
I3707
sS'bleed'
p3672
I3708
sS'cri'
p3673
I3709
sS'turtl'
p3674
I3710
sS'climb'
p3675
I3440
sS'lone'
p3676
I3197
sS'attent'
p3677
I3727
sS'steal'
p3678
I3712
sS'neckti'
p3679
I209
sS'pictur'
p3680
I3714
sS'ask'
p3681
I2363
sS'count'
p3682
I4333
sS'david'
p3683
I3174
sS'look\x94'
p3684
I27
sS'shred'
p3685
I242
sS'outsid'
p3686
I3718
sS'ltd'
p3687
I1395
sS'ashtray'
p3688
I3908
sS'france\x92'
p3689
I3199
sS'waitress'
p3690
I279
sS'\x93cindy\x94'
p3691
I2794
sS'tournefortia'
p3692
I3723
sS'ghast'
p3693
I3724
sS'words\x94'
p3694
I3725
sS'isbn'
p3695
I3726
sS'\x93somebodi'
p3696
I3573
sS'\x93celine\x94'
p3697
I3597
sS'scene'
p3698
I3728
sS'sack'
p3699
I3729
sS'exact'
p3700
I3730
sS'set'
p3701
I3731
sS'nothing\x85\x94'
p3702
I3493
sS'professional\x94'
p3703
I3733
sS'such'
p3704
I1383
sS'over\x94'
p3705
I3735
sS'shaveandahaircut'
p3706
I3736
sS'cream\x92'
p3707
I3737
sS'potti'
p3708
I3738
sS'termit'
p3709
I404
sS'swept'
p3710
I1131
sS'start'
p3711
I2099
sS'belane\x94'
p3712
I3742
sS'well\x85it'
p3713
I3743
sS'redondo'
p3714
I430
sS'trembl'
p3715
I436
sS'system'
p3716
I3746
sS'messag'
p3717
I3747
sS'attach'
p3718
I455
sS'attack'
p3719
I3749
sS'\x93thank'
p3720
I3750
sS'\x93david\x94'
p3721
I3751
sS'bartend'
p3722
I3752
sS'gurgl'
p3723
I1214
sS'final'
p3724
I3754
sS'boil'
p3725
I3755
sS'beard'
p3726
I3756
sS'shell'
p3727
I3757
sS'nitro'
p3728
I3758
sS'sexy\x94'
p3729
I3759
sS'seymour'
p3730
I532
sS'gotcha'
p3731
I3761
sS'\x93we'
p3732
I3762
sS'\x93right'
p3733
I3763
sS'motionless'
p3734
I3019
sS'progress\x94'
p3735
I3968
sS'babe\x94'
p3736
I3765
sS'masturb'
p3737
I3580
sS'minicamcord'
p3738
I3767
sS'ape'
p3739
I3768
sS'anybodi'
p3740
I3036
sS'herself'
p3741
I3770
sS'haven'
p3742
I3771
sS'mr\x85\x94'
p3743
I3772
sS'waist'
p3744
I1393
sS'steel'
p3745
I3774
sS'\x93better'
p3746
I3775
sS'shrink\x94'
p3747
I3776
sS'friend\x94'
p3748
I4313
sS'shrink\x92'
p3749
I3777
sS'slack'
p3750
I3778
sS'kant'
p3751
I3779
sS'w6'
p3752
I2511
sS'wet'
p3753
I4165
sS'doorjimmi'
p3754
I3603
sS'red\x94'
p3755
I3782
sS'carrot\x94'
p3756
I3783
sS'beg'
p3757
I642
sS'lunch\x94'
p3758
I646
sS'tab\x94'
p3759
I650
sS'claim'
p3760
I3787
sS'\x93flower'
p3761
I3788
sS'\x93brewster\x94'
p3762
I3789
sS'indistinct'
p3763
I695
sS'bet'
p3764
I703
sS'tommi'
p3765
I3792
sS'drunk'
p3766
I4156
sS'shakespear'
p3767
I3793
sS'baby\x94'
p3768
I3794
sS'clip'
p3769
I3795
sS'terribl'
p3770
I3796
sS'laughs\x94'
p3771
I3798
sS'correspond'
p3772
I3799
sS'tonight'
p3773
I3800
sS'racetrack'
p3774
I2476
sS'receptionist'
p3775
I780
sS'have'
p3776
I3802
sS'would\x85\x94'
p3777
I540
sS'throat'
p3778
I791
sS'\x93hello\x94'
p3779
I4317
sS'two\x94'
p3780
I3806
sS'be\x94'
p3781
I3807
sS'short\x94'
p3782
I3808
sS'screw'
p3783
I3809
sS'bastard'
p3784
I3810
sS'afraid'
p3785
I3811
sS'probabl'
p3786
I4098
sS'thin'
p3787
I3513
sS'interest\x94'
p3788
I833
sS'halfsun'
p3789
I838
sS'briefcas'
p3790
I3815
sS'undiminish'
p3791
I3816
sS'lighter\x94'
p3792
I861
sS'mix'
p3793
I3818
sS'321'
p3794
I2725
sS'double\x94'
p3795
I3820
sS'which'
p3796
I3821
sS'miniskirt'
p3797
I3822
sS'truck'
p3798
I3311
sS'visor'
p3799
I3824
sS'mongrel'
p3800
I3825
sS'singl'
p3801
I3826
sS'harpercollinspublish'
p3802
I3827
sS'happi'
p3803
I3828
sS'posthum'
p3804
I929
sS'unless'
p3805
I2185
sS'allow'
p3806
I3590
sS'downstair'
p3807
I3102
sS'\x93think'
p3808
I952
sS'whi'
p3809
I3833
sS'presid'
p3810
I3719
sS'offend'
p3811
I3812
sS'visa'
p3812
I3835
sS'eight'
p3813
I3836
sS'vise'
p3814
I10
sS'\x93nonsense\x94'
p3815
I1442
sS'payment'
p3816
I753
sS'plumber'
p3817
I3841
sS'looker'
p3818
I1048
sS'temple\x97wer'
p3819
I3843
sS'gather'
p3820
I3844
sS'request'
p3821
I3845
sS'heh\x94'
p3822
I3846
sS'enlist'
p3823
I52
sS'absurd'
p3824
I1893
sS'beetl'
p3825
I3849
sS'wow'
p3826
I3850
sS'seam'
p3827
I1770
sS'drunken'
p3828
I1412
sS'\x93pull'
p3829
I3853
sS'recess'
p3830
I3854
sS'text'
p3831
I1151
sS'whistl'
p3832
I3857
sS'anyway'
p3833
I3858
sS'i\x92v'
p3834
I3859
sS'bring'
p3835
I3860
sS'you\x85get'
p3836
I1190
sS'bedroom'
p3837
I3863
sS'straightsideup'
p3838
I3864
sS'rough'
p3839
I1112
sS'i\x92d'
p3840
I3866
sS'takin\x92'
p3841
I923
sS'salesman\x94'
p3842
I3868
sS'footbal'
p3843
I3869
sS'\x93wait\x94'
p3844
I3455
sS'bicycl'
p3845
I1241
sS'chickenonabun'
p3846
I3872
sS'tire'
p3847
I3873
sS'd\x92heat\x94'
p3848
I3874
sS'butt\x94'
p3849
I3875
sS'winner'
p3850
I1263
sS'hade'
p3851
I1266
sS'forev'
p3852
I3198
sS'should'
p3853
I1276
sS'held'
p3854
I2495
sS'grateful\x94'
p3855
I3880
sS'won'
p3856
I2847
sS'suppos'
p3857
I3882
sS'frenchi'
p3858
I3883
sS'sulfur'
p3859
I3884
sS'inhabit'
p3860
I1313
sS'he'
p3861
I4332
sS'hope'
p3862
I3887
sS'busy\x85'
p3863
I2539
sS'meant'
p3864
I3490
sS'nicky\x94'
p3865
I3014
sS'shoes\x85\x94'
p3866
I3891
sS'injun\x94'
p3867
I3694
sS'beat'
p3868
I3892
sS'familiar'
p3869
I3893
sS'1920'
p3870
I3894
sS'disagre'
p3871
I1372
sS'rush'
p3872
I3896
sS'bear'
p3873
I3897
sS'\x93nobodi'
p3874
I3898
sS'rabbit\x94'
p3875
I3899
sS'\x93that'
p3876
I3900
sS'$160'
p3877
I3901
sS'lucki'
p3878
I3902
sS'ten\x94'
p3879
I713
sS'smash'
p3880
I1452
sS'\x93which'
p3881
I3905
sS'taken\x94'
p3882
I1467
sS'organ'
p3883
I3907
sS'hemorrhoid'
p3884
I3441
sS'thanks\x94'
p3885
I3909
sS'possibl'
p3886
I3910
sS'bass\x94'
p3887
I3911
sS'eyebrow'
p3888
I3912
sS'discretion\x94'
p3889
I3913
sS'\x93ah\x94'
p3890
I3914
sS'whether'
p3891
I3915
sS'stuff'
p3892
I3916
sS'she'
p3893
I3917
sS'gotcha\x94'
p3894
I3918
sS'incontin'
p3895
I1926
sS'\x93sure'
p3896
I3920
sS'asked\x94'
p3897
I1522
sS'\x93god'
p3898
I3173
sS'powers\x94'
p3899
I3923
sS'roominghous'
p3900
I264
sS'belt\x94'
p3901
I1547
sS'toe'
p3902
I3926
sS'8004358745'
p3903
I3231
sS'clubhous'
p3904
I3928
sS'team\x94'
p3905
I3929
sS'persist'
p3906
I3930
sS'alien\x94'
p3907
I3297
sS'my\x94'
p3908
I3933
sS'driveway'
p3909
I3934
sS'stack'
p3910
I3015
sS'sparrow\x94'
p3911
I3936
sS'motherfucker\x94'
p3912
I3937
sS'mean\x94'
p3913
I1657
sS'unzip'
p3914
I3339
sS'braid'
p3915
I2144
sS'panti'
p3916
I3942
sS'closet'
p3917
I3943
sS'client\x94'
p3918
I3530
sS'monstrous'
p3919
I3945
sS'misus'
p3920
I3946
sS'thumb'
p3921
I3975
sS'tend'
p3922
I3947
sS'men\x94'
p3923
I2706
sS'state'
p3924
I1512
sS'one\x94'
p3925
I3950
sS'dynam'
p3926
I3951
sS'progress'
p3927
I3952
sS'bobby\x85\x94'
p3928
I2812
sS'\x93ani'
p3929
I1431
sS'bought'
p3930
I3955
sS'decided\x94'
p3931
I3956
sS'amazing\x94'
p3932
I3957
sS'bed'
p3933
I3785
sS'cowgirls\x94'
p3934
I1779
sS'stew'
p3935
I3960
sS'french\x94'
p3936
I3961
sS'\x93$20\x94'
p3937
I3962
sS'couldn\x92t'
p3938
I2858
sS'copul'
p3939
I3964
sS'oh\x94'
p3940
I3965
sS'job'
p3941
I3966
sS'entir'
p3942
I3967
sS'rare'
p3943
I4264
sS'contort'
p3944
I2114
sS'key'
p3945
I3969
sS'anything\x94'
p3946
I3970
sS'outer'
p3947
I3971
sS'precious'
p3948
I3972
sS'eclips'
p3949
I3973
sS'problem'
p3950
I4347
sS'addit'
p3951
I1844
sS'toothbrush'
p3952
I3976
sS'wiggl'
p3953
I1857
sS'instant'
p3954
I3978
sS'1960s1970s'
p3955
I1440
sS'\x93glad'
p3956
I1874
sS'joke'
p3957
I3981
sS'decay'
p3958
I2331
sS'please\x94'
p3959
I3983
sS'\x93naw\x85\x94'
p3960
I3984
sS'scowl'
p3961
I3985
sS'\x93somehow\x94'
p3962
I1436
sS'admit'
p3963
I1901
sS'grail'
p3964
I3988
sS'passag'
p3965
I3989
sS'yourself\x94'
p3966
I3990
sS'puff'
p3967
I3991
sS'beak'
p3968
I3992
sS'depressed\x94'
p3969
I3993
sS'jersey'
p3970
I308
sS'605'
p3971
I3995
sS'torn'
p3972
I3625
sS'author'
p3973
I3997
sS'gone'
p3974
I2139
sS'wall'
p3975
I3999
sS'flirtat'
p3976
I4000
sS'arriv'
p3977
I4001
sS'\x93toni'
p3978
I1996
sS'walk'
p3979
I4003
sS'though\x94'
p3980
I4004
sS'licens'
p3981
I3744
sS'taylor'
p3982
I4006
sS'snakelik'
p3983
I4007
sS'these\x94'
p3984
I4008
sS'laugh'
p3985
I4009
sS'manhood'
p3986
I4010
sS'\x93some'
p3987
I4011
sS'walnut'
p3988
I4012
sS'600'
p3989
I4013
sS'blink'
p3990
I4014
sS'poem'
p3991
I1094
sS'mailman'
p3992
I2052
sS'andernach'
p3993
I4017
sS'reptil'
p3994
I4018
sS'eunuch\x94'
p3995
I4019
sS'\xa9'
p3996
I4020
sS'david\x94'
p3997
I4021
sS'drank'
p3998
I4022
sS'hellish'
p3999
I2103
sS'motherfuck'
p4000
I4024
sS'tv'
p4001
I2226
sS'poet'
p4002
I4026
sS'pelouz'
p4003
I4027
sS'feather'
p4004
I4028
sS'yes\x85\x94'
p4005
I4029
sS'\x93now\x94'
p4006
I4356
sS'mike'
p4007
I4032
sS'bit'
p4008
I3082
sS'wanna'
p4009
I3170
sS'\x9375'
p4010
I2500
sS'adob'
p4011
I4034
sS'presenc'
p4012
I4035
sS'lion'
p4013
I4036
sS'\x93bullet'
p4014
I4037
sS'rapid'
p4015
I4154
sS'\x93name'
p4016
I4038
sS'togeth'
p4017
I4039
sS'nonexclus'
p4018
I4040
sS'hamburg'
p4019
I4041
sS'an'
p4020
I4042
sS'caddi'
p4021
I4043
sS'\x93secret'
p4022
I3797
sS'crappi'
p4023
I4045
sS'novel'
p4024
I1065
sS'\x93they\x92r'
p4025
I4047
sS'vapid'
p4026
I4048
sS'how\x92d'
p4027
I4049
sS'plain'
p4028
I4050
sS'align'
p4029
I4051
sS'reaim'
p4030
I4052
sS'tshirt'
p4031
I4053
sS'chalk'
p4032
I2300
sS'\x93don\x92t'
p4033
I4055
sS'\x93let'
p4034
I4056
sS'schmackmail'
p4035
I2330
sS'ultra'
p4036
I2342
sS'days\x85\x94'
p4037
I3355
sS'groin'
p4038
I4060
sS'layer'
p4039
I4062
sS'divulg'
p4040
I3895
sS'johnni'
p4041
I3862
sS'bicker'
p4042
I659
sS'almost'
p4043
I4066
sS'yorker'
p4044
I3097
sS'claimer'
p4045
I4067
sS'christ\x92'
p4046
I2241
sS'own\x94'
p4047
I4069
sS'assholes\x94'
p4048
I4070
sS'believ'
p4049
I2607
sS'mockingbird'
p4050
I4071
sS'ass\x94'
p4051
I2153
sS'prose'
p4052
I2884
sS'incom'
p4053
I111
sS'revis'
p4054
I4075
sS'\x93honey\x94'
p4055
I779
sS'\x93honey'
p4056
I4077
sS'whore'
p4057
I4078
sS'grind'
p4058
I4079
sS'done\x94'
p4059
I2177
sS'penni'
p4060
I313
sS'let'
p4061
I3414
sS'celine\x94'
p4062
I4083
sS'belane\x85\x94'
p4063
I4084
sS'butcher\x94'
p4064
I4085
sS'parti'
p4065
I1164
sS'began'
p4066
I4087
sS'fling'
p4067
I4088
sS'satisfi'
p4068
I4089
sS'cross'
p4069
I4090
sS'\x93yeah\x85\x94'
p4070
I4091
sS'\x93this\x94'
p4071
I2499
sS'\x93look\x94'
p4072
I4093
sS'handl'
p4073
I3627
sS'drugs\x94'
p4074
I4095
sS'belch'
p4075
I4096
sS'1996'
p4076
I3277
sS'fill'
p4077
I2156
sS'tingl'
p4078
I4099
sS'redder'
p4079
I4371
sS'outside\x94'
p4080
I3447
sS'again'
p4081
I2157
sS'\x93anoth'
p4082
I4103
sS'onscreen'
p4083
I4104
sS'bald'
p4084
I2592
sS'ankl'
p4085
I2597
sS'lobbi'
p4086
I3593
sS'fucker'
p4087
I3569
sS'\x93drive'
p4088
I4109
sS'beast'
p4089
I4110
sS'seventythre'
p4090
I4111
sS'student'
p4091
I4112
sS'vault'
p4092
I4113
sS'waxi'
p4093
I4076
sS'collar'
p4094
I4115
sS'donuts\x94'
p4095
I4116
sS'besmirch'
p4096
I2656
sS'\x93buy'
p4097
I4118
sS'off'
p4098
I4119
sS'center'
p4099
I4120
sS'i'
p4100
I4121
sS'weapon'
p4101
I1099
sS'contest'
p4102
I4377
sS'well'
p4103
I4124
sS'\x93shit\x94'
p4104
I4125
sS'jelli'
p4105
I4126
sS'thought'
p4106
I4127
sS'exampl'
p4107
I4128
sS'command'
p4108
I4129
sS'tower'
p4109
I4130
sS'choos'
p4110
I2726
sS'doin\x92\x94'
p4111
I4132
sS'do\x94'
p4112
I2583
sS'piec'
p4113
I4179
sS'meet'
p4114
I3516
sS'nerv'
p4115
I4134
sS'how\x92'
p4116
I4135
sS'paus'
p4117
I4136
sS'less'
p4118
I259
sS'oak'
p4119
I2379
sS'habits\x94'
p4120
I4139
sS'gun'
p4121
I4141
sS'\x93great'
p4122
I4142
sS'front'
p4123
I3637
sS'gettin\x92'
p4124
I4144
sS'whore\x94'
p4125
I4145
sS'sake\x94'
p4126
I4146
sS'\x93griffith'
p4127
I1882
sS'before\x94'
p4128
I4148
sS'tough'
p4129
I4149
sS'sunset'
p4130
I4150
sS'madam\x94'
p4131
I4151
sS'begin'
p4132
I1658
sS'web'
p4133
I4153
sS'now'
p4134
I1464
sS'3\x85\x94'
p4135
I3373
sS'how\x94'
p4136
I4155
sS'point'
p4137
I2888
sS'\x93doesn\x92t'
p4138
I4157
sS'\x93sign'
p4139
I4158
sS'knew'
p4140
I1665
sS'bench'
p4141
I4159
sS'drew'
p4142
I4160
sS'arrest'
p4143
I4161
sS'nicki'
p4144
I4162
sS'uh\x85spac'
p4145
I4163
sS'\x93thanks\x85\x94'
p4146
I4164
sS'crack'
p4147
I1425
sS'tax'
p4148
I4166
sS'loan\x94'
p4149
I4167
sS'uhhh\x94'
p4150
I2948
sS'sammi'
p4151
I4169
sS'match'
p4152
I992
sS'sanderson\x85\x94'
p4153
I4171
sS'\x93vodka'
p4154
I4172
sS'sidewis'
p4155
I4173
sS'sick'
p4156
I4174
sS'happen\x94'
p4157
I4175
sS'dement'
p4158
I3996
sS'taunt'
p4159
I4176
sS'mine\x94'
p4160
I4177
sS'immens'
p4161
I2167
sS'\x93now'
p4162
I3010
sS'\x93not'
p4163
I4180
sS'himself\x94'
p4164
I4181
sS'newsstand'
p4165
I4182
sS'realiz'
p4166
I4183
sS'five'
p4167
I4184
sS'know'
p4168
I4185
sS'me\x85\x94'
p4169
I2168
sS'press'
p4170
I4187
sS'agency\x85\x94'
p4171
I4188
sS'bukowski'
p4172
I4189
sS'resid'
p4173
I4191
sS'like'
p4174
I4192
sS'success'
p4175
I2617
sS'shoeblack'
p4176
I4194
sS'eric'
p4177
I4369
sS'\x93realli'
p4178
I3098
sS'\x9310'
p4179
I4196
sS'back\x94'
p4180
I3216
sS'\x9320'
p4181
I4197
sS'loser'
p4182
I4198
sS'her\x85\x94'
p4183
I4199
sS'stuff\x94'
p4184
I4200
sS'vortex'
p4185
I3124
sS'she\x92'
p4186
I4202
sS'mustach'
p4187
I4203
sS'lose'
p4188
I4204
sS'koldowsky\x92'
p4189
I4225
sS'polit'
p4190
I4205
sS'candl'
p4191
I4206
sS'proof\x94'
p4192
I3161
sS'page'
p4193
I4208
sS'candi'
p4194
I3167
sS'poor'
p4195
I2171
sS'revers'
p4196
I3977
sS'poop'
p4197
I4212
sS'us\x94'
p4198
I3571
sS'hush'
p4199
I3230
sS'\x93i'
p4200
I3236
sS'sweetheart\x94'
p4201
I4216
sS'110'
p4202
I4217
sS'still'
p4203
I3941
sS'flush'
p4204
I4218
sS'proper'
p4205
I4219
sS'pronto\x94'
p4206
I3257
sS'\x93a'
p4207
I4221
sS'doesn\x92t\x94'
p4208
I3264
sS'work\x94'
p4209
I4223
sS'flares\x85wher'
p4210
I4224
sS'test\x94'
p4211
I3289
sS'lead'
p4212
I4226
sS'henshit'
p4213
I4227
sS'broad'
p4214
I3303
sS'avoid'
p4215
I4229
sS'\x93it'
p4216
I4397
sS'lean'
p4217
I4231
sS'\x93ah'
p4218
I2441
sS'\x93no\x94'
p4219
I4232
sS'going\x94'
p4220
I3326
sS'leas'
p4221
I3329
sS'leap'
p4222
I4235
sS'leav'
p4223
I4236
sS'\x93kitty\x85\x94'
p4224
I4237
sS'2073'
p4225
I3344
sS'value\x85\x94'
p4226
I1376
sS'leader'
p4227
I4240
sS'\x93tails\x94'
p4228
I3722
sS'glendal'
p4229
I3372
sS'belan'
p4230
I4243
sS'\x93kitti'
p4231
I4244
sS'investig'
p4232
I4245
sS'gong\x94'
p4233
I4246
sS'slight'
p4234
I4247
sS'\x933'
p4235
I4248
sS'\x932'
p4236
I4249
sS'\x93shower'
p4237
I4250
sS'wino'
p4238
I4251
sS'gut\x94'
p4239
I4252
sS'\x936'
p4240
I4253
sS'nick\x94'
p4241
I4254
sS'\x934'
p4242
I2082
sS'\x93yeah\x94'
p4243
I4256
sS'although'
p4244
I4257
sS'\x93over\x94'
p4245
I3234
sS'dillon'
p4246
I4259
sS'slug'
p4247
I1927
sS'badly\x94'
p4248
I4261
sS'lawyer\x92'
p4249
I2904
sS'sister'
p4250
I3489
sS'quarter'
p4251
I4263
sS'actual'
p4252
I3495
sS'meet\x94'
p4253
I4265
sS'world'
p4254
I4266
sS'face'
p4255
I3847
sS'justic'
p4256
I4268
sS'right\x85\x94'
p4257
I3321
sS'are\x94'
p4258
I4269
sS'miner'
p4259
I4271
sS'\x93uhhh'
p4260
I2452
sS'fulham'
p4261
I4102
sS'swear'
p4262
I4273
sS'mistake\x94'
p4263
I4274
sS'sweat'
p4264
I4275
sS'source\x94'
p4265
I4276
sS'commerci'
p4266
I4277
sS'discard'
p4267
I4278
sS'scotch\x94'
p4268
I4279
sS'\x93if'
p4269
I4280
sS'he\x92ll'
p4270
I4281
sS'territori'
p4271
I2905
sS'owe'
p4272
I4283
sS'\x93fishstick'
p4273
I4284
sS'tiein\x94'
p4274
I4285
sS'stockmarket'
p4275
I3281
sS'barton\x94'
p4276
I4286
sS'pooper'
p4277
I4287
sS'hundr'
p4278
I2393
sS'http//wwwukharpercollinsebookscom'
p4279
I3651
sS'jeannie\x92'
p4280
I3656
sS'brush'
p4281
I4291
sS'awhil'
p4282
I4292
sS'eddie\x94'
p4283
I3664
sS'cokes\x94'
p4284
I4294
sS'fart'
p4285
I3570
sS'dug'
p4286
I2908
sS'invad'
p4287
I4297
sS'questionnaire\x94'
p4288
I4298
sS'1986'
p4289
I1796
sS'1987'
p4290
I4300
sS'1984'
p4291
I4301
sS'1982'
p4292
I3705
sS'1983'
p4293
I4303
sS'1981'
p4294
I1889
sS'\x93call'
p4295
I4305
sS'moistur'
p4296
I4002
sS'unbutton'
p4297
I4306
sS'1988'
p4298
I4307
sS'1989'
p4299
I4308
sS'trigger'
p4300
I2264
sS'inner'
p4301
I4310
sS'\x93go'
p4302
I4311
sS'biggest'
p4303
I4312
sS'troubl'
p4304
I4343
sS'gut'
p4305
I2598
sS'caper\x94'
p4306
I4314
sS'deliveri'
p4307
I4315
sS'buy'
p4308
I4316
sS'north'
p4309
I3805
sS'philosoph'
p4310
I4318
sS'agre'
p4311
I4319
sS'bus'
p4312
I4320
sS'coke'
p4313
I4321
sS'bother'
p4314
I3781
sS'but'
p4315
I4322
sS'continu'
p4316
I4323
sS'tonight\x85not'
p4317
I4324
sS'brassier'
p4318
I4325
sS'bun'
p4319
I4326
sS'\x93air'
p4320
I4327
sS'threaten'
p4321
I2915
sS'grate'
p4322
I4329
sS'sexi'
p4323
I3408
sS'dead\x94'
p4324
I1490
sS'oxford'
p4325
I2535
sS'coffee\x94'
p4326
I3886
sS'death\x94'
p4327
I3890
sS'\x93fat'
p4328
I3927
sS'jackass'
p4329
I3457
sS'wise'
p4330
I4335
sS'\x93suppos'
p4331
I4336
sS'death\x92'
p4332
I4337
sS'did\x94'
p4333
I1491
sS'veget'
p4334
I1947
sS'wish'
p4335
I4339
sS'smooth'
p4336
I530
sS'unlock'
p4337
I3243
sS'nightgown'
p4338
I414
sS'engend'
p4339
I2919
sS'limit'
p4340
I4345
sS'\x93long'
p4341
I4346
sS'yours\x94'
p4342
I3974
sS'working\x94'
p4343
I1766
sS'again\x94'
p4344
I4349
sS'place\x94'
p4345
I4350
sS'\x93can\x92t'
p4346
I4351
sS'blous'
p4347
I4352
sS'understand\x85\x94'
p4348
I4353
sS'chap\x94'
p4349
I3413
sS'where\x92d'
p4350
I4354
sS'whisper'
p4351
I4355
sS'dure'
p4352
I4030
sS'circus'
p4353
I4357
sS'childhood\x94'
p4354
I4358
sS'spanki'
p4355
I4359
sS'movi'
p4356
I3876
sS'twist'
p4357
I4361
sS'mad\x94'
p4358
I4362
sS'scratch\x94'
p4359
I1588
sS'\x93oooh'
p4360
I4061
sS'remember\x85\x94'
p4361
I4365
sS'1891\x94'
p4362
I4366
sS'minute\x94'
p4363
I987
sS'pit'
p4364
I129
sS'girl'
p4365
I1745
sS'inc'
p4366
I1121
sS'backwards\x94'
p4367
I4100
sS'diego'
p4368
I4372
sS'booz'
p4369
I4373
sS'pigtail'
p4370
I4374
sS'dissolut'
p4371
I4117
sS'48'
p4372
I4376
sS'49'
p4373
I4123
sS'46'
p4374
I4378
sS'salesman'
p4375
I3671
sS'44'
p4376
I4380
sS'45'
p4377
I4381
sS'42'
p4378
I1720
sS'43'
p4379
I4383
sS'40'
p4380
I4384
sS'41'
p4381
I4385
sS'other'
p4382
I1648
sS'futur'
p4383
I4387
sS'branch'
p4384
I392
sS'deadli'
p4385
I4389
sS'wing'
p4386
I1684
sS'well\x85yeah\x85\x94'
p4387
I503
sS'yet\x94'
p4388
I2930
sS'\x93naw\x94'
p4389
I4210
sS'canada'
p4390
I4392
sS'junk'
p4391
I4393
sS'repeat'
p4392
I4394
sS'star'
p4393
I4395
sS'monday'
p4394
I4396
sS'private\x94'
p4395
I4230
sS'class'
p4396
I3839
sS'but\x85\x94'
p4397
I4398
sS'\x93solv'
p4398
I4399
sS'stay'
p4399
I4400
sS'wallow'
p4400
I4401
sS'\x93nice'
p4401
I2752
sS'kinda'
p4402
I4403
sS'grab'
p4403
I3921
sS'kiddin\x92'
p4404
I4405
sS'\x93nick'
p4405
I4406
sS'sheri'
p4406
I4407
sS'\x93in'
p4407
I4408
sS'had\x94'
p4408
I4409
sS'appoint'
p4409
I4410
sS'\x93chinese\x94'
p4410
I4411
sS'stratospher'
p4411
I4412
sS'coat'
p4412
I2473
sS'pistol\x94'
p4413
I4414
sS'so\x85\x94'
p4414
I4415
sS'sass'
p4415
I126
sS'word\x94'
p4416
I3944
sS'neither\x94'
p4417
I4417
sS'appl'
p4418
I4309
sS'upsidedown'
p4419
I4419
sS'fifti'
p4420
I4420
sS'perhap'
p4421
I2620
sS'yell'
p4422
I4421
sS'road\x94'
p4423
I4422
s.