(dp0
S'better"'
p1
I0
sS'wagon"'
p2
I1
sS'woodi'
p3
I2
sS'hatr'
p4
I3
sS'all'
p5
I2682
sS'yellow'
p6
I6
sS'hitch'
p7
I7
sS'four'
p8
I8
sS'sleev'
p9
I10
sS'sleep'
p10
I11
sS'screaming"'
p11
I13
sS'mansion'
p12
I14
sS'dere'
p13
I16
sS'captain'
p14
I17
sS'hate'
p15
I18
sS'plenari'
p16
I19
sS'payoff'
p17
I20
sS'midafternoon'
p18
I21
sS'pedro'
p19
I22
sS'rootbeer'
p20
I2685
sS'birdshit'
p21
I24
sS'spew'
p22
I25
sS'sorri'
p23
I26
sS'up"'
p24
I27
sS'gertie"'
p25
I28
sS'corny"'
p26
I3591
sS'swap'
p27
I31
sS'under'
p28
I32
sS'patchen'
p29
I33
sS'lord'
p30
I34
sS'hedg'
p31
I35
sS'$40'
p32
I36
sS'sway'
p33
I37
sS'worth'
p34
I38
sS'"ah'
p35
I39
sS"shouldn't"
p36
I1811
sS'swivel'
p37
I41
sS'everi'
p38
I42
sS'risk'
p39
I43
sS'blanket'
p40
I45
sS'rise'
p41
I46
sS'sixteen'
p42
I3816
sS'voic'
p43
I47
sS'fishbowl'
p44
I49
sS'loom'
p45
I5178
sS'today"'
p46
I52
sS'upstream'
p47
I53
sS'month'
p48
I2691
sS"isn't"
p49
I3109
sS'vast'
p50
I57
sS'"i\'d'
p51
I4912
sS'party"'
p52
I58
sS"we'll"
p53
I59
sS'prize'
p54
I60
sS'beam'
p55
I4756
sS'wooden'
p56
I62
sS'"women"'
p57
I63
sS'duncan'
p58
I3387
sS'wednesday'
p59
I64
sS'huddl'
p60
I65
sS'solid'
p61
I3596
sS'soul"'
p62
I4202
sS'crotch'
p63
I462
sS'lucki'
p64
I4766
sS'"don\'t'
p65
I71
sS'straight'
p66
I3598
sS'enjoy'
p67
I73
sS'forget'
p68
I5233
sS'rusti'
p69
I4585
sS'"all'
p70
I76
sS'hord'
p71
I77
sS'me"'
p72
I78
sS'her"'
p73
I79
sS'shitpot"'
p74
I80
sS'bacon'
p75
I554
sS'direct'
p76
I82
sS'carfar'
p77
I83
sS'nail'
p78
I84
sS'hemorrhoids"'
p79
I3356
sS'second'
p80
I86
sS'street'
p81
I87
sS'"charley'
p82
I88
sS'semipriv'
p83
I89
sS'"short'
p84
I90
sS'maxson"'
p85
I5285
sS'7th'
p86
I92
sS'tommy"'
p87
I93
sS'hundred"'
p88
I94
sS'blue'
p89
I95
sS'race'
p90
I4097
sS'atlant'
p91
I2693
sS'hide'
p92
I96
sS'christ'
p93
I97
sS'entir'
p94
I4837
sS'pace'
p95
I3602
sS'thunder'
p96
I100
sS'century"'
p97
I101
sS'beaten'
p98
I102
sS'orchestra'
p99
I103
sS'change"'
p100
I104
sS'kid"'
p101
I106
sS'smashedup'
p102
I4013
sS'nicelook'
p103
I108
sS'tape"'
p104
I109
sS'unhand'
p105
I110
sS'new'
p106
I111
sS'maggots"'
p107
I112
sS'leave"'
p108
I113
sS'ever'
p109
I114
sS'"look'
p110
I3632
sS'told'
p111
I116
sS'med'
p112
I4134
sS'elimin'
p113
I118
sS'million'
p114
I1821
sS'crouch'
p115
I120
sS'welborn'
p116
I121
sS'herb'
p117
I802
sS'melodramat'
p118
I3548
sS'men'
p119
I123
sS'lodg'
p120
I124
sS'here'
p121
I126
sS'overground'
p122
I1823
sS'met'
p123
I128
sS'mew'
p124
I129
sS'china'
p125
I130
sS'"anna'
p126
I3608
sS'brigad'
p127
I133
sS'100'
p128
I134
sS'cardboard'
p129
I135
sS'enrol'
p130
I136
sS"i'v"
p131
I138
sS'luther'
p132
I139
sS'daughter'
p133
I141
sS'militari'
p134
I142
sS'anymor'
p135
I143
sS'tip"'
p136
I144
sS'bigtim'
p137
I955
sS'anchor'
p138
I2805
sS'dri'
p139
I148
sS'jame'
p140
I662
sS'icesk'
p141
I969
sS"i'd"
p142
I151
sS'"perhap'
p143
I152
sS'smoke'
p144
I153
sS'spin'
p145
I155
sS'california'
p146
I1826
sS"i'm"
p147
I157
sS'pack'
p148
I3612
sS'"whi'
p149
I158
sS'"oh"'
p150
I160
sS'tremend'
p151
I161
sS'hunch'
p152
I164
sS'molester"'
p153
I166
sS'search'
p154
I2837
sS'newspap'
p155
I167
sS'stink'
p156
I169
sS'root'
p157
I1514
sS'strap'
p158
I170
sS'brought'
p159
I171
sS'garag'
p160
I3455
sS'moral'
p161
I173
sS'dogburn'
p162
I174
sS'total'
p163
I175
sS'war"'
p164
I176
sS'angrili'
p165
I2423
sS'unit'
p166
I178
sS'movie"'
p167
I180
sS'plot'
p168
I181
sS'symphoni'
p169
I182
sS'threeleg'
p170
I183
sS'"heil'
p171
I184
sS'would'
p172
I185
sS'to'
p173
I2713
sS'sweater'
p174
I188
sS'prescript'
p175
I189
sS'shabbylook'
p176
I190
sS'alabam'
p177
I1067
sS'calv'
p178
I192
sS'insult'
p179
I85
sS'readi'
p180
I3618
sS'stories"'
p181
I195
sS'call'
p182
I196
sS'calm'
p183
I197
sS'right"'
p184
I198
sS'armi'
p185
I199
sS'roundshould'
p186
I200
sS'type'
p187
I202
sS'tell'
p188
I203
sS'calf'
p189
I204
sS'buddi'
p190
I205
sS'playboy'
p191
I206
sS'mother"'
p192
I2718
sS'relax'
p193
I209
sS'relat'
p194
I210
sS'notic'
p195
I211
sS'hurt'
p196
I1331
sS'warn'
p197
I1336
sS'phone'
p198
I214
sS'warm'
p199
I1345
sS'rimless'
p200
I216
sS'adult'
p201
I217
sS'holi'
p202
I218
sS'hurl'
p203
I219
sS'desper'
p204
I5218
sS'ward'
p205
I441
sS'hold'
p206
I221
sS'pouch'
p207
I222
sS'drinking"'
p208
I223
sS'overrun'
p209
I224
sS'must'
p210
I225
sS'shoot'
p211
I48
sS'lovewis'
p212
I227
sS'word'
p213
I229
sS'wore'
p214
I230
sS'books"'
p215
I231
sS'negligee"'
p216
I530
sS'pant'
p217
I2067
sS'work'
p218
I233
sS'worn'
p219
I234
sS'whack'
p220
I235
sS'streetsuit'
p221
I236
sS'locker'
p222
I237
sS'wors'
p223
I238
sS'"six'
p224
I2723
sS'mr'
p225
I240
sS'elbow'
p226
I241
sS'ernest'
p227
I242
sS'"born'
p228
I243
sS'hansen'
p229
I244
sS'my'
p230
I245
sS'neckti'
p231
I246
sS'shook'
p232
I247
sS'loosen'
p233
I249
sS'quiver'
p234
I250
sS'eyebal'
p235
I1548
sS'give'
p236
I252
sS'punk'
p237
I1843
sS'mouthpiece"'
p238
I254
sS'flung'
p239
I255
sS'india'
p240
I256
sS'indic'
p241
I257
sS'"love'
p242
I258
sS'yellowjacket'
p243
I260
sS'woman'
p244
I2727
sS'overheard'
p245
I4887
sS'want'
p246
I263
sS'basebal'
p247
I264
sS'exshowgirl'
p248
I265
sS'keep'
p249
I4525
sS'attract'
p250
I266
sS'rocks"'
p251
I267
sS'cigarette"'
p252
I269
sS'rie'
p253
I4680
sS'end'
p254
I272
sS'solitud'
p255
I273
sS'races"'
p256
I274
sS'thing'
p257
I1848
sS'polic'
p258
I276
sS'anguish'
p259
I4022
sS'travel'
p260
I278
sS'around"'
p261
I279
sS'800'
p262
I280
sS'ceremoni'
p263
I281
sS'how'
p264
I282
sS'hot'
p265
I283
sS'communist'
p266
I4741
sS'recoveri'
p267
I721
sS'answer'
p268
I286
sS'agoni'
p269
I287
sS'more'
p270
I2897
sS'girls"'
p271
I288
sS'beach'
p272
I289
sS"doesn't"
p273
I4557
sS'polit'
p274
I290
sS'overpopul'
p275
I292
sS'food"'
p276
I293
sS'recogn'
p277
I294
sS'outsid'
p278
I4529
sS'grandad'
p279
I296
sS'both"'
p280
I298
sS'"he'
p281
I2732
sS'ladder'
p282
I300
sS'after'
p283
I301
sS'"harri'
p284
I302
sS'pimpl'
p285
I303
sS'less'
p286
I5047
sS'befor'
p287
I304
sS'wrong'
p288
I305
sS'lay'
p289
I306
sS'beauti'
p290
I307
sS'orleans"'
p291
I308
sS'"live'
p292
I309
sS'law'
p293
I310
sS'lap'
p294
I311
sS'parallel'
p295
I4531
sS'averag'
p296
I313
sS'reshap'
p297
I314
sS'"asshol'
p298
I316
sS'writer"'
p299
I317
sS'turd'
p300
I5376
sS'attempt'
p301
I319
sS'driblet'
p302
I320
sS'third'
p303
I321
sS'amid'
p304
I323
sS'spout'
p305
I324
sS'strict'
p306
I4562
sS'lost'
p307
I5109
sS'think'
p308
I1855
sS'wink'
p309
I327
sS'college"'
p310
I2739
sS'green'
p311
I329
sS'wino'
p312
I330
sS'enter'
p313
I2744
sS'button'
p314
I4092
sS'winc'
p315
I332
sS'sandal'
p316
I3720
sS'someplac'
p317
I333
sS'order'
p318
I334
sS'wind'
p319
I335
sS'wine'
p320
I336
sS'origin'
p321
I1858
sS'cong'
p322
I4173
sS'deform'
p323
I341
sS'deck'
p324
I342
sS'adul'
p325
I343
sS'consent'
p326
I344
sS'over'
p327
I345
sS'orang'
p328
I346
sS'becaus'
p329
I347
sS'typewrit'
p330
I348
sS'veri'
p331
I2742
sS'"where\'d'
p332
I350
sS'finest'
p333
I4534
sS'privileg'
p334
I351
sS'"put'
p335
I352
sS'mabel'
p336
I353
sS'knock'
p337
I3755
sS'fumes"'
p338
I355
sS'ashamed"'
p339
I356
sS'so"'
p340
I1962
sS'down"'
p341
I358
sS'hook'
p342
I3092
sS'mayor'
p343
I359
sS'exwif'
p344
I360
sS'showercap'
p345
I2146
sS'zirrrrrrr'
p346
I4951
sS'gentl'
p347
I363
sS'fit'
p348
I364
sS'"say'
p349
I365
sS'then"'
p350
I366
sS'fix'
p351
I367
sS'thick"'
p352
I4592
sS'denver'
p353
I368
sS'fag'
p354
I4442
sS'better'
p355
I370
sS'beatnick'
p356
I371
sS'offic'
p357
I372
sS'willhan'
p358
I168
sS'fade'
p359
I374
sS'anymore"'
p360
I1863
sS'bloodspots"'
p361
I376
sS'dole"'
p362
I377
sS'easier'
p363
I2256
sS'"drink'
p364
I379
sS'bastards"'
p365
I380
sS'undress'
p366
I3784
sS'then'
p367
I381
sS'them'
p368
I382
sS'anim'
p369
I383
sS'tourist'
p370
I384
sS'poppa'
p371
I1006
sS'qualiti'
p372
I4541
sS'safe'
p373
I387
sS'school'
p374
I388
sS'break'
p375
I390
sS'band'
p376
I391
sS'bang'
p377
I392
sS'heaven'
p378
I2748
sS'promis'
p379
I394
sS'flynn"'
p380
I395
sS'they'
p381
I396
sS'interrupt'
p382
I397
sS'realign'
p383
I4818
sS'one'
p384
I1866
sS'rental'
p385
I399
sS'bank'
p386
I401
sS'bread'
p387
I402
sS'celebrating"'
p388
I403
sS'choic'
p389
I404
sS'im"'
p390
I405
sS'grammar'
p391
I406
sS'meat'
p392
I407
sS'hope'
p393
I4744
sS'landladi'
p394
I4008
sS'week"'
p395
I409
sS'detroit'
p396
I411
sS'spotless'
p397
I413
sS'abl'
p398
I3143
sS'fuckedup'
p399
I414
sS'roast'
p400
I415
sS'each'
p401
I416
sS'$50'
p402
I417
sS'went'
p403
I418
sS'some"'
p404
I3267
sS'oblig'
p405
I420
sS'side'
p406
I421
sS'bone'
p407
I422
sS'luck'
p408
I423
sS'wheel'
p409
I424
sS'hitchhik'
p410
I425
sS"we'r"
p411
I426
sS"we'v"
p412
I427
sS'navi'
p413
I428
sS'resum'
p414
I429
sS'intended"'
p415
I430
sS'spider'
p416
I431
sS'thelma'
p417
I432
sS'dishwasher"'
p418
I434
sS'taught'
p419
I436
sS"we'd"
p420
I437
sS'forgot'
p421
I438
sS'raid'
p422
I439
sS'dawn'
p423
I440
sS'saturday'
p424
I248
sS'whip'
p425
I443
sS'forgiven'
p426
I5167
sS'depress'
p427
I445
sS'at"'
p428
I448
sS'finished"'
p429
I449
sS'flea'
p430
I5054
sS'goe'
p431
I451
sS'god'
p432
I452
sS'cellar"'
p433
I453
sS'dime'
p434
I3660
sS'mason'
p435
I454
sS'content'
p436
I455
sS'laid'
p437
I456
sS'daniel'
p438
I457
sS'reader'
p439
I458
sS'got'
p440
I459
sS'eunuch"'
p441
I4968
sS'forth'
p442
I460
sS'forti'
p443
I461
sS'unus'
p444
I4304
sS'halfdrunk'
p445
I464
sS'built"'
p446
I465
sS'worthwhil'
p447
I1150
sS'"ain\'t'
p448
I467
sS'nightmar'
p449
I468
sS'stella'
p450
I2847
sS'situat'
p451
I469
sS'conni'
p452
I1132
sS'free'
p453
I471
sS'standard'
p454
I472
sS'"hey'
p455
I473
sS'patient"'
p456
I4559
sS'snake"'
p457
I476
sS'rain'
p458
I3263
sS'piss"'
p459
I478
sS'"son'
p460
I480
sS'pretend'
p461
I4105
sS'knit'
p462
I481
sS'fring'
p463
I482
sS'skin"'
p464
I483
sS'whammi'
p465
I1108
sS'sexy"'
p466
I4688
sS'lousi'
p467
I486
sS'parti'
p468
I4987
sS'ate'
p469
I487
sS'teenag'
p470
I1881
sS'puzzl'
p471
I489
sS'maniac'
p472
I490
sS'angl'
p473
I2928
sS'"nurs'
p474
I492
sS'"inde'
p475
I3930
sS'fighting"'
p476
I5231
sS'pulitz'
p477
I4866
sS'sidebysid'
p478
I179
sS'filter'
p479
I495
sS'loui'
p480
I2969
sS'barb'
p481
I4610
sS'"7'
p482
I497
sS'"no'
p483
I498
sS'hopeless'
p484
I499
sS'fever"'
p485
I500
sS'please"'
p486
I4764
sS'confus'
p487
I501
sS'caught'
p488
I1884
sS'boiler'
p489
I504
sS'fantasi'
p490
I2227
sS'rang'
p491
I507
sS'slept'
p492
I1885
sS'too"'
p493
I509
sS'chonjacki'
p494
I510
sS'natur'
p495
I4110
sS'trembl'
p496
I4567
sS'hoop'
p497
I514
sS'wast'
p498
I516
sS'rank'
p499
I517
sS'necess'
p500
I518
sS'wash'
p501
I519
sS'instruct'
p502
I520
sS'alreadi'
p503
I521
sS'comin'
p504
I522
sS'sober'
p505
I523
sS'$420'
p506
I524
sS'agre'
p507
I525
sS'"we\'v'
p508
I526
sS'hood'
p509
I528
sS'"read'
p510
I529
sS'chanc'
p511
I4190
sS'their'
p512
I4570
sS'top'
p513
I534
sS'speci'
p514
I535
sS'twentyf'
p515
I536
sS'sometim'
p516
I537
sS"he'll"
p517
I2365
sS'begin"'
p518
I312
sS'sure"'
p519
I540
sS'shiver'
p520
I1893
sS'ton'
p521
I542
sS'too'
p522
I543
sS'tom'
p523
I544
sS'bunch'
p524
I4388
sS'hollywood'
p525
I545
sS'"nobody"'
p526
I546
sS'bitter'
p527
I547
sS'tog'
p528
I548
sS'listen'
p529
I549
sS'nibbl'
p530
I1000
sS'floor"'
p531
I551
sS'murder'
p532
I552
sS'classes"'
p533
I4831
sS'gym'
p534
I555
sS'lunger'
p535
I556
sS'took'
p536
I557
sS'lighthil'
p537
I1001
sS'western'
p538
I559
sS'somewhat'
p539
I560
sS'champ"'
p540
I561
sS'happili'
p541
I562
sS'was"'
p542
I563
sS'crawl'
p543
I564
sS'"love"'
p544
I2255
sS'lather'
p545
I566
sS'"good'
p546
I567
sS'"make'
p547
I568
sS'guild'
p548
I569
sS'mouthpiec'
p549
I570
sS'bongo'
p550
I3532
sS'hike'
p551
I571
sS'coward'
p552
I572
sS'dimpl'
p553
I573
sS'tree'
p554
I574
sS'hors'
p555
I575
sS'final'
p556
I4578
sS'shower'
p557
I577
sS'matter'
p558
I578
sS'louder'
p559
I579
sS'flame'
p560
I580
sS'sheen'
p561
I3139
sS'iron'
p562
I582
sS'"ooo'
p563
I5278
sS'to"'
p564
I584
sS'sooth'
p565
I228
sS'minut'
p566
I586
sS'10th'
p567
I587
sS'girl"'
p568
I588
sS'"she\'ll'
p569
I589
sS'mini'
p570
I590
sS'scabbi'
p571
I591
sS'fashion'
p572
I2761
sS'disturb'
p573
I593
sS'handkerchief'
p574
I594
sS'"let'
p575
I1902
sS'ran'
p576
I596
sS'over"'
p577
I212
sS'modern'
p578
I597
sS'mind'
p579
I598
sS'mine'
p580
I599
sS'1972'
p581
I600
sS'sensible"'
p582
I601
sS'raw'
p583
I602
sS'rat'
p584
I3600
sS'manner'
p585
I270
sS'rap'
p586
I606
sS'seltzer'
p587
I607
sS'seen'
p588
I608
sS'seem'
p589
I609
sS'ocean'
p590
I610
sS'"five'
p591
I4109
sS'hire'
p592
I4754
sS'swallowed"'
p593
I611
sS'dozen'
p594
I612
sS'cheep'
p595
I3686
sS'drunk"'
p596
I614
sS'strength'
p597
I615
sS'harmless'
p598
I3061
sS'awhile"'
p599
I5389
sS'do"'
p600
I617
sS'1965'
p601
I618
sS'dunno'
p602
I1840
sS'snow'
p603
I620
sS'guys"'
p604
I621
sS'on"'
p605
I1907
sS'chest'
p606
I623
sS'client'
p607
I624
sS'should"'
p608
I2788
sS'hum'
p609
I1908
sS'soup"'
p610
I627
sS'magnum'
p611
I628
sS'alkaseltz'
p612
I629
sS'quarterback'
p613
I631
sS'bottle"'
p614
I632
sS'even'
p615
I633
sS'crippl'
p616
I1168
sS'insur'
p617
I636
sS'elev'
p618
I3692
sS'plenti'
p619
I3799
sS'though'
p620
I639
sS'boxcar'
p621
I641
sS'object'
p622
I642
sS'variouss'
p623
I764
sS'exlov'
p624
I4940
sS'marin'
p625
I645
sS'quit'
p626
I4891
sS'gravi'
p627
I646
sS'regular'
p628
I647
sS'mouth'
p629
I648
sS'see"'
p630
I649
sS'letter'
p631
I650
sS'w^e'
p632
I651
sS'long"'
p633
I603
sS'eagl'
p634
I1913
sS'everyth'
p635
I654
sS'grave'
p636
I655
sS'eyeless'
p637
I656
sS'known'
p638
I2911
sS'hut'
p639
I1914
sS'singer'
p640
I658
sS'excus'
p641
I659
sS'door"'
p642
I661
sS'prong'
p643
I5367
sS'tast'
p644
I3697
sS'flop'
p645
I664
sS'flow'
p646
I665
sS'ride"'
p647
I666
sS'hospit'
p648
I531
sS'vicki'
p649
I4944
sS'swamp'
p650
I668
sS'declar'
p651
I670
sS'"sold"'
p652
I671
sS'"pardon'
p653
I673
sS'hotdog'
p654
I3699
sS'scotch'
p655
I675
sS'scream'
p656
I676
sS'came'
p657
I677
sS'marvel'
p658
I678
sS'fonda'
p659
I4965
sS'bomb'
p660
I679
sS'pope'
p661
I680
sS'endear'
p662
I681
sS'opposit'
p663
I682
sS'queen'
p664
I4095
sS'chonjacki"'
p665
I684
sS'dupe'
p666
I686
sS'agon'
p667
I2082
sS'radio'
p668
I689
sS'sown'
p669
I690
sS'ulcer'
p670
I691
sS'queer'
p671
I692
sS'earth'
p672
I694
sS'smog'
p673
I4493
sS'bail'
p674
I695
sS'socrat'
p675
I2017
sS'bastard"'
p676
I1026
sS'nervous"'
p677
I697
sS'absolut'
p678
I698
sS'northeast'
p679
I699
sS'bedpan'
p680
I700
sS'jorgenson'
p681
I701
sS'pledg'
p682
I702
sS'herself'
p683
I4596
sS'explain'
p684
I704
sS'wrinkl'
p685
I3420
sS'proclam'
p686
I706
sS'bust'
p687
I707
sS'sugar'
p688
I708
sS'bush'
p689
I710
sS'busi'
p690
I711
sS'damndest'
p691
I712
sS'rick'
p692
I713
sS'disgust'
p693
I714
sS'motherlov'
p694
I715
sS'tight"'
p695
I716
sS'spitz'
p696
I717
sS'ship"'
p697
I4453
sS'do'
p698
I719
sS'wide'
p699
I1924
sS'whatz"'
p700
I5277
sS'nasti'
p701
I722
sS'jackoff'
p702
I723
sS'watch'
p703
I724
sS'dope"'
p704
I725
sS'coast'
p705
I726
sS'pocket'
p706
I727
sS'about"'
p707
I728
sS'giggl'
p708
I729
sS'mention'
p709
I4424
sS'rest"'
p710
I732
sS'report'
p711
I2263
sS'dt'
p712
I734
sS'dr'
p713
I735
sS'randal'
p714
I737
sS'earn'
p715
I738
sS'bar'
p716
I739
sS'gauz'
p717
I740
sS'"men'
p718
I741
sS'telegram"'
p719
I743
sS'guts"'
p720
I744
sS'16'
p721
I1930
sS'trap"'
p722
I3063
sS'secretari'
p723
I747
sS'tellectu'
p724
I748
sS'twice'
p725
I749
sS'bad'
p726
I750
sS'humor'
p727
I1128
sS'them"'
p728
I753
sS'triangl'
p729
I3882
sS'stinger'
p730
I755
sS'weekend"'
p731
I756
sS'steal'
p732
I757
sS'pipedin'
p733
I2156
sS'men"'
p734
I759
sS'respond'
p735
I760
sS'blew'
p736
I4542
sS'fair'
p737
I763
sS'our'
p738
I4471
sS'liquor'
p739
I765
sS'"split'
p740
I766
sS'bgirl'
p741
I767
sS'peachfac'
p742
I2666
sS'resist'
p743
I769
sS'scourg'
p744
I770
sS'full'
p745
I2816
sS'unworthi'
p746
I1854
sS'bed'
p747
I4605
sS'"bighol'
p748
I774
sS'hero'
p749
I777
sS'bee'
p750
I4606
sS'hammer'
p751
I779
sS'"fuck'
p752
I780
sS'best'
p753
I781
sS'krysiak'
p754
I782
sS'lovabl'
p755
I783
sS'"tri'
p756
I957
sS'said'
p757
I786
sS'berryman'
p758
I787
sS'goldwat'
p759
I2766
sS'face"'
p760
I789
sS'"besid'
p761
I4608
sS'away'
p762
I790
sS'sail'
p763
I791
sS'gentleman'
p764
I792
sS'prude"'
p765
I4609
sS'unaccustom'
p766
I794
sS'discoveri'
p767
I795
sS'"oh'
p768
I796
sS'mud'
p769
I797
sS"there'r"
p770
I511
sS'lightheavi'
p771
I799
sS'finger'
p772
I800
sS'"on'
p773
I801
sS'atroc'
p774
I803
sS'drawn'
p775
I804
sS'drawl'
p776
I805
sS'approach'
p777
I806
sS'"of'
p778
I807
sS'we'
p779
I808
sS'never'
p780
I809
sS'wa'
p781
I810
sS'involved"'
p782
I811
sS'weak'
p783
I813
sS'dogood'
p784
I814
sS'lotion'
p785
I3147
sS'extens'
p786
I816
sS'lazi'
p787
I817
sS'harper'
p788
I3687
sS'sillyass'
p789
I819
sS'wear'
p790
I820
sS'wheelbarrow'
p791
I705
sS'autograph'
p792
I3674
sS'news'
p793
I824
sS'advertis'
p794
I825
sS"haven't"
p795
I3068
sS'nuisanc'
p796
I1942
sS'roller'
p797
I828
sS'kitchen'
p798
I829
sS'pressure"'
p799
I830
sS'cop'
p800
I831
sS'goddess'
p801
I832
sS'"bring'
p802
I833
sS'"meaning"'
p803
I834
sS'normandi'
p804
I835
sS'downandout'
p805
I836
sS'sherri"'
p806
I837
sS'howev'
p807
I838
sS'unemploy'
p808
I12
sS'juba'
p809
I840
sS'movement'
p810
I2813
sS'against'
p811
I841
sS'dawn"'
p812
I1945
sS'piti'
p813
I843
sS'und'
p814
I845
sS'draw"'
p815
I846
sS'logic'
p816
I847
sS'countri'
p817
I848
sS"they'r"
p818
I3408
sS'shittin'
p819
I4481
sS'coor'
p820
I2944
sS'"green'
p821
I412
sS'jack'
p822
I850
sS'con'
p823
I851
sS'money"'
p824
I852
sS'30th'
p825
I853
sS'assur'
p826
I855
sS'winos"'
p827
I98
sS'rug'
p828
I3823
sS'toni'
p829
I5072
sS'trunk'
p830
I2828
sS'delic'
p831
I1950
sS'height'
p832
I863
sS'"and'
p833
I864
sS'canyon'
p834
I865
sS'shakespear'
p835
I4619
sS'bygones"'
p836
I867
sS'path'
p837
I868
sS'paradis'
p838
I869
sS'trust'
p839
I870
sS'"ani'
p840
I871
sS'"maja'
p841
I872
sS'hitler'
p842
I873
sS'speak'
p843
I874
sS'bathroom'
p844
I875
sS"aren't"
p845
I876
sS'jobless'
p846
I877
sS'beef'
p847
I878
sS'"ladi'
p848
I117
sS'union'
p849
I880
sS'"80'
p850
I881
sS'fri'
p851
I882
sS'"sexual'
p852
I1954
sS'three'
p853
I883
sS'been'
p854
I884
sS'motherstruck'
p855
I885
sS'"when\'d'
p856
I886
sS'forev'
p857
I4732
sS'beer'
p858
I887
sS'much'
p859
I888
sS'communion'
p860
I889
sS'interest'
p861
I890
sS'basic'
p862
I891
sS'"blue'
p863
I892
sS'grenades"'
p864
I893
sS'were"'
p865
I894
sS'threw'
p866
I895
sS'lockup'
p867
I896
sS'life'
p868
I897
sS'walter'
p869
I5300
sS'tyron'
p870
I4769
sS'spit'
p871
I900
sS'fucking"'
p872
I901
sS'nobodi'
p873
I4595
sS'"sorry"'
p874
I903
sS'worker'
p875
I904
sS'hudson"'
p876
I905
sS'anywher'
p877
I906
sS'lift'
p878
I907
sS'"cancer"'
p879
I908
sS'slap'
p880
I1958
sS'church"'
p881
I910
sS'child'
p882
I911
sS'catch'
p883
I912
sS'worse"'
p884
I913
sS'"hey"'
p885
I914
sS'pecker'
p886
I915
sS'blond"'
p887
I916
sS'cunt'
p888
I917
sS'$2000'
p889
I918
sS'ugli'
p890
I919
sS'ident'
p891
I50
sS'tank'
p892
I921
sS'sculpt'
p893
I922
sS'intercourse"'
p894
I70
sS'servic'
p895
I924
sS'properti'
p896
I925
sS'hitler"'
p897
I926
sS'air'
p898
I927
sS'employ'
p899
I928
sS'near'
p900
I929
sS'known"'
p901
I107
sS'marriag'
p902
I931
sS'ask"'
p903
I932
sS'vagu'
p904
I140
sS'"stay'
p905
I730
sS'k'
p906
I936
sS'receptionist'
p907
I2937
sS'onlook'
p908
I938
sS'"sound'
p909
I939
sS'seven'
p910
I940
sS'dizzi'
p911
I941
sS'rump'
p912
I5302
sS'"a'
p913
I942
sS'neighborliood'
p914
I943
sS'mexico'
p915
I944
sS'faith"'
p916
I945
sS'working"'
p917
I946
sS'is'
p918
I947
sS'"o'
p919
I450
sS'it'
p920
I949
sS'ii'
p921
I951
sS'shame'
p922
I446
sS'eighteen'
p923
I3927
sS'brake'
p924
I954
sS'cone'
p925
I4132
sS'process'
p926
I4288
sS'in'
p927
I956
sS'sever'
p928
I959
sS'if'
p929
I960
sS'rythm'
p930
I297
sS'belli'
p931
I963
sS'credit'
p932
I1069
sS'receiv'
p933
I965
sS'suggest'
p934
I331
sS'make'
p935
I967
sS'niki'
p936
I340
sS'airport'
p937
I3179
sS'threeday'
p938
I970
sS'cellophan'
p939
I971
sS'forehead'
p940
I972
sS'complex'
p941
I973
sS'split'
p942
I974
sS'jungl'
p943
I975
sS'dying"'
p944
I976
sS'smoke"'
p945
I977
sS'listening"'
p946
I978
sS'hank'
p947
I979
sS'overn'
p948
I980
sS'can"'
p949
I981
sS'summerfield'
p950
I982
sS'evid'
p951
I983
sS'overf'
p952
I984
sS'pick'
p953
I2850
sS'hang'
p954
I986
sS'bastard'
p955
I4639
sS'evil'
p956
I988
sS'hand'
p957
I989
sS'delight'
p958
I990
sS'superior'
p959
I4832
sS'rais'
p960
I991
sS'"0'
p961
I992
sS'warden'
p962
I993
sS'wellf'
p963
I4665
sS'nip'
p964
I995
sS'i"'
p965
I996
sS'"who'
p966
I997
sS'kid'
p967
I999
sS'butter'
p968
I550
sS'dylan'
p969
I558
sS'kept'
p970
I1002
sS'soak'
p971
I4641
sS'romp'
p972
I1004
sS'mind"'
p973
I4828
sS'drip'
p974
I1007
sS'inherit'
p975
I1008
sS'aisl'
p976
I1009
sS'$2500"'
p977
I1011
sS'unhook'
p978
I1012
sS'contact'
p979
I1013
sS'greatest'
p980
I1015
sS'cool"'
p981
I1016
sS'mother'
p982
I1017
sS'thing"'
p983
I1018
sS'the'
p984
I1019
sS'portabl'
p985
I1020
sS'cure'
p986
I2259
sS'left'
p987
I1022
sS'$1850'
p988
I3132
sS'medicin'
p989
I2857
sS'zircoff'
p990
I1024
sS"she'll"
p991
I1025
sS'loudspeak'
p992
I4341
sS'indign'
p993
I696
sS'just'
p994
I1027
sS'"jeanie"'
p995
I1029
sS'photo'
p996
I1030
sS'"leav'
p997
I3615
sS'slid'
p998
I4282
sS'mixed"'
p999
I751
sS'human'
p1000
I1035
sS'sailor"'
p1001
I1037
sS'yes'
p1002
I1038
sS'dignifi'
p1003
I1039
sS'sleepi'
p1004
I1040
sS'yet'
p1005
I1041
sS'languag'
p1006
I1042
sS'previous'
p1007
I1043
sS'note'
p1008
I1982
sS'tired"'
p1009
I1045
sS'office"'
p1010
I1047
sS'easi'
p1011
I1048
sS'1979'
p1012
I1049
sS'had'
p1013
I1052
sS'about'
p1014
I5194
sS'shout'
p1015
I1054
sS'spread'
p1016
I1055
sS'board'
p1017
I1057
sS'prison'
p1018
I1059
sS'els'
p1019
I1060
sS'save'
p1020
I1061
sS'hat'
p1021
I1062
sS'cosmopolitan'
p1022
I5257
sS'blade'
p1023
I5148
sS'gave'
p1024
I934
sS'country"'
p1025
I1064
sS'chust'
p1026
I1065
sS'fighter"'
p1027
I1066
sS'mayb'
p1028
I1068
sS'damn"'
p1029
I3107
sS'purchas'
p1030
I4961
sS'leisur'
p1031
I3756
sS'vaniti'
p1032
I1071
sS'machin'
p1033
I3814
sS'leagu'
p1034
I1072
sS'combin'
p1035
I4513
sS'sleep"'
p1036
I1073
sS'god"'
p1037
I1074
sS'mason"'
p1038
I1075
sS'meati'
p1039
I1076
sS'retreat'
p1040
I1077
sS'apart'
p1041
I1078
sS'shoulder'
p1042
I1079
sS'measur'
p1043
I1080
sS'sink"'
p1044
I1081
sS'nimbl'
p1045
I1082
sS'horse"'
p1046
I2487
sS'bygon'
p1047
I1086
sS'"listen'
p1048
I4652
sS'ha"'
p1049
I1088
sS'hunt'
p1050
I1089
sS'negat'
p1051
I1090
sS'50'
p1052
I1091
sS'pencil'
p1053
I4237
sS'52'
p1054
I1122
sS'remind'
p1055
I1093
sS'pavement'
p1056
I1094
sS'hunk'
p1057
I1095
sS'37'
p1058
I4179
sS'night'
p1059
I1097
sS'hung'
p1060
I1098
sS'wakoski'
p1061
I1099
sS'gifi'
p1062
I1100
sS'any"'
p1063
I1101
sS'57'
p1064
I1102
sS'hunchback'
p1065
I1103
sS'jean'
p1066
I1104
sS'right'
p1067
I1105
sS'old'
p1068
I1106
sS'famili'
p1069
I2869
sS'crowd'
p1070
I1107
sS'anna"'
p1071
I1109
sS'overhung'
p1072
I1110
sS'mysteri'
p1073
I3099
sS'crown'
p1074
I785
sS'somehow'
p1075
I1112
sS'percentag'
p1076
I998
sS'"will'
p1077
I1114
sS'revel'
p1078
I1259
sS'usher'
p1079
I1117
sS'left"'
p1080
I1118
sS'dear'
p1081
I1119
sS'pain'
p1082
I1997
sS'bore'
p1083
I1121
sS'guess'
p1084
I3222
sS'"keep'
p1085
I1302
sS'creep'
p1086
I1124
sS'forgotten'
p1087
I3524
sS'witti'
p1088
I1125
sS'chorus'
p1089
I3767
sS'"conni'
p1090
I1127
sS'easiest"'
p1091
I68
sS'buildup'
p1092
I4206
sS'for'
p1093
I1129
sS'bottom'
p1094
I1130
sS'island"'
p1095
I1131
sS'masant'
p1096
I1353
sS'flush'
p1097
I5145
sS'ice'
p1098
I1135
sS'tonight"'
p1099
I1136
sS'syphilit'
p1100
I1137
sS'eleph'
p1101
I1138
sS'select'
p1102
I2874
sS'margie"'
p1103
I1140
sS'"look"'
p1104
I1141
sS'month"'
p1105
I1142
sS'walkup'
p1106
I4661
sS'cord'
p1107
I1144
sS'peek'
p1108
I1145
sS'sensibl'
p1109
I1147
sS'bold'
p1110
I1148
sS'peel'
p1111
I1149
sS'cabbi'
p1112
I1151
sS'insecur'
p1113
I1482
sS'pose'
p1114
I1154
sS'buri'
p1115
I1155
sS'anyhow'
p1116
I4512
sS'cork'
p1117
I1157
sS'marri'
p1118
I4100
sS'burt'
p1119
I1158
sS'jackhamm'
p1120
I1159
sS'"father'
p1121
I1160
sS'colleg'
p1122
I1161
sS'promot'
p1123
I1162
sS'muscatel'
p1124
I1164
sS'post'
p1125
I1165
sS'looking"'
p1126
I4666
sS'starveddown'
p1127
I1166
sS'spoke'
p1128
I1083
sS'pacoima'
p1129
I2712
sS'prairi'
p1130
I3811
sS'hippi'
p1131
I5168
sS'eat'
p1132
I5274
sS'$75'
p1133
I1169
sS'"ok'
p1134
I2705
sS'honeydew"'
p1135
I1170
sS'arcad'
p1136
I1171
sS'burbank'
p1137
I1172
sS'machinegun'
p1138
I3773
sS'gentler'
p1139
I1174
sS'dinner'
p1140
I1176
sS'plus'
p1141
I1177
sS'afternoon'
p1142
I1178
sS'"ooooooh'
p1143
I1179
sS'eight'
p1144
I4670
sS'twitch'
p1145
I99
sS'octopus'
p1146
I1182
sS'produc'
p1147
I1183
sS'ordinari'
p1148
I4983
sS'this'
p1149
I4266
sS'telephon'
p1150
I1186
sS'weeowe'
p1151
I669
sS'civil'
p1152
I1189
sS'for"'
p1153
I1190
sS'bounc'
p1154
I1191
sS'float'
p1155
I1192
sS'profession'
p1156
I1193
sS'bound'
p1157
I1194
sS'build'
p1158
I3736
sS'bath'
p1159
I1195
sS'down'
p1160
I1196
sS'pair'
p1161
I2009
sS'steer"'
p1162
I1198
sS'buddy"'
p1163
I4416
sS'knee'
p1164
I2010
sS'wrap'
p1165
I1201
sS'tiger"'
p1166
I1202
sS'soon'
p1167
I3032
sS'education"'
p1168
I1317
sS'east'
p1169
I1206
sS'snug"'
p1170
I1207
sS'lay"'
p1171
I1208
sS'deal'
p1172
I1209
sS'marti'
p1173
I4855
sS'psychot'
p1174
I1842
sS'frustrat'
p1175
I1212
sS'support'
p1176
I1213
sS'"name'
p1177
I3889
sS'due"'
p1178
I1214
sS'sunlight'
p1179
I1215
sS'happi'
p1180
I1216
sS'avail'
p1181
I1217
sS'imit'
p1182
I1218
sS'fought'
p1183
I1220
sS'editor'
p1184
I1221
sS'way'
p1185
I1222
sS'wax'
p1186
I1223
sS'broadway"'
p1187
I4761
sS'overhead'
p1188
I553
sS'was'
p1189
I1225
sS'war'
p1190
I1226
sS'overhang'
p1191
I1227
sS'fork'
p1192
I1228
sS'"none'
p1193
I1229
sS'head'
p1194
I1230
sS'medium'
p1195
I1231
sS'amateur'
p1196
I1232
sS'secondhand'
p1197
I1233
sS'form'
p1198
I1234
sS'offer'
p1199
I1235
sS'forc'
p1200
I1236
sS'deaf'
p1201
I1111
sS'spike'
p1202
I1378
sS'"show'
p1203
I1240
sS'ford'
p1204
I2941
sS'26th'
p1205
I1243
sS'heat'
p1206
I1245
sS'chinaski"'
p1207
I1246
sS'hear'
p1208
I1247
sS'what"'
p1209
I1248
sS'refriger'
p1210
I1249
sS'hmmmmmmm'
p1211
I1250
sS'pay"'
p1212
I1251
sS'berl'
p1213
I1252
sS'laura"'
p1214
I1253
sS'true'
p1215
I1254
sS'220'
p1216
I1255
sS'scream"'
p1217
I585
sS'"well'
p1218
I1256
sS'stripper'
p1219
I3961
sS'happen'
p1220
I5320
sS'born'
p1221
I1115
sS'muster'
p1222
I1260
sS'rattl'
p1223
I1261
sS'rescu'
p1224
I2018
sS'strongest'
p1225
I3788
sS'"90'
p1226
I1264
sS'until'
p1227
I1265
sS'headjob'
p1228
I1266
sS'whiskey'
p1229
I1267
sS'vanguard'
p1230
I1268
sS'wait"'
p1231
I1269
sS'stardust'
p1232
I1257
sS'freightcar'
p1233
I5347
sS'latch'
p1234
I1736
sS'temper'
p1235
I1273
sS'prostrat'
p1236
I2461
sS'decemb'
p1237
I5386
sS'"72'
p1238
I1275
sS'later'
p1239
I2021
sS'alongsid'
p1240
I2208
sS'"76'
p1241
I1278
sS'forearm'
p1242
I2218
sS'batman"'
p1243
I1280
sS'"shut'
p1244
I3470
sS'"eddie"'
p1245
I1281
sS'ingest'
p1246
I4296
sS'drive'
p1247
I2022
sS'gland'
p1248
I1284
sS'exist'
p1249
I1285
sS'\'"'
p1250
I1286
sS'glanc'
p1251
I1287
sS'prayer'
p1252
I1288
sS'die"'
p1253
I1289
sS'door'
p1254
I2901
sS'ship'
p1255
I1291
sS'benefits"'
p1256
I2023
sS'trip'
p1257
I1294
sS'shit'
p1258
I1295
sS'"dan'
p1259
I1296
sS'bed"'
p1260
I4523
sS'surpris'
p1261
I3795
sS'leer'
p1262
I1299
sS'floor'
p1263
I1300
sS'tit'
p1264
I1301
sS'"barney'
p1265
I1123
sS'stake'
p1266
I1303
sS'when'
p1267
I1304
sS"you'll"
p1268
I4690
sS'actor'
p1269
I1306
sS'"hi"'
p1270
I2366
sS'tin'
p1271
I1308
sS'christma'
p1272
I1880
sS'jone'
p1273
I1309
sS'"when'
p1274
I1310
sS'tie'
p1275
I1311
sS'appetit'
p1276
I1312
sS'smell'
p1277
I1313
sS'roll'
p1278
I1314
sS'realiti'
p1279
I1316
sS'intend'
p1280
I1318
sS"o'clock"
p1281
I1320
sS'devot'
p1282
I1321
sS'felt'
p1283
I1322
sS'trivia'
p1284
I4651
sS'backenweld'
p1285
I1323
sS'beercan'
p1286
I1324
sS'mail"'
p1287
I1325
sS'"zircoff"'
p1288
I1326
sS'fell'
p1289
I1327
sS'cup'
p1290
I3722
sS'muse'
p1291
I1056
sS'consid'
p1292
I1329
sS'catshit'
p1293
I1330
sS'wirecutt'
p1294
I1575
sS'weekend'
p1295
I1332
sS'easy"'
p1296
I3227
sS"'i"
p1297
I1333
sS'began'
p1298
I4988
sS'billion'
p1299
I1335
sS'femal'
p1300
I1337
sS'puss'
p1301
I1338
sS'rabbit'
p1302
I4252
sS'longer'
p1303
I1339
sS'bullet'
p1304
I1340
sS'glass'
p1305
I1341
sS'yacht'
p1306
I4180
sS'slit'
p1307
I4294
sS'hungri'
p1308
I2032
sS'rough'
p1309
I4720
sS'off"'
p1310
I215
sS'ignor'
p1311
I1346
sS'scyth'
p1312
I2033
sS'time'
p1313
I1348
sS'push'
p1314
I1349
sS'grandfath'
p1315
I1350
sS'backward'
p1316
I1351
sS'"his'
p1317
I1354
sS'"use'
p1318
I2679
sS'wallet"'
p1319
I1356
sS'peacock'
p1320
I1357
sS'coach'
p1321
I1358
sS'broke'
p1322
I2909
sS'chain'
p1323
I1360
sS'thicken'
p1324
I4535
sS'pictures"'
p1325
I1362
sS'brotherinlaw'
p1326
I1363
sS'rob'
p1327
I1364
sS'consum'
p1328
I1365
sS'one"'
p1329
I4700
sS'invent'
p1330
I1366
sS'horseback'
p1331
I1367
sS'snip'
p1332
I1368
sS'urinari'
p1333
I1369
sS'"after'
p1334
I1370
sS'mile'
p1335
I1371
sS'/'
p1336
I1372
sS'skin'
p1337
I1373
sS"whyn't"
p1338
I1014
sS'rot'
p1339
I1376
sS'hole'
p1340
I220
sS'row'
p1341
I1379
sS'witness"'
p1342
I1380
sS'decid'
p1343
I1381
sS'middl'
p1344
I1382
sS'depend'
p1345
I1383
sS'brenda'
p1346
I4703
sS'tunnel"'
p1347
I1386
sS'flask'
p1348
I1387
sS'unpack'
p1349
I1388
sS'1940'
p1350
I1389
sS'filthy"'
p1351
I1244
sS'father'
p1352
I1391
sS'good"'
p1353
I3805
sS'fist'
p1354
I3128
sS'cheat'
p1355
I2040
sS'tiling"'
p1356
I1394
sS'cook"'
p1357
I1395
sS'decis'
p1358
I1396
sS'rhythm'
p1359
I1397
sS'macho'
p1360
I1398
sS'ride'
p1361
I4267
sS'"around'
p1362
I1399
sS'undon'
p1363
I3808
sS'me'
p1364
I226
sS'gloomi'
p1365
I1402
sS'playing"'
p1366
I1403
sS'string'
p1367
I1404
sS'made'
p1368
I5279
sS'could'
p1369
I4522
sS'"kid'
p1370
I1405
sS'"soon'
p1371
I5077
sS'"kid"'
p1372
I1407
sS'"harm'
p1373
I1408
sS'motherass'
p1374
I1409
sS'regular"'
p1375
I1410
sS'condit'
p1376
I1411
sS'cook'
p1377
I1412
sS'join'
p1378
I1413
sS'blast'
p1379
I1415
sS'brows'
p1380
I1416
sS'toomuch'
p1381
I5203
sS'sloppi'
p1382
I1307
sS'stiffen'
p1383
I1418
sS'dim'
p1384
I1419
sS'fifths"'
p1385
I1421
sS'hour'
p1386
I2918
sS'level'
p1387
I1424
sS'did'
p1388
I1425
sS'die'
p1389
I1426
sS'godlectur'
p1390
I1427
sS'henri'
p1391
I1428
sS'peepr'
p1392
I1429
sS'gum'
p1393
I1430
sS'hogshead'
p1394
I3130
sS'"they\'v'
p1395
I4386
sS'"they\'r'
p1396
I1434
sS'team'
p1397
I1435
sS'quick'
p1398
I1436
sS'tongu'
p1399
I3985
sS'sidewalk'
p1400
I1438
sS'dip'
p1401
I1439
sS'round'
p1402
I1440
sS'"i\'ll'
p1403
I1442
sS'shave'
p1404
I1443
sS'upper'
p1405
I1444
sS'"\'nana\'"'
p1406
I1445
sS'brave'
p1407
I1446
sS'monument"'
p1408
I4408
sS'valid"'
p1409
I1449
sS'creatur'
p1410
I1450
sS'fingernail'
p1411
I1451
sS'straightback'
p1412
I1452
sS'pore'
p1413
I1453
sS'chance"'
p1414
I4762
sS'sign'
p1415
I1455
sS'everytim'
p1416
I1456
sS'cost'
p1417
I1457
sS'roof'
p1418
I1458
sS'corner'
p1419
I2052
sS'run'
p1420
I3817
sS'harris"'
p1421
I1461
sS'bake'
p1422
I1462
sS'chicken'
p1423
I2894
sS'indifferent"'
p1424
I1464
sS'oaki'
p1425
I1465
sS'appear'
p1426
I1468
sS'bloodsuck'
p1427
I1469
sS'tribe'
p1428
I3634
sS'mister'
p1429
I2055
sS'gurgl'
p1430
I4577
sS'coldass'
p1431
I746
sS'uniform'
p1432
I1474
sS'sixpack'
p1433
I1477
sS'fifth'
p1434
I2057
sS'word"'
p1435
I4704
sS'indiffer'
p1436
I1480
sS'"wait"'
p1437
I1481
sS'"friday"'
p1438
I1483
sS'luci'
p1439
I5378
sS'"veri'
p1440
I1484
sS'clerk'
p1441
I1488
sS'horses"'
p1442
I1607
sS'stallion'
p1443
I1490
sS'onli'
p1444
I2061
sS'drink"'
p1445
I1492
sS'"would'
p1446
I1493
sS'water'
p1447
I1494
sS'aircondit'
p1448
I1495
sS'entertain'
p1449
I1496
sS'rent"'
p1450
I1497
sS'say"'
p1451
I1498
sS'address'
p1452
I1499
sS"hadn't"
p1453
I1500
sS'locat'
p1454
I4727
sS'along'
p1455
I1502
sS'might"'
p1456
I3825
sS'teacher'
p1457
I1504
sS'wait'
p1458
I1505
sS'box'
p1459
I1506
sS'boy'
p1460
I1507
sS'arcadia'
p1461
I1508
sS'male'
p1462
I1509
sS'insan'
p1463
I1510
sS'"stella"'
p1464
I1511
sS'shove'
p1465
I1512
sS'brilliant'
p1466
I30
sS'shift'
p1467
I958
sS'bow'
p1468
I1516
sS'trial'
p1469
I1517
sS'beautiful"'
p1470
I1518
sS'thirti'
p1471
I1519
sS'healthi'
p1472
I1521
sS'here"'
p1473
I1522
sS'weird'
p1474
I994
sS'nylon'
p1475
I1524
sS'pillow'
p1476
I1525
sS'squeez'
p1477
I3830
sS'dick'
p1478
I2688
sS'love'
p1479
I1530
sS'beer"'
p1480
I1531
sS'"me'
p1481
I1532
sS'"mi'
p1482
I1533
sS'vodka'
p1483
I1534
sS'upstair'
p1484
I1535
sS'"mr'
p1485
I1536
sS'peer'
p1486
I1537
sS'meet"'
p1487
I1538
sS'leav'
p1488
I5164
sS'"may'
p1489
I4615
sS'fool'
p1490
I3070
sS'fbi'
p1491
I1540
sS'tradesmen'
p1492
I4058
sS'lose'
p1493
I5121
sS'market'
p1494
I1542
sS'bloodi'
p1495
I1543
sS'seen"'
p1496
I1544
sS'ways"'
p1497
I1546
sS'streetcar'
p1498
I1547
sS'"those'
p1499
I1549
sS'sake'
p1500
I1550
sS'saddl'
p1501
I1551
sS'univers'
p1502
I3861
sS'visit'
p1503
I1553
sS'everybodi'
p1504
I1556
sS'live'
p1505
I1557
sS'"everyth'
p1506
I3540
sS'pert'
p1507
I1559
sS'suppos'
p1508
I4737
sS'angri'
p1509
I1562
sS'climax'
p1510
I1563
sS'today'
p1511
I1564
sS'barkeep'
p1512
I1565
sS'"her"'
p1513
I5123
sS'capit'
p1514
I1566
sS'gentlemen"'
p1515
I1567
sS'riot'
p1516
I1568
sS'afford'
p1517
I1569
sS'peopl'
p1518
I1570
sS'punchi'
p1519
I2076
sS'oregon'
p1520
I1572
sS'lightgreen'
p1521
I1573
sS'downtown'
p1522
I1574
sS'ballet'
p1523
I2823
sS'drown'
p1524
I1576
sS'blood"'
p1525
I1577
sS'savior'
p1526
I1578
sS'sundown'
p1527
I4631
sS'"ooouch'
p1528
I1579
sS'given'
p1529
I1877
sS'three"'
p1530
I1581
sS'robe'
p1531
I2927
sS'ooz'
p1532
I1583
sS'religi'
p1533
I1584
sS'wrong"'
p1534
I1585
sS'ibm'
p1535
I1586
sS'cuntlapper"'
p1536
I1587
sS'car'
p1537
I1588
sS'cap'
p1538
I1589
sS'judg'
p1539
I1590
sS'soul'
p1540
I1591
sS'and"'
p1541
I1593
sS'fli'
p1542
I1594
sS'soup'
p1543
I1595
sS'sour'
p1544
I1597
sS'can'
p1545
I1598
sS'9th'
p1546
I1599
sS'big"'
p1547
I1600
sS'cab'
p1548
I1319
sS'franc'
p1549
I4496
sS'plump'
p1550
I2080
sS'laughter'
p1551
I1604
sS'wobbling"'
p1552
I2558
sS'partak'
p1553
I1606
sS'hello'
p1554
I4025
sS'"old'
p1555
I1608
sS'kenneth'
p1556
I1609
sS'edna'
p1557
I1611
sS'$1750"'
p1558
I1612
sS'reynold'
p1559
I1613
sS'mouth"'
p1560
I1614
sS"didn't"
p1561
I1615
sS'fuck'
p1562
I1616
sS'agent'
p1563
I1617
sS'heard'
p1564
I1618
sS'crazi'
p1565
I1619
sS'chin'
p1566
I1621
sS'o'
p1567
I1622
sS'chino'
p1568
I1623
sS'critic"'
p1569
I1624
sS'stole'
p1570
I1625
sS'occur'
p1571
I1626
sS'english'
p1572
I5038
sS'purs'
p1573
I1032
sS'lankershim'
p1574
I4899
sS'subnorm'
p1575
I1630
sS'"draw"'
p1576
I1631
sS'savor'
p1577
I4364
sS'tilt'
p1578
I1634
sS'foul'
p1579
I1635
sS'bleeding"'
p1580
I1636
sS'mike'
p1581
I4915
sS'revolut'
p1582
I3850
sS'write'
p1583
I1637
sS'alway'
p1584
I1638
sS'sunday'
p1585
I1639
sS'nose"'
p1586
I1640
sS'skater'
p1587
I1632
sS'fourti'
p1588
I1643
sS'tile'
p1589
I1644
sS'condemn'
p1590
I2090
sS'michigan'
p1591
I4752
sS'pint'
p1592
I1648
sS'lock"'
p1593
I1649
sS'nonsens'
p1594
I1650
sS'mar'
p1595
I2545
sS'"should'
p1596
I1652
sS'owned"'
p1597
I1653
sS'may'
p1598
I1654
sS'dive'
p1599
I1655
sS'shoplift'
p1600
I1656
sS'horn'
p1601
I1657
sS'blister'
p1602
I3173
sS'spot'
p1603
I4502
sS'birthday'
p1604
I1659
sS'ronnie"'
p1605
I1660
sS'mad'
p1606
I1661
sS'typewritten'
p1607
I1662
sS'date'
p1608
I1663
sS'such'
p1609
I1664
sS'suck'
p1610
I1665
sS'"freight'
p1611
I1666
sS'flourish'
p1612
I1667
sS'eighth'
p1613
I4569
sS'man'
p1614
I1670
sS'zirrr'
p1615
I1671
sS'bandag'
p1616
I1672
sS'hemlock'
p1617
I1673
sS'neck'
p1618
I1674
sS'repuls'
p1619
I1675
sS'6th'
p1620
I1676
sS'trapped"'
p1621
I1677
sS'odd'
p1622
I4121
sS'favorit'
p1623
I1679
sS'bean'
p1624
I4757
sS'st'
p1625
I1680
sS'inform'
p1626
I1681
sS'switch'
p1627
I1682
sS'preced'
p1628
I1683
sS'jail'
p1629
I145
sS'anoth'
p1630
I2971
sS'skirmish'
p1631
I1687
sS'tall'
p1632
I1688
sS'truce'
p1633
I1689
sS'"ya'
p1634
I3857
sS'ordinarili'
p1635
I1690
sS'talk'
p1636
I1691
sS'drunken'
p1637
I1692
sS'rye'
p1638
I2973
sS'"god"'
p1639
I4221
sS'gradual'
p1640
I1695
sS'colt'
p1641
I1696
sS'dough"'
p1642
I4760
sS'midnight'
p1643
I1698
sS'no"'
p1644
I1699
sS'"which'
p1645
I1700
sS'maxson'
p1646
I1701
sS'brain'
p1647
I1702
sS'thinner'
p1648
I776
sS'shake'
p1649
I1705
sS'coffeet'
p1650
I5344
sS'cold'
p1651
I1707
sS'still'
p1652
I1708
sS'"campus'
p1653
I4763
sS'dynam'
p1654
I1709
sS'scale'
p1655
I2563
sS'ethic'
p1656
I1711
sS'intestin'
p1657
I1476
sS'interspers'
p1658
I3656
sS'group'
p1659
I1714
sS'thank'
p1660
I1715
sS'did"'
p1661
I1716
sS'cliff"'
p1662
I1717
sS'torn'
p1663
I1718
sS'sexiest'
p1664
I1719
sS'dollars"'
p1665
I1720
sS'bedbug'
p1666
I1721
sS"he'd"
p1667
I1722
sS'platform'
p1668
I1723
sS'window'
p1669
I1724
sS'lead'
p1670
I5154
sS'somehow"'
p1671
I1725
sS'lorca"'
p1672
I4623
sS'corner"'
p1673
I1727
sS'mail'
p1674
I81
sS'main'
p1675
I1729
sS'into'
p1676
I3867
sS'confin'
p1677
I902
sS'recal'
p1678
I1735
sS'butchershop'
p1679
I1737
sS'civilian'
p1680
I1738
sS'nod'
p1681
I1739
sS'automobil'
p1682
I1741
sS'insomnia'
p1683
I1742
sS'sooner'
p1684
I1743
sS"c'd"
p1685
I1744
sS'underneath'
p1686
I1745
sS'charley"'
p1687
I361
sS'kids"'
p1688
I1747
sS'loneli'
p1689
I1748
sS'conquer'
p1690
I1749
sS'gate'
p1691
I463
sS'not'
p1692
I1751
sS'now'
p1693
I1752
sS'twilight'
p1694
I1753
sS'hall'
p1695
I1754
sS'nor'
p1696
I1755
sS'possess'
p1697
I1756
sS'outweigh'
p1698
I1757
sS'wagon'
p1699
I1758
sS'term'
p1700
I1759
sS'centuri'
p1701
I3629
sS'name'
p1702
I1761
sS'servant'
p1703
I1762
sS'clutch'
p1704
I1763
sS'drop'
p1705
I1764
sS'oliv'
p1706
I1765
sS'decade"'
p1707
I1766
sS'benson'
p1708
I3569
sS'separ'
p1709
I1767
sS'"willi'
p1710
I1768
sS'magazin'
p1711
I1769
sS'jimmi'
p1712
I3872
sS'careless'
p1713
I1771
sS'rock'
p1714
I1773
sS'jack"'
p1715
I3873
sS'confid'
p1716
I1096
sS'soon"'
p1717
I1776
sS'footballlov'
p1718
I1777
sS'em'
p1719
I1778
sS'bart"'
p1720
I5370
sS"weren't"
p1721
I4185
sS'eyelid'
p1722
I1780
sS'eh'
p1723
I1781
sS'got"'
p1724
I1782
sS'replac'
p1725
I1783
sS'"assholes"'
p1726
I1784
sS'wrestl'
p1727
I315
sS'unlock'
p1728
I1787
sS'zebra'
p1729
I1790
sS'begun'
p1730
I1791
sS'year'
p1731
I1792
sS'car"'
p1732
I1793
sS'prostitut'
p1733
I1794
sS'girl'
p1734
I1795
sS'rifraff'
p1735
I1796
sS'dispos'
p1736
I1797
sS'punk"'
p1737
I1352
sS'album'
p1738
I1800
sS'partner"'
p1739
I4779
sS'zir'
p1740
I4198
sS'announc'
p1741
I3877
sS'busdriv'
p1742
I3987
sS'3rd'
p1743
I1804
sS'space'
p1744
I1805
sS'"avalon'
p1745
I2755
sS'algebra'
p1746
I2991
sS'motherfucker"'
p1747
I1807
sS'yes"'
p1748
I1808
sS'drinker'
p1749
I4552
sS'tough"'
p1750
I5050
sS'guid'
p1751
I5152
sS'milk"'
p1752
I4401
sS'deadass'
p1753
I1204
sS'"burkhart'
p1754
I1812
sS'1/3'
p1755
I4972
sS'"you\'ll'
p1756
I1813
sS'roug'
p1757
I4650
sS'factori'
p1758
I66
sS'she'
p1759
I4782
sS'coffe'
p1760
I5011
sS'earlier'
p1761
I1817
sS'monster'
p1762
I1818
sS'onehalf'
p1763
I3993
sS'$8000'
p1764
I1820
sS'1130'
p1765
I119
sS'carv'
p1766
I1822
sS'argu'
p1767
I127
sS'coin'
p1768
I3881
sS'headlin'
p1769
I1824
sS'across"'
p1770
I156
sS'crazier'
p1771
I1827
sS'carl'
p1772
I1828
sS'romant'
p1773
I1282
sS'institut'
p1774
I1830
sS'marionetti'
p1775
I1831
sS'cough'
p1776
I1832
sS'gerti'
p1777
I3896
sS'card'
p1778
I1834
sS'care'
p1779
I1835
sS'parvinelli'
p1780
I1836
sS'departur'
p1781
I1837
sS'"hello'
p1782
I1838
sS'anytime"'
p1783
I1839
sS'flare'
p1784
I1133
sS'trunks"'
p1785
I1487
sS'insert'
p1786
I5104
sS'syndic'
p1787
I253
sS'modest'
p1788
I1844
sS'refus'
p1789
I1845
sS'honest'
p1790
I1846
sS'motion'
p1791
I1847
sS'turn'
p1792
I275
sS'lie'
p1793
I4457
sS'place'
p1794
I1849
sS'swine'
p1795
I1850
sS'swing'
p1796
I1851
sS'tension"'
p1797
I1852
sS'michelob'
p1798
I3069
sS'ginsberg'
p1799
I318
sS'imposs'
p1800
I326
sS'snoring"'
p1801
I1856
sS'first'
p1802
I1857
sS'oper'
p1803
I338
sS'"isn\'t'
p1804
I1859
sS'oppon'
p1805
I1860
sS'publication"'
p1806
I3833
sS'carri'
p1807
I1862
sS'onc'
p1808
I375
sS'yourself'
p1809
I398
sS'stairway'
p1810
I5173
sS'"bamey'
p1811
I115
sS'"whore"'
p1812
I5141
sS'backyard'
p1813
I2999
sS'vote'
p1814
I1869
sS'ring'
p1815
I1870
sS'drove'
p1816
I1871
sS'open'
p1817
I1872
sS'tomorrow'
p1818
I1873
sS'size'
p1819
I1874
sS'urin'
p1820
I1875
sS'gig'
p1821
I1876
sS'sheer'
p1822
I470
sS'boulevard'
p1823
I1878
sS'sheet'
p1824
I1879
sS'silent'
p1825
I284
sS'district'
p1826
I488
sS'bounti'
p1827
I672
sS'arch'
p1828
I1883
sS'bite'
p1829
I502
sS'breed'
p1830
I508
sS'fierc'
p1831
I1886
sS'eachoth'
p1832
I1887
sS'ambul'
p1833
I1888
sS'plastic'
p1834
I1889
sS'catshit"'
p1835
I1890
sS'citi'
p1836
I1891
sS'assort'
p1837
I1892
sS'2'
p1838
I541
sS'tragic'
p1839
I1894
sS'circl'
p1840
I1895
sS'there"'
p1841
I5229
sS'white'
p1842
I1897
sS'typer'
p1843
I1898
sS'smashup'
p1844
I408
sS'friend'
p1845
I1900
sS'pal'
p1846
I4451
sS'fire"'
p1847
I4735
sS'baldi'
p1848
I595
sS'much"'
p1849
I1903
sS'knowledg'
p1850
I4797
sS'unmoor'
p1851
I4370
sS'brave"'
p1852
I812
sS'especi'
p1853
I619
sS'pittsburgh'
p1854
I622
sS'season'
p1855
I626
sS'loneliest'
p1856
I1909
sS'copi'
p1857
I1910
sS'zirrrr'
p1858
I1911
sS'"there'
p1859
I1912
sS'snatch'
p1860
I653
sS'blacklist'
p1861
I657
sS'forward'
p1862
I3898
sS'short'
p1863
I3006
sS'enclos'
p1864
I1917
sS'occupation"'
p1865
I1918
sS'butt'
p1866
I683
sS'than'
p1867
I1921
sS'milton'
p1868
I718
sS'11'
p1869
I1923
sS'household"'
p1870
I720
sS'13'
p1871
I1925
sS'orgi'
p1872
I1926
sS'15'
p1873
I1927
sS'14'
p1874
I736
sS'17'
p1875
I1929
sS'lucrat'
p1876
I745
sS'19'
p1877
I1931
sS'18'
p1878
I754
sS'gotta'
p1879
I1933
sS'$18'
p1880
I1934
sS'pops"'
p1881
I4209
sS'william"'
p1882
I1935
sS'earth"'
p1883
I1936
sS'ventura'
p1884
I1937
sS'temporarili'
p1885
I4800
sS'bag'
p1886
I4483
sS'were'
p1887
I1939
sS'posit'
p1888
I1940
sS'"want'
p1889
I1941
sS'extinguish'
p1890
I827
sS'folli'
p1891
I1943
sS'crackl'
p1892
I1944
sS'russia'
p1893
I842
sS'transport'
p1894
I5150
sS'storekeep'
p1895
I2128
sS'and'
p1896
I1948
sS'$2680'
p1897
I857
sS'passgat'
p1898
I861
sS'lick'
p1899
I1951
sS'san'
p1900
I1952
sS'sam'
p1901
I1953
sS'headach'
p1902
I1669
sS'ann'
p1903
I1955
sS'sag'
p1904
I1956
sS'argument'
p1905
I491
sS'alley'
p1906
I909
sS'sad'
p1907
I1959
sS'dash'
p1908
I1960
sS'footstool'
p1909
I5098
sS'say'
p1910
I1961
sS'slam'
p1911
I930
sS'comedian'
p1912
I1963
sS'rent'
p1913
I1964
sS'deliv'
p1914
I1965
sS'anger'
p1915
I1966
sS'45'
p1916
I5329
sS'breakfast'
p1917
I1968
sS'nazi'
p1918
I966
sS'marathon'
p1919
I1970
sS'sat'
p1920
I1971
sS'doorbel'
p1921
I1972
sS'squat'
p1922
I1973
sS'engin'
p1923
I1974
sS'playwrit'
p1924
I1975
sS'advic'
p1925
I1976
sS'bugl'
p1926
I2670
sS'law"'
p1927
I1980
sS'2bit'
p1928
I1981
sS'pencil"'
p1929
I1044
sS'other'
p1930
I5334
sS'lumpi'
p1931
I1983
sS'wretch'
p1932
I1984
sS'fling'
p1933
I4989
sS'"shit'
p1934
I1063
sS'"yeah'
p1935
I1986
sS'batman'
p1936
I1967
sS'hmmmmmmmm'
p1937
I1988
sS'late"'
p1938
I1989
sS'useless"'
p1939
I1990
sS'noth'
p1940
I1991
sS'channel'
p1941
I1992
sS'200'
p1942
I1994
sS'begin'
p1943
I1995
sS'sure'
p1944
I1996
sS'prick'
p1945
I1120
sS'norman'
p1946
I1998
sS'normal'
p1947
I1999
sS'track'
p1948
I2000
sS'round"'
p1949
I2001
sS'price'
p1950
I2002
sS'knew'
p1951
I2003
sS'statu'
p1952
I4808
sS'paid'
p1953
I2005
sS'honeydew'
p1954
I2007
sS'weather'
p1955
I5227
sS'nice"'
p1956
I2008
sS'exdiscipl'
p1957
I1197
sS'librarian'
p1958
I1200
sS'america'
p1959
I2012
sS'vultures"'
p1960
I2013
sS'voice"'
p1961
I2014
sS'heav'
p1962
I444
sS'lawn'
p1963
I2016
sS'halfpint'
p1964
I1385
sS'room'
p1965
I1417
sS'egg'
p1966
I3019
sS'proud'
p1967
I1276
sS'sale'
p1968
I1283
sS'communion"'
p1969
I4169
sS'mrs'
p1970
I1292
sS'"were'
p1971
I2024
sS'meanwhil'
p1972
I2025
sS'alone"'
p1973
I2026
sS'killed"'
p1974
I2027
sS'squint'
p1975
I2028
sS'not"'
p1976
I2029
sS'abraham'
p1977
I2030
sS'something"'
p1978
I2031
sS'filli'
p1979
I1344
sS'salv'
p1980
I1347
sS'zoom'
p1981
I2034
sS'slope'
p1982
I1592
sS'while"'
p1983
I2036
sS'shot'
p1984
I2038
sS'show'
p1985
I2039
sS'german'
p1986
I1393
sS'curler'
p1987
I2041
sS'cheap'
p1988
I2043
sS'hairpin'
p1989
I1864
sS'"bob'
p1990
I2045
sS'improvement"'
p1991
I4582
sS'bright'
p1992
I2046
sS'mighty"'
p1993
I2047
sS'"boy'
p1994
I2048
sS'shoe'
p1995
I2049
sS'suitcase"'
p1996
I3595
sS'chalki'
p1997
I5380
sS'contract"'
p1998
I1459
sS'tinkertoy'
p1999
I2053
sS'takin'
p2000
I1471
sS'laxat'
p2001
I1187
sS'hustler'
p2002
I1478
sS'fifti'
p2003
I858
sS'joke"'
p2004
I2059
sS'unshaven'
p2005
I4817
sS'objector'
p2006
I1491
sS'slow'
p2007
I2062
sS'dice'
p2008
I1143
sS'fenc'
p2009
I2065
sS'"who\'v'
p2010
I2066
sS'seascap'
p2011
I1529
sS'mitzi'
p2012
I2068
sS'jolt'
p2013
I1134
sS'lean'
p2014
I5159
sS'gulp'
p2015
I165
sS'wood'
p2016
I2072
sS'black'
p2017
I2073
sS'"kiss'
p2018
I2074
sS'glandular'
p2019
I1571
sS'thompson'
p2020
I2077
sS'stain'
p2021
I2078
sS'try"'
p2022
I1603
sS'everyplac'
p2023
I2019
sS'"was'
p2024
I1610
sS'turretlath'
p2025
I2084
sS'stay'
p2026
I5357
sS'psychiatrist'
p2027
I122
sS'between'
p2028
I2143
sS'somebodi'
p2029
I3081
sS'secondari'
p2030
I1978
sS'"fine"'
p2031
I5126
sS'state'
p2032
I4819
sS'lighter'
p2033
I2091
sS'wasser'
p2034
I4067
sS'"jesus'
p2035
I2093
sS'drawer'
p2036
I4265
sS'stupid"'
p2037
I2145
sS'dure'
p2038
I5307
sS'truli'
p2039
I2095
sS'toddl'
p2040
I2097
sS'mantle"'
p2041
I3922
sS'pimp'
p2042
I2099
sS'artist'
p2043
I2100
sS'leather'
p2044
I2101
sS'seldom'
p2045
I2102
sS'hostil'
p2046
I2103
sS'borrow'
p2047
I2104
sS'crazy"'
p2048
I2106
sS'stupid'
p2049
I1810
sS'roger'
p2050
I2108
sS'"fuck"'
p2051
I2910
sS'nostril'
p2052
I2109
sS'through'
p2053
I3037
sS'tent'
p2054
I2733
sS'where'
p2055
I496
sS'husband'
p2056
I2115
sS'learn'
p2057
I2933
sS'concert'
p2058
I2117
sS'"come'
p2059
I2118
sS'friend"'
p2060
I5388
sS'surgeri'
p2061
I2120
sS'whitewash'
p2062
I2121
sS'menac'
p2063
I2122
sS'seat'
p2064
I2123
sS'needs"'
p2065
I2124
sS'motherfloppin'
p2066
I2125
sS'unfit'
p2067
I2126
sS'asleep'
p2068
I2127
sS'job"'
p2069
I1947
sS'hell'
p2070
I3042
sS'reserv'
p2071
I2130
sS'sport'
p2072
I2131
sS'underpaid'
p2073
I2132
sS'"why"'
p2074
I1865
sS'830'
p2075
I2134
sS'"damn'
p2076
I527
sS'televis'
p2077
I2136
sS'heel'
p2078
I5127
sS'review'
p2079
I2138
sS'plymouth'
p2080
I2139
sS'come"'
p2081
I2140
sS'pump'
p2082
I2051
sS'date"'
p2083
I2142
sS'hiss'
p2084
I2087
sS'import'
p2085
I2144
sS'cap"'
p2086
I1406
sS'across'
p2087
I2147
sS'ought'
p2088
I3604
sS'dempsey'
p2089
I2148
sS'fight'
p2090
I2149
sS'spars'
p2091
I2150
sS'doing"'
p2092
I2151
sS'parent'
p2093
I2152
sS'"what"'
p2094
I2154
sS'screen'
p2095
I2155
sS'smear'
p2096
I4336
sS'26'
p2097
I3049
sS'supermarket'
p2098
I2157
sS'guitar'
p2099
I2158
sS'cycl'
p2100
I2159
sS'spare'
p2101
I2160
sS'dislik'
p2102
I4835
sS'joba'
p2103
I2162
sS'20'
p2104
I3051
sS'tub'
p2105
I2164
sS'comb'
p2106
I2165
sS'come'
p2107
I2166
sS'tug'
p2108
I2167
sS'west"'
p2109
I2168
sS'blame'
p2110
I2169
sS'"didn\'t'
p2111
I2170
sS'cagney'
p2112
I2171
sS'rippl'
p2113
I2172
sS'quiet'
p2114
I2173
sS'nearbi'
p2115
I2175
sS'clever'
p2116
I4238
sS'audienc'
p2117
I2176
sS'haunch'
p2118
I2304
sS'jackingoff'
p2119
I2310
sS'frantic'
p2120
I3627
sS'improv'
p2121
I2179
sS'longshot'
p2122
I2180
sS'"for'
p2123
I2181
sS'sheaf'
p2124
I2182
sS'evict'
p2125
I1733
sS'comer'
p2126
I2347
sS'among'
p2127
I2185
sS'"get'
p2128
I2186
sS'stretcher'
p2129
I2187
sS'spoil'
p2130
I2188
sS'cancer'
p2131
I2189
sS'"chonjacki"'
p2132
I2190
sS'color'
p2133
I2866
sS'pot'
p2134
I2192
sS'period'
p2135
I2193
sS'pop'
p2136
I2194
sS'messin'
p2137
I2195
sS'60'
p2138
I125
sS'want"'
p2139
I2197
sS'pole'
p2140
I2198
sS'featur'
p2141
I2199
sS'65'
p2142
I2200
sS"couldn't"
p2143
I2201
sS'hercul'
p2144
I2203
sS'boat'
p2145
I2207
sS'damag'
p2146
I2472
sS'turkey'
p2147
I2209
sS'late'
p2148
I3060
sS'ultim'
p2149
I2211
sS'boil'
p2150
I4579
sS'headbeat'
p2151
I2213
sS'coupl'
p2152
I2214
sS'howard'
p2153
I2215
sS'stretch'
p2154
I2216
sS'west'
p2155
I2217
sS'dis'
p2156
I2174
sS'undershirt'
p2157
I2219
sS'suicid'
p2158
I2220
sS'mark'
p2159
I2221
sS'jess'
p2160
I232
sS'foot"'
p2161
I2223
sS'workshop'
p2162
I2224
sS'1030'
p2163
I2226
sS'hock'
p2164
I4816
sS'ravioli'
p2165
I2228
sS'procedur'
p2166
I3122
sS'drombowestern"'
p2167
I373
sS'will'
p2168
I4947
sS'"some'
p2169
I4320
sS'graveyard'
p2170
I2231
sS'niki"'
p2171
I2232
sS'thousand'
p2172
I2233
sS'"good"'
p2173
I2234
sS'tiger'
p2174
I2235
sS'padlock'
p2175
I2236
sS'"juli'
p2176
I5363
sS'"honeydew"'
p2177
I2671
sS'wake'
p2178
I2238
sS'rememb'
p2179
I5337
sS'apiec'
p2180
I2240
sS'bathtub'
p2181
I4955
sS'impati'
p2182
I2242
sS'spirit'
p2183
I1238
sS'those'
p2184
I2244
sS'countless'
p2185
I2245
sS'case'
p2186
I2246
sS'living"'
p2187
I3950
sS'myself'
p2188
I2248
sS'these'
p2189
I2251
sS'assassin'
p2190
I5379
sS'tribal'
p2191
I2252
sS'midforit'
p2192
I2253
sS'cash'
p2193
I2254
sS'imperi'
p2194
I2781
sS'trick'
p2195
I2257
sS'w'
p2196
I3190
sS'art"'
p2197
I435
sS'"nothing"'
p2198
I2260
sS'life"'
p2199
I1355
sS'care"'
p2200
I2262
sS'anxieti'
p2201
I3633
sS'hmmmm'
p2202
I2264
sS'mound'
p2203
I2265
sS'finer'
p2204
I2266
sS'cock'
p2205
I2267
sS'fivethousanddollar'
p2206
I2268
sS'bogart'
p2207
I2269
sS'cannonbal'
p2208
I2860
sS'anytim'
p2209
I2271
sS'bedsheet'
p2210
I2273
sS'advantag'
p2211
I2274
sS'favorite"'
p2212
I2275
sS'im'
p2213
I2277
sS'worri'
p2214
I2278
sS'monk'
p2215
I2279
sS'blah'
p2216
I2280
sS'sudden'
p2217
I2281
sS'warehous'
p2218
I2282
sS'stewardess'
p2219
I2283
sS'tightlypul'
p2220
I2284
sS'gantl'
p2221
I2285
sS'drive"'
p2222
I2286
sS'everyday'
p2223
I2287
sS'boots"'
p2224
I1555
sS'dead'
p2225
I1113
sS'"nixon'
p2226
I2291
sS'cafe'
p2227
I3958
sS'pat'
p2228
I3970
sS'malic'
p2229
I4785
sS'scrubwomen"'
p2230
I2293
sS'doctor'
p2231
I2294
sS'pay'
p2232
I2295
sS'bluejean'
p2233
I2296
sS'pisshol'
p2234
I385
sS'bowl'
p2235
I2298
sS'tour'
p2236
I2299
sS'same'
p2237
I2300
sS'mole'
p2238
I1633
sS'gentlemen'
p2239
I2302
sS'food'
p2240
I3075
sS'sandra'
p2241
I3868
sS'speech'
p2242
I2305
sS'motherfuckin'
p2243
I2306
sS'sucker'
p2244
I3076
sS'"i'
p2245
I2309
sS'cold"'
p2246
I2311
sS'lita'
p2247
I2312
sS'adolf'
p2248
I2313
sS'pan'
p2249
I2314
sS'coffeeshop'
p2250
I1815
sS'oil'
p2251
I1241
sS'barefoot'
p2252
I2317
sS'closest'
p2253
I2318
sS'sideway'
p2254
I2319
sS'applaud'
p2255
I3142
sS'enemi'
p2256
I3438
sS'nest'
p2257
I2321
sS'assist'
p2258
I2322
sS'driver'
p2259
I2323
sS'capabl'
p2260
I2325
sS'quittin'
p2261
I2326
sS'fruit'
p2262
I2327
sS'"swing'
p2263
I2328
sS'puff'
p2264
I147
sS'welldress'
p2265
I2330
sS'spend'
p2266
I3698
sS'fallibl'
p2267
I2332
sS'applaus'
p2268
I2333
sS'handsom'
p2269
I2334
sS'slug'
p2270
I5190
sS'drain'
p2271
I2335
sS'poetry"'
p2272
I2336
sS'catsup"'
p2273
I2337
sS'great"'
p2274
I3080
sS'ranch'
p2275
I2184
sS'remain'
p2276
I2929
sS'robert'
p2277
I3138
sS'"dear'
p2278
I2340
sS'"stand'
p2279
I844
sS'without'
p2280
I2342
sS'breasts"'
p2281
I2343
sS"can't"
p2282
I2183
sS'gain'
p2283
I5267
sS'fouryearold'
p2284
I3768
sS'"dead'
p2285
I2651
sS'inch'
p2286
I4997
sS'reward'
p2287
I3350
sS'thurup'
p2288
I2348
sS'taxi'
p2289
I2350
sS'summer'
p2290
I2351
sS'louis"'
p2291
I4857
sS'"no"'
p2292
I4547
sS'violenc'
p2293
I2352
sS'execut'
p2294
I1420
sS'money'
p2295
I2354
sS'am"'
p2296
I2356
sS'slime'
p2297
I213
sS'rest'
p2298
I2358
sS'spurt'
p2299
I4613
sS'violent'
p2300
I2359
sS'asleep"'
p2301
I3439
sS'kill'
p2302
I2361
sS'dog'
p2303
I3949
sS'slugger'
p2304
I2042
sS'touch'
p2305
I2363
sS'polish'
p2306
I2364
sS'tobi'
p2307
I2367
sS'halfway'
p2308
I2368
sS'blow'
p2309
I2369
sS'indulg'
p2310
I2370
sS'gather'
p2311
I4685
sS'death'
p2312
I2371
sS'asthma'
p2313
I2372
sS'parad'
p2314
I2373
sS'rose'
p2315
I1641
sS'senseless'
p2316
I2375
sS'"when"'
p2317
I709
sS'littl'
p2318
I2377
sS'curtains"'
p2319
I1697
sS'instrument'
p2320
I2379
sS'afterlunch'
p2321
I2380
sS'treatment'
p2322
I2381
sS'exercis'
p2323
I2382
sS'hind'
p2324
I2383
sS'struck'
p2325
I2384
sS'heavier'
p2326
I2385
sS'either"'
p2327
I2386
sS'"suck'
p2328
I4551
sS'earli'
p2329
I2387
sS'econom'
p2330
I3033
sS'mox'
p2331
I2388
sS'around'
p2332
I2389
sS'shitin'
p2333
I2390
sS'read'
p2334
I2391
sS'specimen'
p2335
I2392
sS'ladi'
p2336
I2393
sS'mean"'
p2337
I4716
sS'gonna'
p2338
I2394
sS'unveil'
p2339
I2395
sS'dark'
p2340
I2396
sS'earnest'
p2341
I2397
sS'published"'
p2342
I2398
sS'snarl'
p2343
I2399
sS'traffic'
p2344
I2400
sS'conscienti'
p2345
I2401
sS'hawknos'
p2346
I2402
sS'sorry"'
p2347
I2403
sS'railroad'
p2348
I2404
sS'"really"'
p2349
I2405
sS'codein'
p2350
I3724
sS'grim'
p2351
I2407
sS'dare'
p2352
I1272
sS'victori'
p2353
I2276
sS'meaning'
p2354
I3994
sS'roulett'
p2355
I2196
sS'"sit'
p2356
I2714
sS'towel'
p2357
I2411
sS'interv'
p2358
I2089
sS'ragass'
p2359
I2414
sS'would"'
p2360
I4210
sS'dick"'
p2361
I2415
sS'"scotch'
p2362
I2416
sS'bracelet'
p2363
I2417
sS'sense"'
p2364
I4881
sS'shrink'
p2365
I1520
sS'blonde"'
p2366
I2421
sS'joe"'
p2367
I4045
sS'cooper'
p2368
I2422
sS'either'
p2369
I2424
sS'woman"'
p2370
I2425
sS'"orgi'
p2371
I2426
sS'claw'
p2372
I2427
sS'dirtier'
p2373
I2428
sS'manag'
p2374
I2429
sS'clap'
p2375
I2430
sS'obstruct'
p2376
I1437
sS'seymour"'
p2377
I2432
sS'way"'
p2378
I3468
sS'jeani'
p2379
I2433
sS'quizzes"'
p2380
I2434
sS'done"'
p2381
I4884
sS'$500000'
p2382
I2044
sS'muscl'
p2383
I2438
sS'showman'
p2384
I2439
sS'ruthi'
p2385
I2440
sS'handshak'
p2386
I2441
sS'trouser'
p2387
I3983
sS'hemorrhag'
p2388
I2443
sS'69'
p2389
I2444
sS'"tape'
p2390
I775
sS'racial'
p2391
I2446
sS'"haven\'t'
p2392
I2447
sS'joan'
p2393
I2448
sS'broke"'
p2394
I2449
sS'dolt'
p2395
I2450
sS'gross'
p2396
I268
sS'"but'
p2397
I5100
sS'slice'
p2398
I2452
sS'mood'
p2399
I2454
sS'tote'
p2400
I2455
sS'noon'
p2401
I742
sS'definit'
p2402
I4029
sS'landscap'
p2403
I2462
sS'moon'
p2404
I2463
sS'outa'
p2405
I2464
sS'throat'
p2406
I2465
sS'awful"'
p2407
I2466
sS'exit'
p2408
I953
sS'"robert'
p2409
I2470
sS'unbeliev'
p2410
I2471
sS'selfrespect'
p2411
I4889
sS'decent'
p2412
I4896
sS'knife'
p2413
I2473
sS'wellgroom'
p2414
I2474
sS'hours"'
p2415
I5170
sS'clinch"'
p2416
I2475
sS'hemingway"'
p2417
I2015
sS'power'
p2418
I2476
sS'mare'
p2419
I4074
sS'throb'
p2420
I2478
sS'bluebal'
p2421
I2479
sS'"yup'
p2422
I1760
sS'sprung'
p2423
I75
sS'loudest'
p2424
I2482
sS'broken'
p2425
I2483
sS'found'
p2426
I3105
sS'1939'
p2427
I2488
sS'throw'
p2428
I2489
sS'on'
p2429
I2490
sS'stone'
p2430
I2491
sS'"they\'ll'
p2431
I2492
sS'ok'
p2432
I2493
sS'oh'
p2433
I2494
sS'roar'
p2434
I2495
sS'island'
p2435
I2114
sS'ach'
p2436
I2497
sS'acn'
p2437
I2498
sS'newsboy'
p2438
I2499
sS'meal'
p2439
I2500
sS'chop'
p2440
I2501
sS'liked"'
p2441
I2502
sS'out"'
p2442
I2503
sS'midget"'
p2443
I2504
sS'swap"'
p2444
I2505
sS'stand'
p2445
I2506
sS'neighbor'
p2446
I2507
sS'act'
p2447
I2508
sS'stank'
p2448
I2510
sS'mean'
p2449
I2511
sS'or'
p2450
I2512
sS'road'
p2451
I2513
sS'stop"'
p2452
I2514
sS'heater'
p2453
I1293
sS'fiveyear'
p2454
I2516
sS'effici'
p2455
I2517
sS'burial'
p2456
I2519
sS'lent'
p2457
I2520
sS'surviv'
p2458
I2522
sS'catholic"'
p2459
I2523
sS'whorehous'
p2460
I935
sS'morning"'
p2461
I2525
sS'hanger'
p2462
I2526
sS'cent'
p2463
I4898
sS'angel'
p2464
I2528
sS'strip'
p2465
I2529
sS'wade'
p2466
I2531
sS'nurs'
p2467
I2532
sS'together"'
p2468
I4886
sS'your'
p2469
I2533
sS'stare'
p2470
I2535
sS'breath'
p2471
I2222
sS'fast'
p2472
I3890
sS'burglar'
p2473
I2537
sS'weight'
p2474
I3115
sS'her'
p2475
I2539
sS'area'
p2476
I2540
sS'"please"'
p2477
I2541
sS'grape"'
p2478
I1343
sS'selfcreat'
p2479
I2543
sS'hey'
p2480
I2544
sS'ass"'
p2481
I2546
sS'los'
p2482
I849
sS"how'd"
p2483
I2548
sS'starv'
p2484
I2549
sS'"shit"'
p2485
I2550
sS'low'
p2486
I2551
sS'lot'
p2487
I2552
sS'lou'
p2488
I2553
sS'hem'
p2489
I2554
sS'alameda'
p2490
I2556
sS'difficult"'
p2491
I3118
sS'intellectu'
p2492
I5237
sS'treat'
p2493
I4904
sS'yevtushenko'
p2494
I2561
sS'bottl'
p2495
I2562
sS'anxietyneurosi'
p2496
I5017
sS'jug'
p2497
I2564
sS'groan'
p2498
I2565
sS'enough'
p2499
I2069
sS'unscrew'
p2500
I2566
sS'"i\'m'
p2501
I4906
sS'pitcher'
p2502
I2568
sS'you"'
p2503
I2569
sS'cabinet'
p2504
I2570
sS'wellbuilt'
p2505
I2571
sS'land"'
p2506
I2572
sS'em"'
p2507
I4998
sS'detect'
p2508
I3114
sS'another"'
p2509
I146
sS'mice'
p2510
I2575
sS'with'
p2511
I2576
sS'midmorn'
p2512
I2577
sS'congratul'
p2513
I2578
sS'pull'
p2514
I2579
sS'tripl'
p2515
I2349
sS'are"'
p2516
I2581
sS'dirti'
p2517
I2582
sS'possibl'
p2518
I2584
sS"wasn't"
p2519
I2585
sS'potato'
p2520
I2586
sS'bucket'
p2521
I2587
sS'miss"'
p2522
I2588
sS'flirt'
p2523
I2589
sS'mani'
p2524
I2329
sS'unusu'
p2525
I2590
sS'decenc'
p2526
I2890
sS'crapgam'
p2527
I325
sS'hmmmmmmmmm'
p2528
I2593
sS'career"'
p2529
I2419
sS'pinch'
p2530
I2595
sS'age'
p2531
I4011
sS'trouble"'
p2532
I5204
sS'deadline"'
p2533
I2597
sS'aa'
p2534
I2598
sS'toilet'
p2535
I2599
sS'mad"'
p2536
I5238
sS'gong'
p2537
I2600
sS'citizenship'
p2538
I1706
sS'mister"'
p2539
I5201
sS'frighten'
p2540
I259
sS'am'
p2541
I2604
sS'al'
p2542
I3865
sS'deep'
p2543
I2606
sS'antagon'
p2544
I898
sS'lusterless'
p2545
I2608
sS'as'
p2546
I2609
sS'noontim'
p2547
I2610
sS'at'
p2548
I2611
sS'aw'
p2549
I2612
sS'cultur'
p2550
I2613
sS'hearts"'
p2551
I2614
sS'bob'
p2552
I1523
sS'words"'
p2553
I1262
sS'film'
p2554
I2618
sS'fill'
p2555
I2619
sS'tedious'
p2556
I2620
sS'again'
p2557
I2621
sS'homo"'
p2558
I2622
sS'"we\'ll'
p2559
I2623
sS'know'
p2560
I5094
sS'idiot'
p2561
I2625
sS'personnel'
p2562
I2626
sS'"jack'
p2563
I2627
sS'diarrhea'
p2564
I2628
sS'fix"'
p2565
I442
sS'rubber'
p2566
I2630
sS'field'
p2567
I2631
sS'that'
p2568
I1906
sS'vietnam'
p2569
I2096
sS'5'
p2570
I2633
sS'"hester'
p2571
I2635
sS'friggin'
p2572
I2636
sS'you'
p2573
I2637
sS'details"'
p2574
I2638
sS'yor'
p2575
I2639
sS'10'
p2576
I2640
sS'poor'
p2577
I2641
sS'genuin'
p2578
I2643
sS'square"'
p2579
I1841
sS'teeth'
p2580
I2647
sS'drift'
p2581
I2648
sS'cocksuck'
p2582
I3610
sS'kinda'
p2583
I5220
sS'midget'
p2584
I1920
sS'kingsley'
p2585
I752
sS'brotherhood'
p2586
I2654
sS'sale"'
p2587
I2656
sS'peac'
p2588
I2657
sS'pool'
p2589
I2658
sS'workin'
p2590
I4748
sS'deliber'
p2591
I4129
sS'escal'
p2592
I2661
sS"ko'd"
p2593
I91
sS'back"'
p2594
I4024
sS'thorn'
p2595
I2664
sS'fool"'
p2596
I2665
sS'player"'
p2597
I4656
sS'hardon'
p2598
I2667
sS'mash'
p2599
I2668
sS'moonlight'
p2600
I2669
sS'library"'
p2601
I635
sS'mast'
p2602
I640
sS'mass'
p2603
I2672
sS'daili'
p2604
I2555
sS'castl'
p2605
I2674
sS'"suppos'
p2606
I2675
sS'dyer'
p2607
I2676
sS'escap'
p2608
I2677
sS'craftsmen'
p2609
I2678
sS'12'
p2610
I3134
sS'motel'
p2611
I1861
sS'societi'
p2612
I5222
sS'togeth'
p2613
I4925
sS'motherfucka'
p2614
I5191
sS'son"'
p2615
I5
sS'liar'
p2616
I2683
sS'"salli'
p2617
I2684
sS'vile'
p2618
I23
sS'gown'
p2619
I2686
sS'illustr'
p2620
I2687
sS'catalena"'
p2621
I4141
sS'lack'
p2622
I2689
sS'dollar'
p2623
I2690
sS'heavi'
p2624
I3124
sS'vill'
p2625
I54
sS'sunk'
p2626
I2692
sS'liad'
p2627
I1466
sS'concept'
p2628
I2963
sS'higher'
p2629
I3657
sS'abil'
p2630
I2696
sS'greyhair'
p2631
I4253
sS'dish'
p2632
I2698
sS'follow'
p2633
I2699
sS'loll'
p2634
I3141
sS'lace'
p2635
I2701
sS'children'
p2636
I2702
sS'alp'
p2637
I2703
sS'tinhorn'
p2638
I4114
sS'lesbian"'
p2639
I2704
sS'stay"'
p2640
I2412
sS'co'
p2641
I4869
sS'ty'
p2642
I2706
sS'gymnast'
p2643
I149
sS'bulg'
p2644
I4931
sS'graduat'
p2645
I4759
sS'"beer'
p2646
I2709
sS'thursday'
p2647
I2710
sS'former'
p2648
I2243
sS'"been'
p2649
I186
sS'tail'
p2650
I191
sS'program'
p2651
I2715
sS'bonetired"'
p2652
I2716
sS'lovemak'
p2653
I2717
sS'th'
p2654
I207
sS'horrible"'
p2655
I2720
sS'smile'
p2656
I2721
sS'herring"'
p2657
I2722
sS'introduc'
p2658
I239
sS'"darl'
p2659
I2724
sS'"hi'
p2660
I2725
sS'sound'
p2661
I2726
sS'mess"'
p2662
I261
sS'propel'
p2663
I5132
sS'song'
p2664
I2728
sS'"ha'
p2665
I2345
sS'talk"'
p2666
I2730
sS'horror'
p2667
I2731
sS'jewelry"'
p2668
I299
sS'mph'
p2669
I2460
sS'heme'
p2670
I2735
sS'util'
p2671
I2736
sS'dis"'
p2672
I2738
sS'scout'
p2673
I328
sS'worst'
p2674
I2740
sS'difficult'
p2675
I5001
sS'fall'
p2676
I2741
sS'sun"'
p2677
I349
sS'ticket'
p2678
I2743
sS'acquainted"'
p2679
I4345
sS'strang'
p2680
I2745
sS'induct'
p2681
I2746
sS'laura'
p2682
I2747
sS'usual'
p2683
I5041
sS'wedgeshap'
p2684
I393
sS'finelook'
p2685
I2629
sS'"thurman"'
p2686
I2212
sS'list'
p2687
I2752
sS'other"'
p2688
I4108
sS'punish'
p2689
I2753
sS'message"'
p2690
I2754
sS'redstain'
p2691
I2485
sS'sang'
p2692
I2756
sS'sand'
p2693
I2757
sS'adjust'
p2694
I2758
sS'america"'
p2695
I2759
sS'american"'
p2696
I1905
sS'small'
p2697
I2760
sS'tear'
p2698
I3100
sS'sank'
p2699
I2762
sS'20th'
p2700
I2763
sS'louie'
p2701
I2764
sS'flick'
p2702
I506
sS'smock'
p2703
I3748
sS'"operation"'
p2704
I2767
sS'lanni'
p2705
I2768
sS'neighborhood'
p2706
I2769
sS"don't"
p2707
I3028
sS'ten'
p2708
I2770
sS'difficulti'
p2709
I3151
sS'somewhere"'
p2710
I2652
sS'christ"'
p2711
I2775
sS'straighten'
p2712
I2776
sS'past'
p2713
I2777
sS'strung'
p2714
I2778
sS'rate'
p2715
I2779
sS'design'
p2716
I2780
sS'lawyer'
p2717
I2782
sS'pass'
p2718
I2783
sS'jesus"'
p2719
I2784
sS'further'
p2720
I2785
sS'quiet"'
p2721
I2786
sS'stickpin'
p2722
I1010
sS'ribbon'
p2723
I625
sS"i'll"
p2724
I2765
sS'excit'
p2725
I2789
sS'lone'
p2726
I4521
sS'dial'
p2727
I643
sS'"dr'
p2728
I3606
sS'stood'
p2729
I2792
sS'drill'
p2730
I4274
sS'microphon'
p2731
I2793
sS'winebottl'
p2732
I1203
sS'nana'
p2733
I2795
sS'sun'
p2734
I2796
sS'section'
p2735
I2797
sS'dirt'
p2736
I3155
sS'stool'
p2737
I2799
sS'"longden'
p2738
I2800
sS'overload'
p2739
I2801
sS'skid'
p2740
I2802
sS'crush'
p2741
I2803
sS'lovebird'
p2742
I2804
sS'scuf'
p2743
I2806
sS'sur'
p2744
I2808
sS'fucki'
p2745
I2809
sS'steel"'
p2746
I5265
sS'him"'
p2747
I2810
sS'public'
p2748
I2811
sS'bastardess'
p2749
I479
sS'written"'
p2750
I1475
sS'"bill'
p2751
I4044
sS'worldsav'
p2752
I2815
sS'cannib'
p2753
I771
sS'themselv'
p2754
I2817
sS'halfass'
p2755
I2818
sS'travel"'
p2756
I2819
sS'"popcorn"'
p2757
I2820
sS'"mayb'
p2758
I2821
sS'proper'
p2759
I5146
sS'tragedi'
p2760
I815
sS'cigar"'
p2761
I2824
sS'"jeffer'
p2762
I826
sS'nake'
p2763
I5169
sS'knife"'
p2764
I2826
sS'excess'
p2765
I860
sS'motorcycl'
p2766
I3275
sS'goodby'
p2767
I2258
sS'strong'
p2768
I2831
sS'mabel"'
p2769
I2833
sS'hadda'
p2770
I105
sS'maybe"'
p2771
I2835
sS'volcano"'
p2772
I2836
sS'900'
p2773
I859
sS'will"'
p2774
I2838
sS'"curt'
p2775
I2839
sS'ahead'
p2776
I2840
sS'margin'
p2777
I2841
sS'"dylan'
p2778
I2842
sS'vensday'
p2779
I2843
sS'whine'
p2780
I2844
sS'brutal'
p2781
I357
sS'franki'
p2782
I4540
sS'cheese"'
p2783
I2846
sS'turkeyneck'
p2784
I964
sS'amount'
p2785
I2848
sS'references"'
p2786
I2849
sS'social'
p2787
I985
sS'action'
p2788
I2851
sS'"but"'
p2789
I2852
sS'narrow'
p2790
I2853
sS'fuck"'
p2791
I2854
sS'lechers"'
p2792
I2855
sS'bunk'
p2793
I2856
sS'trainer'
p2794
I1023
sS'"cook'
p2795
I1342
sS'januari'
p2796
I5188
sS'barker'
p2797
I2861
sS'africa'
p2798
I2862
sS'sad"'
p2799
I4960
sS'sadist'
p2800
I2864
sS'story"'
p2801
I1085
sS'snug'
p2802
I2867
sS'know"'
p2803
I2868
sS'clock'
p2804
I2794
sS'parties"'
p2805
I2870
sS'anything"'
p2806
I2871
sS'establish'
p2807
I2872
sS'dangl'
p2808
I2873
sS'obnoxious"'
p2809
I1139
sS'clifford'
p2810
I2875
sS'"slam'
p2811
I2876
sS'edna"'
p2812
I3942
sS'ash'
p2813
I3169
sS'eye'
p2814
I2879
sS'"have'
p2815
I1167
sS'pregnant"'
p2816
I2881
sS'0'
p2817
I2882
sS"he'walk"
p2818
I2883
sS'tackl'
p2819
I2884
sS'two'
p2820
I2885
sS'coverag'
p2821
I2886
sS'lady"'
p2822
I2887
sS'"cunt'
p2823
I1210
sS'massag'
p2824
I2889
sS'splash'
p2825
I2435
sS'morn'
p2826
I2891
sS'time"'
p2827
I4494
sS'gorgeous'
p2828
I1239
sS'taken'
p2829
I2893
sS'garnish'
p2830
I2895
sS'minor'
p2831
I2896
sS'watch"'
p2832
I1271
sS'virgin"'
p2833
I2898
sS'flat'
p2834
I1279
sS'diamond'
p2835
I2900
sS'desir'
p2836
I1290
sS'flap'
p2837
I2902
sS'prize"'
p2838
I4193
sS'hundr'
p2839
I2904
sS'"where'
p2840
I5199
sS'line'
p2841
I3914
sS'ahead"'
p2842
I2905
sS'flag'
p2843
I2906
sS'dos'
p2844
I3996
sS"ain't"
p2845
I2907
sS'stick'
p2846
I2908
sS'"father"'
p2847
I1359
sS'particular'
p2848
I1146
sS'magnific'
p2849
I485
sS'stranger'
p2850
I2413
sS'compani'
p2851
I2912
sS'rooster'
p2852
I4967
sS'glad'
p2853
I2913
sS'shotgun"'
p2854
I474
sS'none'
p2855
I2915
sS'muscles"'
p2856
I3177
sS'valuabl'
p2857
I1422
sS'hous'
p2858
I2919
sS'shit"'
p2859
I2920
sS'der'
p2860
I159
sS'policemen'
p2861
I2922
sS'chisel'
p2862
I2923
sS'sitz'
p2863
I4969
sS'roosevelt'
p2864
I2925
sS'cc\'s"'
p2865
I1788
sS'iss'
p2866
I3205
sS'mall'
p2867
I1473
sS'hesit'
p2868
I2930
sS'nine'
p2869
I2931
sS'den'
p2870
I1485
sS'nothing"'
p2871
I1489
sS'swelledup'
p2872
I2934
sS'wolfe"'
p2873
I1181
sS'"lemm'
p2874
I2936
sS'chickenshit"'
p2875
I2938
sS'stumbl'
p2876
I2939
sS'orlean'
p2877
I2940
sS'palest'
p2878
I2942
sS'prompt'
p2879
I2943
sS'brown'
p2880
I1401
sS'meaner'
p2881
I2945
sS'scab'
p2882
I2946
sS'share'
p2883
I2947
sS'accept'
p2884
I2949
sS'seaplan'
p2885
I1580
sS'allegi'
p2886
I2951
sS'prose'
p2887
I4973
sS'f"'
p2888
I2953
sS'theater"'
p2889
I2954
sS'"georg'
p2890
I4966
sS'jackrabbit'
p2891
I291
sS'miserable"'
p2892
I2957
sS'sharp'
p2893
I2958
sS'go"'
p2894
I494
sS'dress'
p2895
I2960
sS'brushoff'
p2896
I1646
sS'huge'
p2897
I2964
sS'siren'
p2898
I2965
sS'cours'
p2899
I2966
sS'court'
p2900
I2967
sS'secur'
p2901
I1678
sS'rather'
p2902
I2970
sS'underwear"'
p2903
I1686
sS'bread"'
p2904
I2972
sS'comfort'
p2905
I1693
sS'milk'
p2906
I2974
sS'american'
p2907
I3187
sS'fullback'
p2908
I1704
sS'fame'
p2909
I2977
sS'grand"'
p2910
I2978
sS'reject'
p2911
I2979
sS'hotrock'
p2912
I2980
sS'hottest'
p2913
I4909
sS'simpl'
p2914
I2981
sS'needl'
p2915
I2982
sS'unabl'
p2916
I2983
sS'mould'
p2917
I2984
sS'painful"'
p2918
I2985
sS'plant'
p2919
I2986
sS'sandwich'
p2920
I2987
sS'everbless'
p2921
I2988
sS'startl'
p2922
I1175
sS'"never'
p2923
I2990
sS'helmet'
p2924
I2290
sS'funny"'
p2925
I2992
sS'simple"'
p2926
I5138
sS'sneak'
p2927
I2993
sS'never"'
p2928
I2994
sS'nana"'
p2929
I5293
sS'underp'
p2930
I2914
sS'plane'
p2931
I2995
sS'embrac'
p2932
I2996
sS'"tom"'
p2933
I2773
sS'numb'
p2934
I2457
sS'gasp'
p2935
I1868
sS'toothach'
p2936
I3000
sS'wave'
p2937
I4075
sS'plank'
p2938
I3002
sS'daddy"'
p2939
I3003
sS'welcom'
p2940
I4984
sS'a'
p2941
I3004
sS'eddie"'
p2942
I5006
sS'circumst'
p2943
I3005
sS'"boot'
p2944
I1916
sS'nowher'
p2945
I4519
sS'corps'
p2946
I4874
sS'susan'
p2947
I3008
sS'ani'
p2948
I1957
sS'onto'
p2949
I788
sS'undershort'
p2950
I3010
sS'george"'
p2951
I5075
sS'overnight'
p2952
I503
sS'caus'
p2953
I3012
sS'harry"'
p2954
I1979
sS'"about'
p2955
I3015
sS'"garcia'
p2956
I4450
sS'shade'
p2957
I3016
sS'cigarett'
p2958
I3017
sS'dream'
p2959
I2020
sS'apart"'
p2960
I3020
sS'davey'
p2961
I3021
sS'"in'
p2962
I4038
sS'frizzledup'
p2963
I3023
sS'medic'
p2964
I2297
sS'mexican'
p2965
I3025
sS'help'
p2966
I3026
sS'burn'
p2967
I3027
sS'iti'
p2968
I9
sS'"if'
p2969
I3029
sS'reform'
p2970
I4812
sS'slouch'
p2971
I3031
sS'mission'
p2972
I2088
sS'trade'
p2973
I2094
sS'"hard'
p2974
I2822
sS'rounder'
p2975
I3035
sS'ok"'
p2976
I2107
sS'scott'
p2977
I2110
sS'pane'
p2978
I154
sS'beers"'
p2979
I3040
sS'dishrag'
p2980
I2129
sS'"it'
p2981
I3043
sS'suffer'
p2982
I3044
sS'everything"'
p2983
I4163
sS'"is'
p2984
I3045
sS'panties"'
p2985
I3046
sS'24'
p2986
I3047
sS'25'
p2987
I3048
sS'style'
p2988
I1730
sS'27'
p2989
I3050
sS'burkhart"'
p2990
I2163
sS'basketballplay'
p2991
I3052
sS'glide'
p2992
I3053
sS'23'
p2993
I3054
sS'pray'
p2994
I3055
sS'exact'
p2995
I3056
sS'"black'
p2996
I3057
sS'drinks"'
p2997
I3059
sS'"nice'
p2998
I2210
sS'soulstr'
p2999
I821
sS'3rd"'
p3000
I3204
sS'jacobi'
p3001
I3062
sS'sunday"'
p3002
I2239
sS'delici'
p3003
I3064
sS'cool'
p3004
I3065
sS'might'
p3005
I3066
sS'landlord'
p3006
I3067
sS'peni'
p3007
I2261
sS'"margi'
p3008
I923
sS'lovebird"'
p3009
I2270
sS'ant'
p3010
I3071
sS'good'
p3011
I3072
sS'return'
p3012
I3073
sS'sign"'
p3013
I3074
sS'ya'
p3014
I2303
sS'little"'
p3015
I2308
sS'thinking"'
p3016
I3077
sS'it"'
p3017
I3078
sS'burkhart'
p3018
I3079
sS'troubador'
p3019
I2338
sS'vomit'
p3020
I2346
sS'farewel'
p3021
I3398
sS'foot'
p3022
I3083
sS'studi'
p3023
I3084
sS'adventur'
p3024
I3085
sS'complain'
p3025
I3086
sS'bigger'
p3026
I3087
sS'"back'
p3027
I3088
sS'"teller'
p3028
I3089
sS'eventu'
p3029
I3090
sS'all"'
p3030
I3091
sS'shop'
p3031
I2035
sS'pregnant'
p3032
I2695
sS'stripe'
p3033
I3670
sS'electrotherapi'
p3034
I3093
sS'wallac'
p3035
I3094
sS'jock'
p3036
I4827
sS'unlik'
p3037
I3096
sS'critic'
p3038
I3097
sS'fine"'
p3039
I3098
sS'"full'
p3040
I1645
sS'easili'
p3041
I2456
sS'achiev'
p3042
I3101
sS'best"'
p3043
I3104
sS'fulli'
p3044
I2486
sS'jumma'
p3045
I3106
sS'loser"'
p3046
I2064
sS'trailer'
p3047
I56
sS'fallaci'
p3048
I3110
sS'house"'
p3049
I3111
sS'week'
p3050
I2315
sS'refere'
p3051
I2481
sS'shock'
p3052
I4093
sS'"yeh'
p3053
I3113
sS'mental'
p3054
I2534
sS'nein'
p3055
I2538
sS'mexican"'
p3056
I4848
sS'eyelash'
p3057
I3116
sS'colder'
p3058
I3117
sS'fish'
p3059
I2557
sS'hard'
p3060
I3119
sS'fishbon'
p3061
I3120
sS'idea'
p3062
I3121
sS'terrifi'
p3063
I2573
sS'realli'
p3064
I3123
sS'begain'
p3065
I2807
sS'"we\'r'
p3066
I3125
sS'brothers"'
p3067
I4586
sS'finish'
p3068
I2316
sS'married"'
p3069
I2903
sS'inflict'
p3070
I2916
sS'energi'
p3071
I3129
sS'beyond'
p3072
I4657
sS'randolph'
p3073
I3131
sS'thick'
p3074
I1050
sS'madhouse"'
p3075
I3133
sS'peckerlength'
p3076
I3135
sS'flower'
p3077
I3136
sS'lipstick'
p3078
I3137
sS'childish'
p3079
I2680
sS'publish'
p3080
I3140
sS'"go'
p3081
I2700
sS'pair"'
p3082
I262
sS'health'
p3083
I3144
sS'hill'
p3084
I3145
sS'7'
p3085
I3146
sS'print'
p3086
I2737
sS'get'
p3087
I2086
sS'highway'
p3088
I208
sS'ass'
p3089
I3150
sS'thirtyf'
p3090
I2771
sS'drink'
p3091
I5008
sS'strain'
p3092
I3153
sS'belief'
p3093
I3154
sS'molino'
p3094
I3794
sS'librium'
p3095
I2798
sS'pud'
p3096
I3156
sS'ankl'
p3097
I5009
sS'puf'
p3098
I3158
sS'friday'
p3099
I1258
sS'campfir'
p3100
I2825
sS'cockroach'
p3101
I3161
sS'pleasant'
p3102
I3162
sS'bigleg'
p3103
I3163
sS'reason'
p3104
I3164
sS'base'
p3105
I3165
sS'housew'
p3106
I1116
sS'tiniest'
p3107
I3944
sS'ask'
p3108
I2865
sS'teach'
p3109
I3168
sS'madman"'
p3110
I2878
sS'cross"'
p3111
I3170
sS'guy'
p3112
I3171
sS'basi'
p3113
I3172
sS'thrown'
p3114
I2899
sS'faucet'
p3115
I3174
sS'"she'
p3116
I3175
sS'opentop'
p3117
I3226
sS'thread'
p3118
I2917
sS'creeley"'
p3119
I3178
sS'script'
p3120
I3181
sS'ruthie"'
p3121
I3183
sS'struggl'
p3122
I3184
sS'revolutionari'
p3123
I3185
sS'ovaltin'
p3124
I1033
sS'perhap'
p3125
I2975
sS'dear"'
p3126
I3188
sS'perman'
p3127
I3189
sS'penetr'
p3128
I2989
sS'"boy"'
p3129
I2774
sS'$250'
p3130
I3191
sS"it'll"
p3131
I1552
sS'"fine'
p3132
I5341
sS'gif'
p3133
I3194
sS'undersid'
p3134
I3195
sS'stardust"'
p3135
I3018
sS'feed'
p3136
I3197
sS'pleas'
p3137
I4102
sS'major'
p3138
I3198
sS'"chust'
p3139
I3199
sS'speaker'
p3140
I4994
sS'dead"'
p3141
I1728
sS'doctor"'
p3142
I3201
sS'wilder'
p3143
I3058
sS'feel'
p3144
I3203
sS'articl'
p3145
I2711
sS'wildey'
p3146
I4018
sS'number'
p3147
I3206
sS'power"'
p3148
I3207
sS'feet'
p3149
I3208
sS'sailor'
p3150
I3209
sS'smaller'
p3151
I4560
sS'done'
p3152
I3211
sS'wench'
p3153
I2071
sS'blank'
p3154
I3213
sS'horribl'
p3155
I3214
sS'"loosen'
p3156
I1188
sS'miss'
p3157
I3216
sS'"turn'
p3158
I5018
sS'fanci'
p3159
I3218
sS"you'd"
p3160
I4107
sS'take'
p3161
I1985
sS'razor'
p3162
I2602
sS'differ'
p3163
I3160
sS'"'
p3164
I3223
sS'"sure'
p3165
I3224
sS'jew'
p3166
I3225
sS'jet'
p3167
I3176
sS'"pleas'
p3168
I539
sS'blossom'
p3169
I3228
sS'5th'
p3170
I3229
sS'bock'
p3171
I4043
sS'remember"'
p3172
I3231
sS'least'
p3173
I3232
sS'player'
p3174
I3234
sS'paint'
p3175
I3235
sS'stori'
p3176
I3236
sS'station'
p3177
I3237
sS'statement'
p3178
I3238
sS'cesspoolbrown'
p3179
I3239
sS'mama'
p3180
I3240
sS'beerfat'
p3181
I3103
sS'"fri'
p3182
I3242
sS'banana'
p3183
I3244
sS'store'
p3184
I3245
sS'rater'
p3185
I3246
sS'adhes'
p3186
I3247
sS'luckili'
p3187
I3248
sS'imperfect'
p3188
I3249
sS'saint'
p3189
I3250
sS'relationship'
p3190
I3251
sS'behind'
p3191
I3252
sS'oldtim'
p3192
I3254
sS'bowel'
p3193
I1005
sS'hotel'
p3194
I3256
sS'park'
p3195
I3257
sS'duti'
p3196
I2410
sS'"how"'
p3197
I3259
sS'madmen'
p3198
I3260
sS'chair'
p3199
I1375
sS'part'
p3200
I3262
sS'twenti'
p3201
I3241
sS'racetrack'
p3202
I3264
sS'$2'
p3203
I3265
sS'breather"'
p3204
I3266
sS'center'
p3205
I5024
sS'king'
p3206
I693
sS'kind'
p3207
I3269
sS'john'
p3208
I3030
sS'unhappy"'
p3209
I3661
sS'gotten'
p3210
I3273
sS'remov'
p3211
I3274
sS'south'
p3212
I4533
sS'grey'
p3213
I3276
sS'knive'
p3214
I3277
sS'youth'
p3215
I3278
sS'inquir'
p3216
I3279
sS'groceri'
p3217
I3280
sS'bridg'
p3218
I3281
sS'cuff'
p3219
I3282
sS'hot"'
p3220
I3283
sS'arrang'
p3221
I3285
sS'stale'
p3222
I3286
sS'toward'
p3223
I3287
sS'danc'
p3224
I3288
sS'talker'
p3225
I3289
sS'mickey'
p3226
I3290
sS'cleaner'
p3227
I3291
sS'vacant'
p3228
I3292
sS'asham'
p3229
I3293
sS'experience"'
p3230
I3294
sS'season"'
p3231
I3295
sS'swung'
p3232
I2959
sS'blinkin'
p3233
I3820
sS'unconstitut'
p3234
I3297
sS'"this'
p3235
I5234
sS'peculiar'
p3236
I3298
sS'packag'
p3237
I3299
sS'zirr'
p3238
I3192
sS'graffiti'
p3239
I3301
sS'complet'
p3240
I3302
sS'blond'
p3241
I3303
sS'eddi'
p3242
I3304
sS'helpless'
p3243
I3306
sS'karl'
p3244
I3307
sS'"danger"'
p3245
I3308
sS'sell'
p3246
I3309
sS'mountain'
p3247
I1949
sS'toughen'
p3248
I3312
sS'built'
p3249
I3313
sS'madhous'
p3250
I3314
sS'hustl'
p3251
I2341
sS'check'
p3252
I2301
sS'"vot"'
p3253
I3871
sS'self'
p3254
I3317
sS'violat'
p3255
I3318
sS'couch'
p3256
I3319
sS'lit'
p3257
I3320
sS'also'
p3258
I3321
sS'understand"'
p3259
I2050
sS'lip'
p3260
I3323
sS'useless'
p3261
I3324
sS'banjo'
p3262
I3327
sS'first"'
p3263
I3255
sS'store"'
p3264
I2845
sS'relief'
p3265
I2344
sS'play'
p3266
I3330
sS'7"'
p3267
I3331
sS'neglige'
p3268
I3332
sS'redey'
p3269
I3333
sS'choos'
p3270
I3334
sS'reach'
p3271
I3335
sS'ronni'
p3272
I3835
sS'crash'
p3273
I4414
sS'most'
p3274
I3337
sS'rollersk'
p3275
I3338
sS'charm'
p3276
I3339
sS'asshol'
p3277
I3258
sS'eaten'
p3278
I3341
sS'yow"'
p3279
I201
sS'suitcas'
p3280
I3343
sS'fight"'
p3281
I3344
sS'cowards"'
p3282
I3345
sS'"everybodi'
p3283
I3346
sS'lanny"'
p3284
I1596
sS'amaz'
p3285
I3348
sS'$1440'
p3286
I3349
sS'bunghol'
p3287
I3351
sS'rapist"'
p3288
I3353
sS'clear'
p3289
I3354
sS'chicago'
p3290
I4131
sS'ko'
p3291
I3355
sS'gin'
p3292
I1919
sS'night"'
p3293
I3972
sS'clean'
p3294
I3359
sS'restup'
p3295
I3989
sS'weigh'
p3296
I3361
sS'barrel'
p3297
I3362
sS'notch'
p3298
I3641
sS'yeah"'
p3299
I3364
sS'"except'
p3300
I3365
sS'"goodbye"'
p3301
I4840
sS'feel"'
p3302
I2272
sS'ridicul'
p3303
I3368
sS'asphalt'
p3304
I3369
sS'sparrow'
p3305
I3370
sS'fond'
p3306
I3371
sS'sophist'
p3307
I3372
sS'housecoat'
p3308
I3373
sS'fink'
p3309
I3374
sS'session'
p3310
I3375
sS'guy"'
p3311
I4248
sS'that"'
p3312
I4137
sS'freight'
p3313
I3376
sS'hairi'
p3314
I5330
sS'naomi'
p3315
I3378
sS'font'
p3316
I3379
sS'fine'
p3317
I3380
sS'casual'
p3318
I2787
sS'"too'
p3319
I3382
sS'giant'
p3320
I3383
sS'randi'
p3321
I3384
sS'harelip'
p3322
I2353
sS'pretti'
p3323
I3386
sS'music'
p3324
I1224
sS'nervous'
p3325
I3388
sS'ruin'
p3326
I3389
sS'humor"'
p3327
I2320
sS'afterward'
p3328
I4514
sS'buying"'
p3329
I3391
sS'ball'
p3330
I5005
sS'with"'
p3331
I533
sS'"thank'
p3332
I3393
sS'litl'
p3333
I3394
sS'"neither'
p3334
I3395
sS'curt"'
p3335
I1668
sS'snobbish'
p3336
I3397
sS'pleasure"'
p3337
I3399
sS'8'
p3338
I3400
sS'unhappi'
p3339
I3402
sS'juke'
p3340
I3403
sS'hip'
p3341
I3404
sS"they'v"
p3342
I761
sS'hit'
p3343
I3406
sS'alive"'
p3344
I2812
sS'exposur'
p3345
I3268
sS'heaven"'
p3346
I3411
sS'express'
p3347
I3412
sS'cocksuckers"'
p3348
I3413
sS'"anyhow'
p3349
I2357
sS'twohundreddollar'
p3350
I512
sS'stone"'
p3351
I1515
sS'grew'
p3352
I3270
sS'hid'
p3353
I3419
sS'fastest'
p3354
I2288
sS'comecrazi'
p3355
I3421
sS'basement'
p3356
I3422
sS'silli'
p3357
I3424
sS'salut'
p3358
I3425
sS'silk'
p3359
I3426
sS'banner'
p3360
I822
sS'him'
p3361
I3428
sS'antiscept'
p3362
I3429
sS'freedom"'
p3363
I3430
sS'addl'
p3364
I3432
sS'proclaim'
p3365
I3436
sS'jeffer'
p3366
I3437
sS'"how'
p3367
I2113
sS'booz'
p3368
I5323
sS'geld'
p3369
I3440
sS'common'
p3370
I3441
sS'burlesqu'
p3371
I3442
sS'"give'
p3372
I3443
sS'"thoma'
p3373
I3804
sS'river'
p3374
I3210
sS'rear'
p3375
I3730
sS'relentless'
p3376
I3447
sS'halflook'
p3377
I3448
sS'excited"'
p3378
I5057
sS'"stella'
p3379
I3449
sS'set'
p3380
I3450
sS'art'
p3381
I3451
sS'bart'
p3382
I3452
sS'merrygoround'
p3383
I3453
sS'dog"'
p3384
I3454
sS'delux'
p3385
I3456
sS'sex'
p3386
I3457
sS'vamp'
p3387
I3458
sS'lion'
p3388
I638
sS'histori'
p3389
I2926
sS'dumb'
p3390
I1528
sS'are'
p3391
I3462
sS'sea'
p3392
I3463
sS'overboard'
p3393
I3464
sS'tender'
p3394
I4629
sS'clamberin'
p3395
I2116
sS'bark'
p3396
I3467
sS'harri'
p3397
I2750
sS'arm'
p3398
I3469
sS'close'
p3399
I3466
sS'"ooh'
p3400
I2230
sS'spiritu'
p3401
I3471
sS'inconveni'
p3402
I3472
sS'merci'
p3403
I3473
sS'speed'
p3404
I3474
sS'someth'
p3405
I3475
sS'grandmoth'
p3406
I3476
sS'debat'
p3407
I3478
sS'grocer'
p3408
I3480
sS'won'
p3409
I3481
sS'helps"'
p3410
I3482
sS'"yes"'
p3411
I3483
sS'sexi'
p3412
I4153
sS'hotplat'
p3413
I2092
sS'years"'
p3414
I3485
sS'experi'
p3415
I3486
sS'jewels"'
p3416
I3487
sS'head"'
p3417
I3423
sS'"that'
p3418
I3489
sS'solo'
p3419
I3490
sS'latin'
p3420
I3491
sS'brush'
p3421
I4455
sS'appreci'
p3422
I3492
sS'erni'
p3423
I3493
sS'sunshad'
p3424
I3494
sS'"sometim'
p3425
I3495
sS's'
p3426
I3496
sS'sold'
p3427
I3497
sS'sole'
p3428
I3498
sS'upstairs"'
p3429
I3499
sS'isol'
p3430
I3500
sS'mailbox'
p3431
I3501
sS'lifelin'
p3432
I3502
sS'barrack'
p3433
I3503
sS'spray'
p3434
I3504
sS'bar"'
p3435
I961
sS'french'
p3436
I3506
sS'devil"'
p3437
I2307
sS'politics"'
p3438
I3508
sS'europ'
p3439
I3509
sS'"it\'ll'
p3440
I4078
sS'leo'
p3441
I4157
sS'days"'
p3442
I772
sS'both'
p3443
I3513
sS'last'
p3444
I3516
sS"wouldn't"
p3445
I3517
sS'breakin'
p3446
I1896
sS'alon'
p3447
I3519
sS'sardin'
p3448
I3520
sS'auden'
p3449
I3521
sS'beginn'
p3450
I1819
sS'feet"'
p3451
I4259
sS'pattie"'
p3452
I3523
sS'tightfit'
p3453
I2374
sS'"anybodi'
p3454
I3526
sS'carniv'
p3455
I3527
sS'whole'
p3456
I3528
sS'load'
p3457
I3530
sS'"gentlemen"'
p3458
I3531
sS'race"'
p3459
I132
sS'simpli'
p3460
I3533
sS'live"'
p3461
I3534
sS'point'
p3462
I3535
sS'in"'
p3463
I5364
sS'sweet'
p3464
I3536
sS'format'
p3465
I3739
sS'goate'
p3466
I3537
sS'except'
p3467
I2376
sS'nightstand'
p3468
I3539
sS'nicer'
p3469
I2362
sS'scrub'
p3470
I3984
sS'acclaim'
p3471
I3541
sS'bitch"'
p3472
I3542
sS'hangov'
p3473
I3543
sS'church'
p3474
I3544
sS'rave'
p3475
I3545
sS'mistak'
p3476
I3546
sS'bench'
p3477
I3547
sS'when"'
p3478
I2834
sS'belt'
p3479
I3549
sS'breast'
p3480
I4371
sS'alimoni'
p3481
I2378
sS'worthless'
p3482
I3551
sS'devil'
p3483
I1152
sS'filth'
p3484
I3553
sS'script"'
p3485
I3554
sS'casualti'
p3486
I3555
sS'celluloid'
p3487
I3556
sS'ear'
p3488
I5273
sS'"other'
p3489
I3557
sS'overlook'
p3490
I2205
sS'handy"'
p3491
I3559
sS'due'
p3492
I3560
sS'empti'
p3493
I3561
sS'cage"'
p3494
I3562
sS'whol'
p3495
I3563
sS'porterhouse"'
p3496
I3564
sS'damn'
p3497
I3565
sS'ireland'
p3498
I3566
sS'exampl'
p3499
I5035
sS'threaten'
p3500
I3567
sS'brick'
p3501
I2624
sS'comic'
p3502
I3022
sS'excon'
p3503
I3570
sS'shortcrop'
p3504
I3571
sS'woke'
p3505
I3572
sS'4'
p3506
I3038
sS'firm'
p3507
I3574
sS'ram'
p3508
I3575
sS'vant'
p3509
I1486
sS'buck'
p3510
I3578
sS'fire'
p3511
I3579
sS'citizen'
p3512
I5078
sS'gas'
p3513
I3581
sS'great'
p3514
I4171
sS'gap'
p3515
I3584
sS'fund'
p3516
I3585
sS'holler'
p3517
I5143
sS'38'
p3518
I4172
sS'understand'
p3519
I3586
sS'liver'
p3520
I3587
sS'210'
p3521
I5166
sS'gag'
p3522
I3588
sS'instructor'
p3523
I3590
sS"what'd"
p3524
I29
sS'convers'
p3525
I4174
sS'half"'
p3526
I4319
sS'appoint'
p3527
I5366
sS'stolen'
p3528
I3592
sS'fur'
p3529
I3593
sS'look'
p3530
I3594
sS'frozen'
p3531
I67
sS'errol'
p3532
I3597
sS'"do'
p3533
I72
sS'bill'
p3534
I3599
sS'ridden'
p3535
I4924
sS'budget'
p3536
I583
sS'rope'
p3537
I3601
sS'bop'
p3538
I1513
sS'while'
p3539
I3603
sS'smart'
p3540
I3041
sS'abov'
p3541
I3605
sS'mortician'
p3542
I447
sS'fun'
p3543
I3607
sS'fleet'
p3544
I131
sS'loot'
p3545
I3609
sS'fixtur'
p3546
I3296
sS'loos'
p3547
I3611
sS'participants"'
p3548
I605
sS'real'
p3549
I3613
sS'gimm'
p3550
I3614
sS'pound'
p3551
I172
sS'stall'
p3552
I3616
sS'use"'
p3553
I3617
sS'moth'
p3554
I194
sS'vacat'
p3555
I4083
sS'handicapp'
p3556
I3620
sS'astound'
p3557
I3621
sS'rip'
p3558
I3622
sS'daylight"'
p3559
I1601
sS'hobby"'
p3560
I3624
sS'"straight'
p3561
I3625
sS'itself'
p3562
I3626
sS"they'd"
p3563
I3417
sS'claimer'
p3564
I3628
sS'"an'
p3565
I1470
sS'tribesmen'
p3566
I3630
sS'limit'
p3567
I5294
sS'rid'
p3568
I1315
sS'vanish'
p3569
I271
sS'rib'
p3570
I277
sS'chase'
p3571
I3636
sS'chauffeur'
p3572
I3637
sS'barney'
p3573
I3638
sS'"henri'
p3574
I3396
sS'shirt'
p3575
I3639
sS'normal"'
p3576
I3640
sS'movi'
p3577
I4377
sS'itchi'
p3578
I3642
sS'belong'
p3579
I3643
sS'shorten'
p3580
I3644
sS'away"'
p3581
I3645
sS'how"'
p3582
I362
sS'funni'
p3583
I3647
sS'hester'
p3584
I3648
sS'diego'
p3585
I5322
sS'whore"'
p3586
I3650
sS'grand'
p3587
I3651
sS'9'
p3588
I3652
sS'ray'
p3589
I3654
sS'topbrand'
p3590
I3655
sS'day'
p3591
I4431
sS'sliver'
p3592
I419
sS'"surely"'
p3593
I4870
sS'hallway'
p3594
I3658
sS'snail'
p3595
I3659
sS'imagin'
p3596
I3310
sS'camera'
p3597
I4228
sS'cigar'
p3598
I3662
sS'yesterday'
p3599
I3663
sS'andyou'
p3600
I477
sS'dusti'
p3601
I3666
sS'moment'
p3602
I3667
sS'suckerfish'
p3603
I3668
sS'temporari'
p3604
I3669
sS'wife"'
p3605
I3305
sS'corni'
p3606
I3671
sS'koch'
p3607
I515
sS'dine'
p3608
I3673
sS'stack'
p3609
I538
sS'recent'
p3610
I3676
sS'hmmmmmm'
p3611
I3677
sS'lower'
p3612
I3678
sS'strode'
p3613
I5213
sS'people"'
p3614
I2137
sS'older'
p3615
I3680
sS'"joe'
p3616
I2081
sS'sundri'
p3617
I2406
sS'cheek'
p3618
I592
sS'ordinarys'
p3619
I3683
sS'spent'
p3620
I3684
sS'phil'
p3621
I3685
sS'pickl'
p3622
I613
sS'person'
p3623
I616
sS'unlac'
p3624
I3688
sS'chees'
p3625
I3689
sS'"sure"'
p3626
I3690
sS'expens'
p3627
I3691
sS'withdraw'
p3628
I637
sS'discipl'
p3629
I3693
sS'swiss'
p3630
I3694
sS'gang"'
p3631
I3695
sS'"today'
p3632
I1205
sS'yet"'
p3633
I663
sS'"yeah"'
p3634
I1928
sS'throwaway'
p3635
I674
sS'matter"'
p3636
I3700
sS'guess"'
p3637
I3701
sS'wellhung'
p3638
I3702
sS'unseen'
p3639
I5095
sS'from'
p3640
I4217
sS'redden'
p3641
I5342
sS'telegram'
p3642
I1602
sS'"like'
p3643
I3705
sS'bilderass"'
p3644
I3706
sS'unudd'
p3645
I5195
sS'shape'
p3646
I3709
sS'baptiz'
p3647
I3710
sS'world'
p3648
I3711
sS'hghter'
p3649
I3712
sS'lancelot"'
p3650
I1772
sS'monetarili'
p3651
I3715
sS'meanest'
p3652
I3716
sS'punks"'
p3653
I3717
sS'move'
p3654
I4378
sS'shape"'
p3655
I3718
sS'tigress'
p3656
I3719
sS'cut'
p3657
I818
sS'"everi'
p3658
I4056
sS'botch'
p3659
I839
sS'tribe"'
p3660
I3723
sS'pier'
p3661
I5101
sS'grasshopp'
p3662
I3725
sS'extra'
p3663
I3726
sS'eager'
p3664
I3728
sS'"vicki'
p3665
I3212
sS'$6260'
p3666
I3729
sS'grin'
p3667
I2408
sS'restor'
p3668
I4975
sS'"wake'
p3669
I3731
sS'snap'
p3670
I3732
sS'divorc'
p3671
I2409
sS'easter'
p3672
I2859
sS'karilla"'
p3673
I3735
sS'putnam'
p3674
I15
sS'shitti'
p3675
I3737
sS'march'
p3676
I3738
sS'milkshit'
p3677
I4365
sS'question"'
p3678
I968
sS'insol'
p3679
I3740
sS'big'
p3680
I3741
sS'fucker"'
p3681
I3742
sS'"piss"'
p3682
I3743
sS'horseshit'
p3683
I3744
sS'thoma'
p3684
I3746
sS'game'
p3685
I3747
sS'tabl'
p3686
I4633
sS'wiser'
p3687
I3749
sS'snore'
p3688
I3750
sS'bit'
p3689
I3751
sS'awaken'
p3690
I3752
sS'furnitur'
p3691
I4928
sS'formal'
p3692
I3753
sS'thurman'
p3693
I3477
sS'backalley'
p3694
I354
sS'lovetroubl'
p3695
I1070
sS'$500"'
p3696
I3757
sS'd'
p3697
I1084
sS'jobs"'
p3698
I3759
sS'raid"'
p3699
I3760
sS'worry"'
p3700
I3761
sS'signal'
p3701
I3762
sS'resolv'
p3702
I3764
sS'glove'
p3703
I3765
sS'restroom'
p3704
I3329
sS'table"'
p3705
I3708
sS'collect'
p3706
I1433
sS'where"'
p3707
I3623
sS'$5001'
p3708
I3769
sS'popular'
p3709
I3770
sS'parlor'
p3710
I3976
sS'"drink"'
p3711
I3771
sS'foolish'
p3712
I3772
sS'donni'
p3713
I1173
sS'downstair'
p3714
I3774
sS'newspapermen'
p3715
I3775
sS'tract"'
p3716
I4668
sS'scared"'
p3717
I3776
sS'sketch'
p3718
I3777
sS'scare'
p3719
I4532
sS'mighti'
p3720
I3778
sS'often'
p3721
I3779
sS'switchblad'
p3722
I3780
sS'goddamn'
p3723
I3781
sS'creation'
p3724
I3782
sS'some'
p3725
I3783
sS'back'
p3726
I1242
sS'"wow"'
p3727
I3785
sS'ah'
p3728
I3786
sS'"wa'
p3729
I4142
sS'deathray'
p3730
I1263
sS'palm'
p3731
I1270
sS'pall'
p3732
I1274
sS'wellshap'
p3733
I1277
sS'mirror'
p3734
I3792
sS'molestor'
p3735
I5049
sS'curious'
p3736
I3793
sS'stoppin'
p3737
I1803
sS'lionclaw'
p3738
I1298
sS'lake"'
p3739
I2037
sS'scarf'
p3740
I3797
sS'cabbag'
p3741
I5315
sS'and/or'
p3742
I369
sS'threestori'
p3743
I1334
sS'chamber'
p3744
I3800
sS'charg'
p3745
I3347
sS'vulgari'
p3746
I3801
sS'women"'
p3747
I3802
sS'pros'
p3748
I3803
sS'religion'
p3749
I933
sS'pen'
p3750
I1392
sS'mathemat'
p3751
I3806
sS'larg'
p3752
I3807
sS'jewelri'
p3753
I1400
sS'anni'
p3754
I3809
sS'wholesal'
p3755
I3810
sS'49'
p3756
I5325
sS'pea'
p3757
I1431
sS'anna'
p3758
I3812
sS'nose'
p3759
I3813
sS'lowest'
p3760
I1472
sS'be'
p3761
I3815
sS'cameraman'
p3762
I1454
sS'fast"'
p3763
I5313
sS'patient'
p3764
I1460
sS'mustach'
p3765
I5120
sS'saddle"'
p3766
I3818
sS'rub'
p3767
I3819
sS'booklet'
p3768
I1479
sS'benefactor'
p3769
I1219
sS'$83'
p3770
I3822
sS'agreement'
p3771
I2420
sS'"ernie"'
p3772
I3824
sS'rollerworld'
p3773
I1503
sS'jumpi'
p3774
I2646
sS'"now"'
p3775
I3827
sS'step'
p3776
I3828
sS'public"'
p3777
I3326
sS'stew'
p3778
I1526
sS'santa'
p3779
I3831
sS'teach"'
p3780
I3832
sS'usc'
p3781
I1694
sS'impot'
p3782
I3834
sS'father"'
p3783
I3844
sS'hands"'
p3784
I3836
sS'by'
p3785
I3837
sS'shine'
p3786
I3838
sS'faith'
p3787
I3839
sS'beerdrinker"'
p3788
I3840
sS'poetri'
p3789
I4443
sS'yawn'
p3790
I3841
sS'"take'
p3791
I1605
sS'memori'
p3792
I3843
sS'truck'
p3793
I3845
sS'shooter"'
p3794
I3846
sS'fights"'
p3795
I3982
sS'drama'
p3796
I1628
sS'stricken'
p3797
I3849
sS'boxer'
p3798
I1447
sS'bless'
p3799
I2451
sS'candi'
p3800
I3851
sS'"easi'
p3801
I3852
sS'"ye'
p3802
I3853
sS'lucky"'
p3803
I3577
sS'ann"'
p3804
I3855
sS'block'
p3805
I3856
sS'charl'
p3806
I3340
sS'boy"'
p3807
I3858
sS'fulfil'
p3808
I2431
sS'miracl'
p3809
I3860
sS'emphasi'
p3810
I3862
sS'fourday'
p3811
I1710
sS'lifetim'
p3812
I3193
sS'hope"'
p3813
I1726
sS'hemingway'
p3814
I1731
sS'wive'
p3815
I3342
sS'dishpan'
p3816
I3869
sS'strawberri'
p3817
I4749
sS'savag'
p3818
I1770
sS'damned"'
p3819
I1774
sS'ringsid'
p3820
I3874
sS'holster'
p3821
I3875
sS'coil'
p3822
I652
sS'chang'
p3823
I4188
sS'prisonmanufactur'
p3824
I1802
sS'eskimo'
p3825
I3878
sS'durabl'
p3826
I3879
sS'stench'
p3827
I3880
sS'jockey'
p3828
I1825
sS'"whatza'
p3829
I604
sS'cellmat'
p3830
I3883
sS'famous'
p3831
I3884
sS'few'
p3832
I4227
sS'credit"'
p3833
I3885
sS'brim'
p3834
I3039
sS'question'
p3835
I3888
sS'precis'
p3836
I962
sS'errand'
p3837
I1046
sS'custom'
p3838
I3891
sS'dian'
p3839
I3892
sS'sonni'
p3840
I3893
sS'doubt'
p3841
I3894
sS'includ'
p3842
I1901
sS'suit'
p3843
I3897
sS'"break"'
p3844
I61
sS'coyot'
p3845
I3899
sS'tongue"'
p3846
I4332
sS'careful"'
p3847
I3900
sS'record'
p3848
I5291
sS'interested"'
p3849
I3901
sS'himself'
p3850
I3902
sS'an'
p3851
I2607
sS'jewish'
p3852
I3903
sS'"ifi'
p3853
I2437
sS'crapper'
p3854
I3905
sS'roll"'
p3855
I3906
sS'"sinc'
p3856
I3907
sS'heart'
p3857
I4864
sS'cloth'
p3858
I3908
sS'kidding"'
p3859
I55
sS'pissmachin'
p3860
I3910
sS'"uh"'
p3861
I3911
sS'atom'
p3862
I3912
sS'russian'
p3863
I3913
sS'legs"'
p3864
I2056
sS'reek'
p3865
I3915
sS'butteri'
p3866
I3916
sS'dull'
p3867
I3917
sS'tomorrow"'
p3868
I3919
sS'"each'
p3869
I4452
sS'patriot'
p3870
I3920
sS'"movies"'
p3871
I3921
sS'skull'
p3872
I2098
sS'"gimm'
p3873
I3923
sS'explos'
p3874
I3924
sS'muddiedup'
p3875
I3925
sS'rebellion'
p3876
I3926
sS'up'
p3877
I3928
sS'us'
p3878
I3929
sS'reliable"'
p3879
I4798
sS'homo'
p3880
I5142
sS'believe"'
p3881
I3932
sS'doc'
p3882
I3933
sS'highlight'
p3883
I3935
sS'bore"'
p3884
I3937
sS'bever'
p3885
I3938
sS'curv'
p3886
I634
sS'lost"'
p3887
I3940
sS'curt'
p3888
I3941
sS'cathol'
p3889
I1467
sS'freak'
p3890
I3943
sS'curs'
p3891
I733
sS'physic'
p3892
I4574
sS'thirtytwo'
p3893
I3945
sS'"anyth'
p3894
I3887
sS'cover'
p3895
I3946
sS'"goodnight'
p3896
I3948
sS'freeway"'
p3897
I2241
sS'"robert"'
p3898
I2247
sS'scarlet'
p3899
I3951
sS'constanc'
p3900
I1021
sS'fatso'
p3901
I1028
sS'beginning"'
p3902
I3955
sS'bitch'
p3903
I4549
sS'decency"'
p3904
I3956
sS'"peac'
p3905
I3957
sS'doe'
p3906
I667
sS'problem"'
p3907
I3959
sS'cotton'
p3908
I1801
sS'"then'
p3909
I5014
sS'sullen'
p3910
I251
sS'%'
p3911
I3963
sS'suicide"'
p3912
I3964
sS'sticki'
p3913
I3253
sS'"yeh"'
p3914
I3966
sS'failure"'
p3915
I3967
sS'hint'
p3916
I3968
sS'nah'
p3917
I2331
sS'possible"'
p3918
I3973
sS'hell"'
p3919
I3974
sS'club'
p3920
I3975
sS'swath'
p3921
I3325
sS'silverlak'
p3922
I4980
sS'supernatur'
p3923
I3977
sS'excreta'
p3924
I3978
sS'hate"'
p3925
I3766
sS'nice'
p3926
I3980
sS'"now'
p3927
I3507
sS'draw'
p3928
I1199
sS'cellar'
p3929
I2442
sS'ricks"'
p3930
I2445
sS'mustard'
p3931
I3510
sS'lend'
p3932
I2459
sS'is"'
p3933
I3988
sS'papa'
p3934
I3990
sS'radiat'
p3935
I3991
sS'"fourteen"'
p3936
I3992
sS'drag'
p3937
I2932
sS'squirm'
p3938
I3995
sS'lunch'
p3939
I5025
sS'drab'
p3940
I1814
sS'spermcount'
p3941
I3997
sS'"what'
p3942
I5151
sS'hair'
p3943
I5139
sS'unplug'
p3944
I1053
sS'maja"'
p3945
I3999
sS'desert'
p3946
I4000
sS'deserv'
p3947
I4001
sS'ago'
p3948
I4002
sS'"somehow"'
p3949
I4003
sS'35yearold'
p3950
I4004
sS'land'
p3951
I4005
sS'happier'
p3952
I2574
sS'kiepenheu'
p3953
I4007
sS'vice'
p3954
I4009
sS'horseplay'
p3955
I4010
sS'halfflat'
p3956
I2596
sS'vow'
p3957
I4012
sS'midst'
p3958
I1377
sS"she'd"
p3959
I4014
sS'bucks"'
p3960
I4015
sS'fairmount'
p3961
I3713
sS'2000'
p3962
I4016
sS'dot'
p3963
I4017
sS'broad'
p3964
I5156
sS'far'
p3965
I4020
sS'fresh'
p3966
I4021
sS'yank'
p3967
I4023
sS'buffalo'
p3968
I2663
sS'tube'
p3969
I2458
sS'pussy"'
p3970
I4026
sS'pervert'
p3971
I4027
sS'edg'
p3972
I4028
sS'scratch'
p3973
I2719
sS'happy"'
p3974
I4030
sS'pissbird'
p3975
I4031
sS'girly"'
p3976
I4032
sS'sometimes"'
p3977
I4033
sS'refrigerator"'
p3978
I3876
sS'commerc'
p3979
I3367
sS'gang'
p3980
I4036
sS'"chonjacki'
p3981
I3550
sS'go'
p3982
I4039
sS'prim'
p3983
I4040
sS'bedroom"'
p3984
I4041
sS'nook'
p3985
I4042
sS'$2350'
p3986
I3979
sS'literari'
p3987
I2814
sS'wireclippers"'
p3988
I2829
sS'gold'
p3989
I5134
sS'sensit'
p3990
I4047
sS'effort'
p3991
I2530
sS'rosali'
p3992
I4049
sS'haven"'
p3993
I4050
sS'young'
p3994
I4051
sS'send'
p3995
I4052
sS'easiest'
p3996
I4053
sS'rudder'
p3997
I4054
sS'shack'
p3998
I4055
sS'bum'
p3999
I5269
sS'becam'
p4000
I4057
sS'honydew"'
p4001
I3721
sS'"marti'
p4002
I4059
sS'atlas'
p4003
I4060
sS'"three'
p4004
I2467
sS'airplan'
p4005
I4062
sS'fatal'
p4006
I4063
sS'sent'
p4007
I4065
sS'rag'
p4008
I4066
sS'unzip'
p4009
I4068
sS'envelop'
p4010
I4069
sS'garden'
p4011
I4070
sS'toenail'
p4012
I4071
sS'dessert'
p4013
I4072
sS'715'
p4014
I4073
sS'avalon'
p4015
I3001
sS'dandi'
p4016
I4077
sS'spoon'
p4017
I3011
sS'indian'
p4018
I4140
sS'"are'
p4019
I4080
sS'more"'
p4020
I4082
sS'ski'
p4021
I5082
sS'gantling"'
p4022
I4084
sS'lands"'
p4023
I4492
sS'wipe'
p4024
I4085
sS'18"'
p4025
I3220
sS'tri'
p4026
I4087
sS'shoelac'
p4027
I4088
sS'magic'
p4028
I4089
sS'stiff'
p4029
I4090
sS'harbor'
p4030
I4091
sS'sellout"'
p4031
I3108
sS'gettin'
p4032
I3112
sS'415'
p4033
I4094
sS'bloodspot'
p4034
I4096
sS'"dick'
p4035
I1414
sS'backstretch'
p4036
I4098
sS'hamhock'
p4037
I3866
sS'beerbottl'
p4038
I4099
sS'hester"'
p4039
I1034
sS'rack'
p4040
I4101
sS'louis'
p4041
I3511
sS'someday'
p4042
I3202
sS'sex"'
p4043
I4104
sS'sicken'
p4044
I3186
sS'fortun'
p4045
I4106
sS'"draw'
p4046
I3219
sS'"chinaski"'
p4047
I1946
sS'senorita'
p4048
I3230
sS'"bingo"'
p4049
I2119
sS'"here"'
p4050
I4111
sS'ham'
p4051
I2642
sS'jump'
p4052
I4113
sS'fold'
p4053
I3272
sS"you'r"
p4054
I4115
sS'why"'
p4055
I3352
sS"you'v"
p4056
I4118
sS'throttl'
p4057
I5177
sS'possibilities"'
p4058
I4120
sS'impregn'
p4059
I2225
sS'folk'
p4060
I4123
sS'juba"'
p4061
I4124
sS'twing'
p4062
I4125
sS'"john'
p4063
I4126
sS'poke'
p4064
I4128
sS'compar'
p4065
I4130
sS'wallet'
p4066
I2950
sS'ankles"'
p4067
I3360
sS'saw'
p4068
I1969
sS'body"'
p4069
I4135
sS'fat'
p4070
I2734
sS'make"'
p4071
I4136
sS'moan'
p4072
I3221
sS'find'
p4073
I3381
sS'cell'
p4074
I4138
sS'below'
p4075
I5292
sS'rotten'
p4076
I4139
sS'clipboard'
p4077
I2644
sS'unspeak'
p4078
I3947
sS'obvious'
p4079
I4272
sS'indec'
p4080
I2204
sS'large"'
p4081
I4145
sS'mediums'
p4082
I2935
sS'bird'
p4083
I4146
sS'spoken'
p4084
I5353
sS'whatev'
p4085
I4148
sS'vibrat'
p4086
I4149
sS'led'
p4087
I4150
sS'flo'
p4088
I4151
sS'leg'
p4089
I4152
sS'think"'
p4090
I2480
sS'nursefuck'
p4091
I2827
sS'"miss'
p4092
I4275
sS'underwood'
p4093
I4155
sS'punch'
p4094
I4156
sS'circumcis'
p4095
I862
sS'bodi'
p4096
I4158
sS'tini'
p4097
I5295
sS'let'
p4098
I4159
sS'sink'
p4099
I4160
sS'1m'
p4100
I1899
sS'"tobi'
p4101
I4162
sS'tv'
p4102
I2707
sS'sing'
p4103
I4164
sS'becom'
p4104
I4165
sS'fifteen'
p4105
I4166
sS'sinc'
p4106
I4167
sS'river"'
p4107
I4168
sS'brenda"'
p4108
I3385
sS'ones"'
p4109
I3582
sS'purpos'
p4110
I2468
sS'talent'
p4111
I3589
sS'northern'
p4112
I3714
sS'"baby"'
p4113
I4175
sS'derbi'
p4114
I4176
sS'chant'
p4115
I4177
sS'30'
p4116
I2436
sS'screech'
p4117
I3619
sS'alaska'
p4118
I2206
sS'35'
p4119
I4181
sS'nazi"'
p4120
I644
sS'3091'
p4121
I4183
sS'huxley"'
p4122
I4184
sS'play"'
p4123
I1779
sS'defeat'
p4124
I1545
sS'popcorn'
p4125
I4187
sS'climb'
p4126
I3675
sS'pajama'
p4127
I2952
sS'tenant'
p4128
I4515
sS'tunnel'
p4129
I4191
sS'writer'
p4130
I4192
sS'see'
p4131
I3459
sS'although'
p4132
I5187
sS'danger'
p4133
I4195
sS'sordid'
p4134
I4196
sS'win'
p4135
I4197
sS'limp'
p4136
I3734
sS'emot'
p4137
I4199
sS'330'
p4138
I3745
sS'apt'
p4139
I4201
sS'expect'
p4140
I3127
sS'cowardic'
p4141
I4814
sS'prestig'
p4142
I4203
sS'motor'
p4143
I4204
sS'duck'
p4144
I4205
sS'nerves"'
p4145
I3787
sS'"thanks"'
p4146
I4207
sS'ninth'
p4147
I4208
sS'wilkenson'
p4148
I3392
sS'"befor'
p4149
I4037
sS'turpentin'
p4150
I4211
sS'cloud'
p4151
I4212
sS'sofa'
p4152
I5112
sS'"beauti'
p4153
I4214
sS'use'
p4154
I4215
sS'fee'
p4155
I4216
sS'crap'
p4156
I150
sS'stream'
p4157
I4218
sS'zip'
p4158
I4219
sS'&'
p4159
I2453
sS'drop"'
p4160
I4222
sS'doubl'
p4161
I4223
sS'orgies"'
p4162
I4224
sS'frog'
p4163
I4225
sS'next'
p4164
I4226
sS'"we'
p4165
I3790
sS'predict'
p4166
I2083
sS'grass'
p4167
I2594
sS'animal"'
p4168
I4229
sS'crab'
p4169
I4230
sS'lesli'
p4170
I2079
sS'wino"'
p4171
I4232
sS'stage'
p4172
I5192
sS'burst'
p4173
I4233
sS'start'
p4174
I2547
sS'sentiment'
p4175
I5371
sS'remaind'
p4176
I4235
sS'sir"'
p4177
I4236
sS'$20'
p4178
I3953
sS'winchel'
p4179
I1806
sS'name"'
p4180
I4239
sS'rich'
p4181
I4240
sS'porch'
p4182
I4241
sS'babi'
p4183
I4242
sS'rode'
p4184
I4290
sS'hard"'
p4185
I4244
sS'splendid'
p4186
I1922
sS'chariti'
p4187
I687
sS'meant'
p4188
I4746
sS'train'
p4189
I4250
sS'doin\'"'
p4190
I4251
sS'rubbish'
p4191
I2877
sS'actual'
p4192
I5196
sS'gambl'
p4193
I4255
sS'wtien'
p4194
I4943
sS'starter'
p4195
I4257
sS'women'
p4196
I4258
sS'fan'
p4197
I3864
sS'ice"'
p4198
I4260
sS'account'
p4199
I4261
sS'alik'
p4200
I4262
sS'chapbook'
p4201
I4086
sS'salad'
p4202
I4264
sS'f'
p4203
I3515
sS'pout'
p4204
I3859
sS'jesse"'
p4205
I378
sS'6'
p4206
I2892
sS'sight'
p4207
I3791
sS'butler'
p4208
I4231
sS'carrot'
p4209
I3936
sS'poscible"'
p4210
I4143
sS'thin'
p4211
I4273
sS'peanut'
p4212
I4048
sS'of'
p4213
I2496
sS'grate'
p4214
I5270
sS'meet'
p4215
I4276
sS'regain'
p4216
I4277
sS'fighter'
p4217
I4006
sS'aliv'
p4218
I4278
sS'control'
p4219
I4280
sS'isolationist'
p4220
I4281
sS'pig"'
p4221
I4200
sS'lemm'
p4222
I4283
sS'tap'
p4223
I4284
sS'bent'
p4224
I4213
sS'rearview'
p4225
I3653
sS'plate'
p4226
I4287
sS'iodin'
p4227
I1374
sS'lock'
p4228
I4289
sS'tax'
p4229
I4243
sS'alibi"'
p4230
I4291
sS'unoccupi'
p4231
I4292
sS'high'
p4232
I4293
sS'villain'
p4233
I1527
sS'his'
p4234
I3405
sS'none"'
p4235
I4279
sS'slip'
p4236
I4285
sS'maul'
p4237
I4957
sS'high"'
p4238
I162
sS'skirt'
p4239
I4301
sS'analyz'
p4240
I4302
sS'rape'
p4241
I4303
sS'proced'
p4242
I3407
sS'everywher'
p4243
I4305
sS'"christ'
p4244
I3965
sS'whitehair'
p4245
I4307
sS'water"'
p4246
I4300
sS'rancor'
p4247
I4309
sS'man"'
p4248
I2141
sS'230'
p4249
I4311
sS'halv'
p4250
I4312
sS'comedi'
p4251
I1987
sS'class"'
p4252
I4314
sS'degre'
p4253
I4315
sS'georg'
p4254
I4316
sS'prove'
p4255
I4679
sS'need'
p4256
I4634
sS'speech"'
p4257
I4317
sS'inmat'
p4258
I4318
sS'mari'
p4259
I3529
sS'dissolv'
p4260
I899
sS'instead'
p4261
I4321
sS'panic'
p4262
I4322
sS'line"'
p4263
I51
sS'gallo'
p4264
I4324
sS'oz'
p4265
I3479
sS'fare'
p4266
I4326
sS'pink'
p4267
I1627
sS'de'
p4268
I4328
sS'roach'
p4269
I4329
sS'inhal'
p4270
I4330
sS'attend'
p4271
I4331
sS'sir'
p4272
I4306
sS'"you\'d'
p4273
I4333
sS'stop'
p4274
I4334
sS'seatbelt'
p4275
I4335
sS'await'
p4276
I630
sS'wristwatch'
p4277
I4337
sS'3'
p4278
I4338
sS'wateri'
p4279
I4339
sS'fart'
p4280
I4340
sS'sip'
p4281
I4308
sS'wrist'
p4282
I4342
sS'attent'
p4283
I4343
sS'glucos'
p4284
I44
sS'"you\'v'
p4285
I4347
sS'strut'
p4286
I3415
sS'submitted"'
p4287
I4349
sS'piece"'
p4288
I823
sS'deadend'
p4289
I4351
sS'tomato'
p4290
I4352
sS'schoolteach'
p4291
I3416
sS'winner"'
p4292
I4354
sS'masturb'
p4293
I4355
sS'"bi'
p4294
I4356
sS'6/5'
p4295
I3148
sS'concern'
p4296
I2998
sS'light'
p4297
I4359
sS'"be'
p4298
I4360
sS'sit'
p4299
I4310
sS'winedrink'
p4300
I4362
sS'issu'
p4301
I4363
sS'hoods"'
p4302
I3418
sS'spain'
p4303
I4932
sS'cat'
p4304
I4366
sS'allow'
p4305
I4367
sS'jail"'
p4306
I4368
sS'"ohoh"'
p4307
I4369
sS'longest'
p4308
I2961
sS'unforgiv'
p4309
I4372
sS'thinks"'
p4310
I4373
sS'six'
p4311
I4313
sS'pitcher"'
p4312
I4375
sS'thigh'
p4313
I4376
sS'introduct'
p4314
I5081
sS'routin'
p4315
I2515
sS'clown'
p4316
I5235
sS'insight'
p4317
I3969
sS'outset'
p4318
I5217
sS'grampa'
p4319
I4379
sS'$175'
p4320
I4380
sS'turkeyneck"'
p4321
I4381
sS'130'
p4322
I1432
sS"won't"
p4323
I4383
sS'starch'
p4324
I3576
sS'death"'
p4325
I5361
sS'"thirti'
p4326
I4385
sS'volley'
p4327
I4862
sS'"george"'
p4328
I4387
sS'protrud'
p4329
I3696
sS'perfect'
p4330
I4389
sS'1'
p4331
I4390
sS'brood'
p4332
I4391
sS'outer'
p4333
I4392
sS'la'
p4334
I4393
sS'chosen'
p4335
I4394
sS'sunni'
p4336
I3427
sS'bill"'
p4337
I4396
sS'wawa'
p4338
I4397
sS'world"'
p4339
I4398
sS'owe'
p4340
I5223
sS'"pull'
p4341
I4400
sS'scissor'
p4342
I5033
sS'prisonmad'
p4343
I3733
sS'"ok"'
p4344
I4402
sS'redhead'
p4345
I4403
sS'alvarado'
p4346
I4404
sS'decad'
p4347
I4405
sS'therefor'
p4348
I4406
sS'filthi'
p4349
I4407
sS'forest'
p4350
I4409
sS'dad'
p4351
I4410
sS'flex'
p4352
I4411
sS'cuss'
p4353
I4412
sS'look"'
p4354
I2006
sS'pure'
p4355
I1642
sS'pearl'
p4356
I2888
sS'toppl'
p4357
I4417
sS'sexmad'
p4358
I4418
sS'dan'
p4359
I4419
sS'swore'
p4360
I4256
sS'poster'
p4361
I3904
sS'bat'
p4362
I4421
sS'happened"'
p4363
I4422
sS'newman'
p4364
I4423
sS'flash'
p4365
I2858
sS'girlfriend'
p4366
I4425
sS'snake'
p4367
I4426
sS'kiss'
p4368
I4427
sS'front'
p4369
I4428
sS'shota'
p4370
I4429
sS'cage'
p4371
I4430
sS'fled'
p4372
I3149
sS'napkin'
p4373
I4432
sS'stroke'
p4374
I4268
sS'yesterday"'
p4375
I3895
sS'figur'
p4376
I4435
sS'earring'
p4377
I2524
sS'edit'
p4378
I4438
sS'radiant'
p4379
I4439
sS'hangovers"'
p4380
I4440
sS'workingman'
p4381
I4723
sS'"did'
p4382
I4441
sS'margi'
p4383
I5271
sS'sin'
p4384
I4323
sS'slide'
p4385
I4444
sS'safeway'
p4386
I4445
sS'trap'
p4387
I4446
sS'truth'
p4388
I4447
sS'rite'
p4389
I4448
sS'goodlook'
p4390
I4154
sS'"dis'
p4391
I3583
sS'stock'
p4392
I4325
sS'tray'
p4393
I2660
sS'patron'
p4394
I4286
sS'jockstrap'
p4395
I4454
sS'upward'
p4396
I1163
sS'skate'
p4397
I4456
sS'unwind'
p4398
I3525
sS'silverwar'
p4399
I4458
sS'oughta'
p4400
I5230
sS'tension'
p4401
I4327
sS'intellig'
p4402
I4461
sS'ceil'
p4403
I4348
sS'chunk'
p4404
I4463
sS'"motion'
p4405
I4464
sS'700'
p4406
I4465
sS'outlaw'
p4407
I4466
sS'34'
p4408
I4182
sS'shuussshhh'
p4409
I4460
sS'broadcast'
p4410
I4467
sS'thirdstr'
p4411
I3829
sS'thirteen'
p4412
I4468
sS'wine"'
p4413
I4469
sS'watchdog'
p4414
I3095
sS'sob'
p4415
I1703
sS'banal'
p4416
I1786
sS'bay'
p4417
I1740
sS'sexual'
p4418
I4473
sS'wander'
p4419
I4474
sS'special'
p4420
I660
sS'out'
p4421
I4476
sS'don\'t"'
p4422
I4478
sS'blind"'
p4423
I4479
sS'write"'
p4424
I3649
sS"'"
p4425
I4482
sS'"erni'
p4426
I2324
sS'disentangl'
p4427
I4484
sS'confess'
p4428
I4485
sS'closer'
p4429
I4807
sS'"wait'
p4430
I4486
sS'stub'
p4431
I4487
sS'farm'
p4432
I4488
sS'mate'
p4433
I4489
sS'stuf'
p4434
I4490
sS'playground'
p4435
I4491
sS'disappear'
p4436
I285
sS'wick'
p4437
I3358
sS'red'
p4438
I69
sS'troop'
p4439
I4495
sS'chinaski'
p4440
I4079
sS'book"'
p4441
I410
sS'marty"'
p4442
I4498
sS'763'
p4443
I3704
sS'perish'
p4444
I4499
sS'insid'
p4445
I4500
sS'"babi'
p4446
I4501
sS'southern'
p4447
I3243
sS'manipul'
p4448
I4503
sS'templ'
p4449
I4504
sS'sneez'
p4450
I3446
sS'salami'
p4451
I4506
sS'york'
p4452
I4508
sS'enema'
p4453
I4344
sS'sneer'
p4454
I4510
sS'van'
p4455
I4511
sS'bum"'
p4456
I177
sS'"sally"'
p4457
I187
sS'bleed'
p4458
I193
sS'tip'
p4459
I4035
sS'bigass'
p4460
I4516
sS'"can'
p4461
I4517
sS'etern'
p4462
I4518
sS'steak'
p4463
I3300
sS'yard'
p4464
I4520
sS'believ'
p4465
I3166
sS'spill'
p4466
I475
sS'"hell'
p4467
I1237
sS'latest'
p4468
I4509
sS'put'
p4469
I3167
sS'steam'
p4470
I3336
sS'winner'
p4471
I4730
sS'length'
p4472
I4526
sS'shred'
p4473
I4527
sS'wrote'
p4474
I4528
sS'"help'
p4475
I295
sS'$4280'
p4476
I2650
sS'ashtray'
p4477
I4773
sS'stuck'
p4478
I1882
sS'anita'
p4479
I1126
sS'manhol'
p4480
I5210
sS'there'
p4481
I2542
sS'mag'
p4482
I4536
sS'blown'
p4483
I4537
sS'student'
p4484
I3200
sS'"troubl'
p4485
I4538
sS'shoot"'
p4486
I4539
sS'discourag'
p4487
I2968
sS'signboard'
p4488
I386
sS'cleanshaven'
p4489
I389
sS'sack'
p4490
I4543
sS'jesus'
p4491
I4544
sS'passion'
p4492
I5110
sS'have"'
p4493
I4545
sS'spaghetti'
p4494
I4546
sS'listless'
p4495
I3377
sS'fatigu'
p4496
I4548
sS'submit'
p4497
I4122
sS'sentimental"'
p4498
I4550
sS'jeffers"'
p4499
I4346
sS'street"'
p4500
I2830
sS'heat"'
p4501
I4553
sS'facil'
p4502
I4554
sS'inside"'
p4503
I4555
sS'list"'
p4504
I4556
sS'robert"'
p4505
I466
sS'killer'
p4506
I4558
sS'long'
p4507
I1867
sS'monkey'
p4508
I484
sS'love"'
p4509
I493
sS'be"'
p4510
I4563
sS'bologna'
p4511
I4564
sS'licens'
p4512
I4565
sS'kathy"'
p4513
I4566
sS'two"'
p4514
I513
sS'messag'
p4515
I4568
sS'attach'
p4516
I532
sS'attack'
p4517
I1211
sS'baby"'
p4518
I4572
sS'talkat'
p4519
I2962
sS'minutes"'
p4520
I3215
sS'whatsamata'
p4521
I1915
sS'enough"'
p4522
I4576
sS'chaser'
p4523
I565
sS'unbear'
p4524
I576
sS'cabin'
p4525
I581
sS'beard'
p4526
I4580
sS'booth'
p4527
I4117
sS'sixteenth'
p4528
I4581
sS'malibu'
p4529
I2616
sS'stomach'
p4530
I4583
sS'gear'
p4531
I4584
sS'stockingless'
p4532
I4917
sS'villag'
p4533
I4353
sS'shelf'
p4534
I2418
sS'shallow'
p4535
I4587
sS'negro'
p4536
I4588
sS'parol'
p4537
I2355
sS'maladi'
p4538
I4590
sS'shore'
p4539
I3014
sS'flump'
p4540
I4591
sS'submiss'
p4541
I3727
sS'transfus'
p4542
I4593
sS'shelv'
p4543
I4594
sS'anybodi'
p4544
I2518
sS'"stick'
p4545
I703
sS'lighthill"'
p4546
I5070
sS'bach'
p4547
I4597
sS'shut'
p4548
I4497
sS'hungov'
p4549
I4598
sS'photograph'
p4550
I4599
sS'"god'
p4551
I4600
sS'dresser'
p4552
I5124
sS'glisten'
p4553
I4561
sS'"man'
p4554
I758
sS'"veil'
p4555
I762
sS'weekold'
p4556
I4603
sS'"dawn'
p4557
I768
sS'later"'
p4558
I773
sS'charact'
p4559
I778
sS'claim'
p4560
I4607
sS'gone"'
p4561
I4358
sS'swindler'
p4562
I793
sS'arc'
p4563
I3460
sS'sens'
p4564
I4061
sS'"hank"'
p4565
I4611
sS'lover'
p4566
I4612
sS'bare'
p4567
I3461
sS'"geez'
p4568
I4614
sS'stopgap'
p4569
I3271
sS'bet'
p4570
I3434
sS'tommi'
p4571
I4617
sS'drunk'
p4572
I5066
sS'counter'
p4573
I4361
sS'broadway'
p4574
I4620
sS'clip'
p4575
I4621
sS'terribl'
p4576
I4622
sS'consecr'
p4577
I4480
sS'joe'
p4578
I4839
sS'"bill"'
p4579
I4624
sS'westlak'
p4580
I4625
sS'"what\'d'
p4581
I4626
sS'"donni'
p4582
I4627
sS'tonight'
p4583
I4628
sS'buy'
p4584
I5256
sS'resembl'
p4585
I4133
sS'can\'t"'
p4586
I937
sS'"well"'
p4587
I3284
sS'hahaaaa"'
p4588
I948
sS'pinbal'
p4589
I952
sS'prothro'
p4590
I3366
sS'offens'
p4591
I4636
sS'intermiss'
p4592
I4637
sS'screw'
p4593
I4638
sS'comfortable"'
p4594
I987
sS'afraid'
p4595
I4640
sS'probabl'
p4596
I5321
sS'stairay'
p4597
I1003
sS'preach'
p4598
I4790
sS'unlaw'
p4599
I3679
sS'briefcas'
p4600
I4642
sS'monica'
p4601
I4643
sS'mix'
p4602
I4644
sS'campus"'
p4603
I4645
sS'desperate"'
p4604
I4646
sS'which'
p4605
I4647
sS'varieti'
p4606
I5338
sS'tramp"'
p4607
I4649
sS'so'
p4608
I1684
sS'subject'
p4609
I2655
sS'"he\'ll'
p4610
I1087
sS'"thirtytwo'
p4611
I5261
sS'singl'
p4612
I4654
sS'unworri'
p4613
I4655
sS'batsuit'
p4614
I4618
sS'isss'
p4615
I4658
sS'awar'
p4616
I784
sS'undisciplin'
p4617
I4660
sS'"over'
p4618
I3444
sS'who'
p4619
I4662
sS'salli'
p4620
I4663
sS'whi'
p4621
I4664
sS'port'
p4622
I3646
sS'presid'
p4623
I4530
sS'grab'
p4624
I4786
sS'basket'
p4625
I4667
sS'"ya"'
p4626
I854
sS'redfac'
p4627
I4669
sS'shrink"'
p4628
I1180
sS'but'
p4629
I5263
sS'paid"'
p4630
I4672
sS'lunch"'
p4631
I4673
sS'attun'
p4632
I4674
sS'highschool'
p4633
I4675
sS'gait'
p4634
I4676
sS'payment'
p4635
I1153
sS'game"'
p4636
I4678
sS'sort'
p4637
I4589
sS'abalon'
p4638
I4681
sS'expert'
p4639
I4682
sS'they"'
p4640
I5266
sS'wish'
p4641
I5283
sS'skinni'
p4642
I4684
sS'bred'
p4643
I1092
sS'stronger'
p4644
I4686
sS'outfit'
p4645
I4844
sS'sf'
p4646
I3414
sS'inde'
p4647
I1297
sS'deni'
p4648
I1305
sS'cement'
p4649
I3664
sS'turk'
p4650
I4691
sS'determin'
p4651
I4692
sS'russian"'
p4652
I4693
sS'occasion'
p4653
I4694
sS'"or'
p4654
I4695
sS'fact'
p4655
I4696
sS'should'
p4656
I4733
sS'son'
p4657
I4698
sS'affair'
p4658
I1361
sS'us"'
p4659
I4263
sS'catalina'
p4660
I4701
sS'$500'
p4661
I4702
sS'wonderful"'
p4662
I1384
sS'loadin'
p4663
I1390
sS'bags"'
p4664
I4705
sS'varicolor'
p4665
I4706
sS'stove'
p4666
I4707
sS'whistl'
p4667
I4708
sS'crate'
p4668
I4709
sS'anyway'
p4669
I4710
sS'nien'
p4670
I4711
sS'perfor'
p4671
I4712
sS'bring'
p4672
I4713
sS'motherhumpin'
p4673
I4714
sS'looke'
p4674
I4374
sS'beg'
p4675
I4604
sS'luck"'
p4676
I1448
sS'vultur'
p4677
I2921
sS'dyer"'
p4678
I4718
sS'bell"'
p4679
I4719
sS'molest'
p4680
I1463
sS'texa'
p4681
I4721
sS'rectum'
p4682
I5272
sS'"becaus'
p4683
I4722
sS'"glad'
p4684
I3635
sS'farms"'
p4685
I4724
sS'footbal'
p4686
I4725
sS'communism'
p4687
I5216
sS'wiseass'
p4688
I1501
sS'nois'
p4689
I4728
sS'tire'
p4690
I4729
sS'antisoci'
p4691
I5362
sS'materi'
p4692
I3842
sS'impuls'
p4693
I4144
sS'mouthless'
p4694
I3013
sS'madman'
p4695
I4731
sS'mug'
p4696
I798
sS'true"'
p4697
I1541
sS'manufactur'
p4698
I4734
sS'held'
p4699
I3034
sS'envi'
p4700
I1554
sS'jam'
p4701
I1558
sS'tape'
p4702
I1561
sS'truck"'
p4703
I4738
sS'jamestown"'
p4704
I4739
sS'various'
p4705
I4740
sS'bourbon'
p4706
I1582
sS'he'
p4707
I5275
sS'local'
p4708
I4245
sS'highris'
p4709
I4743
sS'inferior'
p4710
I4064
sS'toby"'
p4711
I4745
sS'spun'
p4712
I1423
sS'cube'
p4713
I1620
sS'dale'
p4714
I3981
sS'mannequin"'
p4715
I1932
sS'fellow'
p4716
I3465
sS'"930"'
p4717
I4751
sS'dope'
p4718
I1647
sS'depressed"'
p4719
I4753
sS'rush'
p4720
I2580
sS'bear'
p4721
I4
sS'joint'
p4722
I2583
sS'theori'
p4723
I4081
sS'this"'
p4724
I4758
sS'"pattie"'
p4725
I3863
sS'secret"'
p4726
I3484
sS'increas'
p4727
I1560
sS'score'
p4728
I4736
sS'twelv'
p4729
I4413
sS'churchgo'
p4730
I1713
sS'cranki'
p4731
I4765
sS'asshole"'
p4732
I2649
sS'theatr'
p4733
I4767
sS'endless'
p4734
I4768
sS'wallpap'
p4735
I3886
sS'button"'
p4736
I2559
sS'mundan'
p4737
I4771
sS'organ'
p4738
I4772
sS'hemorrhoid'
p4739
I4189
sS'talking"'
p4740
I4774
sS'h'
p4741
I4775
sS'had"'
p4742
I4776
sS'thousand"'
p4743
I4777
sS'summon'
p4744
I4778
sS'hollow'
p4745
I3538
sS'veget'
p4746
I5282
sS'stuff'
p4747
I4781
sS'mascara'
p4748
I1816
sS'partit'
p4749
I4783
sS'injur'
p4750
I4784
sS'shi'
p4751
I1829
sS'rein'
p4752
I1833
sS'piss'
p4753
I3488
sS'viet'
p4754
I4787
sS'next"'
p4755
I4788
sS'offset'
p4756
I4789
sS'view'
p4757
I1853
sS'buzzer'
p4758
I4791
sS'toe'
p4759
I4792
sS'slaveri'
p4760
I4793
sS'resort'
p4761
I4794
sS'clubhous'
p4762
I74
sS'sing"'
p4763
I4796
sS'growing"'
p4764
I4384
sS'reveng'
p4765
I5185
sS'"catholic"'
p4766
I337
sS'apolog'
p4767
I4799
sS'"they'
p4768
I5003
sS'end"'
p4769
I1938
sS'driveway'
p4770
I2063
sS'once"'
p4771
I4802
sS'cry"'
p4772
I4803
sS'racket'
p4773
I4804
sS'worried"'
p4774
I4805
sS'middle"'
p4775
I1993
sS'"nobodi'
p4776
I5290
sS'entranc'
p4777
I2004
sS'interview'
p4778
I4449
sS'panti'
p4779
I4810
sS'closet'
p4780
I4811
sS'has'
p4781
I920
sS'genius'
p4782
I4813
sS'own'
p4783
I4382
sS'tool'
p4784
I3328
sS'tend'
p4785
I2054
sS'xray'
p4786
I2060
sS'icecream'
p4787
I3316
sS'written'
p4788
I866
sS'725'
p4789
I4034
sS'retri'
p4790
I4821
sS'jerkoff'
p4791
I4822
sS'copilot'
p4792
I4823
sS'crude'
p4793
I4824
sS'muslim'
p4794
I4825
sS'neither'
p4795
I4826
sS'nut"'
p4796
I1185
sS'bought'
p4797
I2112
sS'tore'
p4798
I4829
sS'brilliant"'
p4799
I4830
sS'he"'
p4800
I2592
sS'jig'
p4801
I1712
sS'joy'
p4802
I4833
sS'sorrow'
p4803
I4834
sS'tshirt'
p4804
I4946
sS'exactly"'
p4805
I2161
sS'job'
p4806
I4836
sS'shits"'
p4807
I2177
sS'$2400'
p4808
I4838
sS'no'
p4809
I2339
sS'key'
p4810
I505
sS'exist"'
p4811
I4841
sS'"you\'r'
p4812
I4350
sS'fools"'
p4813
I4842
sS'precious'
p4814
I4843
sS'boss'
p4815
I4170
sS'rancid'
p4816
I4220
sS'problem'
p4817
I5299
sS'operate"'
p4818
I4846
sS'thumb'
p4819
I4847
sS'wiggl'
p4820
I2237
sS'drum'
p4821
I4849
sS'seventeen'
p4822
I4850
sS'pepper'
p4823
I5175
sS'gristl'
p4824
I4462
sS'joke'
p4825
I4852
sS'decay'
p4826
I4853
sS'equal'
p4827
I4854
sS'neurot'
p4828
I3311
sS'doorway'
p4829
I4856
sS'succeed'
p4830
I3505
sS'admir'
p4831
I4858
sS'ooooohhhhhhooooh'
p4832
I4859
sS'skyful'
p4833
I4860
sS'hobbi'
p4834
I4395
sS'swim'
p4835
I4861
sS'"balls"'
p4836
I685
sS'swallow'
p4837
I4863
sS'spot"'
p4838
I4715
sS'everybody"'
p4839
I3952
sS'"not'
p4840
I4865
sS'herb"'
p4841
I3665
sS'endicott'
p4842
I4867
sS'dement'
p4843
I2360
sS'croti'
p4844
I4571
sS'"tough'
p4845
I3435
sS'"nurse"'
p4846
I4871
sS'gone'
p4847
I4872
sS'wall'
p4848
I4873
sS'tuesday'
p4849
I4875
sS'overcoat'
p4850
I4876
sS'wonder'
p4851
I2133
sS'arriv'
p4852
I4877
sS'walk'
p4853
I4878
sS'commend'
p4854
I4879
sS'distinguish'
p4855
I4880
sS'uppercut'
p4856
I3789
sS'taylor'
p4857
I4882
sS'laugh'
p4858
I4883
sS'cousin'
p4859
I4116
sS'392'
p4860
I4885
sS'respect'
p4861
I2832
sS'"see'
p4862
I4888
sS'ad'
p4863
I2601
sS'blink'
p4864
I4890
sS'poem'
p4865
I2477
sS'exhard'
p4866
I4892
sS'slowli'
p4867
I4893
sS'own"'
p4868
I4894
sS'maid'
p4869
I4895
sS'purpl'
p4870
I3512
sS'"i\'v'
p4871
I4897
sS'triniti'
p4872
I2527
sS'willi'
p4873
I2536
sS'"just'
p4874
I4901
sS'drank'
p4875
I4902
sS'besid'
p4876
I4903
sS'armpit'
p4877
I4186
sS'motherfuck'
p4878
I4905
sS'electr'
p4879
I2567
sS'poet'
p4880
I4907
sS'curtain'
p4881
I4908
sS'"fifths"'
p4882
I1539
sS'immedi'
p4883
I4910
sS'"our'
p4884
I4911
sS"it'd"
p4885
I2591
sS'wasta'
p4886
I4913
sS'bras'
p4887
I4914
sS'glasses"'
p4888
I2605
sS'nickel'
p4889
I4916
sS'wanna'
p4890
I3854
sS'upcom'
p4891
I4918
sS'"hello"'
p4892
I4868
sS'$1750'
p4893
I4920
sS'shitpot'
p4894
I4921
sS'protect'
p4895
I4922
sS'pie'
p4896
I4923
sS'fasttalk'
p4897
I2659
sS'bartend'
p4898
I4575
sS'mannequin'
p4899
I2681
sS'gun'
p4900
I5053
sS'bull'
p4901
I339
sS'ador'
p4902
I4927
sS'"right"'
p4903
I2697
sS'educ'
p4904
I4929
sS'general'
p4905
I1977
sS'caddi'
p4906
I2708
sS'present'
p4907
I2178
sS'cot'
p4908
I4933
sS'homer'
p4909
I4934
sS'coward"'
p4910
I4935
sS'nippl'
p4911
I4936
sS'novel'
p4912
I4937
sS'toothless'
p4913
I4938
sS'bewhisk'
p4914
I4939
sS'coffeecak'
p4915
I2749
sS'wilt'
p4916
I4941
sS'plain'
p4917
I4942
sS'vanilla'
p4918
I400
sS'disdain'
p4919
I2484
sS'harder'
p4920
I4945
sS'endearing"'
p4921
I2634
sS'"listen"'
p4922
I3998
sS'harden'
p4923
I2790
sS'"forget'
p4924
I4949
sS'"one'
p4925
I4950
sS'ounc'
p4926
I4952
sS'spinal'
p4927
I4851
sS'hahaha'
p4928
I4953
sS'wild'
p4929
I4954
sS'twohour'
p4930
I1732
sS'spittl'
p4931
I4956
sS'salvat'
p4932
I4948
sS'raw"'
p4933
I4958
sS'ya"'
p4934
I4959
sS'layer'
p4935
I2863
sS'ritikan'
p4936
I3518
sS'vd'
p4937
I4962
sS'file'
p4938
I4963
sS'almost'
p4939
I4964
sS'slug"'
p4940
I2772
sS'blood'
p4941
I2997
sS'ink'
p4942
I5316
sS'dissens'
p4943
I2955
sS'jorgenson"'
p4944
I3758
sS'"dishwasher"'
p4945
I3261
sS'hansen"'
p4946
I2924
sS'vs'
p4947
I4970
sS'novel"'
p4948
I4971
sS'ax'
p4949
I2615
sS'maja'
p4950
I3682
sS'incom'
p4951
I137
sS'patti'
p4952
I3522
sS'lawrenc'
p4953
I4976
sS'ava'
p4954
I4977
sS'whore'
p4955
I4978
sS'greater'
p4956
I4415
sS'fourteen'
p4957
I3870
sS'whirl'
p4958
I4981
sS'penni'
p4959
I5318
sS'steer'
p4960
I4616
sS'though"'
p4961
I4985
sS'japanes'
p4962
I4986
sS"o'brien"
p4963
I4436
sS'balloon'
p4964
I2694
sS'headlight'
p4965
I3024
sS'cross'
p4966
I4990
sS'rachmaninoff"'
p4967
I2617
sS'handl'
p4968
I4992
sS'"goodnight"'
p4969
I4993
sS'swift'
p4970
I4845
sS'bullr'
p4971
I4995
sS'"tell'
p4972
I5212
sS'auto'
p4973
I4996
sS'underground'
p4974
I3918
sS'blues"'
p4975
I3082
sS'strangl'
p4976
I4999
sS'cream'
p4977
I5000
sS'cod'
p4978
I1809
sS'lights"'
p4979
I5002
sS'day"'
p4980
I2751
sS'tighten'
p4981
I5004
sS'cents"'
p4982
I3126
sS'cigarettesick'
p4983
I4919
sS'flesh'
p4984
I3390
sS'bird"'
p4985
I5007
sS'bald'
p4986
I3152
sS'upon'
p4987
I3157
sS'catfuck'
p4988
I5010
sS'fucker'
p4989
I2202
sS'oooooo'
p4990
I5012
sS'beast'
p4991
I5013
sS'720'
p4992
I5296
sS'reactionari'
p4993
I2191
sS'"vel'
p4994
I5015
sS'dust'
p4995
I5016
sS'pedal'
p4996
I433
sS'sunburn'
p4997
I3217
sS'collar'
p4998
I3233
sS'sasng'
p4999
I5021
sS'yeah'
p5000
I1785
sS'shitshitshitshit"'
p5001
I950
sS'off'
p5002
I5023
sS'proceed'
p5003
I2880
sS'dock'
p5004
I4127
sS'i'
p5005
I5026
sS'get"'
p5006
I5027
sS'elevators"'
p5007
I5028
sS'well'
p5008
I5029
sS'breakfast"'
p5009
I5030
sS'chronicl'
p5010
I5031
sS'thought'
p5011
I5032
sS'stranglehold'
p5012
I3315
sS'sadlook'
p5013
I5034
sS'gloves"'
p5014
I3322
sS'command'
p5015
I5036
sS'oft'
p5016
I5037
sS'alka'
p5017
I322
sS'partner'
p5018
I4974
sS'diet"'
p5019
I1904
sS'"operator"'
p5020
I5040
sS'latrin'
p5021
I5326
sS'bandanna'
p5022
I3363
sS'nerv'
p5023
I4930
sS'loudmouth'
p5024
I5042
sS'taller'
p5025
I5043
sS'urinesmel'
p5026
I5059
sS'paus'
p5027
I5045
sS'going"'
p5028
I5046
sS'maggot'
p5029
I1789
sS'42'
p5030
I5048
sS'half'
p5031
I1750
sS'passeng'
p5032
I4755
sS'loaf'
p5033
I3180
sS'storey'
p5034
I5052
sS'nurses"'
p5035
I4076
sS'beerdrunk'
p5036
I3433
sS'barmaid'
p5037
I5055
sS'smash'
p5038
I4770
sS'heavili'
p5039
I5056
sS'tough'
p5040
I856
sS'glue'
p5041
I5058
sS'chickenshit'
p5042
I3826
sS'feder'
p5043
I5153
sS'clipper'
p5044
I5060
sS'poems"'
p5045
I5061
sS'hamburg'
p5046
I4926
sS'rapid'
p5047
I5062
sS'shoes"'
p5048
I5063
sS'tight'
p5049
I5064
sS'work"'
p5050
I5065
sS'bell'
p5051
I3939
sS'sky'
p5052
I5067
sS'lake'
p5053
I5068
sS'beanery"'
p5054
I5069
sS'bullshit'
p5055
I2229
sS'drew'
p5056
I5071
sS'add'
p5057
I5073
sS'valid'
p5058
I2632
sS'chat'
p5059
I3954
sS'teller'
p5060
I5076
sS'nickl'
p5061
I1658
sS'wet'
p5062
I3580
sS'chair"'
p5063
I5079
sS'"herb'
p5064
I5080
sS'barrow'
p5065
I2111
sS'285'
p5066
I4249
sS'"here'
p5067
I5083
sS'match'
p5068
I1184
sS'futur'
p5069
I5336
sS'royalti'
p5070
I5085
sS'livin'
p5071
I1031
sS'billi'
p5072
I4433
sS'admit'
p5073
I5087
sS'priest'
p5074
I5022
sS'gossip'
p5075
I5335
sS'piec'
p5076
I5088
sS'steadili'
p5077
I5089
sS'dishwash'
p5078
I4659
sS'haul'
p5079
I5091
sS'realiz'
p5080
I5092
sS'five'
p5081
I5093
sS'"umm'
p5082
I2011
sS'burden'
p5083
I3703
sS'desk'
p5084
I5096
sS'press'
p5085
I5097
sS'somewher'
p5086
I4434
sS'doughnut'
p5087
I5099
sS'2nd'
p5088
I3357
sS'noticed"'
p5089
I3909
sS'"your'
p5090
I5102
sS'sizzl'
p5091
I5103
sS'loss'
p5092
I4747
sS'lincoln'
p5093
I5105
sS'$890'
p5094
I5106
sS'resid'
p5095
I5107
sS'like'
p5096
I5108
sS'success'
p5097
I3182
sS'incred'
p5098
I3763
sS'"two'
p5099
I5111
sS'2490'
p5100
I2509
sS'anyth'
p5101
I4437
sS'loser'
p5102
I5114
sS'toilet"'
p5103
I5115
sS'opera'
p5104
I5116
sS'stagger'
p5105
I5117
sS'necessari'
p5106
I5118
sS'railroadmen'
p5107
I5119
sS'have'
p5108
I4632
sS'martin'
p5109
I3821
sS'watchtower"'
p5110
I5122
sS'rifl'
p5111
I5039
sS'juic'
p5112
I3007
sS'soft'
p5113
I5125
sS'page'
p5114
I3847
sS'backlog'
p5115
I40
sS'italian'
p5116
I5128
sS'"ruthi'
p5117
I5129
sS'shed'
p5118
I5130
sS'hank"'
p5119
I5131
sS'consitut'
p5120
I2135
sS'"charg'
p5121
I4573
sS'captur'
p5122
I5133
sS'suppli'
p5123
I5135
sS'thief'
p5124
I5136
sS'relox'
p5125
I5137
sS'newscast'
p5126
I4900
sS'certain'
p5127
I2603
sS'batteri'
p5128
I5140
sS'daylight'
p5129
I2075
sS'poet"'
p5130
I3931
sS'reviv'
p5131
I4979
sS'"chinaski'
p5132
I4820
sS"why'd"
p5133
I5144
sS'coughdrop"'
p5134
I3971
sS'annett'
p5135
I1629
sS'home'
p5136
I5147
sS'wisecrack'
p5137
I3962
sS'$400'
p5138
I5149
sS'librari'
p5139
I1441
sS'incant'
p5140
I3986
sS'extrem'
p5141
I3672
sS'shrub'
p5142
I4524
sS'disbelief'
p5143
I2105
sS'henshit'
p5144
I5155
sS'leak'
p5145
I4019
sS'avoid'
p5146
I5157
sS'930'
p5147
I5158
sS'miner'
p5148
I1798
sS'before"'
p5149
I5160
sS'"avalon"'
p5150
I5161
sS'leap'
p5151
I5162
sS'fuzz'
p5152
I5163
sS'unfunni'
p5153
I688
sS'settl'
p5154
I5165
sS'disbeliev'
p5155
I2249
sS'ace"'
p5156
I2645
sS'roomi'
p5157
I4648
sS'tom"'
p5158
I2153
sS'milktoast'
p5159
I4505
sS'formula'
p5160
I2560
sS'leader'
p5161
I5171
sS'glendal'
p5162
I4103
sS"hasn't"
p5163
I5174
sS'encourag'
p5164
I4112
sS'investig'
p5165
I5176
sS'she"'
p5166
I4119
sS'stuff"'
p5167
I5179
sS'slight'
p5168
I5180
sS'mantl'
p5169
I5181
sS'ourselv'
p5170
I5182
sS'paper'
p5171
I3036
sS'drugstor'
p5172
I5183
sS'hurts"'
p5173
I5184
sS'forgiv'
p5174
I3552
sS'mount'
p5175
I5019
sS'oh"'
p5176
I5186
sS'schoolyard'
p5177
I4194
sS'tag'
p5178
I4271
sS'"randal'
p5179
I5189
sS'vengeanc'
p5180
I3514
sS'swept'
p5181
I5172
sS'wire'
p5182
I4809
sS'continu'
p5183
I5264
sS'iris'
p5184
I5193
sS'sister'
p5185
I4246
sS'quarter'
p5186
I1775
sS'rare'
p5187
I4254
sS'kansas"'
p5188
I5197
sS'face'
p5189
I4687
sS'column'
p5190
I5198
sS'freedom'
p5191
I163
sS'biscuit'
p5192
I5200
sS'"you'
p5193
I879
sS'documentari'
p5194
I5202
sS'blockag'
p5195
I2289
sS'courag'
p5196
I2085
sS'stamp'
p5197
I5205
sS'fear'
p5198
I5206
sS'swear'
p5199
I5207
sS'sweat'
p5200
I5208
sS'thomas"'
p5201
I5209
sS'fals'
p5202
I2729
sS'facism'
p5203
I5211
sS'tomb'
p5204
I3410
sS'emperor'
p5205
I1734
sS'mine"'
p5206
I5214
sS'connie"'
p5207
I5360
sS'compil'
p5208
I3196
sS'pale'
p5209
I3796
sS'territori'
p5210
I3558
sS'charley'
p5211
I4699
sS'vocabulari'
p5212
I2653
sS'gambler'
p5213
I5221
sS'staid'
p5214
I2070
sS'"eat'
p5215
I4399
sS'washington'
p5216
I2250
sS'loner'
p5217
I5225
sS'guard'
p5218
I5226
sS'cri'
p5219
I3445
sS'lung'
p5220
I5228
sS'now"'
p5221
I4295
sS'awhil'
p5222
I4459
sS'obtain'
p5223
I5051
sS'kick'
p5224
I5084
sS'pussi'
p5225
I4470
sS'waterfal'
p5226
I5232
sS'windowledg'
p5227
I3960
sS'ailment'
p5228
I3848
sS'poland'
p5229
I3681
sS'mississippi'
p5230
I5236
sS'shitmaul'
p5231
I4507
sS'carbon'
p5232
I4247
sS'nativ'
p5233
I4357
sS'pictur'
p5234
I5239
sS'texaco'
p5235
I5240
sS'dogfood'
p5236
I5241
sS'museum'
p5237
I5242
sS'530'
p5238
I5243
sS'minute"'
p5239
I5244
sS'unopen'
p5240
I5224
sS'quit"'
p5241
I5245
sS'appl'
p5242
I5246
sS'visitor'
p5243
I5247
sS'basketbal'
p5244
I5248
sS'place"'
p5245
I4270
sS'biggest'
p5246
I5250
sS'troubl'
p5247
I5288
sS'gut'
p5248
I3159
sS'leaving"'
p5249
I5252
sS'rhythmic'
p5250
I5253
sS'ghost'
p5251
I5254
sS'mailer'
p5252
I5255
sS'"hank'
p5253
I4630
sS'north'
p5254
I4635
sS'innoc'
p5255
I5258
sS'zebrastrip'
p5256
I5259
sS'bus'
p5257
I5260
sS'brand'
p5258
I4653
sS'"hand'
p5259
I5262
sS'bother'
p5260
I4601
sS'"amazing"'
p5261
I4671
sS'"hang'
p5262
I1036
sS'win"'
p5263
I1746
sS'porterhous'
p5264
I4683
sS'plenty"'
p5265
I4697
sS'nut'
p5266
I5268
sS'larger'
p5267
I4178
sS'beat'
p5268
I4750
sS'hc'
p5269
I4161
sS'talent"'
p5270
I1685
sS'ha'
p5271
I4726
sS'homosexu'
p5272
I3568
sS'jubba'
p5273
I4299
sS'count'
p5274
I5276
sS'rumbl'
p5275
I4689
sS'"wonderful"'
p5276
I5280
sS'tab'
p5277
I4297
sS'contain'
p5278
I5281
sS'whether'
p5279
I4780
sS'imaginable"'
p5280
I2948
sS'periscop'
p5281
I5284
sS'wife'
p5282
I2662
sS'smooth'
p5283
I5286
sS'flip'
p5284
I5287
sS'nightgown'
p5285
I4801
sS'editoress'
p5286
I5289
sS'pour'
p5287
I4269
sS'"\'all'
p5288
I5249
sS'cruel'
p5289
I4815
sS'belov'
p5290
I3431
sS'bedroom'
p5291
I4717
sS'eyes"'
p5292
I1651
sS'auster'
p5293
I5219
sS'vibrant'
p5294
I5297
sS'otherwis'
p5295
I5298
sS'ago"'
p5296
I4806
sS'pm'
p5297
I3573
sS'display'
p5298
I5301
sS'chip'
p5299
I4234
sS'ex'
p5300
I3401
sS'what'
p5301
I2791
sS'bottles"'
p5302
I5303
sS'blous'
p5303
I5304
sS'colum'
p5304
I5305
sS'conscious'
p5305
I4602
sS'garter'
p5306
I5306
sS'fairytal'
p5307
I2521
sS'flunkey'
p5308
I5308
sS'owner'
p5309
I2976
sS'pig'
p5310
I5310
sS'twist'
p5311
I5311
sS'linguist'
p5312
I5312
sS'"check'
p5313
I3102
sS'"so'
p5314
I5314
sS'kind"'
p5315
I3934
sS'washedup'
p5316
I3409
sS'500'
p5317
I5317
sS'ing'
p5318
I4982
sS'pit'
p5319
I5319
sS'campus'
p5320
I4991
sS'inc'
p5321
I2292
sS'upsidedown'
p5322
I4046
sS'spell'
p5323
I4420
sS'rock"'
p5324
I5324
sS'loud'
p5325
I3009
sS'contest'
p5326
I1156
sS'meaningless'
p5327
I5309
sS'tenth'
p5328
I5327
sS'44'
p5329
I5328
sS'jumpy"'
p5330
I5044
sS'boot'
p5331
I1051
sS'40'
p5332
I5331
sS'prais'
p5333
I5332
sS'anyhow"'
p5334
I5333
sS'book'
p5335
I5074
sS'bruis'
p5336
I3754
sS'joltin'
p5337
I4475
sS'sick'
p5338
I5086
sS'hardrock'
p5339
I4298
sS'course"'
p5340
I5339
sS'squar'
p5341
I5340
sS'er'
p5342
I1799
sS'expel'
p5343
I4795
sS'talkin'
p5344
I5343
sS'adam'
p5345
I2673
sS'pineappl'
p5346
I5345
sS'junk'
p5347
I5346
sS'francisco'
p5348
I5020
sS'star'
p5349
I5348
sS'anthropolog'
p5350
I5349
sS'monday'
p5351
I5350
sS'again"'
p5352
I5351
sS'ports"'
p5353
I5352
sS'class'
p5354
I4677
sS'vega'
p5355
I5354
sS'yours"'
p5356
I5355
sS'walter"'
p5357
I5356
sS'bladder'
p5358
I1058
sS'town'
p5359
I5358
sS'friends"'
p5360
I5359
sS'ground'
p5361
I2058
sS'rabbit"'
p5362
I5215
sS'profound'
p5363
I5113
sS'patch'
p5364
I4472
sS'veil'
p5365
I5251
sS'yell'
p5366
I5090
sS'dahlia'
p5367
I4477
sS'cliff'
p5368
I5365
sS'ave'
p5369
I2956
sS'experienc'
p5370
I5368
sS'coat'
p5371
I5369
sS'"anoth'
p5372
I3631
sS'higher"'
p5373
I1328
sS'mozart'
p5374
I5372
sS'watertank'
p5375
I5373
sS'coffee"'
p5376
I5374
sS'reliabl'
p5377
I5375
sS'bathrob'
p5378
I4147
sS'jewel'
p5379
I5377
sS'rule'
p5380
I3707
sS'jab'
p5381
I4742
sS'news"'
p5382
I731
sS'portion'
p5383
I5381
sS'emerg'
p5384
I5382
sS'"move'
p5385
I5383
sS'auxiliari'
p5386
I5384
sS'cosmopolitan"'
p5387
I5385
sS'lima'
p5388
I3798
sS'captiv'
p5389
I2469
sS'"the'
p5390
I5387
sS'8th'
p5391
I5390
s.