(dp0
S'fawn'
p1
I0
sS'yellow'
p2
I1
sS'four'
p3
I2
sS'midafternoon'
p4
I3
sS'booths"'
p5
I4
sS'sunlit'
p6
I5
sS'lord'
p7
I6
sS'"trust'
p8
I7
sS'uncl'
p9
I8
sS'writing"'
p10
I9
sS'fingernail"'
p11
I10
sS'disturb'
p12
I11
sS'prize'
p13
I12
sS'wooden'
p14
I13
sS'showcas'
p15
I14
sS'flowerchildnurs'
p16
I15
sS'wednesday'
p17
I16
sS'oooo'
p18
I17
sS'seven"'
p19
I18
sS'crotch'
p20
I19
sS'oooh'
p21
I20
sS'denveraft'
p22
I21
sS'stars"'
p23
I22
sS'rusti'
p24
I23
sS'"myron'
p25
I24
sS'her"'
p26
I25
sS'pubic'
p27
I26
sS'bathingit'
p28
I27
sS'270'
p29
I28
sS'271'
p30
I29
sS'second'
p31
I30
sS'273'
p32
I31
sS'274'
p33
I32
sS'275'
p34
I33
sS'276'
p35
I34
sS'277'
p36
I35
sS'278'
p37
I36
sS'279'
p38
I37
sS'kid"'
p39
I38
sS'intellectu'
p40
I39
sS'herb'
p41
I40
sS'splinter'
p42
I41
sS'here'
p43
I42
sS'dorm'
p44
I43
sS"i'v"
p45
I44
sS'k'
p46
I45
sS'pastur'
p47
I46
sS"i'd"
p48
I47
sS"i'm"
p49
I48
sS'finger"'
p50
I49
sS'pieces"'
p51
I50
sS'"oh"'
p52
I51
sS'golden'
p53
I52
sS'up"'
p54
I3142
sS'brought'
p55
I54
sS'pound'
p56
I1118
sS'female"'
p57
I56
sS'unit'
p58
I57
sS'symphoni'
p59
I58
sS'spoke'
p60
I60
sS'music'
p61
I61
sS'fifth"'
p62
I62
sS'care'
p63
I63
sS'until'
p64
I64
sS'playboy'
p65
I65
sS'relay'
p66
I66
sS'relax'
p67
I67
sS'relat'
p68
I68
sS'notic'
p69
I69
sS'hurt'
p70
I70
sS'99'
p71
I71
sS'glass'
p72
I72
sS'hurl'
p73
I73
sS'91'
p74
I74
sS'90'
p75
I75
sS'93'
p76
I453
sS'92'
p77
I455
sS'95'
p78
I78
sS'94'
p79
I79
sS'97'
p80
I80
sS'bemoaningdown'
p81
I81
sS'accid'
p82
I82
sS'girlfriendsh'
p83
I472
sS'plunger'
p84
I84
sS'caution'
p85
I85
sS'want'
p86
I86
sS'thatimmedi'
p87
I87
sS'alcoholicsal'
p88
I88
sS'hog'
p89
I89
sS'shuffl'
p90
I90
sS'travel'
p91
I91
sS'around"'
p92
I92
sS'how'
p93
I93
sS'hot'
p94
I94
sS'oldtim'
p95
I95
sS'win"'
p96
I96
sS'perspect'
p97
I97
sS'pimpl'
p98
I98
sS'wrong'
p99
I99
sS'beauti'
p100
I100
sS'typer'
p101
I101
sS'lumin'
p102
I102
sS'imposs'
p103
I5360
sS'plumbing"'
p104
I104
sS'wing'
p105
I105
sS'squint'
p106
I106
sS'wine'
p107
I107
sS'origin'
p108
I5361
sS'effect"'
p109
I109
sS'feedback'
p110
I110
sS'school"'
p111
I111
sS'"isn\'t'
p112
I113
sS'appar'
p113
I3152
sS'vari'
p114
I115
sS'fit'
p115
I116
sS'died"'
p116
I117
sS'fix'
p117
I118
sS'"drop'
p118
I119
sS'inan'
p119
I120
sS'ready"'
p120
I121
sS'closed"'
p121
I122
sS'hidden'
p122
I123
sS'easier'
p123
I124
sS'interrupt'
p124
I125
sS'"babette"'
p125
I126
sS'yourself'
p126
I2136
sS'silver'
p127
I128
sS'headboard'
p128
I129
sS'"happi'
p129
I130
sS'lillian'
p130
I131
sS'airports"'
p131
I132
sS'feltup'
p132
I133
sS'burial'
p133
I134
sS"we'r"
p134
I135
sS"we'v"
p135
I136
sS'knockout'
p136
I137
sS"we'd"
p137
I138
sS'"so"'
p138
I139
sS'truman'
p139
I140
sS'commiss'
p140
I141
sS'whip'
p141
I142
sS'at"'
p142
I143
sS're'
p143
I144
sS'ra'
p144
I145
sS'size'
p145
I146
sS'skidrow'
p146
I147
sS'nightmar'
p147
I148
sS'"mayb'
p148
I149
sS'immort'
p149
I150
sS'"hey'
p150
I151
sS'piss"'
p151
I152
sS'"son'
p152
I153
sS'"her'
p153
I154
sS'6pack'
p154
I155
sS'silent'
p155
I156
sS'tricks"'
p156
I157
sS'atd'
p157
I158
sS'ate'
p158
I159
sS'district'
p159
I160
sS'heavy"'
p160
I161
sS'unabl'
p161
I162
sS'confus'
p162
I163
sS'"cross'
p163
I164
sS'clariti'
p164
I165
sS'17"'
p165
I955
sS'"we\'d'
p166
I167
sS'wash'
p167
I168
sS'instruct'
p168
I169
sS'likes"'
p169
I170
sS'179'
p170
I171
sS'178'
p171
I172
sS'"we\'r'
p172
I173
sS'176'
p173
I174
sS'175'
p174
I175
sS'174'
p175
I176
sS'"we\'v'
p176
I177
sS'172'
p177
I178
sS'171'
p178
I179
sS'170'
p179
I180
sS'herher'
p180
I181
sS'tangl'
p181
I182
sS'"pleas'
p182
I183
sS'sure"'
p183
I184
sS'master'
p184
I185
sS'miller'
p185
I186
sS'bitter'
p186
I187
sS'listen'
p187
I188
sS'bacon'
p188
I189
sS'lorca'
p189
I190
sS'wisdom'
p190
I191
sS'task'
p191
I4325
sS'was"'
p192
I193
sS'crawl'
p193
I194
sS'trek'
p194
I195
sS'cheekbon'
p195
I196
sS'"probabl'
p196
I197
sS'ron"'
p197
I198
sS'coward'
p198
I199
sS'tree'
p199
I200
sS'272'
p200
I201
sS'project'
p201
I202
sS'old"'
p202
I203
sS'sheen'
p203
I204
sS'"sure"'
p204
I205
sS'runner'
p205
I206
sS'dozen'
p206
I1127
sS'drunk"'
p207
I208
sS'seethrough'
p208
I209
sS'rudolph'
p209
I1138
sS'tools"'
p210
I211
sS'4page'
p211
I212
sS'wriggl'
p212
I213
sS'cockgodhead'
p213
I214
sS'mouth'
p214
I215
sS'addict'
p215
I216
sS'letter'
p216
I217
sS'long"'
p217
I1181
sS'singer'
p218
I219
sS'door"'
p219
I220
sS'unpleas'
p220
I221
sS'professor'
p221
I222
sS'camp'
p222
I223
sS'hospit'
p223
I224
sS'scream'
p224
I225
sS'came'
p225
I226
sS'marvel'
p226
I227
sS'matter"'
p227
I228
sS'bomb'
p228
I229
sS'tequila'
p229
I230
sS'prig'
p230
I231
sS'terror"'
p231
I232
sS'decoy"'
p232
I233
sS'menu'
p233
I234
sS'buxom'
p234
I235
sS'restaur'
p235
I236
sS'bust'
p236
I237
sS'bush'
p237
I238
sS'busi'
p238
I239
sS'rich'
p239
I240
sS'plate'
p240
I241
sS'6foot2'
p241
I242
sS'peopleyoung'
p242
I243
sS'ceil'
p243
I244
sS'pocket'
p244
I1320
sS'giggl'
p245
I246
sS'new'
p246
I3167
sS'"men'
p247
I248
sS'rectal'
p248
I249
sS'pretzel'
p249
I250
sS'patch'
p250
I251
sS'sauc'
p251
I252
sS'them"'
p252
I253
sS'typewriter"'
p253
I254
sS'bus"'
p254
I255
sS'men"'
p255
I256
sS'respond'
p256
I257
sS'blew'
p257
I258
sS'drayer'
p258
I259
sS'fair'
p259
I260
sS'goodnight'
p260
I261
sS'iceberg"'
p261
I262
sS'result'
p262
I263
sS'respons'
p263
I264
sS'fail'
p264
I265
sS'directors"'
p265
I266
sS'hammer'
p266
I267
sS'best'
p267
I268
sS'"tri'
p268
I269
sS'easi'
p269
I353
sS'irv'
p270
I270
sS'iri'
p271
I271
sS'figur'
p272
I272
sS'score'
p273
I273
sS'yogurt'
p274
I274
sS'never'
p275
I3175
sS'extend'
p276
I276
sS'ask'
p277
I2424
sS'momentstrangelyi'
p278
I3177
sS'toler'
p279
I278
sS'debt'
p280
I279
sS'"stop'
p281
I280
sS'disdain'
p282
I281
sS'unemploy'
p283
I282
sS'tingl'
p284
I284
sS'countri'
p285
I285
sS'los'
p286
I2337
sS'"creeley'
p287
I286
sS'money"'
p288
I287
sS'and'
p289
I5384
sS'goodbyes"'
p290
I289
sS'canyon'
p291
I290
sS'259'
p292
I291
sS'252'
p293
I292
sS'253'
p294
I293
sS'250'
p295
I294
sS'251'
p296
I295
sS'256'
p297
I296
sS'257'
p298
I297
sS'254'
p299
I298
sS'255'
p300
I299
sS'101'
p301
I3185
sS'thomas"'
p302
I301
sS'fri'
p303
I302
sS'much'
p304
I303
sS'tiredbut'
p305
I304
sS'"onc'
p306
I305
sS'sammy"'
p307
I306
sS'ann'
p308
I5387
sS'hesit'
p309
I308
sS'life'
p310
I309
sS'spit'
p311
I310
sS'$200"'
p312
I311
sS'beach"'
p313
I312
sS'lift'
p314
I313
sS'child'
p315
I314
sS'chili'
p316
I315
sS'spin'
p317
I316
sS'bookstor'
p318
I317
sS'cunt'
p319
I318
sS'$2000'
p320
I1626
sS'angry"'
p321
I321
sS'employ'
p322
I322
sS'marriag'
p323
I323
sS'"sound'
p324
I324
sS'delicatessen'
p325
I325
sS'player'
p326
I326
sS'undamag'
p327
I327
sS'indescrib'
p328
I328
sS'toaster'
p329
I329
sS'honk'
p330
I330
sS'split'
p331
I331
sS'costum'
p332
I333
sS'"aren\'t'
p333
I334
sS'refil'
p334
I335
sS'engin'
p335
I336
sS'tuna'
p336
I337
sS'"who'
p337
I338
sS'tune'
p338
I339
sS'nibbl'
p339
I340
sS'universitysponsor'
p340
I341
sS'"whi'
p341
I342
sS'danced"'
p342
I343
sS'bzzzz'
p343
I344
sS'more'
p344
I345
sS'thing"'
p345
I346
sS'bonni'
p346
I347
sS'bellow'
p347
I1813
sS'capitol'
p348
I349
sS'"dinky"'
p349
I350
sS'sleepi'
p350
I351
sS'ham'
p351
I352
sS'midforti'
p352
I1844
sS'had'
p353
I354
sS'endur'
p354
I355
sS'selfdoubt'
p355
I356
sS'har'
p356
I357
sS'east'
p357
I1865
sS'hat'
p358
I359
sS'dormitory"'
p359
I360
sS'birth'
p360
I361
sS'sleep"'
p361
I362
sS'remind'
p362
I363
sS'pavement'
p363
I364
sS'bobbi'
p364
I365
sS'oncom'
p365
I366
sS'tombston'
p366
I367
sS'right'
p367
I368
sS'old'
p368
I369
sS'crowd'
p369
I370
sS'"will'
p370
I371
sS'york"'
p371
I372
sS'left"'
p372
I373
sS'billboard'
p373
I374
sS'transmiss'
p374
I375
sS'for'
p375
I376
sS'bottom'
p376
I377
sS'constip'
p377
I378
sS'undisturb'
p378
I379
sS'dollar"'
p379
I380
sS'shaker'
p380
I381
sS'sensibl'
p381
I382
sS'dental'
p382
I383
sS'yoke'
p383
I384
sS'doesn\'t"'
p384
I385
sS'yoko'
p385
I386
sS'semimillionairess'
p386
I387
sS'offramp'
p387
I388
sS'oaktre'
p388
I389
sS'hungover"'
p389
I390
sS'o'
p390
I391
sS'bandag'
p391
I392
sS'sob'
p392
I393
sS'university"'
p393
I394
sS'son'
p394
I395
sS'sou'
p395
I396
sS'wrap'
p396
I397
sS'exwet'
p397
I398
sS'sculptress'
p398
I399
sS'happi'
p399
I400
sS'avail'
p400
I401
sS'jani'
p401
I402
sS'spring'
p402
I6031
sS'call'
p403
I3206
sS'"none'
p404
I405
sS'so"'
p405
I406
sS'offer'
p406
I407
sS'$200'
p407
I408
sS'kiss"'
p408
I409
sS'powder'
p409
I2971
sS'duel'
p410
I410
sS'nicest'
p411
I411
sS'wait"'
p412
I412
sS'151'
p413
I413
sS'150'
p414
I414
sS'153'
p415
I415
sS'152'
p416
I2245
sS'155'
p417
I417
sS'154'
p418
I418
sS'157'
p419
I419
sS'saltwat'
p420
I420
sS'159'
p421
I421
sS'158'
p422
I422
sS'tournament'
p423
I423
sS'exist'
p424
I424
sS'bedsheet'
p425
I425
sS'timejust'
p426
I426
sS'exmarin'
p427
I5403
sS'dealer'
p428
I428
sS'floor'
p429
I429
sS'actor'
p430
I430
sS'flood'
p431
I431
sS'presum'
p432
I432
sS'smell'
p433
I433
sS'roll'
p434
I434
sS'woodman'
p435
I435
sS'intend'
p436
I436
sS'intens'
p437
I437
sS'dry"'
p438
I438
sS"'i"
p439
I439
sS'warm"'
p440
I440
sS'puss'
p441
I441
sS'98'
p442
I442
sS'"nicole"'
p443
I443
sS'babbl'
p444
I444
sS'time'
p445
I445
sS'push'
p446
I446
sS'rimless'
p447
I3217
sS'sniffer'
p448
I448
sS'gown'
p449
I449
sS'doctor'
p450
I4127
sS'stay"'
p451
I450
sS'"after'
p452
I451
sS'chair'
p453
I452
sS'handmanipul'
p454
I883
sS'decid'
p455
I454
sS'hold'
p456
I77
sS'recognit'
p457
I1164
sS'good"'
p458
I457
sS'decis'
p459
I458
sS'tea"'
p460
I459
sS'96'
p461
I1857
sS'jerk'
p462
I461
sS'child"'
p463
I463
sS'mourn'
p464
I464
sS'southpaw'
p465
I465
sS'exact'
p466
I466
sS'tear'
p467
I467
sS'teas'
p468
I468
sS'"they\'v'
p469
I469
sS'"they\'r'
p470
I470
sS'cooki'
p471
I471
sS'blade'
p472
I83
sS'"these'
p473
I473
sS'"first'
p474
I474
sS'nietzsch'
p475
I475
sS'sign'
p476
I476
sS'heavyweight'
p477
I477
sS'unprotect'
p478
I478
sS'elton'
p479
I479
sS'freaki'
p480
I480
sS'current'
p481
I481
sS'pretty"'
p482
I482
sS'cassi'
p483
I483
sS'ground'
p484
I484
sS'shirt"'
p485
I485
sS'"lakewood'
p486
I487
sS'juri'
p487
I59
sS'address'
p488
I489
sS'sherry"'
p489
I490
sS'along'
p490
I491
sS'benson'
p491
I492
sS'brilliant'
p492
I493
sS'headtic'
p493
I494
sS'ourselv'
p494
I495
sS'love'
p495
I496
sS'radish'
p496
I497
sS'prefer'
p497
I498
sS'seattl'
p498
I499
sS'bloodi'
p499
I500
sS'hadbottl'
p500
I501
sS'wicker'
p501
I502
sS'cucumb'
p502
I503
sS'fourth"'
p503
I504
sS'angri'
p504
I505
sS'believe"'
p505
I506
sS'wonders"'
p506
I507
sS'afford'
p507
I508
sS'peopl'
p508
I509
sS'claus'
p509
I510
sS'visual'
p510
I511
sS'claud'
p511
I512
sS'easiest'
p512
I513
sS'imagination"'
p513
I514
sS'heineken'
p514
I515
sS'pretend'
p515
I2777
sS'whatev'
p516
I518
sS'"take'
p517
I1172
sS'$7000"'
p518
I520
sS'"old'
p519
I521
sS'23"'
p520
I522
sS'238'
p521
I523
sS'239'
p522
I524
sS'234'
p523
I525
sS'235'
p524
I526
sS'236'
p525
I527
sS'237'
p526
I528
sS'stole'
p527
I529
sS'231'
p528
I530
sS'232'
p529
I531
sS'233'
p530
I532
sS'winter'
p531
I533
sS'coleman'
p532
I534
sS'atal'
p533
I535
sS'filthi'
p534
I536
sS'laundri'
p535
I537
sS'date'
p536
I538
sS'such'
p537
I539
sS'suck'
p538
I540
sS'strungout'
p539
I2891
sS'stress'
p540
I542
sS'knit'
p541
I543
sS'conscious'
p542
I544
sS'sr'
p543
I545
sS'"debra"'
p544
I546
sS'st'
p545
I547
sS'truck'
p546
I548
sS'swollen'
p547
I549
sS'kenmor'
p548
I550
sS'drunken'
p549
I551
sS'"god"'
p550
I552
sS'footstep'
p551
I553
sS'kong'
p552
I554
sS'yearn'
p553
I555
sS'early"'
p554
I556
sS'drunker'
p555
I557
sS'tore'
p556
I558
sS'differenteven'
p557
I559
sS'thumb'
p558
I560
sS'did"'
p559
I561
sS'torn'
p560
I562
sS'dead"'
p561
I563
sS'into'
p562
I564
sS'exot'
p563
I565
sS'year"'
p564
I566
sS'revers'
p565
I567
sS'parade"'
p566
I568
sS'separ'
p567
I569
sS'fisherman'
p568
I570
sS'overtur'
p569
I571
sS'confid'
p570
I3236
sS'trouble"'
p571
I573
sS'quit"'
p572
I574
sS'sponsor'
p573
I576
sS'splitlevel'
p574
I577
sS'underslip'
p575
I3113
sS'"fine'
p576
I579
sS'troll'
p577
I580
sS'route"'
p578
I581
sS'million'
p579
I582
sS'envelop'
p580
I583
sS'unpublish'
p581
I584
sS'"right'
p582
I585
sS'crazier'
p583
I586
sS'grandma'
p584
I587
sS'exhusband'
p585
I588
sS'navel"'
p586
I589
sS'recov'
p587
I590
sS'alcov'
p588
I591
sS'neglect'
p589
I592
sS'oper'
p590
I593
sS'ono'
p591
I594
sS'onc'
p592
I595
sS'one'
p593
I596
sS'vote'
p594
I597
sS'open'
p595
I598
sS'boulevard'
p596
I599
sS'bite'
p597
I600
sS'"come'
p598
I2220
sS'upstair'
p599
I602
sS'laugh"'
p600
I3241
sS'citi'
p601
I604
sS'2'
p602
I3319
sS'"ooooh"'
p603
I606
sS'"let'
p604
I607
sS'much"'
p605
I608
sS'on"'
p606
I609
sS'"quitters"'
p607
I610
sS'snatch'
p608
I611
sS'cutti'
p609
I612
sS'antib'
p610
I613
sS'floppi'
p611
I614
sS'"arlen'
p612
I2904
sS'boyfriend'
p613
I615
sS'"know'
p614
I616
sS'janitor'
p615
I617
sS'san'
p616
I618
sS'sam'
p617
I619
sS'sag'
p618
I620
sS'argument'
p619
I621
sS'alley'
p620
I622
sS'sad'
p621
I3418
sS'say'
p622
I624
sS'allen'
p623
I625
sS'saw'
p624
I626
sS'sat'
p625
I627
sS'zoo'
p626
I628
sS'note'
p627
I629
sS'take'
p628
I3478
sS'destroy'
p629
I631
sS'infection"'
p630
I632
sS'ruffl'
p631
I633
sS'shaggy"'
p632
I634
sS'knew'
p633
I635
sS'abus'
p634
I636
sS'nice"'
p635
I637
sS'knee'
p636
I638
sS'lawn'
p637
I639
sS'dailiesmurd'
p638
I640
sS'drive'
p639
I641
sS'landladi'
p640
I642
sS'backdrop'
p641
I643
sS'glassbottom'
p642
I644
sS'not"'
p643
I645
sS'salt'
p644
I646
sS'rejoice"'
p645
I647
sS'bright'
p646
I648
sS'legs"'
p647
I1194
sS'slot'
p648
I650
sS'slow'
p649
I651
sS'estat'
p650
I652
sS'indestructible"'
p651
I653
sS'robe'
p652
I654
sS'"tanya"'
p653
I655
sS'try"'
p654
I656
sS'clank'
p655
I657
sS'psychiatrist'
p656
I658
sS'laguna'
p657
I659
sS'pimp'
p658
I660
sS'artist'
p659
I661
sS'"lydia"'
p660
I662
sS'crazy"'
p661
I663
sS'twelv'
p662
I664
sS'bushleagu'
p663
I665
sS'landlord'
p664
I666
sS'cheerlead'
p665
I3755
sS"thereshe'd"
p666
I668
sS'job"'
p667
I669
sS'"why"'
p668
I670
sS'830'
p669
I671
sS'down"'
p670
I672
sS'televis'
p671
I673
sS'man"'
p672
I674
sS'marvin'
p673
I675
sS'screen'
p674
I676
sS'dive"'
p675
I677
sS'supermarket'
p676
I678
sS'smoothi'
p677
I679
sS'uncomb'
p678
I3877
sS'pilotlight'
p679
I681
sS'stops"'
p680
I682
sS'moon"'
p681
I683
sS'cagney'
p682
I684
sS'confisc'
p683
I685
sS'mani'
p684
I686
sS'"for'
p685
I687
sS'backpack'
p686
I688
sS"can't"
p687
I689
sS'"babi'
p688
I690
sS'exagger'
p689
I691
sS'want"'
p690
I692
sS'3000'
p691
I693
sS'vomit"'
p692
I694
sS'donny"'
p693
I695
sS'reading"'
p694
I696
sS'stretch'
p695
I697
sS'west'
p696
I698
sS'venic'
p697
I699
sS'breath'
p698
I700
sS'tammie\'"'
p699
I701
sS'thousand'
p700
I703
sS'"good"'
p701
I704
sS'coke"'
p702
I705
sS'former'
p703
I706
sS'straighten'
p704
I707
sS'cheer"'
p705
I708
sS'warehous'
p706
I709
sS'pinkr'
p707
I710
sS'fame'
p708
I711
sS'cafe'
p709
I712
sS'inscrib'
p710
I713
sS'ness"'
p711
I714
sS'breakdown'
p712
I715
sS'"$200"'
p713
I2239
sS'barber'
p714
I717
sS'mcculler'
p715
I718
sS'welldress'
p716
I719
sS'"dear'
p717
I720
sS'vacanc'
p718
I721
sS'216'
p719
I722
sS'summer'
p720
I723
sS'214'
p721
I724
sS'215'
p722
I725
sS'212'
p723
I726
sS'213'
p724
I727
sS'210'
p725
I728
sS'211'
p726
I729
sS'"buy'
p727
I6371
sS'"anyhow'
p728
I730
sS'rest'
p729
I3035
sS'219'
p730
I732
sS'concentr'
p731
I733
sS'tightfit'
p732
I734
sS'lowslung'
p733
I735
sS'littl'
p734
I736
sS'instrument'
p735
I737
sS'strange"'
p736
I738
sS'around'
p737
I739
sS'dart'
p738
I4323
sS'dark'
p739
I741
sS'ugly"'
p740
I4420
sS'snarl'
p741
I743
sS'traffic'
p742
I744
sS'insist'
p743
I745
sS'darl'
p744
I746
sS'sorry"'
p745
I747
sS'o\'keefe"'
p746
I748
sS'herrrr'
p747
I749
sS'clan'
p748
I750
sS'energ'
p749
I751
sS'stranger'
p750
I752
sS'wordless'
p751
I753
sS'62'
p752
I5458
sS'shutter'
p753
I755
sS'week"forever"but'
p754
I756
sS'63'
p755
I5459
sS'clay'
p756
I758
sS'claw'
p757
I4390
sS'manag'
p758
I760
sS'auditorium'
p759
I761
sS'oneleg'
p760
I2246
sS'lobster'
p761
I763
sS'shadowbox'
p762
I764
sS'honki'
p763
I765
sS'constitut'
p764
I766
sS'tote'
p765
I767
sS'noon'
p766
I768
sS'definit'
p767
I769
sS'nook'
p768
I770
sS'exit'
p769
I771
sS'mosley'
p770
I772
sS'evapor'
p771
I773
sS'champagne"'
p772
I774
sS'refer'
p773
I775
sS'namedrop'
p774
I3269
sS'power'
p775
I777
sS'think"'
p776
I778
sS'stone'
p777
I779
sS'ach'
p778
I780
sS'newsboy'
p779
I781
sS'side'
p780
I3272
sS'neighbor'
p781
I783
sS'act'
p782
I784
sS'mean'
p783
I3274
sS'effici'
p784
I786
sS'surviv'
p785
I787
sS'worried"'
p786
I788
sS'southpaw"'
p787
I790
sS'chinaski'
p788
I791
sS'her'
p789
I792
sS'trip"'
p790
I793
sS'philadelphia'
p791
I794
sS'ass"'
p792
I795
sS"how'd"
p793
I796
sS'obvious"'
p794
I797
sS'"dumb'
p795
I798
sS'bottl'
p796
I799
sS'"crazi'
p797
I800
sS'land'
p798
I1216
sS'elton"'
p799
I802
sS'another"'
p800
I803
sS'with'
p801
I804
sS'rebuilt'
p802
I2248
sS'pull'
p803
I806
sS'rush'
p804
I807
sS'dirti'
p805
I808
sS'rage'
p806
I809
sS'flirt'
p807
I810
sS'he"'
p808
I811
sS'torso'
p809
I812
sS'puls'
p810
I813
sS'darker'
p811
I814
sS'gone'
p812
I815
sS'ad'
p813
I816
sS'creat'
p814
I817
sS'certain'
p815
I818
sS'forgot'
p816
I3280
sS'am'
p817
I820
sS'an'
p818
I821
sS'catchup'
p819
I822
sS'as'
p820
I823
sS'at'
p821
I824
sS'aw'
p822
I825
sS'cream'
p823
I826
sS'"we\'ll'
p824
I827
sS'yoga'
p825
I828
sS'poems"'
p826
I829
sS'tight'
p827
I830
sS'1115'
p828
I831
sS'sculptur'
p829
I832
sS'walk"'
p830
I833
sS'annex'
p831
I834
sS'slant'
p832
I835
sS'carve"'
p833
I836
sS'brotherhood'
p834
I837
sS'lightweight"'
p835
I1223
sS'prejudices"'
p836
I839
sS'mask'
p837
I840
sS'mass'
p838
I841
sS'landers"'
p839
I842
sS'"oooooohh"'
p840
I843
sS'capote"'
p841
I844
sS'showing"'
p842
I845
sS'merchandis'
p843
I846
sS'booze"'
p844
I847
sS'tinsel'
p845
I848
sS'tv'
p846
I849
sS'to'
p847
I850
sS'tail'
p848
I4884
sS'tm'
p849
I852
sS'smile'
p850
I853
sS'introduc'
p851
I4900
sS'"almost'
p852
I855
sS'roadway'
p853
I856
sS'bellybutton'
p854
I3285
sS'24th'
p855
I858
sS'soften'
p856
I859
sS'strang'
p857
I860
sS'condition'
p858
I861
sS'broken"'
p859
I862
sS'harri'
p860
I863
sS'sang'
p861
I864
sS'sand'
p862
I865
sS'sane'
p863
I4950
sS'small'
p864
I867
sS'sank'
p865
I868
sS'lecheri'
p866
I4968
sS'199'
p867
I870
sS'198'
p868
I871
sS'matches"'
p869
I872
sS'195'
p870
I873
sS'194'
p871
I874
sS'educated"'
p872
I4983
sS'196'
p873
I2411
sS'191'
p874
I877
sS'190'
p875
I878
sS'193'
p876
I879
sS'192'
p877
I880
sS'past'
p878
I881
sS'pass'
p879
I882
sS'richard'
p880
I884
sS'clock'
p881
I885
sS'section'
p882
I886
sS'tanya'
p883
I887
sS'"87th'
p884
I888
sS'literari'
p885
I889
sS'full'
p886
I890
sS'legend'
p887
I891
sS'halfheart'
p888
I892
sS'brutal'
p889
I893
sS'pick'
p890
I894
sS'action'
p891
I895
sS'fuck"'
p892
I897
sS'yourself"'
p893
I898
sS'depart'
p894
I899
sS'"christ"'
p895
I900
sS'chauv'
p896
I901
sS'guess"'
p897
I902
sS'parties"'
p898
I903
sS'select'
p899
I904
sS'slutsho'
p900
I905
sS'enliven'
p901
I906
sS'mors'
p902
I907
sS'pearl'
p903
I908
sS'morn'
p904
I909
sS'6'
p905
I910
sS'unprofession'
p906
I911
sS'door'
p907
I912
sS'hundr'
p908
I913
sS'compani'
p909
I914
sS'marriage"'
p910
I915
sS'outdraw'
p911
I916
sS'culturebitch'
p912
I917
sS'learn'
p913
I918
sS'clutter'
p914
I5487
sS'male'
p915
I920
sS'prompt'
p916
I921
sS'gallop'
p917
I922
sS'challeng'
p918
I923
sS'accept'
p919
I924
sS'scar'
p920
I925
sS'dress'
p921
I926
sS'huge'
p922
I927
sS'cling'
p923
I928
sS'treescream'
p924
I929
sS'simpl'
p925
I930
sS'plant'
p926
I931
sS'"never'
p927
I932
sS'never"'
p928
I933
sS'plane'
p929
I934
sS'waver'
p930
I935
sS'backyard'
p931
I936
sS'"guy'
p932
I937
sS'rosebud'
p933
I938
sS'cigarett'
p934
I939
sS'patio'
p935
I940
sS'mexican'
p936
I941
sS'brokenassinth'
p937
I942
sS'iti'
p938
I5415
sS'trade'
p939
I944
sS'paper'
p940
I945
sS'brim'
p941
I5432
sS'broadway'
p942
I947
sS'course"'
p943
I948
sS'gerald'
p944
I949
sS'hzi'
p945
I950
sS'"nice'
p946
I951
sS'lith'
p947
I2261
sS'sucker'
p948
I953
sS'it"'
p949
I954
sS'wast'
p950
I166
sS'great"'
p951
I956
sS'recit'
p952
I957
sS'hellgood'
p953
I958
sS'all"'
p954
I959
sS'achiev'
p955
I960
sS'found'
p956
I961
sS'lantern'
p957
I962
sS'september"'
p958
I963
sS'england'
p959
I964
sS'eyelash'
p960
I965
sS'terrifi'
p961
I966
sS'realli'
p962
I967
sS'177'
p963
I968
sS'barefoot'
p964
I5497
sS'soundthey'
p965
I970
sS'ditch'
p966
I3311
sS'lipstick'
p967
I972
sS'candlelight'
p968
I973
sS'vancouv'
p969
I974
sS'173'
p970
I975
sS'research'
p971
I976
sS'bubbl'
p972
I977
sS'highway'
p973
I978
sS'antiblack"'
p974
I979
sS'campfir'
p975
I980
sS'believ'
p976
I981
sS'quicki'
p977
I982
sS'driven'
p978
I5501
sS'hanger"'
p979
I984
sS'struggl'
p980
I985
sS'"vancouver"'
p981
I5133
sS'w'
p982
I987
sS'bumper'
p983
I988
sS'testament'
p984
I989
sS'clump'
p985
I990
sS'"uhuh'
p986
I991
sS'major'
p987
I992
sS'wilder'
p988
I993
sS'number'
p989
I994
sS'muffler'
p990
I5504
sS'horribl'
p991
I996
sS'flimsi'
p992
I997
sS'"sure'
p993
I998
sS'jew'
p994
I999
sS'jet'
p995
I1000
sS'easy"'
p996
I1001
sS'smackhi'
p997
I1002
sS'remember"'
p998
I1003
sS'lipsticksmear'
p999
I1004
sS'relationship'
p1000
I1005
sS'first"'
p1001
I1006
sS'grace'
p1002
I1007
sS'"henri'
p1003
I1008
sS'typeseith'
p1004
I1009
sS'perfum'
p1005
I1010
sS'head"'
p1006
I1011
sS'arrang'
p1007
I1012
sS'beforehand'
p1008
I1013
sS'caress'
p1009
I1014
sS'blond'
p1010
I1015
sS'sell'
p1011
I1016
sS'ex"'
p1012
I1017
sS'madhous'
p1013
I1018
sS'spaghetti'
p1014
I1019
sS'self'
p1015
I1020
sS'also'
p1016
I1021
sS'understand"'
p1017
I1022
sS'frail'
p1018
I1023
sS'play'
p1019
I1024
sS'firsthand'
p1020
I1025
sS'lavend'
p1021
I1026
sS'"galveston'
p1022
I1027
sS'plan'
p1023
I1028
sS'wive'
p1024
I1029
sS'halfhard'
p1025
I1030
sS'scuffl'
p1026
I1031
sS'cover'
p1027
I1032
sS'gabl'
p1028
I1033
sS'centerbig'
p1029
I1034
sS'resembl'
p1030
I4452
sS'barrel'
p1031
I1036
sS'"except'
p1032
I1037
sS'"europ'
p1033
I1038
sS'golf'
p1034
I1039
sS'cruiser'
p1035
I1040
sS'stuffin'
p1036
I1041
sS'slim'
p1037
I1288
sS'265'
p1038
I1042
sS'midwestern'
p1039
I1043
sS'lilly"'
p1040
I1044
sS'writer'
p1041
I1045
sS'solut'
p1042
I1046
sS'"thank'
p1043
I1047
sS'"neither'
p1044
I1048
sS"they'v"
p1045
I1049
sS'alive"'
p1046
I1050
sS"they'r"
p1047
I1051
sS"they'd"
p1048
I1052
sS'mainten'
p1049
I1053
sS'compass'
p1050
I1054
sS'ambiti'
p1051
I1055
sS'sunni'
p1052
I1056
sS'violent'
p1053
I5517
sS'acut'
p1054
I1058
sS'enemi'
p1055
I1059
sS'write"'
p1056
I3984
sS'leg"'
p1057
I1061
sS'319'
p1058
I1062
sS'set'
p1059
I1063
sS'leopardess'
p1060
I1064
sS'overwhelm'
p1061
I1065
sS'312'
p1062
I1066
sS'jade'
p1063
I1067
sS'310'
p1064
I1068
sS'317'
p1065
I1069
sS'316'
p1066
I1070
sS'315'
p1067
I1071
sS'sex'
p1068
I1072
sS'see'
p1069
I1073
sS'redoubl'
p1070
I1074
sS'sea'
p1071
I1075
sS'poverti'
p1072
I1262
sS'outward'
p1073
I1077
sS'shower'
p1074
I2345
sS'spiritu'
p1075
I1079
sS'jenkin'
p1076
I1080
sS'urchin'
p1077
I1081
sS'pickup'
p1078
I1082
sS'"thing'
p1079
I1083
sS'delongpr'
p1080
I1084
sS'"sometim'
p1081
I1085
sS'pirat'
p1082
I1086
sS'shoe'
p1083
I3604
sS'last'
p1084
I1087
sS'redblond'
p1085
I1088
sS'whole'
p1086
I1089
sS'load'
p1087
I1090
sS'race"'
p1088
I1091
sS'episod'
p1089
I1092
sS'sleeve"'
p1090
I1093
sS'drunk'
p1091
I1094
sS'sammi'
p1092
I1095
sS'town"'
p1093
I1096
sS'bitch"'
p1094
I1097
sS'church'
p1095
I1098
sS'tonto'
p1096
I1099
sS'gadfli'
p1097
I1100
sS'belt'
p1098
I1101
sS'fifteen'
p1099
I1102
sS'perpetu'
p1100
I1103
sS'homosexu'
p1101
I1104
sS'nonexist'
p1102
I1105
sS'firm'
p1103
I1106
sS'fire'
p1104
I1107
sS'infect'
p1105
I1108
sS"what'r"
p1106
I1109
sS'"likewise"'
p1107
I1110
sS'educ'
p1108
I1111
sS'crenshaw'
p1109
I1112
sS'errol'
p1110
I1113
sS'"do'
p1111
I3986
sS'halfindian'
p1112
I1115
sS'earli'
p1113
I2287
sS'"leav'
p1114
I55
sS'captiv'
p1115
I1119
sS'"look'
p1116
I1120
sS'vanish'
p1117
I1121
sS'chase'
p1118
I1122
sS'decor'
p1119
I1123
sS'barney'
p1120
I1124
sS'seek'
p1121
I3345
sS'funni'
p1122
I1126
sS'well"'
p1123
I207
sS'cigar'
p1124
I1128
sS'stack'
p1125
I1130
sS'recent'
p1126
I1131
sS'pickl'
p1127
I1132
sS'person'
p1128
I1133
sS'expens'
p1129
I1134
sS'elev'
p1130
I1135
sS'maid"'
p1131
I1136
sS'yet"'
p1132
I1137
sS'pomegran'
p1133
I1139
sS'beachnot'
p1134
I1141
sS'sandal'
p1135
I1142
sS'ladies"'
p1136
I1143
sS'swinger'
p1137
I1144
sS'eager'
p1138
I1145
sS'grapefruit'
p1139
I1146
sS'rear'
p1140
I2298
sS'shitti'
p1141
I1148
sS'australia'
p1142
I1149
sS'7andonehalf'
p1143
I1150
sS'blackjack'
p1144
I1151
sS'towel'
p1145
I5535
sS'"calm'
p1146
I1153
sS'd'
p1147
I1154
sS'baggag'
p1148
I1155
sS'stylish'
p1149
I1156
sS'encount'
p1150
I1157
sS'goddamn'
p1151
I403
sS'palm'
p1152
I1159
sS'sight'
p1153
I1160
sS'curious'
p1154
I1161
sS'pale'
p1155
I1162
sS'"where"'
p1156
I1163
sS'religion'
p1157
I456
sS'machin'
p1158
I1165
sS'be'
p1159
I1166
sS'woman"'
p1160
I5538
sS'grotesqu'
p1161
I1168
sS'bm'
p1162
I1169
sS'santa'
p1163
I1170
sS'by'
p1164
I1171
sS'materi'
p1165
I519
sS'revolut'
p1166
I1173
sS'stable"'
p1167
I1174
sS'"ye'
p1168
I1175
sS'irrit'
p1169
I1176
sS'hemingway'
p1170
I1177
sS'dishpan'
p1171
I1178
sS'savag'
p1172
I1179
sS'ringsid'
p1173
I1180
sS'butter"'
p1174
I575
sS'next'
p1175
I1283
sS'durabl'
p1176
I1183
sS'sock'
p1177
I1184
sS'submit'
p1178
I1185
sS'custom'
p1179
I1186
sS'suit'
p1180
I1187
sS'spar'
p1181
I1188
sS'sunrises"'
p1182
I1189
sS'jewish'
p1183
I1190
sS'poster'
p1184
I1191
sS'kidding"'
p1185
I1192
sS'atom'
p1186
I1193
sS'line'
p1187
I649
sS'uuggg'
p1188
I1195
sS'mrs'
p1189
I2187
sS'up'
p1190
I1196
sS'us'
p1191
I1197
sS'open"'
p1192
I1198
sS'intim'
p1193
I1199
sS'lost"'
p1194
I1200
sS'chat'
p1195
I1202
sS'beginning"'
p1196
I1203
sS'intact'
p1197
I5540
sS'tuft'
p1198
I1205
sS'invalid'
p1199
I1207
sS'hell"'
p1200
I1208
sS'swirl'
p1201
I1209
sS'tart'
p1202
I1210
sS'"women'
p1203
I1211
sS'scrub'
p1204
I1212
sS'bianca'
p1205
I1213
sS'ago'
p1206
I1214
sS'lane'
p1207
I1215
sS'"$20"'
p1208
I801
sS'fighter'
p1209
I1217
sS'expressionless'
p1210
I1218
sS'age'
p1211
I1219
sS'"write'
p1212
I1220
sS'"$200'
p1213
I1221
sS'fresh'
p1214
I1222
sS'copy"'
p1215
I838
sS'hello'
p1216
I1224
sS'"littl'
p1217
I1225
sS'scratch'
p1218
I1226
sS'all\'"'
p1219
I1227
sS'glendoline"'
p1220
I1228
sS'1010"'
p1221
I1229
sS'young'
p1222
I1230
sS'send'
p1223
I1231
sS'mimeograph'
p1224
I1232
sS'sens'
p1225
I1233
sS'sent'
p1226
I1234
sS'unzip'
p1227
I1235
sS'garden'
p1228
I1236
sS'disast'
p1229
I1237
sS'wipe'
p1230
I1238
sS'tri'
p1231
I1239
sS'magic'
p1232
I1240
sS'inclin'
p1233
I1241
sS'eve'
p1234
I1242
sS'lombardi'
p1235
I1243
sS'kansa'
p1236
I1244
sS'anxious'
p1237
I1245
sS'race'
p1238
I1246
sS'marri'
p1239
I1247
sS'rack'
p1240
I1248
sS'trv'
p1241
I1249
sS'natur'
p1242
I1250
sS'unhappy"'
p1243
I1251
sS"excited'1'"
p1244
I1252
sS'odd'
p1245
I1253
sS'staying"'
p1246
I1254
sS'make"'
p1247
I1255
sS'that"'
p1248
I1256
sS'indian'
p1249
I1257
sS'fazzick'
p1250
I1258
sS'indec'
p1251
I1259
sS'bird'
p1252
I1260
sS'unpleasant"'
p1253
I1261
sS'led'
p1254
I1076
sS'leg'
p1255
I1263
sS'license"'
p1256
I1264
sS'punch'
p1257
I1265
sS'let'
p1258
I1266
sS'everything"'
p1259
I1267
sS'"next'
p1260
I1268
sS'great'
p1261
I1269
sS'greas'
p1262
I1270
sS'defeat'
p1263
I1271
sS'opinion'
p1264
I1272
sS'india"'
p1265
I1273
sS'apartment"'
p1266
I2315
sS'emot'
p1267
I1275
sS'disciplin'
p1268
I1276
sS'330'
p1269
I1277
sS'"thanks"'
p1270
I1278
sS'unknown"'
p1271
I1279
sS'momma"'
p1272
I1280
sS'zip'
p1273
I1281
sS'doubl'
p1274
I1282
sS'"see'
p1275
I1182
sS'eleven'
p1276
I1284
sS'doubt'
p1277
I1285
sS'baba'
p1278
I5138
sS'pencil'
p1279
I1287
sS'turnoff'
p1280
I1201
sS'sharpli'
p1281
I1289
sS'babi'
p1282
I1290
sS'gambl'
p1283
I1291
sS'this'
p1284
I1292
sS'hardboil'
p1285
I1293
sS'pour'
p1286
I1294
sS'thin'
p1287
I1295
sS'scatter'
p1288
I1296
sS'bend'
p1289
I1297
sS'slid'
p1290
I1298
sS'weaker'
p1291
I1299
sS'bent'
p1292
I1300
sS'process'
p1293
I1301
sS'lock'
p1294
I1302
sS'benz'
p1295
I1303
sS'rode'
p1296
I1304
sS'high'
p1297
I1305
sS'slit'
p1298
I1306
sS'block"'
p1299
I1307
sS'slip'
p1300
I1308
sS'trumpet'
p1301
I1309
sS'weaken'
p1302
I1310
sS'cring'
p1303
I2318
sS'class"'
p1304
I1312
sS'blackhead'
p1305
I1313
sS'stand'
p1306
I5567
sS'"you\'d'
p1307
I1315
sS'notebook'
p1308
I1316
sS'"you\'v'
p1309
I1317
sS'piece"'
p1310
I3393
sS'tomato'
p1311
I1319
sS'raggedyass'
p1312
I245
sS'nanci'
p1313
I1321
sS'classi'
p1314
I1322
sS'"be'
p1315
I1323
sS'counter'
p1316
I1324
sS'insecure"'
p1317
I1325
sS'serrano'
p1318
I1326
sS'"paris"'
p1319
I1327
sS'allow'
p1320
I1328
sS'wolverin'
p1321
I1330
sS'unforgiv'
p1322
I1331
sS'houston'
p1323
I1332
sS'thigh'
p1324
I1333
sS'movi'
p1325
I1334
sS'move'
p1326
I1335
sS'"laura'
p1327
I1336
sS'perfect'
p1328
I1337
sS'important"'
p1329
I1338
sS'decay'
p1330
I1339
sS'shudder'
p1331
I1340
sS'puerto'
p1332
I1341
sS'decad'
p1333
I1342
sS'belch'
p1334
I1344
sS'launder'
p1335
I1345
sS'sir"'
p1336
I1286
sS'dock'
p1337
I1347
sS'snake'
p1338
I1348
sS'kiss'
p1339
I1349
sS'cage'
p1340
I1350
sS'betti'
p1341
I1351
sS'anyth'
p1342
I1550
sS'hepburn"'
p1343
I1353
sS'truth'
p1344
I1354
sS'beneath'
p1345
I1355
sS'francisco'
p1346
I1611
sS'strode'
p1347
I1356
sS'societi'
p1348
I1357
sS'sesam'
p1349
I5493
sS'bump'
p1350
I1358
sS'"once"'
p1351
I1359
sS'differ'
p1352
I5756
sS'wander'
p1353
I1360
sS'shannon'
p1354
I1361
sS'variabl'
p1355
I1362
sS"'"
p1356
I1363
sS'cunt"'
p1357
I1364
sS'"wait'
p1358
I1365
sS'fatherland'
p1359
I1366
sS'4inch'
p1360
I1367
sS'book"'
p1361
I1653
sS'met"'
p1362
I1369
sS'thrust'
p1363
I1370
sS'embarrass'
p1364
I1371
sS'shortest'
p1365
I1372
sS'chilli'
p1366
I1373
sS'mainland'
p1367
I1374
sS'spill'
p1368
I1375
sS'things"'
p1369
I1376
sS'could'
p1370
I1377
sS'area'
p1371
I2336
sS'lancelot'
p1372
I1379
sS'length'
p1373
I1380
sS'outsid'
p1374
I1381
sS'scare'
p1375
I1382
sS'anita'
p1376
I1383
sS'scene'
p1377
I1384
sS'jesus'
p1378
I1385
sS'have"'
p1379
I1386
sS'pranc'
p1380
I1387
sS'owner'
p1381
I1388
sS'wins"'
p1382
I1389
sS'doublepark'
p1383
I2434
sS'licens'
p1384
I1391
sS'sculleri'
p1385
I1392
sS'two"'
p1386
I1393
sS'system'
p1387
I1394
sS'autograph'
p1388
I1318
sS'bartend'
p1389
I1396
sS'termin'
p1390
I1782
sS'unbear'
p1391
I1398
sS'stomach'
p1392
I1399
sS'silverett'
p1393
I1400
sS'westlak'
p1394
I1414
sS'submiss'
p1395
I2342
sS'haven'
p1396
I1403
sS'steel'
p1397
I1404
sS'"bi'
p1398
I1405
sS'"nineti'
p1399
I1406
sS'bother'
p1400
I1407
sS'later"'
p1401
I1408
sS'"hank"'
p1402
I1409
sS'steep'
p1403
I1410
sS'steer'
p1404
I1411
sS'beggar'
p1405
I1412
sS'terribl'
p1406
I1413
sS'skimmedmilk'
p1407
I1861
sS'tonight'
p1408
I1415
sS'can\'t"'
p1409
I1416
sS'tessi'
p1410
I1417
sS'account"'
p1411
I5582
sS'soak'
p1412
I1419
sS'latino'
p1413
I1420
sS'soap'
p1414
I1421
sS'courtesi'
p1415
I1422
sS'muchand'
p1416
I1423
sS'fidel'
p1417
I1424
sS'"quitter"'
p1418
I1425
sS'lunch"'
p1419
I1426
sS'bred'
p1420
I1427
sS'face'
p1421
I1428
sS"you'll"
p1422
I1429
sS'ascot'
p1423
I1430
sS'elsie"'
p1424
I1431
sS'"henry"'
p1425
I1432
sS'fact'
p1426
I1433
sS'bring'
p1427
I1434
sS'mean"'
p1428
I2005
sS'bedroom'
p1429
I1436
sS'"christian'
p1430
I1437
sS'rough'
p1431
I1438
sS'"becaus'
p1432
I1439
sS'rochelle"'
p1433
I1440
sS'redirect'
p1434
I1441
sS'footbal'
p1435
I1442
sS'nois'
p1436
I1443
sS'"bobbi'
p1437
I1444
sS'jay'
p1438
I1445
sS'jar'
p1439
I1446
sS'should'
p1440
I1447
sS'few"'
p1441
I1448
sS'gestur'
p1442
I1449
sS'jam'
p1443
I1450
sS'suppos'
p1444
I2037
sS'frenchi'
p1445
I1452
sS'flinch'
p1446
I3775
sS'hope'
p1447
I1454
sS'meant'
p1448
I1455
sS'bike"'
p1449
I1456
sS'insight'
p1450
I1457
sS'familiar'
p1451
I1458
sS'hire'
p1452
I1459
sS'passeng'
p1453
I1460
sS'meand'
p1454
I1461
sS'off\'"'
p1455
I1462
sS'lucki'
p1456
I2092
sS'smash'
p1457
I1464
sS'hemorrhoid'
p1458
I1465
sS'h'
p1459
I1466
sS'hexed"'
p1460
I1467
sS'stuff'
p1461
I1468
sS'sluglov'
p1462
I1469
sS'temporarili'
p1463
I1470
sS'once"'
p1464
I1471
sS'wire'
p1465
I1472
sS'cowardic'
p1466
I1473
sS'"chinaski'
p1467
I1474
sS'jerkoff'
p1468
I1475
sS'"liza'
p1469
I2210
sS'pistol'
p1470
I1477
sS'dislik'
p1471
I1478
sS'courtyard'
p1472
I1479
sS'taken"'
p1473
I1480
sS'lawsuit'
p1474
I1481
sS'relating"'
p1475
I1482
sS'2andonehalf'
p1476
I1483
sS'drum'
p1477
I1484
sS'ramp'
p1478
I1485
sS'drug'
p1479
I1486
sS'"in"'
p1480
I1487
sS'marti'
p1481
I1488
sS'doorway'
p1482
I1489
sS'"katherine"'
p1483
I1490
sS'co'
p1484
I1491
sS'flirtat'
p1485
I1492
sS'incest'
p1486
I1493
sS'ucl'
p1487
I1494
sS"washesthey'd"
p1488
I3394
sS'mailman'
p1489
I1496
sS'buss'
p1490
I1497
sS'drank'
p1491
I1498
sS'feather'
p1492
I1499
sS'immedi'
p1493
I1500
sS'louisiana'
p1494
I1501
sS'selfeduc'
p1495
I1502
sS'amputated"'
p1496
I1503
sS'deliber'
p1497
I1504
sS'togeth'
p1498
I1505
sS'ador'
p1499
I1506
sS'atlanta'
p1500
I1507
sS'spain'
p1501
I1508
sS'runway'
p1502
I1509
sS'groid'
p1503
I1510
sS'outside"'
p1504
I1511
sS'hahaha'
p1505
I1512
sS'resting"'
p1506
I1513
sS'bathtub'
p1507
I1514
sS'maul'
p1508
I1515
sS'purchas'
p1509
I1516
sS'ripe'
p1510
I1517
sS'vi'
p1511
I1518
sS'of"'
p1512
I1519
sS'paula'
p1513
I1520
sS'ball'
p1514
I1521
sS'sade'
p1515
I1522
sS'sadi'
p1516
I1523
sS'drink'
p1517
I2502
sS'upon'
p1518
I1525
sS'coffe'
p1519
I1526
sS'dust'
p1520
I1527
sS'newman'
p1521
I1346
sS'off'
p1522
I1528
sS'35"'
p1523
I1529
sS'paus'
p1524
I1530
sS'going"'
p1525
I1531
sS'less'
p1526
I2574
sS'sandwich"'
p1527
I1533
sS'gulli'
p1528
I1534
sS'paul'
p1529
I1535
sS'glue'
p1530
I1536
sS'generous'
p1531
I1537
sS'wet'
p1532
I2629
sS'room"'
p1533
I1539
sS'crud'
p1534
I1540
sS'piec'
p1535
I1541
sS'nve'
p1536
I2658
sS'five'
p1537
I1543
sS'desk'
p1538
I1544
sS'moment"'
p1539
I1545
sS'tick'
p1540
I1546
sS'pier'
p1541
I1547
sS'we"'
p1542
I1548
sS'onion'
p1543
I1549
sS'258'
p1544
I1551
sS'stagger'
p1545
I1552
sS'pacifi'
p1546
I1613
sS'corebodi'
p1547
I1553
sS'sledg'
p1548
I1554
sS'"dee'
p1549
I1556
sS'daylight'
p1550
I1557
sS'flush'
p1551
I1558
sS'wisecrack'
p1552
I1559
sS'$400'
p1553
I1560
sS'"what'
p1554
I1561
sS'disbelief'
p1555
I1562
sS'avoid'
p1556
I1563
sS'shone'
p1557
I1564
sS'passion'
p1558
I1565
sS'godhead'
p1559
I1566
sS'stairway'
p1560
I1567
sS'pear'
p1561
I2368
sS'up\'"'
p1562
I1569
sS'stage'
p1563
I1570
sS'sister'
p1564
I1571
sS'citynobodi'
p1565
I1572
sS'strumpet'
p1566
I1573
sS'"eat'
p1567
I1574
sS'erect'
p1568
I3404
sS'goggles"'
p1569
I1576
sS'pussi'
p1570
I1577
sS'waterfal'
p1571
I1578
sS'playth'
p1572
I1579
sS'mere'
p1573
I1580
sS'stamina'
p1574
I1581
sS'stagefright'
p1575
I1582
sS'place"'
p1576
I1583
sS'flynn'
p1577
I1584
sS'deliveri'
p1578
I1585
sS'interest'
p1579
I3405
sS'innoc'
p1580
I1587
sS'"down'
p1581
I1588
sS'letter"'
p1582
I1589
sS'grate'
p1583
I1590
sS'count'
p1584
I1591
sS'veget'
p1585
I1592
sS'smooth'
p1586
I1593
sS'bingbong'
p1587
I1594
sS'"nobodi'
p1588
I1595
sS'private"'
p1589
I1596
sS'"one'
p1590
I1597
sS'swindl'
p1591
I1598
sS'problem'
p1592
I1599
sS'placeh'
p1593
I1600
sS'peter"'
p1594
I1601
sS'blous'
p1595
I1602
sS'weston'
p1596
I1603
sS'novemb'
p1597
I1604
sS'offstag'
p1598
I218
sS'seashor'
p1599
I1606
sS'ink'
p1600
I1607
sS'ina'
p1601
I1608
sS'sexual'
p1602
I4536
sS'varieti'
p1603
I1610
sS'repeat'
p1604
I5311
sS'monday'
p1605
I1612
sS'again"'
p1606
I3073
sS'don\'t"'
p1607
I4537
sS'straddl'
p1608
I1615
sS'in"'
p1609
I2612
sS'"anoth'
p1610
I1617
sS'mozart'
p1611
I1618
sS'rule'
p1612
I1619
sS'party"'
p1613
I1620
sS'oldest'
p1614
I1621
sS'5~feet5'
p1615
I1622
sS'porno'
p1616
I1623
sS'bike'
p1617
I1624
sS'hedg'
p1618
I1625
sS'chill'
p1619
I319
sS'worth'
p1620
I1627
sS'fourbyfour'
p1621
I1628
sS'blanket'
p1622
I1629
sS'antieverything"'
p1623
I1630
sS'managers"'
p1624
I1631
sS'embarassing"'
p1625
I1632
sS'"realli'
p1626
I1633
sS"we'll"
p1627
I1634
sS'whisk'
p1628
I1635
sS'pinch'
p1629
I1636
sS'handout'
p1630
I1637
sS'strokesand'
p1631
I1638
sS'stink"'
p1632
I1639
sS'298'
p1633
I1640
sS'299'
p1634
I1641
sS'296'
p1635
I1642
sS'297'
p1636
I1643
sS'294'
p1637
I1644
sS'295'
p1638
I1645
sS'292'
p1639
I1646
sS'293'
p1640
I1647
sS'290'
p1641
I1648
sS'291'
p1642
I1649
sS'chew'
p1643
I1650
sS'paperback'
p1644
I1651
sS'gasolin'
p1645
I3426
sS'shut'
p1646
I1368
sS'horn'
p1647
I1654
sS'hors'
p1648
I1655
sS'toll'
p1649
I1656
sS'told'
p1650
I1657
sS'machine"'
p1651
I1658
sS'phone"'
p1652
I1659
sS'pleasur'
p1653
I1660
sS'famous"'
p1654
I1661
sS'hairdo'
p1655
I1662
sS'daughter'
p1656
I1663
sS'smoke'
p1657
I1664
sS'anarchist'
p1658
I2675
sS'glu'
p1659
I1666
sS'gentleman"'
p1660
I1667
sS'cecelia"'
p1661
I1668
sS'messcloth'
p1662
I1669
sS'newspap'
p1663
I1670
sS'mitchel'
p1664
I1671
sS'attitud'
p1665
I1672
sS'riversthat'
p1666
I1673
sS'total'
p1667
I1674
sS'bra'
p1668
I1675
sS'plop'
p1669
I1676
sS'exacta'
p1670
I1677
sS'"yeah"'
p1671
I5950
sS'insult'
p1672
I3518
sS'iq'
p1673
I1679
sS'"doesn\'t'
p1674
I1680
sS'knoll'
p1675
I1681
sS'cottag'
p1676
I1682
sS'roundshould'
p1677
I1683
sS'is'
p1678
I1684
sS'lightyear'
p1679
I1685
sS'over"'
p1680
I3437
sS'darling"'
p1681
I1687
sS'word'
p1682
I1688
sS'wore'
p1683
I1689
sS'books"'
p1684
I1690
sS'sara"'
p1685
I1691
sS'work'
p1686
I1692
sS'pierc'
p1687
I1693
sS'wors'
p1688
I1694
sS'elbow'
p1689
I1695
sS'personally"'
p1690
I1696
sS'nopeopl'
p1691
I1697
sS'eyebal'
p1692
I1698
sS'flung'
p1693
I1699
sS'india'
p1694
I1700
sS'la"'
p1695
I1701
sS'"love'
p1696
I1702
sS'basebal'
p1697
I1703
sS'gigant'
p1698
I1704
sS'supermarket"'
p1699
I1705
sS'ordinari'
p1700
I3702
sS'jetlin'
p1701
I5626
sS'interview'
p1702
I1708
sS'disappoint'
p1703
I3722
sS'beach'
p1704
I1710
sS'pizza'
p1705
I1711
sS'recogn'
p1706
I1712
sS'after'
p1707
I1713
sS'lay'
p1708
I1714
sS'law'
p1709
I1715
sS'lap'
p1710
I1716
sS'demonstr'
p1711
I1717
sS'retort'
p1712
I1718
sS'green'
p1713
I1719
sS'waitress'
p1714
I4552
sS'greec'
p1715
I1721
sS'order'
p1716
I1722
sS'zen'
p1717
I1723
sS'typewrit'
p1718
I1724
sS'incid'
p1719
I1725
sS'jabb'
p1720
I1726
sS'exwif'
p1721
I1727
sS'drankbut'
p1722
I1728
sS'"relax"'
p1723
I1729
sS'$132'
p1724
I1730
sS'hypnot'
p1725
I1731
sS'denver'
p1726
I1732
sS'offic'
p1727
I1733
sS'pantiespardon'
p1728
I1734
sS'carton'
p1729
I1735
sS'versus'
p1730
I1736
sS'then'
p1731
I1737
sS'them'
p1732
I1738
sS'typescript'
p1733
I283
sS'thee'
p1734
I1740
sS'safe'
p1735
I1741
sS'break'
p1736
I1742
sS'band'
p1737
I1743
sS'bang'
p1738
I1744
sS'they'
p1739
I1745
sS'debra"'
p1740
I1746
sS'upit'
p1741
I1747
sS'bank'
p1742
I1748
sS'bread'
p1743
I1749
sS'oxygen'
p1744
I1750
sS'l'
p1745
I1751
sS'rocki'
p1746
I1752
sS'$50'
p1747
I1753
sS'slaveri'
p1748
I1754
sS'finished"'
p1749
I1755
sS'upper"'
p1750
I1756
sS'"n"'
p1751
I1757
sS'hooker'
p1752
I1758
sS'forth'
p1753
I1759
sS'forti'
p1754
I1760
sS'dancing"'
p1755
I1761
sS'standard'
p1756
I1762
sS'nth'
p1757
I1763
sS'volks"'
p1758
I1764
sS'fring'
p1759
I1765
sS'drench'
p1760
I1766
sS'lousi'
p1761
I1767
sS'conversationalist'
p1762
I1768
sS'flawless'
p1763
I1769
sS'"no'
p1764
I1770
sS'independ'
p1765
I1771
sS'"real'
p1766
I1772
sS'disembark'
p1767
I1773
sS'thick'
p1768
I1774
sS'"read'
p1769
I1775
sS'airi'
p1770
I1776
sS'tea'
p1771
I5637
sS'john'
p1772
I1778
sS'insanity"'
p1773
I1779
sS'texas"'
p1774
I1780
sS'"mommy"'
p1775
I1781
sS'happili'
p1776
I1783
sS'hike'
p1777
I1784
sS'dog"'
p1778
I1785
sS'merci'
p1779
I1786
sS'guilt'
p1780
I1787
sS'iron'
p1781
I1788
sS'minut'
p1782
I1789
sS'"horrible"'
p1783
I1790
sS'relight'
p1784
I1791
sS'manner'
p1785
I1792
sS'budg'
p1786
I5580
sS'seltzer'
p1787
I1793
sS'boogi'
p1788
I1794
sS'terrif'
p1789
I1795
sS'charges"'
p1790
I1796
sS'latter'
p1791
I1797
sS'neighborhood"'
p1792
I1798
sS'castiron'
p1793
I1799
sS'germani'
p1794
I1800
sS'maiden'
p1795
I1801
sS'boxcar'
p1796
I1802
sS'hamsun'
p1797
I1803
sS'phase'
p1798
I1804
sS'grave'
p1799
I1805
sS'excus'
p1800
I1806
sS'me\'"'
p1801
I1807
sS'swim"'
p1802
I1808
sS'aunt'
p1803
I1809
sS'levinson'
p1804
I1810
sS'opposit'
p1805
I1811
sS'busy"'
p1806
I1812
sS'boyhood'
p1807
I348
sS'tampax'
p1808
I5647
sS'toast'
p1809
I1815
sS'run"'
p1810
I1816
sS'do'
p1811
I1817
sS'nasti'
p1812
I1818
sS'de'
p1813
I1819
sS'dy'
p1814
I1820
sS'guts"'
p1815
I1821
sS'sky"'
p1816
I1822
sS'414'
p1817
I1823
sS'steak'
p1818
I1824
sS'steal'
p1819
I1825
sS'steam'
p1820
I1826
sS'transfiguration"'
p1821
I1827
sS'reread'
p1822
I1828
sS'lovabl'
p1823
I1829
sS'awar'
p1824
I1830
sS'"could'
p1825
I3474
sS'away'
p1826
I1832
sS'drawn'
p1827
I1833
sS'fag"'
p1828
I1834
sS'accord'
p1829
I1835
sS'mcintosh'
p1830
I1836
sS'wt'
p1831
I1837
sS'inn"'
p1832
I1838
sS'observe"'
p1833
I1839
sS'intox'
p1834
I1840
sS'kitchen'
p1835
I1841
sS'cop'
p1836
I1842
sS'fantasyland'
p1837
I1843
sS'cot'
p1838
I5228
sS'cow'
p1839
I1845
sS'coy'
p1840
I1846
sS'howev'
p1841
I1847
sS'cob'
p1842
I1848
sS'brag'
p1843
I1849
sS'futil'
p1844
I1850
sS'eyesight'
p1845
I1851
sS'tough'
p1846
I1852
sS'vein'
p1847
I1616
sS'excess'
p1848
I2412
sS'guid'
p1849
I1854
sS'speak'
p1850
I1855
sS'plantat'
p1851
I1856
sS'thrift'
p1852
I5661
sS'warmth'
p1853
I1859
sS'pounds"'
p1854
I1860
sS'vegetables"'
p1855
I4807
sS'"reserv'
p1856
I1862
sS'cheroke'
p1857
I1863
sS'brushacross'
p1858
I1864
sS'ident'
p1859
I4838
sS'"never"'
p1860
I1866
sS'sculpt'
p1861
I1867
sS'air'
p1862
I1868
sS'abrupt'
p1863
I1869
sS'aid'
p1864
I1870
sS'vagu'
p1865
I1871
sS'pencilthin'
p1866
I1872
sS'stink'
p1867
I1873
sS'dizzi'
p1868
I1874
sS'brake'
p1869
I1875
sS"o'keef"
p1870
I1876
sS'platen'
p1871
I1877
sS'perform'
p1872
I1878
sS"wasn'ta"
p1873
I1879
sS'bunni'
p1874
I1880
sS'hank'
p1875
I1881
sS'fuss'
p1876
I1882
sS'evid'
p1877
I1883
sS'hang'
p1878
I4957
sS'rain'
p1879
I1885
sS'hand'
p1880
I1886
sS'norwegian'
p1881
I1887
sS'rais'
p1882
I1888
sS'pollywog'
p1883
I1889
sS'nip'
p1884
I1890
sS'vermont'
p1885
I1891
sS'$25000'
p1886
I1892
sS'kept'
p1887
I1893
sS'1973'
p1888
I1894
sS'drip'
p1889
I1895
sS'1971'
p1890
I1896
sS'contact'
p1891
I1897
sS'the'
p1892
I1898
sS"she'll"
p1893
I1899
sS'bastard"'
p1894
I1900
sS'photo'
p1895
I1901
sS'dignifi'
p1896
I1902
sS'oldfashion'
p1897
I1903
sS'thyroid'
p1898
I1904
sS'tired"'
p1899
I1905
sS'mix'
p1900
I1906
sS'switchblade"'
p1901
I1907
sS'shout'
p1902
I1908
sS'spread'
p1903
I1909
sS'board'
p1904
I1910
sS'disembowl'
p1905
I1911
sS'mayb'
p1906
I1912
sS'intercom'
p1907
I1913
sS'325'
p1908
I1914
sS'boxer'
p1909
I1915
sS'god"'
p1910
I1916
sS'twenties"'
p1911
I1917
sS'hill"'
p1912
I1919
sS'night'
p1913
I1920
sS'percentag'
p1914
I1922
sS'burnedout'
p1915
I1923
sS'editors"'
p1916
I1924
sS'terrible"'
p1917
I4597
sS'bore'
p1918
I1926
sS'humor'
p1919
I1927
sS'tonight"'
p1920
I1928
sS'eleph'
p1921
I1929
sS'"look"'
p1922
I1930
sS'peek'
p1923
I1931
sS'peel'
p1924
I1932
sS'cabbi'
p1925
I1933
sS'peer'
p1926
I1934
sS'post'
p1927
I1935
sS'$2550'
p1928
I1936
sS'pli'
p1929
I1937
sS'pooped"'
p1930
I1938
sS'literatur'
p1931
I1939
sS'syring'
p1932
I6234
sS'miracul'
p1933
I1940
sS'bounc'
p1934
I1941
sS'profession'
p1935
I1942
sS'bound'
p1936
I1943
sS'partygiv'
p1937
I1944
sS'snow"'
p1938
I1945
sS'fight'
p1939
I1946
sS'way'
p1940
I1947
sS'wax'
p1941
I1948
sS'was'
p1942
I1949
sS'war'
p1943
I1950
sS'"beat'
p1944
I1951
sS'lowest'
p1945
I1952
sS'pay"'
p1946
I1953
sS'same"'
p1947
I1954
sS'sundri'
p1948
I1955
sS'true'
p1949
I1956
sS'gonebut'
p1950
I1957
sS'absenc'
p1951
I1958
sS'retir'
p1952
I1959
sS'hotter'
p1953
I1960
sS'alongsid'
p1954
I1961
sS'frederick'
p1955
I4603
sS'muscular'
p1956
I1963
sS'brother"'
p1957
I1964
sS'prayer'
p1958
I1965
sS'juice"'
p1959
I1966
sS'bed"'
p1960
I1967
sS'"that\'d'
p1961
I3496
sS'larry"'
p1962
I1969
sS'"when'
p1963
I1970
sS'test'
p1964
I1971
sS'shrink'
p1965
I1972
sS"o'clock"
p1966
I1973
sS'"$100'
p1967
I1974
sS'"$105'
p1968
I1975
sS'promise"'
p1969
I1976
sS'blankets"'
p1970
I1977
sS'concept'
p1971
I1978
sS'danci'
p1972
I1979
sS'consum'
p1973
I1980
sS'standingroom'
p1974
I1981
sS'miscarriag'
p1975
I1982
sS'middl'
p1976
I1983
sS'zone'
p1977
I1984
sS'hump'
p1978
I1985
sS'flash'
p1979
I1986
sS'flatwar'
p1980
I1987
sS'rhythm'
p1981
I1988
sS'terror'
p1982
I1989
sS'brown'
p1983
I1990
sS'twolook'
p1984
I1991
sS'toothpast'
p1985
I1992
sS'watts"'
p1986
I1993
sS'blast'
p1987
I1994
sS'margarita'
p1988
I1995
sS'gun'
p1989
I1996
sS'gum'
p1990
I1997
sS'gut'
p1991
I1998
sS'"galveston"'
p1992
I1999
sS'sidewalk'
p1993
I2000
sS'brownston'
p1994
I2001
sS'"i\'ll'
p1995
I2002
sS'upper'
p1996
I2003
sS'brave'
p1997
I2004
sS'luck"'
p1998
I1435
sS'"tammi'
p1999
I2006
sS'thinker'
p2000
I2007
sS'cost'
p2001
I2008
sS'helpless'
p2002
I2009
sS'rapist'
p2003
I2010
sS'appear'
p2004
I2011
sS'seagul'
p2005
I2012
sS'indiffer'
p2006
I2013
sS'appeal'
p2007
I2014
sS'1010'
p2008
I2015
sS'defici'
p2009
I2016
sS'genet'
p2010
I2017
sS'satisfi'
p2011
I2018
sS'"anybodi'
p2012
I2019
sS"hadn't"
p2013
I2020
sS'teacher'
p2014
I2021
sS'buck'
p2015
I2022
sS'apelik'
p2016
I2023
sS'franklin'
p2017
I2570
sS'colleg'
p2018
I2025
sS'pillow'
p2019
I2026
sS'430'
p2020
I2027
sS'promot'
p2021
I3507
sS'extra'
p2022
I2029
sS'industry"'
p2023
I2030
sS'market'
p2024
I2031
sS'prove'
p2025
I2032
sS'angela'
p2026
I2033
sS'live'
p2027
I2034
sS'"pepsicola'
p2028
I2035
sS'tape'
p2029
I1451
sS'hotwir'
p2030
I2038
sS'menstrual'
p2031
I2039
sS'gentlemen"'
p2032
I2040
sS'club'
p2033
I2041
sS'hankerchief'
p2034
I2042
sS'grabass'
p2035
I2043
sS'cute"'
p2036
I2044
sS'car'
p2037
I2045
sS'prepar'
p2038
I2046
sS'cap'
p2039
I2047
sS'cat'
p2040
I2048
sS'can'
p2041
I2049
sS'cam'
p2042
I2050
sS'big"'
p2043
I2051
sS'cab'
p2044
I2052
sS'heart'
p2045
I2053
sS'underestim'
p2046
I2054
sS'chip'
p2047
I2055
sS"didn't"
p2048
I2056
sS'heard'
p2049
I2057
sS'abort'
p2050
I2058
sS'chin'
p2051
I2059
sS'"tomorrow'
p2052
I2060
sS'occur'
p2053
I2061
sS'occup'
p2054
I2062
sS'youteddi'
p2055
I2063
sS'"mani'
p2056
I2064
sS'write'
p2057
I2065
sS'beat'
p2058
I2066
sS'flank'
p2059
I2067
sS'nose"'
p2060
I2068
sS'sweatshop'
p2061
I2069
sS'nonstop'
p2062
I2070
sS'product'
p2063
I2071
sS'dive'
p2064
I2072
sS'southern'
p2065
I2073
sS'hear"'
p2066
I2074
sS'flourish'
p2067
I2075
sS'weightlift'
p2068
I2076
sS'grass"'
p2069
I2077
sS'divid'
p2070
I5696
sS'favorit'
p2071
I2078
sS'"man"'
p2072
I2079
sS'offend'
p2073
I2080
sS'cognac"'
p2074
I2081
sS'benni'
p2075
I2082
sS'stilt'
p2076
I2083
sS'colt'
p2077
I2084
sS'no"'
p2078
I2085
sS'kafka'
p2079
I2086
sS'brain'
p2080
I2087
sS'cold'
p2081
I2088
sS'still'
p2082
I2089
sS'sprinkl'
p2083
I2090
sS'willow'
p2084
I2091
sS'asshole"'
p2085
I1463
sS'window'
p2086
I2093
sS'spacious'
p2087
I2094
sS'nod'
p2088
I2095
sS'overcrowd'
p2089
I2096
sS'half'
p2090
I2097
sS'not'
p2091
I2098
sS'now'
p2092
I2099
sS'hall'
p2093
I2100
sS'nor'
p2094
I2101
sS'introduct'
p2095
I2102
sS'sharklik'
p2096
I2103
sS'drop'
p2097
I2104
sS'magazin'
p2098
I2105
sS'januari'
p2099
I2106
sS'birthday"'
p2100
I2107
sS'courag'
p2101
I2108
sS'el'
p2102
I2109
sS'eh'
p2103
I2110
sS'gash'
p2104
I2111
sS'330"'
p2105
I2112
sS'yeah'
p2106
I2113
sS'year'
p2107
I2114
sS'car"'
p2108
I2115
sS'happen'
p2109
I2116
sS'album'
p2110
I2117
sS'shown'
p2111
I2118
sS'accomplish'
p2112
I2119
sS'space'
p2113
I2120
sS'thirst'
p2114
I2121
sS'interesting"'
p2115
I2122
sS'carv'
p2116
I702
sS'argu'
p2117
I2124
sS'cart'
p2118
I2125
sS'quart'
p2119
I2126
sS'carl'
p2120
I2127
sS'card'
p2121
I2128
sS'directions"'
p2122
I2129
sS'happening"'
p2123
I2130
sS'honest'
p2124
I2131
sS'sitter"'
p2125
I2132
sS'support'
p2126
I2133
sS'blind'
p2127
I2134
sS'620'
p2128
I2135
sS'blink'
p2129
I127
sS'ring'
p2130
I2137
sS'drove'
p2131
I2138
sS'tomorrow'
p2132
I2139
sS'yourselv'
p2133
I2140
sS'sheer'
p2134
I2141
sS'sheet'
p2135
I2142
sS'christma'
p2136
I2143
sS'gertrud'
p2137
I2144
sS'caught'
p2138
I2145
sS'breed'
p2139
I2146
sS'carson'
p2140
I2147
sS'silenc'
p2141
I2148
sS'tragic'
p2142
I2149
sS'friend'
p2143
I2150
sS'thaw'
p2144
I2151
sS'that'
p2145
I210
sS'straight"'
p2146
I2153
sS'biggest"'
p2147
I2154
sS'junkyard'
p2148
I2155
sS'than'
p2149
I2156
sS'$12'
p2150
I2157
sS'dinki'
p2151
I2158
sS'lie"'
p2152
I2159
sS'delic'
p2153
I2160
sS'angel'
p2154
I2161
sS'slaw'
p2155
I2162
sS'anywher'
p2156
I2163
sS'slap'
p2157
I2164
sS'overnight'
p2158
I2459
sS'slam'
p2159
I2166
sS'deliv'
p2160
I2167
sS'anger'
p2161
I2168
sS'breakfast'
p2162
I2169
sS'doorbel'
p2163
I2170
sS'blueey'
p2164
I2171
sS'veteran'
p2165
I2172
sS'highneck'
p2166
I2173
sS'berni'
p2167
I2174
sS'begin'
p2168
I2175
sS'price'
p2169
I2176
sS'hervup'
p2170
I2177
sS'threadbar'
p2171
I2178
sS'"how\'d'
p2172
I2179
sS'impossible"'
p2173
I2180
sS'america'
p2174
I2181
sS'visitors"'
p2175
I2182
sS'renam'
p2176
I2183
sS'rescu'
p2177
I2184
sS'dream'
p2178
I2185
sS'packed"'
p2179
I2186
sS'tooth'
p2180
I427
sS'meanwhil'
p2181
I2188
sS'sunset'
p2182
I2189
sS'"merri'
p2183
I2190
sS'what"'
p2184
I3530
sS'while"'
p2185
I2192
sS'german'
p2186
I2194
sS'hairpin'
p2187
I2195
sS'handwrit'
p2188
I2196
sS'"doe'
p2189
I2197
sS'fifth'
p2190
I2198
sS'fifti'
p2191
I2199
sS'onli'
p2192
I2200
sS'gnaw'
p2193
I2201
sS'stair'
p2194
I2202
sS'jolt'
p2195
I2203
sS'seen"'
p2196
I2204
sS'friendsh'
p2197
I2205
sS'"everyth'
p2198
I2206
sS'stain'
p2199
I2207
sS'slouch'
p2200
I2208
sS'"was'
p2201
I2209
sS'piston'
p2202
I1476
sS'dingdong"'
p2203
I2211
sS'windshield"'
p2204
I2212
sS'"wan'
p2205
I2213
sS'truli'
p2206
I2214
sS'next"'
p2207
I2215
sS'seldom'
p2208
I2216
sS'friends"'
p2209
I2217
sS'husband'
p2210
I2218
sS'concert'
p2211
I2219
sS'burst'
p2212
I601
sS'asleep'
p2213
I2222
sS'sport'
p2214
I2223
sS'concern'
p2215
I2224
sS'come"'
p2216
I2225
sS'3'
p2217
I2226
sS'complexion'
p2218
I2227
sS'between'
p2219
I2228
sS'import'
p2220
I2229
sS'wearing"'
p2221
I2230
sS'pluck'
p2222
I2231
sS'blame'
p2223
I2232
sS'9000'
p2224
I2233
sS'longarm'
p2225
I2234
sS'rippl'
p2226
I2235
sS'cassie"'
p2227
I2236
sS'nearbi'
p2228
I2237
sS'haunch'
p2229
I2238
sS'"whitman'
p2230
I716
sS'comet'
p2231
I2240
sS'evict'
p2232
I2241
sS'turkey"'
p2233
I2242
sS'"really"'
p2234
I2243
sS'"peopl'
p2235
I2244
sS"couldn't"
p2236
I762
sS'156'
p2237
I2247
sS'1030'
p2238
I805
sS'cesspool'
p2239
I2249
sS'jerk"'
p2240
I2250
sS'crumb'
p2241
I2251
sS'these'
p2242
I2252
sS'valeri'
p2243
I2253
sS'trick'
p2244
I2254
sS'$1500'
p2245
I2255
sS'fool'
p2246
I2256
sS'worri'
p2247
I2257
sS'stewardess'
p2248
I2258
sS'gentlemen'
p2249
I2259
sS'food'
p2250
I2260
sS'adjusted"'
p2251
I952
sS'charge"'
p2252
I2262
sS'medit'
p2253
I2263
sS'finish'
p2254
I2264
sS'closest'
p2255
I2265
sS'quaaludes"'
p2256
I2266
sS'arctic'
p2257
I2267
sS'foam'
p2258
I2268
sS'someon'
p2259
I2269
sS'"twenti'
p2260
I2270
sS'fruit'
p2261
I2271
sS'poetry"'
p2262
I2273
sS'"follow'
p2263
I2274
sS'nonact'
p2264
I2275
sS'taxi'
p2265
I2276
sS'sundeck'
p2266
I2278
sS'am"'
p2267
I2279
sS'touch'
p2268
I2280
sS'speed'
p2269
I2281
sS'death'
p2270
I2282
sS'europ'
p2271
I2283
sS'senseless'
p2272
I2284
sS'treatment'
p2273
I2285
sS'either"'
p2274
I2286
sS'real'
p2275
I1117
sS'ream'
p2276
I2288
sS'welding"'
p2277
I2289
sS'read'
p2278
I2290
sS'selma'
p2279
I2291
sS'ladi'
p2280
I2292
sS'gonna'
p2281
I2293
sS'published"'
p2282
I2294
sS'stunt'
p2283
I2295
sS'dancer"'
p2284
I2296
sS'codein'
p2285
I2297
sS'restroom"'
p2286
I1147
sS'postcard'
p2287
I2299
sS't'
p2288
I2300
sS'emerg'
p2289
I6464
sS'verbal'
p2290
I2301
sS'tryon'
p2291
I2302
sS'"september"'
p2292
I2303
sS'radiat'
p2293
I2304
sS'squirt'
p2294
I2305
sS'wellgroom'
p2295
I2306
sS'uneasi'
p2296
I2307
sS'wheat'
p2297
I2308
sS'francin'
p2298
I2309
sS'epsom'
p2299
I2310
sS'throb'
p2300
I2311
sS'1930'
p2301
I2312
sS'1937'
p2302
I2313
sS'1936'
p2303
I2314
sS'1935'
p2304
I1274
sS'throw'
p2305
I2316
sS'sro'
p2306
I2317
sS'chop'
p2307
I1311
sS'degre'
p2308
I2319
sS'fell'
p2309
I3568
sS'wolf'
p2310
I2321
sS"isn't"
p2311
I2322
sS'underwat'
p2312
I2323
sS'assassin'
p2313
I2324
sS'dogbit'
p2314
I2325
sS'intermission"'
p2315
I2326
sS'dallasfort'
p2316
I2327
sS'earring'
p2317
I1352
sS'clerktypist"'
p2318
I2329
sS'nurs'
p2319
I2330
sS'airlin'
p2320
I2331
sS'your'
p2321
I2332
sS'stare'
p2322
I2333
sS'"even'
p2323
I2334
sS'jowl'
p2324
I2335
sS'tone"'
p2325
I1378
sS'start'
p2326
I1390
sS'fascin'
p2327
I2338
sS'starv'
p2328
I2339
sS'low'
p2329
I2340
sS'lot'
p2330
I2341
sS'valencia'
p2331
I1401
sS'premis'
p2332
I2343
sS'overpaid'
p2333
I2344
sS'groan'
p2334
I2346
sS'pitcher'
p2335
I2347
sS'you"'
p2336
I2348
sS'wellbuilt'
p2337
I2349
sS'bathtub"'
p2338
I2350
sS'cat"'
p2339
I2351
sS'are"'
p2340
I2352
sS'bucket'
p2341
I2353
sS'bessi'
p2342
I2354
sS'expect'
p2343
I5747
sS'vaselin'
p2344
I2355
sS'nerv'
p2345
I2356
sS'knut'
p2346
I2357
sS'mgs"'
p2347
I2358
sS'toteboard"'
p2348
I2359
sS'balloons"'
p2349
I2360
sS'you'
p2350
I2361
sS'details"'
p2351
I2362
sS'juic'
p2352
I2363
sS'poor'
p2353
I2364
sS'poop'
p2354
I2365
sS'guzzz'
p2355
I2366
sS'"cecelia"'
p2356
I2367
sS'drift'
p2357
I1568
sS'hospital"'
p2358
I2369
sS'track'
p2359
I3814
sS'peac'
p2360
I2370
sS'pool'
p2361
I2371
sS'transcribing"'
p2362
I2372
sS'$35'
p2363
I2373
sS'$32'
p2364
I2374
sS'hardon'
p2365
I2375
sS'moonlight'
p2366
I2376
sS'repay'
p2367
I2377
sS'"suppos'
p2368
I2378
sS'midtwenti'
p2369
I2379
sS'messi'
p2370
I2380
sS'bull'
p2371
I2381
sS'monti'
p2372
I2382
sS'month'
p2373
I2383
sS'anybody"'
p2374
I2384
sS'carpet'
p2375
I2385
sS'corps'
p2376
I896
sS'articl'
p2377
I2387
sS'"vincent'
p2378
I2388
sS'"hi'
p2379
I2389
sS'mess"'
p2380
I2390
sS'lakewood'
p2381
I2391
sS'"ha'
p2382
I2392
sS'"he'
p2383
I2393
sS'mph'
p2384
I2394
sS'mechan'
p2385
I4571
sS'veri'
p2386
I2396
sS'heaven'
p2387
I2397
sS'louie'
p2388
I2398
sS"i'll"
p2389
I2399
sS'track"'
p2390
I2400
sS'angleworm'
p2391
I2401
sS'orgasm'
p2392
I2402
sS'nana'
p2393
I2403
sS'lurch'
p2394
I2404
sS'skid'
p2395
I2405
sS'him"'
p2396
I2406
sS'essenc'
p2397
I2407
sS'bombed"'
p2398
I2408
sS'pacif'
p2399
I2409
sS'ballet'
p2400
I2410
sS'trunk'
p2401
I1853
sS'street"'
p2402
I2413
sS'strong'
p2403
I2414
sS'"catalina"'
p2404
I2415
sS'arena'
p2405
I2416
sS'ahead'
p2406
I2417
sS'cathi'
p2407
I2418
sS'vegetarian'
p2408
I2419
sS'womanfucker"'
p2409
I2420
sS'snappish'
p2410
I2421
sS'medicin'
p2411
I2422
sS'chunki'
p2412
I2423
sS'story"'
p2413
I1918
sS'famili'
p2414
I2425
sS'dangl'
p2415
I2426
sS'pregnant"'
p2416
I2427
sS'pup'
p2417
I2428
sS'massag'
p2418
I2429
sS'toadies"'
p2419
I2430
sS'saxoni'
p2420
I2431
sS'taken'
p2421
I2432
sS'$60000'
p2422
I2433
sS'virgin"'
p2423
I2435
sS'thrown'
p2424
I5762
sS'hurri'
p2425
I2437
sS'walldark'
p2426
I2438
sS'broke'
p2427
I2439
sS'macho'
p2428
I460
sS'histori'
p2429
I2440
sS'"ooooh'
p2430
I2441
sS'seaplan'
p2431
I2442
sS'nippl'
p2432
I2443
sS'"celine"'
p2433
I2444
sS'roommate"'
p2434
I2445
sS'kinds"'
p2435
I2446
sS'anoth'
p2436
I2447
sS'reject'
p2437
I2448
sS'idioci'
p2438
I2449
sS'honesttogod'
p2439
I2450
sS'sneak'
p2440
I2451
sS'embrac'
p2441
I2452
sS'fe'
p2442
I2453
sS'tilly"'
p2443
I2454
sS'gasp'
p2444
I2455
sS'vintag'
p2445
I2456
sS'a'
p2446
I2457
sS'racetrack'
p2447
I2165
sS'egg'
p2448
I2460
sS'help'
p2449
I2461
sS'reservoir'
p2450
I2462
sS'floozie"'
p2451
I2463
sS'soon'
p2452
I2464
sS'held'
p2453
I2465
sS'wrote"'
p2454
I2466
sS'erot'
p2455
I2467
sS'hell'
p2456
I2468
sS'panties"'
p2457
I2469
sS'fair"'
p2458
I2470
sS'obscen'
p2459
I2471
sS'astonish'
p2460
I2472
sS'delici'
p2461
I2473
sS"haven't"
p2462
I2474
sS'"close'
p2463
I2475
sS'ya'
p2464
I2476
sS'sentenc'
p2465
I2477
sS'guns"'
p2466
I2478
sS'chick"'
p2467
I2479
sS'vomit'
p2468
I2480
sS'foot'
p2469
I2481
sS'studi'
p2470
I1665
sS'system"'
p2471
I2482
sS'elder'
p2472
I2522
sS'fine"'
p2473
I2484
sS'bless'
p2474
I2485
sS'twice"'
p2475
I2486
sS'fulli'
p2476
I2487
sS'trailer'
p2477
I2488
sS'house"'
p2478
I2489
sS'heavi'
p2479
I2490
sS'beyond'
p2480
I2491
sS'"thursday"'
p2481
I2492
sS'safeti'
p2482
I2493
sS'wedlock'
p2483
I2494
sS'coeditor'
p2484
I2495
sS'publish'
p2485
I2496
sS'fountain'
p2486
I2497
sS'7'
p2487
I2498
sS'shrivel'
p2488
I2499
sS'jolli'
p2489
I2500
sS'ass'
p2490
I2501
sS'bald'
p2491
I1524
sS'dirt'
p2492
I2503
sS'puf'
p2493
I2504
sS'reason'
p2494
I2505
sS'base'
p2495
I2506
sS'put'
p2496
I2507
sS'ash'
p2497
I2508
sS'cross"'
p2498
I2509
sS'pur'
p2499
I2510
sS'daisi'
p2500
I2511
sS'veloc'
p2501
I2512
sS'script'
p2502
I5783
sS'revolutionari'
p2503
I2513
sS'american'
p2504
I2514
sS'dear"'
p2505
I2515
sS'businessmen'
p2506
I2516
sS'blush'
p2507
I2458
sS'feelings"'
p2508
I2518
sS'author"'
p2509
I2519
sS'"liberated"'
p2510
I2520
sS'loverand'
p2511
I2521
sS'squirt"'
p2512
I2483
sS'river'
p2513
I6177
sS'minutes"'
p2514
I2523
sS'miss'
p2515
I2524
sS'station'
p2516
I2525
sS'fingernail'
p2517
I2526
sS'scheme'
p2518
I2527
sS'banana'
p2519
I2528
sS'merciless'
p2520
I2529
sS'slosh'
p2521
I2530
sS'crap"'
p2522
I2531
sS'bowel'
p2523
I2532
sS'asshol'
p2524
I2533
sS'serious"'
p2525
I2534
sS'bravery"'
p2526
I2535
sS'grew'
p2527
I2536
sS'itthat'
p2528
I2537
sS'grey'
p2529
I2538
sS'groceri'
p2530
I2539
sS'bridg'
p2531
I2540
sS'toward'
p2532
I2541
sS'entranceway'
p2533
I2542
sS'brains"'
p2534
I2543
sS'juici'
p2535
I2544
sS'lid'
p2536
I2545
sS'lie'
p2537
I2546
sS'lib'
p2538
I2547
sS'"won\'t'
p2539
I2548
sS'from"'
p2540
I5793
sS'noon"'
p2541
I2549
sS'stapl'
p2542
I2550
sS'lit'
p2543
I2551
sS'lip'
p2544
I2552
sS'useless'
p2545
I2553
sS'performance"'
p2546
I2554
sS'eater'
p2547
I2555
sS'choos'
p2548
I2556
sS'sark'
p2549
I5551
sS'tallwalk'
p2550
I2557
sS'eaten'
p2551
I2558
sS'itnonsexuallya'
p2552
I2036
sS'"everybodi'
p2553
I2560
sS'clear'
p2554
I2561
sS'salari'
p2555
I2562
sS'tongu'
p2556
I2744
sS'sturdi'
p2557
I2564
sS'latest'
p2558
I2565
sS'feel"'
p2559
I2566
sS'cowgirl'
p2560
I2567
sS'workout"'
p2561
I2568
sS'crayon'
p2562
I2569
sS'randi'
p2563
I2571
sS'pretti'
p2564
I2572
sS'paranoid'
p2565
I2573
sS'flesh'
p2566
I1532
sS'with"'
p2567
I2575
sS'"thanksgiving"'
p2568
I2576
sS'king'
p2569
I5800
sS'heaven"'
p2570
I2578
sS'exerciseif'
p2571
I2579
sS'famous'
p2572
I2580
sS'3/4'
p2573
I2836
sS'basement'
p2574
I2582
sS'cash"'
p2575
I2583
sS'pussywhipped"'
p2576
I2584
sS'flight"'
p2577
I2585
sS'mailnoth'
p2578
I2586
sS'antiqu'
p2579
I2587
sS'geld'
p2580
I2588
sS'"arrrrggg'
p2581
I2589
sS'close'
p2582
I2590
sS'breast'
p2583
I2591
sS'foxhol'
p2584
I2592
sS'grandmoth'
p2585
I2593
sS'particip'
p2586
I2594
sS'won'
p2587
I2595
sS'years"'
p2588
I2596
sS'piss'
p2589
I2597
sS'dalla'
p2590
I2598
sS'numer'
p2591
I2599
sS'isol'
p2592
I2600
sS'spray'
p2593
I2601
sS'distinguish'
p2594
I2602
sS'zipper'
p2595
I2603
sS'stale'
p2596
I5808
sS'both'
p2597
I2605
sS'vengeance"'
p2598
I2606
sS"wouldn't"
p2599
I2607
sS'forgotten'
p2600
I2609
sS'rent"'
p2601
I488
sS'live"'
p2602
I2611
sS'puritan'
p2603
I3039
sS'pack"'
p2604
I2613
sS'"somebodi'
p2605
I2614
sS'hairpul'
p2606
I2615
sS'forgiv'
p2607
I2616
sS'"tessi'
p2608
I3085
sS'"other'
p2609
I2618
sS'territori'
p2610
I2619
sS'empti'
p2611
I2620
sS'damn'
p2612
I2621
sS'threaten'
p2613
I2622
sS'putthem'
p2614
I2623
sS'box'
p2615
I2624
sS'elsi'
p2616
I2625
sS'like"'
p2617
I2626
sS'regroup'
p2618
I2627
sS'imag'
p2619
I2628
sS'crack'
p2620
I1538
sS'bloodlettings"'
p2621
I2630
sS'jewish"'
p2622
I2631
sS'coordin'
p2623
I2632
sS'bobby\'s"'
p2624
I2633
sS'girlfriend"'
p2625
I5992
sS'look'
p2626
I2634
sS'invit'
p2627
I3627
sS'rope'
p2628
I2636
sS'"fante"'
p2629
I2637
sS'while'
p2630
I2638
sS'sideand'
p2631
I2639
sS'ought'
p2632
I2640
sS'loos'
p2633
I2641
sS'loop'
p2634
I2642
sS'pack'
p2635
I2643
sS'twentyon'
p2636
I2644
sS'readi'
p2637
I2645
sS'prick"'
p2638
I2646
sS'belong'
p2639
I2647
sS'grand'
p2640
I2648
sS'chugalug'
p2641
I2649
sS'hallway'
p2642
I2650
sS'read"'
p2643
I2651
sS'imagin'
p2644
I2652
sS'hello"'
p2645
I2653
sS'inflat'
p2646
I2654
sS'temporari'
p2647
I2655
sS'extrem'
p2648
I2656
sS'older'
p2649
I2657
sS'haul'
p2650
I1542
sS'grossli'
p2651
I2659
sS'grind'
p2652
I2660
sS'realiz'
p2653
I2661
sS'"our'
p2654
I2662
sS'"umm'
p2655
I2663
sS'"like'
p2656
I2664
sS'valerie"'
p2657
I2665
sS'"gonna'
p2658
I2666
sS'bloodr'
p2659
I2667
sS'percent'
p2660
I6455
sS'shortcut'
p2661
I2668
sS'cemeteri'
p2662
I2669
sS'"someth'
p2663
I2670
sS'longer"'
p2664
I2671
sS'distance"'
p2665
I2672
sS'roommat'
p2666
I3461
sS'judgment"'
p2667
I2674
sS'like'
p2668
I2677
sS'outright'
p2669
I2678
sS'pillar'
p2670
I3487
sS'resolv'
p2671
I2680
sS'manifest'
p2672
I2681
sS'popular'
p2673
I2682
sS'cruis'
p2674
I2683
sS'donni'
p2675
I2684
sS'scared"'
p2676
I2685
sS'"fifti'
p2677
I2686
sS'last"'
p2678
I2687
sS'cofife'
p2679
I2688
sS'some'
p2680
I2689
sS'undress'
p2681
I2690
sS'coney'
p2682
I2691
sS'coathang'
p2683
I2692
sS'besides"'
p2684
I2693
sS'stir'
p2685
I4118
sS'vincent"'
p2686
I2694
sS'chocol'
p2687
I2695
sS'debra'
p2688
I2696
sS'transplant'
p2689
I2697
sS'run'
p2690
I2698
sS'rub'
p2691
I2699
sS'rug'
p2692
I2700
sS'stem'
p2693
I2701
sS'step'
p2694
I2702
sS'saturday"'
p2695
I2703
sS'stew'
p2696
I2704
sS'shine'
p2697
I2705
sS'faith'
p2698
I3647
sS'reappear'
p2699
I2707
sS'shini'
p2700
I3663
sS'block'
p2701
I2709
sS'72'
p2702
I5832
sS'within'
p2703
I2711
sS'beedi'
p2704
I2712
sS'walks"'
p2705
I2713
sS'suitcas'
p2706
I2559
sS'"this"'
p2707
I2714
sS'smirnoff'
p2708
I2715
sS'institut'
p2709
I2716
sS'"anyth'
p2710
I2717
sS'clubhouse"'
p2711
I2718
sS'"math'
p2712
I2719
sS'amaz'
p2713
I5837
sS'himself'
p2714
I3797
sS'crapper'
p2715
I2722
sS'inept'
p2716
I2723
sS'blueblack'
p2717
I2724
sS'womengood'
p2718
I2725
sS'russian'
p2719
I2726
sS'dull'
p2720
I2727
sS'skull'
p2721
I2728
sS'refrig'
p2722
I2729
sS'chelsea'
p2723
I3872
sS'bever'
p2724
I2731
sS'cats"'
p2725
I2732
sS'precept'
p2726
I2733
sS'everybody"'
p2727
I2734
sS'cotton'
p2728
I2735
sS'"christ'
p2729
I2736
sS'titl'
p2730
I2737
sS'handmad'
p2731
I2738
sS'"folkrock"'
p2732
I3946
sS'manhattan'
p2733
I2740
sS'contracept'
p2734
I2741
sS'does"'
p2735
I2742
sS'middleag'
p2736
I2743
sS'clean'
p2737
I2563
sS'bodies"'
p2738
I3972
sS'resign'
p2739
I2746
sS'william'
p2740
I2747
sS'drag'
p2741
I2748
sS'evan'
p2742
I2749
sS'sudden"'
p2743
I2750
sS'"listen"'
p2744
I2751
sS'e'
p2745
I2752
sS'phoned"'
p2746
I2753
sS"she'd"
p2747
I2754
sS'"utah'
p2748
I2755
sS'pussy"'
p2749
I2756
sS'marvin"'
p2750
I2757
sS'merced'
p2751
I2758
sS'hilda'
p2752
I2759
sS'go'
p2753
I2760
sS'gi'
p2754
I2761
sS'halfcrazi'
p2755
I2762
sS'geranium'
p2756
I2763
sS'cutrat'
p2757
I2764
sS'airplan'
p2758
I2765
sS'wavi'
p2759
I2766
sS'wave'
p2760
I2767
sS'"are'
p2761
I2768
sS'more"'
p2762
I2769
sS'nausea'
p2763
I2770
sS'snide'
p2764
I2771
sS'stiff'
p2765
I2772
sS'button'
p2766
I2773
sS'teeth"'
p2767
I2774
sS'$2280'
p2768
I2775
sS'suit"'
p2769
I2776
sS'8count'
p2770
I516
sS'"here"'
p2771
I2778
sS'jump'
p2772
I2779
sS'booth'
p2773
I2780
sS'click'
p2774
I2781
sS'fli'
p2775
I3655
sS'poke'
p2776
I2783
sS'soup'
p2777
I3656
sS'reclus'
p2778
I2785
sS'thatbut'
p2779
I2786
sS'rotten'
p2780
I2787
sS'playa'
p2781
I2788
sS'grips"'
p2782
I2789
sS'becom'
p2783
I2790
sS'convers'
p2784
I2791
sS'vacat'
p2785
I2792
sS'painter'
p2786
I6315
sS'play"'
p2787
I2793
sS'impass'
p2788
I4319
sS'nameless'
p2789
I4324
sS'papa"'
p2790
I2796
sS'chanc'
p2791
I2797
sS'danger'
p2792
I2798
sS'win'
p2793
I2799
sS'wit'
p2794
I2800
sS'dentist"'
p2795
I2801
sS'"tammie"'
p2796
I2802
sS'"head"'
p2797
I4391
sS'camera'
p2798
I2804
sS'crab'
p2799
I2805
sS'remaind'
p2800
I2806
sS'fuck'
p2801
I3664
sS'couch"'
p2802
I2808
sS'huxley'
p2803
I2809
sS'starter'
p2804
I2810
sS'salad'
p2805
I2811
sS'ride'
p2806
I2812
sS'meet'
p2807
I2813
sS'control'
p2808
I2814
sS'wharf'
p2809
I2815
sS'halloween'
p2810
I2816
sS'skirt'
p2811
I2817
sS'toywind'
p2812
I2818
sS'18pounder'
p2813
I2819
sS'prevalent"'
p2814
I2820
sS'"pretti'
p2815
I2821
sS'vibe'
p2816
I2822
sS'230'
p2817
I2823
sS'bzzzzzz'
p2818
I2824
sS'"louie'
p2819
I2825
sS'"some'
p2820
I2826
sS'poetri'
p2821
I2827
sS'fare'
p2822
I2828
sS'pink'
p2823
I3669
sS'fart'
p2824
I2830
sS'masturb'
p2825
I2831
sS'craggi'
p2826
I2832
sS"od'd"
p2827
I2833
sS'cattl'
p2828
I2834
sS'"pillow'
p2829
I2835
sS'teethhh'
p2830
I2581
sS'sweet"'
p2831
I2837
sS'trumpets"'
p2832
I2838
sS'sperm'
p2833
I2839
sS"won't"
p2834
I2840
sS'brood'
p2835
I2841
sS'outer'
p2836
I2842
sS'pool"'
p2837
I4648
sS'broom'
p2838
I2844
sS'brook'
p2839
I2845
sS'bluegreen'
p2840
I2846
sS'"ok"'
p2841
I2847
sS'wellknown'
p2842
I2848
sS'handl'
p2843
I2849
sS'auto'
p2844
I2850
sS'tie\'"'
p2845
I2851
sS'front'
p2846
I2852
sS'bellydanc'
p2847
I2853
sS'somewher'
p2848
I2854
sS'professorship'
p2849
I2855
sS'"did'
p2850
I2856
sS'slide'
p2851
I2857
sS'anklet'
p2852
I4767
sS'707'
p2853
I2859
sS'700'
p2854
I2860
sS'drizzl'
p2855
I2861
sS'wine"'
p2856
I2862
sS'cigarettes"'
p2857
I2863
sS'142'
p2858
I2864
sS'special'
p2859
I2865
sS'russians"'
p2860
I2866
sS'intrud'
p2861
I3682
sS"needn't"
p2862
I2868
sS'confess'
p2863
I2869
sS'wick'
p2864
I2870
sS'time"'
p2865
I2871
sS'sexythos'
p2866
I4847
sS'"hepburn'
p2867
I2873
sS'"half'
p2868
I4855
sS'2yearold'
p2869
I2875
sS'sneer'
p2870
I2876
sS'inventivesh'
p2871
I2877
sS'kees'
p2872
I2878
sS'membership'
p2873
I3688
sS'keep'
p2874
I2880
sS'stride'
p2875
I2881
sS'right\'"'
p2876
I2883
sS'lancer'
p2877
I2884
sS'austin'
p2878
I2885
sS'qualiti'
p2879
I2886
sS'boyfriend"'
p2880
I2887
sS'bitch'
p2881
I2888
sS'drinker'
p2882
I2889
sS'be"'
p2883
I2890
sS'dove'
p2884
I541
sS'wrapper'
p2885
I2892
sS'attach'
p2886
I2893
sS'attack'
p2887
I2894
sS'privaci'
p2888
I2895
sS'man'
p2889
I3693
sS'final'
p2890
I2897
sS'beard'
p2891
I2898
sS'malibu'
p2892
I2899
sS'fuzzi'
p2893
I2900
sS'tissu'
p2894
I2901
sS'herself'
p2895
I2902
sS'neck'
p2896
I3694
sS'photograph'
p2897
I5377
sS'ben'
p2898
I2905
sS'bel'
p2899
I2906
sS'cartoonist'
p2900
I2907
sS'"enough'
p2901
I2908
sS'bed'
p2902
I2909
sS'bee'
p2903
I2910
sS'claim'
p2904
I2911
sS'discolor'
p2905
I2912
sS'spurt'
p2906
I2913
sS'bet'
p2907
I2914
sS'exhibit'
p2908
I2915
sS'stockingssh'
p2909
I2916
sS'uptight"'
p2910
I2917
sS'tabl'
p2911
I2918
sS'need'
p2912
I2919
sS'border'
p2913
I2920
sS'screw'
p2914
I2921
sS'bastard'
p2915
I2922
sS'innard'
p2916
I2923
sS'so'
p2917
I2924
sS'mongrel'
p2918
I2925
sS'energet'
p2919
I2926
sS'od\'d"'
p2920
I2927
sS'discov'
p2921
I2928
sS'tall'
p2922
I3701
sS'tab"'
p2923
I2930
sS'stereo'
p2924
I5196
sS'upset'
p2925
I2932
sS'"great'
p2926
I2933
sS'affair'
p2927
I2934
sS'$500'
p2928
I2935
sS'anyway'
p2929
I2936
sS'slow"'
p2930
I2937
sS'lydia"'
p2931
I2938
sS'"saturday'
p2932
I2939
sS'tire'
p2933
I2940
sS'winner'
p2934
I2941
sS'forev'
p2935
I5275
sS'envi'
p2936
I2943
sS'slime"'
p2937
I2944
sS'highris'
p2938
I2945
sS'womenfrighten'
p2939
I2946
sS'120'
p2940
I2947
sS'121'
p2941
I2948
sS'122'
p2942
I2949
sS'123'
p2943
I2950
sS'124'
p2944
I2951
sS'125'
p2945
I2952
sS'126'
p2946
I2953
sS'127'
p2947
I2954
sS'buyer'
p2948
I5322
sS'129'
p2949
I2956
sS'"which'
p2950
I2957
sS'pass"'
p2951
I2958
sS'endless'
p2952
I2959
sS'gray'
p2953
I2960
sS'enabl'
p2954
I2961
sS'countrysid'
p2955
I2962
sS'had"'
p2956
I2963
sS'topaz'
p2957
I2964
sS'"phone'
p2958
I2965
sS'she'
p2959
I5350
sS'contain'
p2960
I2967
sS'grab'
p2961
I2968
sS'strumpet"'
p2962
I2969
sS'pitch'
p2963
I3707
sS'driveway'
p2964
I3328
sS'middle"'
p2965
I2972
sS'statu'
p2966
I2973
sS'"sleep'
p2967
I2974
sS'luv'
p2968
I2975
sS'allgreen'
p2969
I2976
sS'tend'
p2970
I2977
sS'written'
p2971
I5416
sS'tens'
p2972
I2979
sS'neither'
p2973
I2980
sS'mind"'
p2974
I5428
sS'bleed'
p2975
I4548
sS'merri'
p2976
I2982
sS'key'
p2977
I2983
sS'distracting"'
p2978
I2984
sS'waitress\'"'
p2979
I2985
sS'admit'
p2980
I2986
sS'admir'
p2981
I1555
sS'jim'
p2982
I2988
sS'tuesday'
p2983
I2989
sS'bronson'
p2984
I2990
sS'lifetime"'
p2985
I2991
sS'sense"'
p2986
I2992
sS'together"'
p2987
I2993
sS'quit'
p2988
I3352
sS'slowli'
p2989
I2995
sS'reptil'
p2990
I2996
sS'sara'
p2991
I2997
sS'cent'
p2992
I2998
sS'treat'
p2993
I2999
sS'garter'
p2994
I3000
sS'poet'
p2995
I3001
sS'"partypoopers"'
p2996
I3002
sS'"total'
p2997
I3003
sS'"with'
p2998
I3004
sS'$1750'
p2999
I3005
sS'furnitur'
p3000
I3006
sS'novel'
p3001
I3007
sS'harder'
p3002
I3008
sS'inn'
p3003
I1605
sS'harden'
p3004
I3009
sS'cartonspil'
p3005
I3010
sS'will"'
p3006
I3011
sS'fondl'
p3007
I3012
sS'neurot'
p3008
I3013
sS'wreck'
p3009
I3162
sS'reviv'
p3010
I3014
sS'parta'
p3011
I3015
sS'parti'
p3012
I3016
sS'began'
p3013
I3017
sS'speaker'
p3014
I3018
sS'northwest'
p3015
I3019
sS'underground'
p3016
I3020
sS'strangl'
p3017
I3021
sS'killer'
p3018
I3022
sS'strangeeveri'
p3019
I3023
sS'ankl'
p3020
I3024
sS'effect'
p3021
I3025
sS'vault'
p3022
I2610
sS'"turn'
p3023
I3026
sS'part"'
p3024
I3027
sS'i'
p3025
I3028
sS'well'
p3026
I3029
sS'riff'
p3027
I3030
sS'oooooh"'
p3028
I3031
sS'distanc'
p3029
I3032
sS'bottom"'
p3030
I3033
sS'barmaid'
p3031
I3034
sS'41'
p3032
I3036
sS'shorelin'
p3033
I3038
sS'titti'
p3034
I3040
sS'"here'
p3035
I3041
sS'kick'
p3036
I3042
sS'rafter'
p3037
I3043
sS'dover"'
p3038
I3044
sS'utah'
p3039
I3045
sS'sweep'
p3040
I5900
sS'263'
p3041
I3047
sS'262'
p3042
I3048
sS'261'
p3043
I3049
sS'260'
p3044
I3050
sS'267'
p3045
I3051
sS'266'
p3046
I3052
sS'unseen'
p3047
I3053
sS'264'
p3048
I3054
sS'269'
p3049
I3055
sS'268'
p3050
I3056
sS'"who"'
p3051
I3057
sS'lost'
p3052
I3058
sS'"two'
p3053
I3059
sS'necessari'
p3054
I3060
sS'lose'
p3055
I3061
sS'candl'
p3056
I4445
sS'page'
p3057
I3063
sS'candi'
p3058
I3064
sS'"care'
p3059
I3065
sS'batteri'
p3060
I3066
sS'homo'
p3061
I3067
sS'warmer'
p3062
I3068
sS'home'
p3063
I3069
sS'peter'
p3064
I3070
sS'librari'
p3065
I3071
sS'before"'
p3066
I3072
sS'iris"'
p3067
I3268
sS'fabulous"'
p3068
I3074
sS'clean"'
p3069
I3075
sS'glendal'
p3070
I3076
sS'encourag'
p3071
I3077
sS'she"'
p3072
I3078
sS'tigerth'
p3073
I3079
sS'fresh"'
p3074
I3080
sS'instinct'
p3075
I3081
sS'quarter'
p3076
I3082
sS'freedom'
p3077
I3083
sS'nightclub'
p3078
I3084
sS'stamp'
p3079
I2617
sS'court"'
p3080
I3086
sS'washington'
p3081
I3087
sS'times"'
p3082
I3088
sS'"this'
p3083
I4962
sS'manny"'
p3084
I3089
sS'museum'
p3085
I3090
sS'poinsettia'
p3086
I3091
sS'themal'
p3087
I3092
sS'inner'
p3088
I3093
sS'cricket'
p3089
I3094
sS'"hank'
p3090
I3095
sS'north'
p3091
I3096
sS'agre'
p3092
I3097
sS'neutral'
p3093
I3098
sS'whistl'
p3094
I3099
sS'"tonight"'
p3095
I3100
sS'eas'
p3096
I3101
sS'ear'
p3097
I3102
sS'eat'
p3098
I3103
sS'he'
p3099
I3104
sS'notice"'
p3100
I3105
sS'unlock'
p3101
I3733
sS'limit'
p3102
I3107
sS'eyes"'
p3103
I3108
sS'bottles"'
p3104
I3109
sS'worstboth'
p3105
I3110
sS'friend"'
p3106
I3111
sS'twist'
p3107
I3112
sS'prostitut'
p3108
I578
sS'bedrooms"'
p3109
I3114
sS'crummi'
p3110
I3115
sS'futur'
p3111
I3116
sS'cardboard'
p3112
I3117
sS'chemist'
p3113
I3118
sS'bedspread"'
p3114
I3119
sS'star'
p3115
I3120
sS'yours"'
p3116
I3121
sS'frienda'
p3117
I3122
sS'stay'
p3118
I3123
sS'stab'
p3119
I3124
sS'appoint'
p3120
I3125
sS'chippi'
p3121
I3126
sS'sphinx'
p3122
I3127
sS'"move'
p3123
I3128
sS'alone\'"'
p3124
I3129
sS'"movi'
p3125
I3130
sS'"the'
p3126
I3131
sS'better"'
p3127
I3132
sS'knelt'
p3128
I3133
sS'paprika"'
p3129
I3134
sS'captain'
p3130
I3135
sS'"sara'
p3131
I3136
sS'"tonto"'
p3132
I3137
sS'whose'
p3133
I3138
sS'accur'
p3134
I3139
sS'swam'
p3135
I3140
sS'sorri'
p3136
I3141
sS'sweetest'
p3137
I53
sS'buddi'
p3138
I3143
sS'fronti'
p3139
I3144
sS'sway'
p3140
I3145
sS'outthey'
p3141
I3146
sS'voic'
p3142
I3147
sS'vase'
p3143
I3148
sS'"knock'
p3144
I3149
sS'smack'
p3145
I3150
sS'today"'
p3146
I3151
sS'affect'
p3147
I114
sS'present"'
p3148
I3153
sS'offense"'
p3149
I3154
sS'exconcert'
p3150
I3155
sS'me"'
p3151
I3156
sS'crave'
p3152
I3157
sS'"write"'
p3153
I3158
sS'helluva'
p3154
I3159
sS'landlordh'
p3155
I3160
sS'even'
p3156
I3161
sS'pace'
p3157
I2608
sS'asid'
p3158
I3163
sS'lightn'
p3159
I3164
sS'"bobby"'
p3160
I3165
sS'jackoff'
p3161
I3166
sS'rest"'
p3162
I247
sS'net'
p3163
I3168
sS'ever'
p3164
I3169
sS'hazi'
p3165
I3170
sS'elimin'
p3166
I3171
sS'behavior'
p3167
I5921
sS'filbert'
p3168
I3173
sS'seventh'
p3169
I3174
sS'men'
p3170
I275
sS'mei'
p3171
I3176
sS'drew'
p3172
I277
sS'met'
p3173
I3178
sS'108'
p3174
I3179
sS'109'
p3175
I3180
sS'paso'
p3176
I876
sS'screamedth'
p3177
I3181
sS'102'
p3178
I3182
sS'103'
p3179
I3183
sS'100'
p3180
I3184
sS"aren't"
p3181
I300
sS'106'
p3182
I3186
sS'107'
p3183
I3187
sS'104'
p3184
I3188
sS'105'
p3185
I3189
sS'light"'
p3186
I3190
sS'eve"'
p3187
I3191
sS'dri'
p3188
I3192
sS'jame'
p3189
I3193
sS'purplishpink'
p3190
I1739
sS'across"'
p3191
I3748
sS'counti'
p3192
I3195
sS'nineti'
p3193
I3196
sS'homemad'
p3194
I3197
sS'avenu'
p3195
I3198
sS'jacketw'
p3196
I3199
sS'moral'
p3197
I3200
sS'movie"'
p3198
I3201
sS'crash"'
p3199
I3202
sS'stevens"'
p3200
I3203
sS'calv'
p3201
I3204
sS'stories"'
p3202
I3205
sS'overhead'
p3203
I404
sS'calm'
p3204
I3207
sS'right"'
p3205
I3208
sS'armi'
p3206
I3209
sS'type'
p3207
I3210
sS'tell'
p3208
I3211
sS'calf'
p3209
I3212
sS'wart'
p3210
I3213
sS'count"'
p3211
I3214
sS'warn'
p3212
I3215
sS'warm'
p3213
I3216
sS'grandfath'
p3214
I447
sS'adult'
p3215
I3218
sS'worst'
p3216
I5628
sS'$40'
p3217
I4831
sS'"busi'
p3218
I3220
sS'room'
p3219
I3221
sS'thirtyseven'
p3220
I3222
sS'roof'
p3221
I3223
sS'bungalow'
p3222
I3224
sS'waiting"'
p3223
I3225
sS'root'
p3224
I3226
sS'vodka'
p3225
I3227
sS'ego"'
p3226
I3228
sS'give'
p3227
I3229
sS'climax'
p3228
I3230
sS'old\'"'
p3229
I3756
sS'polic'
p3230
I3232
sS'intestin'
p3231
I3233
sS'answer'
p3232
I3234
sS'transatlant'
p3233
I3235
sS'polit'
p3234
I572
sS'food"'
p3235
I3237
sS'vicious'
p3236
I3238
sS'waterfront'
p3237
I3239
sS'$1794"'
p3238
I3240
sS'loyalti'
p3239
I603
sS'attempt'
p3240
I3242
sS'third'
p3241
I3243
sS'snoring"'
p3242
I3758
sS'still"'
p3243
I3245
sS'arous'
p3244
I4839
sS'"where\'v'
p3245
I3247
sS'foresaw'
p3246
I3248
sS'"cheap'
p3247
I3249
sS'deck'
p3248
I3250
sS'privileg'
p3249
I3251
sS'windshield'
p3250
I3252
sS'gentl'
p3251
I3253
sS'then"'
p3252
I3254
sS'better'
p3253
I3256
sS'"larri'
p3254
I3257
sS'persist'
p3255
I3258
sS'girlwoman'
p3256
I3259
sS'bastards"'
p3257
I3260
sS'anim'
p3258
I3261
sS'therapi'
p3259
I3262
sS'promin'
p3260
I3263
sS'promis'
p3261
I3264
sS'grammar'
p3262
I3265
sS'meat'
p3263
I3266
sS'week"'
p3264
I3267
sS'roast'
p3265
I776
sS'went'
p3266
I3270
sS'sliver'
p3267
I5936
sS'meal'
p3268
I782
sS'bone'
p3269
I3273
sS'luck'
p3270
I785
sS'hitchhik'
p3271
I3275
sS'growing"'
p3272
I6136
sS'enorm'
p3273
I3276
sS'icebox"'
p3274
I3277
sS'lowcut'
p3275
I3278
sS'taught'
p3276
I3279
sS'doug'
p3277
I819
sS'dawn'
p3278
I3281
sS'collector'
p3279
I3283
sS'content'
p3280
I3284
sS'reader'
p3281
I857
sS'is"'
p3282
I3286
sS'message"'
p3283
I3287
sS'hermosa'
p3284
I3288
sS'comedown'
p3285
I3289
sS'situat'
p3286
I3290
sS'245'
p3287
I3291
sS'244'
p3288
I3292
sS'247'
p3289
I3293
sS'246'
p3290
I3294
sS'241'
p3291
I3295
sS'240'
p3292
I3296
sS'243'
p3293
I3297
sS'242'
p3294
I3298
sS'249'
p3295
I3299
sS'248'
p3296
I3300
sS'welfar'
p3297
I3301
sS'sunshin'
p3298
I3302
sS'startl'
p3299
I3304
sS'slut"'
p3300
I3305
sS'loud'
p3301
I3306
sS'stewart'
p3302
I3307
sS'hoot'
p3303
I3308
sS'buttock'
p3304
I3309
sS'hook'
p3305
I3310
sS'massiv'
p3306
I971
sS'hoof'
p3307
I3312
sS'hood'
p3308
I3313
sS'knack'
p3309
I5939
sS'spinach'
p3310
I3315
sS'knight"'
p3311
I3316
sS'sometim'
p3312
I3317
sS'begin"'
p3313
I3318
sS'shiver'
p3314
I605
sS'hollywood'
p3315
I3320
sS'floor"'
p3316
I3321
sS'gym'
p3317
I3322
sS'direct'
p3318
I4852
sS'obnoxi'
p3319
I3324
sS'fiction"'
p3320
I3325
sS'somewhat'
p3321
I3326
sS'gambler'
p3322
I3327
sS'conveni'
p3323
I3329
sS'silli'
p3324
I3330
sS'affront'
p3325
I3331
sS'body"'
p3326
I3332
sS'matter'
p3327
I3333
sS'solomon'
p3328
I3334
sS'street'
p3329
I4854
sS'girl"'
p3330
I3336
sS'seep'
p3331
I3337
sS'modern'
p3332
I3338
sS'mind'
p3333
I3339
sS'mine'
p3334
I3340
sS'seee'
p3335
I3341
sS'seed'
p3336
I3342
sS'seen'
p3337
I3343
sS'seem'
p3338
I3344
sS'seamstress'
p3339
I1125
sS'"guess"'
p3340
I3346
sS'do"'
p3341
I3347
sS'chest'
p3342
I3348
sS'chess'
p3343
I3349
sS'"sign'
p3344
I3350
sS'tell"'
p3345
I3351
sS'regular'
p3346
I3353
sS'see"'
p3347
I3354
sS'hood"'
p3348
I3355
sS'm'
p3349
I3356
sS'dog'
p3350
I3357
sS'doe'
p3351
I3358
sS'scotch'
p3352
I3359
sS'dover'
p3353
I3360
sS'hunger'
p3354
I3361
sS'visitor'
p3355
I3362
sS'liza'
p3356
I3363
sS'"goodby'
p3357
I3364
sS'places"'
p3358
I5953
sS'despit'
p3359
I3365
sS'despis'
p3360
I3366
sS'explain'
p3361
I3367
sS'monica'
p3362
I3368
sS'"zagzig"'
p3363
I3369
sS'blur'
p3364
I4863
sS'stop'
p3365
I3371
sS'janis"'
p3366
I3372
sS'coast'
p3367
I3373
sS'12'
p3368
I3781
sS'mutual'
p3369
I6452
sS'earn'
p3370
I3375
sS'bar'
p3371
I3376
sS'bag'
p3372
I3377
sS'bad'
p3373
I3378
sS'drawbridg'
p3374
I3379
sS'stinger'
p3375
I3380
sS'enchant'
p3376
I3381
sS'pile'
p3377
I4288
sS'starkist'
p3378
I3382
sS'pete'
p3379
I3383
sS'said'
p3380
I3384
sS"there'd"
p3381
I3385
sS"there'l"
p3382
I3386
sS'"shoot"'
p3383
I3387
sS'vitamin'
p3384
I3388
sS'lotion'
p3385
I3389
sS'lazi'
p3386
I3390
sS'harvard'
p3387
I3391
sS'ambitious"'
p3388
I3392
sS'motto'
p3389
I1495
sS'weari'
p3390
I3395
sS'against'
p3391
I3396
sS'pretendersgot'
p3392
I3397
sS'typist'
p3393
I3398
sS'gusher'
p3394
I3399
sS'boys"'
p3395
I3400
sS'recur'
p3396
I3401
sS'"ladi'
p3397
I3402
sS'three'
p3398
I3403
sS'now"'
p3399
I1575
sS'tina'
p3400
I1586
sS'basic'
p3401
I3406
sS'basin'
p3402
I3407
sS'tini'
p3403
I3408
sS'threw'
p3404
I3409
sS'lantern"'
p3405
I3410
sS'deeper'
p3406
I3411
sS'"sorry"'
p3407
I3412
sS'111'
p3408
I6388
sS'168'
p3409
I3413
sS'169'
p3410
I3414
sS'164'
p3411
I3415
sS'165'
p3412
I3416
sS'166'
p3413
I3417
sS'honesttochrist'
p3414
I623
sS'160'
p3415
I3419
sS'161'
p3416
I3420
sS'162'
p3417
I3421
sS'163'
p3418
I3422
sS'ugli'
p3419
I3423
sS'tank'
p3420
I3424
sS'servic'
p3421
I3425
sS'wellmoth'
p3422
I1652
sS'exwoman'
p3423
I3427
sS'near'
p3424
I3428
sS'neat'
p3425
I3429
sS'papers"'
p3426
I3430
sS'whorehous'
p3427
I2328
sS'"either'
p3428
I3431
sS'seven'
p3429
I3432
sS'metropolitan'
p3430
I3433
sS'mexico'
p3431
I3434
sS'diaphragm'
p3432
I3435
sS'theatr'
p3433
I3436
sS'it'
p3434
I1686
sS'meet"'
p3435
I3438
sS'shame'
p3436
I3439
sS'in'
p3437
I3440
sS'id'
p3438
I3441
sS'sever'
p3439
I3442
sS'if'
p3440
I3443
sS'grown'
p3441
I3444
sS'belli'
p3442
I3445
sS'receiv'
p3443
I3446
sS'make'
p3444
I3447
sS'polaroid'
p3445
I3448
sS'cellophan'
p3446
I3449
sS'can"'
p3447
I3451
sS'i7'
p3448
I3452
sS'delight'
p3449
I3453
sS'jealous'
p3450
I3454
sS"he'll"
p3451
I3455
sS'kid'
p3452
I3456
sS'butter'
p3453
I3457
sS'wideey'
p3454
I3458
sS'paris"'
p3455
I3459
sS'80"'
p3456
I3460
sS'cunthairrub'
p3457
I4207
sS'inherit'
p3458
I3462
sS'bedspread'
p3459
I3463
sS'bottle"'
p3460
I3464
sS'cool"'
p3461
I3465
sS'left'
p3462
I3466
sS'agon'
p3463
I3467
sS'just'
p3464
I3468
sS'nowaday'
p3465
I3469
sS'unfair'
p3466
I3470
sS'germany"'
p3467
I3471
sS'human'
p3468
I3472
sS'yes'
p3469
I3473
sS'feet"'
p3470
I1831
sS'yet'
p3471
I3475
sS'sensat'
p3472
I3476
sS'save'
p3473
I3477
sS'"shit'
p3474
I630
sS'dreami'
p3475
I3479
sS'advis'
p3476
I3480
sS'ago"'
p3477
I3481
sS'vancouver"'
p3478
I3482
sS'shoulder'
p3479
I3483
sS'justice"'
p3480
I3484
sS'nudg'
p3481
I3485
sS'noth'
p3482
I3486
sS'signal'
p3483
I2679
sS'deal'
p3484
I3488
sS'somehow'
p3485
I3489
sS'dead'
p3486
I3490
sS'intern'
p3487
I3491
sS'colorin'
p3488
I3492
sS'dear'
p3489
I3493
sS'pain'
p3490
I3810
sS'interf'
p3491
I3495
sS'sardon'
p3492
I1968
sS'island"'
p3493
I3497
sS'normal'
p3494
I3498
sS'picasso"'
p3495
I3499
sS'onehalf'
p3496
I1129
sS'subdu'
p3497
I3501
sS'bullfight'
p3498
I3502
sS'creatur'
p3499
I3503
sS'insecur'
p3500
I3504
sS'burn'
p3501
I3505
sS'buri'
p3502
I3506
sS'bolt'
p3503
I2028
sS'frightened"'
p3504
I3508
sS'winehead'
p3505
I3509
sS'afternoon'
p3506
I3510
sS'commit'
p3507
I3511
sS'marshal'
p3508
I3512
sS'telephon'
p3509
I3513
sS'herrug'
p3510
I3514
sS'for"'
p3511
I3515
sS'carrot'
p3512
I6102
sS'rearview'
p3513
I3516
sS'down'
p3514
I3517
sS'midnight"'
p3515
I3519
sS'imit'
p3516
I3521
sS'editor'
p3517
I3522
sS'jealousi'
p3518
I3523
sS'eleven"'
p3519
I3524
sS'form'
p3520
I3525
sS'forc'
p3521
I3526
sS'22"'
p3522
I3527
sS'diffident"'
p3523
I3528
sS'chinaski"'
p3524
I3529
sS'diaper'
p3525
I2191
sS'229'
p3526
I3531
sS'228'
p3527
I3532
sS'227'
p3528
I3533
sS'226'
p3529
I3534
sS'225'
p3530
I3535
sS'224'
p3531
I3536
sS'223'
p3532
I3537
sS'222'
p3533
I3538
sS'221'
p3534
I3539
sS'220'
p3535
I3540
sS'"well'
p3536
I3541
sS'10count'
p3537
I3542
sS'whiskey'
p3538
I3543
sS'jealous"'
p3539
I3544
sS'ofabitch"'
p3540
I3545
sS'waterbed"'
p3541
I3546
sS'featur'
p3542
I3547
sS'classic'
p3543
I3548
sS'toss'
p3544
I3549
sS'sidestep'
p3545
I3550
sS'sale'
p3546
I3551
sS'scrawl'
p3547
I3552
sS'bogart'
p3548
I3553
sS'glanc'
p3549
I3554
sS'ship'
p3550
I3555
sS'shit'
p3551
I3556
sS'burrough'
p3552
I3557
sS'excel'
p3553
I3558
sS'"when"'
p3554
I3559
sS'communic'
p3555
I3560
sS'"us"'
p3556
I3561
sS'mistaken"'
p3557
I3562
sS'termswa'
p3558
I3563
sS'readings"'
p3559
I3564
sS'garland'
p3560
I3565
sS'felt'
p3561
I3566
sS'diet'
p3562
I3567
sS'journey'
p3563
I2320
sS'stoke'
p3564
I3569
sS'weekend'
p3565
I3570
sS'femal'
p3566
I3571
sS'potato'
p3567
I3572
sS'something"'
p3568
I3573
sS'jacket'
p3569
I3574
sS'luckier'
p3570
I3575
sS'ignor'
p3571
I3576
sS'teeth'
p3572
I3577
sS'daili'
p3573
I3578
sS'invent'
p3574
I3579
sS'laura'
p3575
I3580
sS'mild'
p3576
I3581
sS'mile'
p3577
I3582
sS'skin'
p3578
I3583
sS'bomber'
p3579
I3584
sS'milk'
p3580
I3585
sS'travel"'
p3581
I3586
sS'depend'
p3582
I3587
sS'father'
p3583
I3588
sS'"frenchy"'
p3584
I3589
sS'drinking"'
p3585
I3590
sS'editori'
p3586
I3591
sS'razorblad'
p3587
I5977
sS'me'
p3588
I3593
sS'string'
p3589
I3594
sS'attractive"'
p3590
I3595
sS'muleshead'
p3591
I5978
sS'stiffen'
p3592
I3597
sS'did'
p3593
I3598
sS'die'
p3594
I3599
sS'dig'
p3595
I3600
sS'item'
p3596
I3601
sS'dip'
p3597
I3602
sS'round'
p3598
I3603
sS"it'll"
p3599
I2517
sS'shave'
p3600
I3605
sS'else"'
p3601
I3606
sS'angeles"'
p3602
I3607
sS'edie"'
p3603
I3608
sS'worn'
p3604
I3609
sS'peddl'
p3605
I3610
sS'suspect'
p3606
I3612
sS'addl'
p3607
I3613
sS'wail'
p3608
I3614
sS'wearili'
p3609
I3615
sS'clerk'
p3610
I3616
sS'makeup'
p3611
I3617
sS'stallion'
p3612
I3618
sS'french'
p3613
I3619
sS'"would'
p3614
I3620
sS'detest'
p3615
I3621
sS'wait'
p3616
I3622
sS'invis'
p3617
I3623
sS'boy'
p3618
I3624
sS'insan'
p3619
I3625
sS'"lisa'
p3620
I3626
sS'canadian'
p3621
I2635
sS'shift'
p3622
I3628
sS'bow'
p3623
I3629
sS'"woman"'
p3624
I3630
sS'here"'
p3625
I3631
sS'bob'
p3626
I3632
sS'nylon'
p3627
I3633
sS'bog'
p3628
I3634
sS'plumb'
p3629
I3635
sS'stiletto'
p3630
I3636
sS'eccentr'
p3631
I3637
sS'ways"'
p3632
I3638
sS'wealth'
p3633
I3639
sS'sake'
p3634
I3640
sS'univers'
p3635
I3641
sS'visit'
p3636
I3642
sS'everybodi'
p3637
I3643
sS'christmas"'
p3638
I3644
sS'peru'
p3639
I3645
sS'checkout'
p3640
I3646
sS'competition"'
p3641
I2706
sS'hotel"'
p3642
I3648
sS'downtown'
p3643
I3649
sS'tandem'
p3644
I3650
sS'indic'
p3645
I3651
sS'examin'
p3646
I3652
sS'effort'
p3647
I3653
sS'soul'
p3648
I3654
sS'"john'
p3649
I2782
sS'wallet'
p3650
I2784
sS'9th'
p3651
I3657
sS'greetings"'
p3652
I3658
sS'nearest'
p3653
I3659
sS'reflector'
p3654
I3660
sS'kenneth'
p3655
I3661
sS'predict'
p3656
I3662
sS'forget"'
p3657
I2708
sS'guy"'
p3658
I2807
sS'agent'
p3659
I3665
sS'drawer'
p3660
I3666
sS'crazi'
p3661
I3667
sS'craze'
p3662
I3668
sS'purs'
p3663
I2829
sS'subnorm'
p3664
I3670
sS'get'
p3665
I3671
sS'sunday'
p3666
I3672
sS'pure'
p3667
I3673
sS'tile'
p3668
I3674
sS'pint'
p3669
I3675
sS'146'
p3670
I3676
sS'147'
p3671
I3677
sS'144'
p3672
I3678
sS'145'
p3673
I3679
sS'"should'
p3674
I3680
sS'143'
p3675
I3681
sS'140'
p3676
I2867
sS'141'
p3677
I3683
sS'may'
p3678
I3684
sS'max'
p3679
I3685
sS'fed'
p3680
I6082
sS'148'
p3681
I3686
sS'149'
p3682
I3687
sS'mac'
p3683
I2879
sS'mad'
p3684
I3689
sS'mag'
p3685
I3690
sS'tablecloth'
p3686
I3691
sS'grow'
p3687
I3692
sS'accessori'
p3688
I2896
sS'waist'
p3689
I2903
sS'repuls'
p3690
I3695
sS'disembowel'
p3691
I3696
sS'tale'
p3692
I3697
sS'switch'
p3693
I3698
sS'jail'
p3694
I3699
sS'basket'
p3695
I3700
sS'longhand'
p3696
I2929
sS'$950'
p3697
I1706
sS'talk'
p3698
I3703
sS'uncork'
p3699
I3704
sS'cute'
p3700
I3705
sS'gradual'
p3701
I3706
sS'shake'
p3702
I2970
sS'peroxid'
p3703
I3708
sS'equip'
p3704
I3709
sS'jock'
p3705
I3710
sS'group'
p3706
I3711
sS'thank'
p3707
I3712
sS'maid'
p3708
I3713
sS'mail'
p3709
I3714
sS'main'
p3710
I3715
sS'tonic'
p3711
I3716
sS'financi'
p3712
I3717
sS'automobil'
p3713
I3718
sS'sooner'
p3714
I3719
sS'lunch'
p3715
I3720
sS'kids"'
p3716
I3721
sS'agoni'
p3717
I1709
sS'bullshit'
p3718
I3723
sS'possess'
p3719
I3724
sS'sizzl'
p3720
I3725
sS'oliv'
p3721
I3726
sS'enrag'
p3722
I3727
sS'ledg'
p3723
I3728
sS'rock'
p3724
I3729
sS'hijack'
p3725
I3730
sS'continu'
p3726
I3732
sS'selfhypnosis"'
p3727
I3106
sS'aloof'
p3728
I3734
sS'girl'
p3729
I3735
sS'canada'
p3730
I3736
sS'stitch'
p3731
I3737
sS'3rd'
p3732
I3738
sS'yes"'
p3733
I3739
sS'goes"'
p3734
I3740
sS'dutch'
p3735
I3741
sS'"you\'ll'
p3736
I3742
sS'beedie"'
p3737
I5681
sS'correct'
p3738
I3744
sS'earlier'
p3739
I3745
sS'monster'
p3740
I3746
sS'headlin'
p3741
I3747
sS'california'
p3742
I3194
sS'cough'
p3743
I3749
sS'"darlenemi'
p3744
I3750
sS'underwear'
p3745
I3751
sS'"hello'
p3746
I3752
sS'dressthat'
p3747
I3753
sS'waiter'
p3748
I3754
sS'where'
p3749
I667
sS'thing'
p3750
I3231
sS'think'
p3751
I3757
sS'frequent'
p3752
I3244
sS'first'
p3753
I3759
sS'carri'
p3754
I3760
sS'question'
p3755
I5994
sS'"cheer'
p3756
I3762
sS'crib'
p3757
I3763
sS'eye"'
p3758
I3764
sS'fast'
p3759
I5995
sS'arch'
p3760
I3766
sS'slept'
p3761
I3767
sS'ambul'
p3762
I3768
sS'averag'
p3763
I3769
sS'ambut'
p3764
I3770
sS'foreplay'
p3765
I3771
sS'poemsabout'
p3766
I3772
sS'"there'
p3767
I3773
sS'broadcast'
p3768
I3774
sS'butt'
p3769
I3776
sS'discharge"'
p3770
I3777
sS'11'
p3771
I3778
sS'10'
p3772
I3779
sS'13'
p3773
I3780
sS'orgi'
p3774
I3374
sS'15'
p3775
I3782
sS'14'
p3776
I3783
sS'17'
p3777
I3784
sS'16'
p3778
I3785
sS'19'
p3779
I3786
sS'18'
p3780
I3787
sS'gotta'
p3781
I3788
sS'anymore"'
p3782
I3789
sS'"sorri'
p3783
I3790
sS'were'
p3784
I3791
sS'"want'
p3785
I3792
sS'lick'
p3786
I3793
sS'customers"'
p3787
I3794
sS'"free"'
p3788
I3795
sS'bet"'
p3789
I3796
sS'larri'
p3790
I2721
sS'coming"'
p3791
I3798
sS'zagzig"'
p3792
I3799
sS'clung'
p3793
I3800
sS'squat'
p3794
I3801
sS'squar'
p3795
I3802
sS'mother\'s"'
p3796
I3803
sS'"yeah'
p3797
I3804
sS'charming"'
p3798
I3805
sS'201'
p3799
I3806
sS'200'
p3800
I3807
sS'203'
p3801
I3808
sS'202'
p3802
I3809
sS'205'
p3803
I3494
sS'204'
p3804
I3811
sS'207'
p3805
I3812
sS'206'
p3806
I3813
sS'209'
p3807
I3500
sS'208'
p3808
I3815
sS'paid'
p3809
I3816
sS'"damn'
p3810
I3817
sS'champagn'
p3811
I3818
sS'pair'
p3812
I3819
sS'voice"'
p3813
I3820
sS'napkin'
p3814
I3821
sS'"were'
p3815
I3822
sS'alone"'
p3816
I3823
sS'shop'
p3817
I3824
sS'lifeit'
p3818
I3825
sS'shot'
p3819
I3826
sS'show'
p3820
I3827
sS'curler'
p3821
I3828
sS'veranda'
p3822
I3829
sS"eyesthey'r"
p3823
I3830
sS'corner'
p3824
I3831
sS'enthusiast'
p3825
I3832
sS'fenc'
p3826
I3833
sS'dick'
p3827
I3834
sS'enough'
p3828
I3835
sS'black'
p3829
I3836
sS'enthusiasm'
p3830
I3837
sS'plump'
p3831
I3838
sS'"joe'
p3832
I3839
sS'meanwhile"'
p3833
I3840
sS'hippi'
p3834
I3841
sS'orang'
p3835
I4918
sS'stomp'
p3836
I3843
sS'midriff'
p3837
I3844
sS'toteboard'
p3838
I3845
sS'hotshot'
p3839
I3846
sS'sideway'
p3840
I3847
sS'ringlet'
p3841
I3848
sS'stupid'
p3842
I3849
sS'"dirti'
p3843
I3850
sS'nostril'
p3844
I3851
sS'highyellow'
p3845
I3852
sS'sear'
p3846
I3853
sS'seat'
p3847
I3854
sS'starlet'
p3848
I3855
sS'wonder'
p3849
I3856
sS'foreword'
p3850
I3857
sS'ornament'
p3851
I3858
sS'behind'
p3852
I1140
sS'maltes'
p3853
I3860
sS'across'
p3854
I3861
sS'doing"'
p3855
I3862
sS'august'
p3856
I3863
sS'parent'
p3857
I3864
sS'housedress'
p3858
I3865
sS'"what"'
p3859
I3866
sS'jr'
p3860
I3867
sS'dome'
p3861
I3868
sS'tub'
p3862
I3869
sS'honest"'
p3863
I3870
sS'tug'
p3864
I3871
sS'similar'
p3865
I2730
sS'check"'
p3866
I3873
sS'restroom'
p3867
I3874
sS'audienc'
p3868
I3875
sS'improv'
p3869
I4419
sS'longshot'
p3870
I3878
sS'among'
p3871
I3879
sS'burroughs"'
p3872
I3880
sS'cancer'
p3873
I3881
sS'cancel'
p3874
I3882
sS'"lawyer'
p3875
I6010
sS'decidingwheth'
p3876
I3884
sS'mare'
p3877
I3885
sS'ultim'
p3878
I3886
sS'suicid'
p3879
I3887
sS'mark'
p3880
I3888
sS'skyhigh'
p3881
I3889
sS'cecelia'
p3882
I3890
sS'barri'
p3883
I3891
sS'certifi'
p3884
I3892
sS'fucked"'
p3885
I3893
sS'spare'
p3886
I680
sS'"tanya'
p3887
I3894
sS'breakfast"'
p3888
I3895
sS'wake'
p3889
I3896
sS'those'
p3890
I3897
sS'sound'
p3891
I3898
sS'"oooo'
p3892
I3899
sS'"oooh'
p3893
I3900
sS'madhouse"'
p3894
I3901
sS'cock'
p3895
I3902
sS'advantag'
p3896
I3903
sS'destin'
p3897
I3904
sS'strain'
p3898
I517
sS'unwritten'
p3899
I4098
sS'phoning"'
p3900
I3907
sS'pat'
p3901
I3908
sS'paw'
p3902
I3909
sS'pay'
p3903
I3910
sS'bluejean'
p3904
I3911
sS'same'
p3905
I3912
sS'heartbreak'
p3906
I3913
sS'pan'
p3907
I3914
sS'exhaust'
p3908
I3915
sS'bath"'
p3909
I3916
sS'thanksgiving"'
p3910
I3917
sS'inbetween'
p3911
I3918
sS'bathroom"'
p3912
I3919
sS'flapbang'
p3913
I3920
sS'"drayer'
p3914
I3921
sS'been"'
p3915
I3922
sS'drain'
p3916
I3923
sS'argument"'
p3917
I3924
sS'bag"'
p3918
I3925
sS'outdoor'
p3919
I3926
sS'execut'
p3920
I3927
sS'money'
p3921
I3928
sS'asleep"'
p3922
I3929
sS'foundh'
p3923
I3930
sS'parad'
p3924
I3931
sS'mcdonald'
p3925
I3932
sS'parlor'
p3926
I6018
sS'alimoni'
p3927
I3934
sS'afterlunch'
p3928
I3935
sS'4'
p3929
I3936
sS'heavier'
p3930
I3937
sS'pill'
p3931
I3938
sS'grip'
p3932
I3939
sS'"lilli'
p3933
I3940
sS'mow'
p3934
I3941
sS'wife"'
p3935
I3942
sS'gate"'
p3936
I3943
sS'temperatur'
p3937
I3944
sS'mom'
p3938
I3945
sS'themselves"'
p3939
I2739
sS'grim'
p3940
I3947
sS'grin'
p3941
I3948
sS'mod'
p3942
I3949
sS'missing"'
p3943
I3950
sS'either'
p3944
I4376
sS'department"'
p3945
I6020
sS'fulfil'
p3946
I3953
sS'vagin'
p3947
I3954
sS'cabl'
p3948
I3955
sS'doll'
p3949
I3956
sS'draw'
p3950
I3957
sS'"goodnight'
p3951
I3958
sS'second"'
p3952
I3959
sS'spasm'
p3953
I3960
sS'gross'
p3954
I3961
sS'typergodhead'
p3955
I3962
sS'behindear'
p3956
I3963
sS'pantyhos'
p3957
I3964
sS'"add'
p3958
I3965
sS'boat'
p3959
I3966
sS'linoleum'
p3960
I3967
sS'knife'
p3961
I3968
sS'nonsexu'
p3962
I3969
sS'cab"'
p3963
I3970
sS'refere'
p3964
I3971
sS'figurin'
p3965
I2745
sS'broken'
p3966
I3973
sS'"arrrgg'
p3967
I3974
sS'kenny"'
p3968
I3975
sS'roar'
p3969
I3976
sS'smear'
p3970
I3977
sS'out"'
p3971
I3978
sS'joplin'
p3972
I3979
sS'road'
p3973
I3980
sS'uhaul'
p3974
I3981
sS'mari'
p3975
I3982
sS'morning"'
p3976
I3983
sS'strip'
p3977
I3985
sS'"please"'
p3978
I3987
sS'madden'
p3979
I3988
sS'madder'
p3980
I3989
sS'facesh'
p3981
I3990
sS'downer'
p3982
I3991
sS'clothes"'
p3983
I3992
sS'$800'
p3984
I3993
sS'land"'
p3985
I3994
sS'"barbi'
p3986
I3995
sS'white"'
p3987
I3996
sS'spice'
p3988
I3997
sS'monday"'
p3989
I3998
sS'possibl'
p3990
I3999
sS"wasn't"
p3991
I4000
sS'unusu'
p3992
I4001
sS'softboil'
p3993
I4002
sS'deep'
p3994
I4003
sS'general'
p3995
I4004
sS'file'
p3996
I4005
sS'cultur'
p3997
I4006
sS'girlfriend'
p3998
I4007
sS'proport'
p3999
I4008
sS'puke"'
p4000
I4009
sS'fill'
p4001
I4010
sS'again'
p4002
I4011
sS'personnel'
p4003
I4012
sS'"jack'
p4004
I4013
sS'field'
p4005
I4710
sS'sunflow'
p4006
I4015
sS'planet"'
p4007
I4016
sS'shelter'
p4008
I4017
sS'aster'
p4009
I4018
sS'dee"'
p4010
I4019
sS'escal'
p4011
I4020
sS'unload'
p4012
I4021
sS'sewer'
p4013
I4022
sS'u'
p4014
I4023
sS'escap'
p4015
I4024
sS'oral'
p4016
I4025
sS'motel'
p4017
I4948
sS'forget'
p4018
I4027
sS'vile'
p4019
I4028
sS'forbidden'
p4020
I4029
sS'dollar'
p4021
I4030
sS'sunk'
p4022
I4031
sS'atlant'
p4023
I4843
sS'children'
p4024
I4033
sS'really"'
p4025
I4034
sS'mother"'
p4026
I4035
sS'straightforward'
p4027
I4036
sS'fals'
p4028
I4037
sS'talk"'
p4029
I4038
sS'util'
p4030
I4039
sS'scout'
p4031
I4912
sS'fall'
p4032
I4041
sS'"drive'
p4033
I4042
sS'along"'
p4034
I4043
sS'hotcak'
p4035
I4044
sS'neighborhood'
p4036
I4045
sS'christ"'
p4037
I4046
sS'wildlycolor'
p4038
I4047
sS'strung'
p4039
I4048
sS'lawyer'
p4040
I4049
sS'witch"'
p4041
I4050
sS'further'
p4042
I4051
sS'quiet"'
p4043
I4052
sS'ribbon'
p4044
I4053
sS'excit'
p4045
I4054
sS'dial'
p4046
I4055
sS'stood'
p4047
I4056
sS'abl'
p4048
I4057
sS'trinket'
p4049
I4058
sS'stoop'
p4050
I4059
sS'"nothing"'
p4051
I4060
sS'public'
p4052
I4061
sS'movement'
p4053
I4062
sS'sophist'
p4054
I4063
sS'mule'
p4055
I4064
sS'ranger'
p4056
I4065
sS'valv'
p4057
I4066
sS'search'
p4058
I4067
sS'milki'
p4059
I4068
sS'airport'
p4060
I4069
sS'narrow'
p4061
I4070
sS'fatten'
p4062
I4071
sS'lawrenc'
p4063
I4072
sS'africa'
p4064
I4073
sS'sadist'
p4065
I4074
sS'rican'
p4066
I4075
sS'memor'
p4067
I4076
sS'eye'
p4068
I4077
sS'"have'
p4069
I4078
sS'liber'
p4070
I4079
sS'regist'
p4071
I4080
sS'two'
p4072
I2272
sS'lady"'
p4073
I4082
sS'"smile'
p4074
I4083
sS'wiper'
p4075
I4084
sS'desir'
p4076
I4085
sS'brisk'
p4077
I4086
sS'ahead"'
p4078
I4087
sS"ain't"
p4079
I4088
sS'particular'
p4080
I4089
sS'magnific'
p4081
I4090
sS'town'
p4082
I4091
sS'none'
p4083
I4092
sS'nonb'
p4084
I4093
sS'hour'
p4085
I4094
sS'hous'
p4086
I4095
sS'barroom'
p4087
I4096
sS'remain'
p4088
I4097
sS'sudden'
p4089
I3906
sS'del'
p4090
I4099
sS'nothing"'
p4091
I4100
sS'whitewach'
p4092
I4101
sS'dee'
p4093
I4102
sS'explod'
p4094
I4103
sS'salesmen'
p4095
I4104
sS'share'
p4096
I4105
sS'shard'
p4097
I4106
sS'biographi'
p4098
I4107
sS'socal'
p4099
I4108
sS'compart'
p4100
I4109
sS'instructions"'
p4101
I4110
sS'explos'
p4102
I4111
sS'hours"'
p4103
I5300
sS'talkat'
p4104
I4113
sS'siren'
p4105
I4114
sS'nearperfect'
p4106
I4115
sS'secur'
p4107
I4116
sS'comfort'
p4108
I4117
sS'eat"'
p4109
I3282
sS'needl'
p4110
I4119
sS'number"'
p4111
I4120
sS'faculti'
p4112
I4121
sS'blood'
p4113
I4122
sS'bloom'
p4114
I4123
sS'backstag'
p4115
I4124
sS'mostly"'
p4116
I4125
sS'coat'
p4117
I4126
sS'wobbl'
p4118
I5385
sS'spoon'
p4119
I6044
sS'"about'
p4120
I4129
sS'youknowwher'
p4121
I4130
sS'wall"'
p4122
I4131
sS'ok"'
p4123
I4132
sS'through'
p4124
I4133
sS'suffer'
p4125
I4134
sS'24'
p4126
I4135
sS'25'
p4127
I4136
sS'26'
p4128
I4137
sS'27'
p4129
I4138
sS'20'
p4130
I4139
sS'21'
p4131
I4140
sS'22'
p4132
I4141
sS'23'
p4133
I4142
sS'28'
p4134
I4143
sS'29'
p4135
I4144
sS'drinks"'
p4136
I4145
sS'late'
p4137
I4146
sS'eunuch'
p4138
I4147
sS'peni'
p4139
I4148
sS'good'
p4140
I4149
sS'complain'
p4141
I4151
sS'pregnant'
p4142
I4152
sS'mysteri'
p4143
I4153
sS'easili'
p4144
I4154
sS'pen"'
p4145
I4155
sS'"downstair'
p4146
I4156
sS'afternoons"'
p4147
I4157
sS'harm'
p4148
I4158
sS'mental'
p4149
I4159
sS'fish'
p4150
I4160
sS'hard'
p4151
I4161
sS'idea'
p4152
I4162
sS'fractur'
p4153
I4163
sS'connect'
p4154
I4164
sS'fist'
p4155
I4165
sS'comic'
p4156
I4166
sS'bull"'
p4157
I4167
sS'flower'
p4158
I4168
sS'pilot"'
p4159
I4169
sS'"go'
p4160
I4170
sS"they'll"
p4161
I4171
sS'print'
p4162
I4172
sS'pleasant'
p4163
I4173
sS'bulli'
p4164
I4174
sS'faucet'
p4165
I4175
sS'"she'
p4166
I4176
sS'omin'
p4167
I4177
sS'wither'
p4168
I4178
sS'valentino'
p4169
I4179
sS'exchang'
p4170
I4180
sS'giddy"'
p4171
I4181
sS'done'
p4172
I4183
sS'stabl'
p4173
I4184
sS'18"'
p4174
I4185
sS'mercuri'
p4175
I4979
sS'modish'
p4176
I4187
sS'5th'
p4177
I4188
sS'least'
p4178
I4189
sS'182'
p4179
I4190
sS'paint'
p4180
I2676
sS'180'
p4181
I4192
sS'181'
p4182
I4193
sS'186'
p4183
I4194
sS'187'
p4184
I4195
sS'184'
p4185
I4196
sS'185'
p4186
I4197
sS'mama'
p4187
I4198
sS'twenti'
p4188
I4199
sS'188'
p4189
I4200
sS'189'
p4190
I4201
sS'park'
p4191
I4202
sS'pari'
p4192
I4203
sS'"how"'
p4193
I4204
sS'dentist'
p4194
I4205
sS'part'
p4195
I4206
sS'irv"'
p4196
I4208
sS'b'
p4197
I4209
sS'contrari'
p4198
I4210
sS'pain"'
p4199
I4211
sS'gotten'
p4200
I4212
sS'youth'
p4201
I4213
sS'game'
p4202
I2673
sS'veins"'
p4203
I6059
sS'savageri'
p4204
I4215
sS'engagement"'
p4205
I4216
sS"you'v"
p4206
I6060
sS'egg"'
p4207
I4218
sS'mountain'
p4208
I4219
sS'built'
p4209
I4220
sS'couch'
p4210
I4221
sS'build'
p4211
I4222
sS'distribut'
p4212
I4223
sS'shower"'
p4213
I4224
sS'order"'
p4214
I4225
sS'chart'
p4215
I4226
sS'most'
p4216
I4227
sS'charm'
p4217
I4228
sS'"tell'
p4218
I4229
sS'age"'
p4219
I4230
sS'charg'
p4220
I4231
sS"personi'm"
p4221
I4232
sS'weigh'
p4222
I4233
sS'"somehow'
p4223
I4234
sS'217'
p4224
I4235
sS'scrabbl'
p4225
I4236
sS'finn'
p4226
I4237
sS'fine'
p4227
I4238
sS'find'
p4228
I4239
sS'giant'
p4229
I4240
sS'double"'
p4230
I4241
sS'nervous'
p4231
I4242
sS'california"'
p4232
I4243
sS'"laura"'
p4233
I4244
sS'8'
p4234
I4245
sS'seller'
p4235
I5976
sS'unhappi'
p4236
I4246
sS'tyron'
p4237
I4247
sS'unus'
p4238
I4248
sS'express'
p4239
I4249
sS'batter'
p4240
I4250
sS'218'
p4241
I731
sS'silk'
p4242
I4252
sS'uncomfort'
p4243
I4253
sS'common'
p4244
I4254
sS'"no"'
p4245
I4255
sS'vinc'
p4246
I4256
sS'sheep"'
p4247
I4257
sS'vine'
p4248
I4258
sS'decompos'
p4249
I4259
sS'tender'
p4250
I4260
sS'reserv'
p4251
I4261
sS'hole'
p4252
I76
sS'"four'
p4253
I4262
sS'hungry"'
p4254
I4263
sS'someth'
p4255
I4264
sS'womaneven'
p4256
I4265
sS'fant'
p4257
I4266
sS'experi'
p4258
I4267
sS'altern'
p4259
I4268
sS'appreci'
p4260
I4269
sS'mailbox'
p4261
I4270
sS'ballsymbol'
p4262
I4271
sS'"not'
p4263
I4272
sS'"now'
p4264
I4273
sS'purpl'
p4265
I4274
sS'popul'
p4266
I4275
sS'alon'
p4267
I4276
sS'"mental'
p4268
I4277
sS'streetwalk'
p4269
I4278
sS'bongo'
p4270
I4279
sS'simpli'
p4271
I4280
sS'point'
p4272
I4281
sS'dancer'
p4273
I4282
sS'hangov'
p4274
I4283
sS'suppli'
p4275
I4284
sS'ass\'"'
p4276
I4285
sS'ran'
p4277
I4999
sS'secret'
p4278
I4287
sS'adam"'
p4279
I2221
sS'excon'
p4280
I4289
sS'dance"'
p4281
I4290
sS'exercis'
p4282
I4291
sS'gas'
p4283
I4292
sS'vanc'
p4284
I4293
sS'understand'
p4285
I4294
sS'canada"'
p4286
I4295
sS'gag'
p4287
I4296
sS'explain"'
p4288
I5711
sS'chatter'
p4289
I4298
sS'cruelti'
p4290
I4299
sS'ignit'
p4291
I4300
sS'solid'
p4292
I4301
sS'bill'
p4293
I4302
sS'cluster'
p4294
I3905
sS'fun'
p4295
I4303
sS'everyon'
p4296
I4304
sS'lull'
p4297
I4305
sS'prejudic'
p4298
I4306
sS'astound'
p4299
I4307
sS'itself'
p4300
I4308
sS'centuri'
p4301
I4309
sS'key"'
p4302
I4310
sS'lowlif'
p4303
I4311
sS'butcher'
p4304
I4312
sS'how"'
p4305
I4313
sS'asylum"'
p4306
I4314
sS'itali'
p4307
I4315
sS'whore"'
p4308
I4316
sS'some"'
p4309
I4317
sS'itch'
p4310
I4318
sS'painting"'
p4311
I2794
sS'yesterday'
p4312
I4320
sS'moment'
p4313
I4321
sS'stripe'
p4314
I4322
sS'unveil'
p4315
I740
sS'chang'
p4316
I2795
sS'motionless'
p4317
I192
sS'entri'
p4318
I4326
sS'pills"'
p4319
I4327
sS'spent'
p4320
I4328
sS'zagzig'
p4321
I4329
sS'overdecor'
p4322
I4330
sS'withdraw'
p4323
I4331
sS'protrud'
p4324
I4332
sS'tast'
p4325
I4333
sS'spend'
p4326
I4334
sS'howl'
p4327
I4335
sS'everet'
p4328
I4336
sS'explan'
p4329
I4337
sS'shape'
p4330
I4338
sS'world'
p4331
I4339
sS'jumpsuit'
p4332
I4340
sS'cut'
p4333
I4341
sS'cup'
p4334
I4342
sS'persuad'
p4335
I4343
sS'cue'
p4336
I4344
sS'appli'
p4337
I6074
sS'snap'
p4338
I4346
sS'easter'
p4339
I4347
sS'bin'
p4340
I4348
sS'big'
p4341
I4349
sS'snob'
p4342
I5015
sS'biz'
p4343
I4351
sS'bit'
p4344
I4352
sS'knock'
p4345
I4353
sS'glove'
p4346
I4354
sS'fluf'
p4347
I4355
sS'bamboo'
p4348
I4356
sS'foolish'
p4349
I4357
sS'sequin'
p4350
I4358
sS'downstair'
p4351
I4359
sS'racetrack"'
p4352
I4360
sS'often'
p4353
I4361
sS'back'
p4354
I4362
sS'bach'
p4355
I4363
sS'ah'
p4356
I4364
sS'mirror'
p4357
I4365
sS'crossleg'
p4358
I4366
sS'blonde"'
p4359
I4367
sS'pet'
p4360
I4368
sS'per'
p4361
I4369
sS'pen'
p4362
I4370
sS'larg'
p4363
I4371
sS'hahaha"'
p4364
I4372
sS'groid"'
p4365
I462
sS'pee'
p4366
I4374
sS'louie"'
p4367
I4375
sS'nose'
p4368
I3951
sS'308'
p4369
I4377
sS'309'
p4370
I4378
sS'patient'
p4371
I4379
sS'300'
p4372
I4380
sS'301'
p4373
I4381
sS'302'
p4374
I4382
sS'303'
p4375
I4383
sS'304'
p4376
I4384
sS'305'
p4377
I486
sS'306'
p4378
I4386
sS'307'
p4379
I4387
sS'"now"'
p4380
I4388
sS'valley"'
p4381
I4389
sS'crap'
p4382
I2803
sS'crone'
p4383
I4392
sS'"$20'
p4384
I4393
sS'drama'
p4385
I4394
sS'volksand'
p4386
I4395
sS'boy"'
p4387
I4396
sS'concerned"'
p4388
I4397
sS'jimmi'
p4389
I4398
sS'lesson'
p4390
I4399
sS'jockey'
p4391
I4400
sS'plane"'
p4392
I4401
sS'includ'
p4393
I4402
sS'"breakfast'
p4394
I4403
sS'forward'
p4395
I4404
sS'careful"'
p4396
I4405
sS'noticed"'
p4397
I4406
sS'lydia'
p4398
I4407
sS'translat'
p4399
I4408
sS'mulloch'
p4400
I4409
sS'bore"'
p4401
I4410
sS'curv'
p4402
I4411
sS'constant'
p4403
I4412
sS'curs'
p4404
I4413
sS'flow'
p4405
I4414
sS'cure'
p4406
I4415
sS'curb'
p4407
I4416
sS'twoton'
p4408
I4417
sS'curl'
p4409
I4418
sS'mediumloud'
p4410
I3303
sS'expector'
p4411
I742
sS'lend'
p4412
I4421
sS'$10000'
p4413
I4422
sS'papa'
p4414
I4423
sS'cater'
p4415
I4424
sS'lent'
p4416
I4425
sS'"victori'
p4417
I4426
sS'desert'
p4418
I4427
sS'deserv'
p4419
I4428
sS'bucks"'
p4420
I4429
sS'2000'
p4421
I4430
sS'happy"'
p4422
I4431
sS'westwood'
p4423
I4432
sS'"to'
p4424
I4433
sS'"bill'
p4425
I4434
sS'privat'
p4426
I4435
sS'joe"'
p4427
I4436
sS'sensit'
p4428
I4437
sS'peanut'
p4429
I4438
sS'lilli'
p4430
I4439
sS'lunat'
p4431
I4440
sS'becam'
p4432
I4441
sS'rhyme'
p4433
I4442
sS'volum'
p4434
I4443
sS'surgeon'
p4435
I4444
sS'help"'
p4436
I4446
sS'shock'
p4437
I4447
sS'other"'
p4438
I4448
sS'safe"'
p4439
I4449
sS'taxes"'
p4440
I4450
sS'crop'
p4441
I4451
sS'"fighter'
p4442
I6126
sS'ankles"'
p4443
I1035
sS'condominium'
p4444
I6097
sS'impuls'
p4445
I4454
sS'involv'
p4446
I4455
sS'goodlook'
p4447
I4456
sS'lovejoy'
p4448
I4457
sS'bodi'
p4449
I4458
sS'sink'
p4450
I4459
sS'perfectlypush'
p4451
I4460
sS'sing'
p4452
I4461
sS'sinc'
p4453
I4462
sS'39'
p4454
I4463
sS'38'
p4455
I4464
sS'talent'
p4456
I4465
sS'spite'
p4457
I5037
sS'33'
p4458
I4467
sS'32'
p4459
I4468
sS'31'
p4460
I4469
sS'30'
p4461
I4470
sS'37'
p4462
I4471
sS'36'
p4463
I4472
sS'35'
p4464
I4473
sS'34'
p4465
I4474
sS'climb'
p4466
I4475
sS'honor'
p4467
I4476
sS'limp'
p4468
I4477
sS'beckon'
p4469
I4478
sS'patrol'
p4470
I6100
sS'"excus'
p4471
I4480
sS'"bullshit"'
p4472
I4481
sS'breakup'
p4473
I4482
sS'ali"'
p4474
I4483
sS'flabbi'
p4475
I4484
sS'name"'
p4476
I4485
sS'trail'
p4477
I4486
sS'train'
p4478
I4487
sS'olymp'
p4479
I4488
sS'meyou'
p4480
I4490
sS'tunnel'
p4481
I4491
sS'unreal'
p4482
I4150
sS'obvious'
p4483
I4493
sS'island'
p4484
I4494
sS'scribbl'
p4485
I4495
sS'aliv'
p4486
I4496
sS'inscript'
p4487
I4497
sS'luggag'
p4488
I4498
sS'hardon"'
p4489
I4499
sS'$35"'
p4490
I4500
sS'everywher'
p4491
I4501
sS'surfac'
p4492
I4502
sS'lamp'
p4493
I4503
sS'forest'
p4494
I1343
sS'line"'
p4495
I4505
sS'stock'
p4496
I4506
sS'nullifi'
p4497
I4507
sS'bone"'
p4498
I4508
sS'payrol'
p4499
I4509
sS'hairit'
p4500
I4510
sS'waterb'
p4501
I4511
sS'physic'
p4502
I4512
sS'drape'
p4503
I4513
sS'gone"'
p4504
I4514
sS'correspond'
p4505
I4515
sS'wanted"'
p4506
I4516
sS'furious'
p4507
I4517
sS'dinner"'
p4508
I4518
sS'furnish'
p4509
I4519
sS'galveston'
p4510
I4520
sS'aliti'
p4511
I4521
sS'horni'
p4512
I4522
sS'bunch'
p4513
I4523
sS'la'
p4514
I4524
sS'"pull'
p4515
I4525
sS'airport"'
p4516
I4526
sS'dam'
p4517
I4527
sS'spell'
p4518
I4528
sS'mention'
p4519
I4529
sS'day'
p4520
I4530
sS'bandini"'
p4521
I4531
sS'drugstor'
p4522
I4532
sS'doorhandl'
p4523
I4533
sS'intellig'
p4524
I4534
sS'$4580'
p4525
I4535
sS'salesman'
p4526
I1609
sS'rex'
p4527
I1614
sS'rey'
p4528
I4538
sS'stub'
p4529
I4539
sS'stuf'
p4530
I4540
sS'stud'
p4531
I4541
sS'smog'
p4532
I4542
sS'stun'
p4533
I4543
sS'red'
p4534
I4544
sS'insid'
p4535
I4545
sS'oooff'
p4536
I4546
sS'releas'
p4537
I4547
sS'afterward'
p4538
I1678
sS'"can'
p4539
I4549
sS'yard'
p4540
I4550
sS'presid'
p4541
I4551
sS'south'
p4542
I1720
sS'"has'
p4543
I6119
sS'sack'
p4544
I4554
sS'hey'
p4545
I4555
sS"heart'''"
p4546
I4556
sS'lately"'
p4547
I4557
sS'has'
p4548
I358
sS'ancient'
p4549
I4558
sS'monkey'
p4550
I4559
sS'love"'
p4551
I4560
sS'vulgar'
p4552
I4561
sS'messag'
p4553
I4562
sS'"hardly"'
p4554
I4563
sS'baby"'
p4555
I4564
sS'liquor'
p4556
I5053
sS'gear'
p4557
I4566
sS'farmboy'
p4558
I4567
sS'ogl'
p4559
I4568
sS'gertrude"'
p4560
I4569
sS'nobodi'
p4561
I4570
sS'"valeri'
p4562
I6241
sS'hungov'
p4563
I4572
sS'bodyguard'
p4564
I4573
sS'slack'
p4565
I4574
sS'"renni'
p4566
I4575
sS'charact'
p4567
I4576
sS'lover'
p4568
I4577
sS'hospitality"'
p4569
I4578
sS'littletheatr'
p4570
I4579
sS'have'
p4571
I4580
sS'throat'
p4572
I4581
sS'tidi'
p4573
I4582
sS'32"'
p4574
I4583
sS'322'
p4575
I4584
sS'323'
p4576
I4585
sS'320'
p4577
I4586
sS'321'
p4578
I4587
sS'326'
p4579
I4588
sS'327'
p4580
I4589
sS'324'
p4581
I4590
sS'miniskirt'
p4582
I4591
sS'houston"'
p4583
I4592
sS'328'
p4584
I4593
sS'"listen'
p4585
I4594
sS'analysi'
p4586
I4595
sS'business"'
p4587
I4596
sS'unless'
p4588
I1925
sS"where'd"
p4589
I4598
sS'eight'
p4590
I4599
sS'tranc'
p4591
I6052
sS'transcript'
p4592
I4600
sS'payment'
p4593
I4601
sS'gather'
p4594
I4602
sS'request'
p4595
I1962
sS'sunris'
p4596
I4604
sS'occasion'
p4597
I4605
sS'catalina'
p4598
I4606
sS'wonderful"'
p4599
I4607
sS'portfolio'
p4600
I4608
sS'substanc'
p4601
I4609
sS'texa'
p4602
I4610
sS'thicker'
p4603
I4611
sS'staff'
p4604
I4612
sS'communism'
p4605
I4613
sS'bicycl'
p4606
I4614
sS'madman'
p4607
I4615
sS'sonofabitch'
p4608
I4616
sS'prolong'
p4609
I4617
sS'sparkl'
p4610
I4618
sS'communist'
p4611
I4619
sS'inferior'
p4612
I4620
sS'8inch'
p4613
I4621
sS'lobe'
p4614
I4622
sS'bear'
p4615
I4623
sS'beam'
p4616
I4624
sS'bean'
p4617
I4625
sS'"$500'
p4618
I6128
sS'bead'
p4619
I4626
sS'anything"'
p4620
I4627
sS'organ'
p4621
I4628
sS'ashtray'
p4622
I4629
sS'"irv'
p4623
I4630
sS'"iri'
p4624
I4631
sS'soggi'
p4625
I4632
sS'136'
p4626
I6134
sS'"yousonofabitch'
p4627
I4634
sS'"23"'
p4628
I4635
sS'we'
p4629
I4636
sS'apolog'
p4630
I4637
sS'malfunct'
p4631
I4638
sS'pattern'
p4632
I4639
sS'progress'
p4633
I4640
sS'shits"'
p4634
I4641
sS'"goodbye"'
p4635
I4642
sS'thingsoth'
p4636
I4643
sS'"you\'r'
p4637
I1395
sS'thanks"'
p4638
I4644
sS'wiggl'
p4639
I4645
sS'joke'
p4640
I4646
sS'equal'
p4641
I4647
sS'asmanypeopleasoftena'
p4642
I2843
sS'swim'
p4643
I4649
sS'swallow'
p4644
I4650
sS'glorious'
p4645
I4651
sS'utah"'
p4646
I4652
sS'comment'
p4647
I4653
sS'"hello"'
p4648
I4654
sS'overcoat'
p4649
I4655
sS'veng'
p4650
I4656
sS'laugh'
p4651
I4657
sS'done"'
p4652
I4658
sS'andernach'
p4653
I4659
sS'"shall'
p4654
I4660
sS'dyke"'
p4655
I4661
sS'home"'
p4656
I4662
sS'gaze'
p4657
I4663
sS'split"'
p4658
I4664
sS'electr'
p4659
I4665
sS'curtain'
p4660
I4666
sS'muddi'
p4661
I4667
sS'dancedcent'
p4662
I4668
sS'469'
p4663
I4669
sS'blackheads"'
p4664
I4670
sS'fellow'
p4665
I4671
sS'lovemak'
p4666
I4672
sS'carburetor'
p4667
I4673
sS'plain'
p4668
I4674
sS'tshirt'
p4669
I4675
sS'waitedfor'
p4670
I4676
sS'ill'
p4671
I4677
sS'qualities"'
p4672
I4678
sS'doin\'"'
p4673
I4679
sS'bicker'
p4674
I4680
sS'started"'
p4675
I4681
sS'almost'
p4676
I4682
sS'novel"'
p4677
I4683
sS'absente'
p4678
I4684
sS'look"'
p4679
I6145
sS'whirl'
p4680
I4686
sS'japanes'
p4681
I4687
sS'transvestit'
p4682
I4688
sS'prais'
p4683
I4689
sS'selfish'
p4684
I4690
sS'fucker'
p4685
I4691
sS'ioo'
p4686
I4692
sS'grandstand'
p4687
I4693
sS'happened"'
p4688
I6147
sS'canva'
p4689
I4695
sS'sunburn'
p4690
I4696
sS'judgment'
p4691
I4697
sS'tighter'
p4692
I4698
sS'"barry"'
p4693
I4699
sS'center'
p4694
I4700
sS'thought'
p4695
I4701
sS'alka'
p4696
I4702
sS'usual'
p4697
I4703
sS'"main'
p4698
I4704
sS'shuttl'
p4699
I4705
sS'tone'
p4700
I4706
sS'flashlight'
p4701
I4707
sS'shoes"'
p4702
I4708
sS'thanksgiv'
p4703
I4709
sS'sick"'
p4704
I4014
sS'work"'
p4705
I4711
sS'lake'
p4706
I4712
sS'bench'
p4707
I4713
sS'289'
p4708
I4714
sS'288'
p4709
I4715
sS'add'
p4710
I4716
sS'citizen'
p4711
I4717
sS'281'
p4712
I4718
sS'280'
p4713
I4719
sS'283'
p4714
I4720
sS'282'
p4715
I4721
sS'285'
p4716
I4722
sS'284'
p4717
I4723
sS'match'
p4718
I4724
sS'286'
p4719
I4725
sS'royalti'
p4720
I4726
sS'newsstand'
p4721
I4727
sS'dryer'
p4722
I4728
sS'store"'
p4723
I4729
sS'dancy"'
p4724
I4730
sS'testi'
p4725
I4731
sS'insert'
p4726
I4732
sS'backbon'
p4727
I4733
sS'success'
p4728
I4734
sS'mustach'
p4729
I4735
sS'chick'
p4730
I4736
sS'soft'
p4731
I4737
sS'heel'
p4732
I4738
sS'italian'
p4733
I4739
sS'propel'
p4734
I4740
sS'simple"'
p4735
I4741
sS'hair'
p4736
I4742
sS'proper'
p4737
I4743
sS'"harlot"'
p4738
I4744
sS'glad"'
p4739
I4745
sS'rale'
p4740
I4746
sS'regain'
p4741
I4747
sS'pepper'
p4742
I4748
sS'7up'
p4743
I4749
sS'stuff"'
p4744
I4750
sS'slight'
p4745
I4751
sS'school\'"'
p4746
I4752
sS'back\'"'
p4747
I4753
sS'hurts"'
p4748
I4754
sS'although'
p4749
I4755
sS'about'
p4750
I4756
sS'actual'
p4751
I4757
sS'justic'
p4752
I4758
sS'withdrew'
p4753
I4759
sS'happen"'
p4754
I4760
sS'discard'
p4755
I4761
sS'tomb'
p4756
I4762
sS'"is'
p4757
I5726
sS'desper'
p4758
I4764
sS'guard'
p4759
I4765
sS'awhil'
p4760
I4766
sS'unusual"'
p4761
I2858
sS'pictur'
p4762
I4768
sS'minute"'
p4763
I4769
sS'mescalin'
p4764
I4770
sS'biggest'
p4765
I4771
sS'maze'
p4766
I4772
sS'buy'
p4767
I4773
sS'unexpect'
p4768
I4774
sS'coke'
p4769
I4775
sS'but'
p4770
I4776
sS'ivori'
p4771
I4777
sS'scum"'
p4772
I4778
sS'children"'
p4773
I4779
sS'bum'
p4774
I4780
sS'bug'
p4775
I4781
sS'bud'
p4776
I4782
sS'wise'
p4777
I4783
sS'wish'
p4778
I4784
sS'flip'
p4779
I4785
sS'wisp'
p4780
I4786
sS'yorker"'
p4781
I4787
sS'pin'
p4782
I4788
sS'whisper'
p4783
I4789
sS'dure'
p4784
I4790
sS'circus'
p4785
I4791
sS'tabletop'
p4786
I4792
sS'83'
p4787
I6159
sS'campus'
p4788
I4794
sS'probabl'
p4789
I4795
sS'48'
p4790
I4796
sS'49'
p4791
I4797
sS'46'
p4792
I4798
sS'47'
p4793
I4799
sS'44'
p4794
I4800
sS'45'
p4795
I4801
sS'42'
p4796
I4802
sS'43'
p4797
I4803
sS'40'
p4798
I4804
sS'cokes"'
p4799
I4805
sS'anyhow"'
p4800
I4806
sS'85'
p4801
I6165
sS'finally"'
p4802
I4809
sS'pineappl'
p4803
I4810
sS'no\'"'
p4804
I4811
sS'soulsuck'
p4805
I4812
sS'death"'
p4806
I4813
sS'wind'
p4807
I4814
sS'jab'
p4808
I1453
sS'influenc'
p4809
I4815
sS'pupil'
p4810
I4816
sS'yell'
p4811
I4817
sS'8th'
p4812
I4818
sS'hitch'
p4813
I4819
sS'sleev'
p4814
I4820
sS'sleep'
p4815
I4821
sS'hate'
p4816
I4822
sS'"at'
p4817
I4823
sS'"as'
p4818
I4824
sS'silverfish'
p4819
I4825
sS'"hemingway"'
p4820
I4826
sS'345'
p4821
I4827
sS'concret'
p4822
I4828
sS'under'
p4823
I4829
sS'"an'
p4824
I4830
sS'"am'
p4825
I3219
sS'"ah'
p4826
I4832
sS'everi'
p4827
I4833
sS'rise'
p4828
I4834
sS'lurk'
p4829
I4835
sS'framean'
p4830
I4836
sS'tenni'
p4831
I4837
sS'jack'
p4832
I3246
sS'hat"'
p4833
I4840
sS'school'
p4834
I4841
sS'problems"'
p4835
I4842
sS'slung'
p4836
I4032
sS'sounds"'
p4837
I4844
sS'phonebook'
p4838
I4845
sS'"don\'t'
p4839
I4846
sS'obsess'
p4840
I2872
sS'fairfax'
p4841
I4848
sS'enjoy'
p4842
I4849
sS'"all'
p4843
I4850
sS'faintest'
p4844
I4851
sS'"folk'
p4845
I3323
sS'nail'
p4846
I4853
sS'louder'
p4847
I3335
sS'umbrella'
p4848
I2874
sS'themexcept'
p4849
I4856
sS'blue'
p4850
I4857
sS'hide'
p4851
I4858
sS'christ'
p4852
I4859
sS'terms"'
p4853
I4860
sS'change"'
p4854
I4861
sS'poison'
p4855
I4862
sS'conduct'
p4856
I3370
sS'leave"'
p4857
I4864
sS'liberti'
p4858
I4865
sS'lodg'
p4859
I4866
sS'through"'
p4860
I4867
sS'studio'
p4861
I4868
sS'woozi'
p4862
I4869
sS'worse"'
p4863
I4870
sS'anymor'
p4864
I4871
sS'cradl'
p4865
I4872
sS'"cecelia'
p4866
I4873
sS'portabl'
p4867
I4874
sS'straw'
p4868
I4875
sS'infantil'
p4869
I4876
sS'company"'
p4870
I4877
sS'strap'
p4871
I4878
sS'demonwrit'
p4872
I4879
sS'find\'"'
p4873
I4880
sS'describ'
p4874
I4881
sS'would'
p4875
I4882
sS'prescript'
p4876
I4883
sS'"sit'
p4877
I851
sS'turquois'
p4878
I4885
sS'asset'
p4879
I4886
sS'spike'
p4880
I4887
sS'"kiss'
p4881
I4888
sS'"joanna"'
p4882
I4889
sS'phone'
p4883
I4890
sS'off"'
p4884
I4891
sS'pouch'
p4885
I4892
sS'must'
p4886
I4893
sS'shoot'
p4887
I4894
sS'mg'
p4888
I4895
sS'join'
p4889
I4896
sS'necklin'
p4890
I4897
sS'henri'
p4891
I4898
sS'daft'
p4892
I4899
sS'"six'
p4893
I854
sS'mr'
p4894
I4901
sS'my'
p4895
I4902
sS'shook'
p4896
I4903
sS'mouth"'
p4897
I4904
sS'attract'
p4898
I4905
sS'end'
p4899
I4906
sS'gate'
p4900
I4907
sS'darkhair'
p4901
I4908
sS'mess'
p4902
I4909
sS'befor'
p4903
I4910
sS'writer"'
p4904
I4911
sS'college"'
p4905
I4040
sS'funniest'
p4906
I4913
sS'enter'
p4907
I4914
sS'aloud'
p4908
I4915
sS'harlem'
p4909
I4916
sS'behav'
p4910
I2024
sS'react'
p4911
I5827
sS'over'
p4912
I4917
sS'uncross'
p4913
I3842
sS'becaus'
p4914
I4919
sS'london'
p4915
I4920
sS'oven'
p4916
I4921
sS'wilton'
p4917
I4922
sS'strand'
p4918
I4923
sS'fade'
p4919
I4924
sS'400'
p4920
I4925
sS'"drink'
p4921
I4926
sS'"new'
p4922
I4927
sS'tourist'
p4923
I4928
sS'slaughterhous'
p4924
I4929
sS'pinkish'
p4925
I4930
sS'rental'
p4926
I4931
sS'"maybe"'
p4927
I4932
sS'choic'
p4928
I4933
sS'victori'
p4929
I4934
sS'awful"'
p4930
I4935
sS'each'
p4931
I4936
sS'chemistry"'
p4932
I4937
sS'wheel'
p4933
I4938
sS'hanger'
p4934
I4939
sS'diana'
p4935
I4940
sS'unscrew'
p4936
I4941
sS'gymnasium'
p4937
I4942
sS'"goddamn'
p4938
I4943
sS'saturday'
p4939
I4944
sS'depress'
p4940
I4945
sS'goe'
p4941
I4946
sS'god'
p4942
I4947
sS'psychic'
p4943
I4026
sS'laid'
p4944
I4949
sS'adjust'
p4945
I866
sS'"tomorrow"'
p4946
I4951
sS'got'
p4947
I4952
sS'day"'
p4948
I4953
sS'outfit"'
p4949
I4954
sS'icki'
p4950
I4955
sS'carcass'
p4951
I4956
sS'rail'
p4952
I1884
sS'free'
p4953
I4958
sS'evil'
p4954
I4959
sS'glisten'
p4955
I6190
sS'horseshit'
p4956
I4961
sS'go"'
p4957
I4112
sS'filter'
p4958
I4963
sS'soda'
p4959
I4964
sS'onto'
p4960
I4965
sS'rang'
p4961
I4966
sS'too"'
p4962
I4967
sS'hour"'
p4963
I869
sS'accent'
p4964
I6193
sS'necess'
p4965
I4970
sS'restrict'
p4966
I4971
sS'alreadi'
p4967
I4972
sS'sober'
p4968
I4973
sS'toy'
p4969
I4974
sS'their'
p4970
I6196
sS'top'
p4971
I4975
sS'twentyf'
p4972
I4976
sS'tow'
p4973
I4977
sS'fiction'
p4974
I4978
sS'sarcast'
p4975
I4186
sS'kinder'
p4976
I4980
sS'ton'
p4977
I4981
sS'too'
p4978
I4982
sS'197'
p4979
I875
sS'murder'
p4980
I4984
sS'tool'
p4981
I4985
sS'took'
p4982
I4986
sS'ful"'
p4983
I4987
sS'western'
p4984
I4988
sS'conserv'
p4985
I4989
sS'attraction"'
p4986
I4990
sS'"good'
p4987
I4991
sS'"make'
p4988
I4992
sS'flame'
p4989
I4993
sS'to"'
p4990
I4994
sS'rag'
p4991
I4995
sS'fashion'
p4992
I4996
sS'"holi'
p4993
I4997
sS'handkerchief'
p4994
I4998
sS'"hold'
p4995
I4286
sS'ram'
p4996
I5000
sS'raw'
p4997
I5001
sS'rat'
p4998
I5002
sS'rap'
p4999
I5003
sS'bugbutt'
p5000
I5004
sS'aisl'
p5001
I5122
sS'ray'
p5002
I5006
sS'harper'
p5003
I5007
sS'1966'
p5004
I5008
sS'1960'
p5005
I5009
sS'snow'
p5006
I5010
sS'1962'
p5007
I5011
sS'guyat'
p5008
I5012
sS'ginsberg"'
p5009
I5013
sS'client'
p5010
I5014
sS'soup"'
p5011
I4350
sS'insur'
p5012
I5016
sS'plenti'
p5013
I5017
sS'though'
p5014
I5018
sS'$940'
p5015
I5019
sS'coil'
p5016
I5020
sS'coin'
p5017
I5021
sS'everyth'
p5018
I5125
sS'letters"'
p5019
I5023
sS'cathol'
p5020
I5024
sS'metal'
p5021
I5025
sS'ride"'
p5022
I5026
sS'freeway'
p5023
I5027
sS'yank'
p5024
I5028
sS'columbian'
p5025
I5029
sS'endear'
p5026
I5030
sS'stool'
p5027
I5031
sS'spices"'
p5028
I5032
sS'radio'
p5029
I5033
sS'earth'
p5030
I5034
sS'nervous"'
p5031
I5035
sS'absolut'
p5032
I5036
sS'shorts"'
p5033
I4466
sS'shot"'
p5034
I5038
sS'sympathet'
p5035
I5039
sS'disgust'
p5036
I5040
sS'goodbye"'
p5037
I5041
sS'tammi'
p5038
I5042
sS'"closer"'
p5039
I5043
sS'watch'
p5040
I5044
sS'fluid'
p5041
I5045
sS'geek'
p5042
I5046
sS'about"'
p5043
I5047
sS'twice'
p5044
I5048
sS'situation"'
p5045
I5049
sS'swept'
p5046
I5050
sS'habit'
p5047
I5051
sS'new"'
p5048
I5052
sS'nut'
p5049
I4565
sS'beg'
p5050
I5054
sS'wholesom'
p5051
I5055
sS'percuss'
p5052
I5056
sS'outwait'
p5053
I5057
sS'game"'
p5054
I5058
sS'face"'
p5055
I5059
sS'"or'
p5056
I5060
sS'pissed"'
p5057
I5061
sS'"oh'
p5058
I5062
sS'mud'
p5059
I5063
sS'"ok'
p5060
I5064
sS'finger'
p5061
I5065
sS'"on'
p5062
I5066
sS'$65'
p5063
I5067
sS'365'
p5064
I5068
sS'approach'
p5065
I5069
sS'$60'
p5066
I5070
sS'"of'
p5067
I5071
sS'noodle"'
p5068
I5072
sS'howevet'
p5069
I5073
sS'weak'
p5070
I5074
sS'jersey"'
p5071
I5075
sS'boss'
p5072
I5076
sS'toothbrush'
p5073
I5077
sS'weav'
p5074
I5078
sS'wear'
p5075
I5079
sS'news'
p5076
I5080
sS'protect'
p5077
I5081
sS'fault'
p5078
I5082
sS'henry"'
p5079
I5083
sS'"and'
p5080
I5084
sS'dougla'
p5081
I5085
sS'trust'
p5082
I5086
sS'"ani'
p5083
I5087
sS'nake'
p5084
I5088
sS'bathroom'
p5085
I5089
sS'beef'
p5086
I5090
sS'"you'
p5087
I5091
sS'been'
p5088
I5092
sS'beer'
p5089
I5093
sS'ringer'
p5090
I6215
sS'sonofabitch"'
p5091
I5095
sS'fucking"'
p5092
I5096
sS'uncommon'
p5093
I5097
sS'teenybopp'
p5094
I5098
sS'cherri'
p5095
I5136
sS'catch'
p5096
I5100
sS'ok\'"'
p5097
I5101
sS'"hey"'
p5098
I5102
sS'ugliest'
p5099
I5103
sS'pharmaci'
p5100
I5104
sS'"stay'
p5101
I5105
sS'friday"'
p5102
I5106
sS'garag'
p5103
I5107
sS'"a'
p5104
I5108
sS'working"'
p5105
I5109
sS'"i'
p5106
I5110
sS'"r'
p5107
I5111
sS'"crab'
p5108
I5112
sS'heart"'
p5109
I5113
sS'suggest'
p5110
I5114
sS'wound'
p5111
I5115
sS'forehead'
p5112
I5116
sS'snobberi'
p5113
I5117
sS'complet'
p5114
I5118
sS'suburb'
p5115
I5119
sS'greeter'
p5116
I5120
sS'dylan'
p5117
I5121
sS'ocean'
p5118
I5005
sS'greatest'
p5119
I5123
sS'mother'
p5120
I5124
sS'jean'
p5121
I5022
sS'the"n"'
p5122
I5126
sS'gradea'
p5123
I5127
sS'inventiveness"'
p5124
I5128
sS'shackjob'
p5125
I5130
sS'"fuck'
p5126
I5131
sS'break"'
p5127
I5132
sS'expos'
p5128
I5134
sS'interfer'
p5129
I5135
sS'lope'
p5130
I6223
sS'els'
p5131
I5099
sS'gave'
p5132
I5137
sS'roach'
p5133
I5139
sS'hooked"'
p5134
I5140
sS'apart'
p5135
I5141
sS'59'
p5136
I5142
sS'58'
p5137
I5143
sS'gift'
p5138
I3520
sS'55'
p5139
I5153
sS'54'
p5140
I5146
sS'57'
p5141
I5147
sS'56'
p5142
I5148
sS'51'
p5143
I5149
sS'50'
p5144
I5150
sS'53'
p5145
I5151
sS'52'
p5146
I5152
sS'bygon'
p5147
I5145
sS'hunk'
p5148
I5154
sS'mosquito'
p5149
I5155
sS'hung'
p5150
I5156
sS'celibaci'
p5151
I5157
sS'hunt'
p5152
I5158
sS'uppers"'
p5153
I5159
sS'"keep'
p5154
I5161
sS'intellect'
p5155
I5162
sS'"debra'
p5156
I5215
sS'dressed"'
p5157
I5164
sS'ici'
p5158
I5165
sS'paints"'
p5159
I5166
sS'ice'
p5160
I5167
sS'"oooh"'
p5161
I5168
sS'attack"'
p5162
I5169
sS'cord'
p5163
I5170
sS'core'
p5164
I5171
sS'brawl'
p5165
I5172
sS'corn'
p5166
I5173
sS'coffeehous'
p5167
I5174
sS'cowboy'
p5168
I5175
sS'surround'
p5169
I5176
sS'unfortun'
p5170
I5177
sS'dinner'
p5171
I5178
sS'plus'
p5172
I5179
sS'quite"'
p5173
I5180
sS'twitch'
p5174
I5181
sS'produc'
p5175
I5182
sS'"double"'
p5176
I5183
sS'civil'
p5177
I5184
sS'bath'
p5178
I5185
sS'psychot'
p5179
I5186
sS'"fear"'
p5180
I5187
sS'sunlight'
p5181
I5188
sS'virgin'
p5182
I5189
sS'fought'
p5183
I5190
sS'head'
p5184
I5191
sS'medium'
p5185
I5192
sS'amateur'
p5186
I5193
sS'heal'
p5187
I5194
sS'unconvinc'
p5188
I5195
sS'plumber'
p5189
I2931
sS'heat'
p5190
I5197
sS'hear'
p5191
I5198
sS'refriger'
p5192
I5199
sS'born'
p5193
I5200
sS'bargain'
p5194
I5201
sS'camaro'
p5195
I5202
sS'fairbank'
p5196
I5203
sS'watch"'
p5197
I5204
sS'scratch"'
p5198
I5205
sS'trio'
p5199
I5206
sS'trip'
p5200
I5207
sS'nj'
p5201
I5208
sS'no'
p5202
I5209
sS'"stand'
p5203
I5210
sS'tip'
p5204
I5211
sS"we'repay"
p5205
I6233
sS'"hi"'
p5206
I5213
sS'tin'
p5207
I5214
sS'doorstep'
p5208
I5163
sS'tie'
p5209
I5216
sS'depot'
p5210
I5217
sS'phoenix'
p5211
I5218
sS'deathin'
p5212
I2882
sS'consid'
p5213
I5220
sS'younger'
p5214
I5221
sS'faster'
p5215
I5222
sS'bullet'
p5216
I5223
sS'serious'
p5217
I5224
sS'backward'
p5218
I5225
sS'"his'
p5219
I5226
sS'sour"'
p5220
I5227
sS'ron'
p5221
I5229
sS'tank"'
p5222
I5230
sS'celebr'
p5223
I5231
sS'rod'
p5224
I5232
sS'stumbl'
p5225
I5233
sS'deprav'
p5226
I5234
sS'row'
p5227
I5235
sS'coop'
p5228
I5237
sS'inhuman'
p5229
I5238
sS'wellkept'
p5230
I5239
sS'cook'
p5231
I5240
sS'cool'
p5232
I5241
sS'level'
p5233
I5242
sS'best"'
p5234
I5243
sS'hawaii'
p5235
I5244
sS'married"'
p5236
I5245
sS'brothel'
p5237
I5246
sS'quick'
p5238
I5247
sS'pork'
p5239
I5248
sS'tougher'
p5240
I5249
sS'bake'
p5241
I5250
sS'fear'
p5242
I6238
sS'cobwebs"'
p5243
I5252
sS'repli'
p5244
I5253
sS'"fruit'
p5245
I5254
sS'"mindi'
p5246
I5255
sS'funds"'
p5247
I5256
sS'1230'
p5248
I5257
sS'groupi'
p5249
I5258
sS'drink"'
p5250
I5259
sS'water'
p5251
I5260
sS'entertain'
p5252
I5261
sS'say"'
p5253
I5262
sS'pm"'
p5254
I5263
sS'shove'
p5255
I5264
sS'proud'
p5256
I5401
sS'beautiful"'
p5257
I5265
sS'thirti'
p5258
I5266
sS'healthi'
p5259
I5267
sS'guilti'
p5260
I5268
sS'beer"'
p5261
I5269
sS'"me'
p5262
I5270
sS'myself"'
p5263
I5271
sS'tammie"'
p5264
I5272
sS'"mi'
p5265
I5273
sS'swerv'
p5266
I5274
sS'brighten'
p5267
I2942
sS'"mr'
p5268
I5276
sS'visibl'
p5269
I5277
sS'district"'
p5270
I5278
sS'concoct'
p5271
I5279
sS'"those'
p5272
I5280
sS'suppl'
p5273
I5281
sS'loung'
p5274
I5282
sS'australian'
p5275
I5283
sS'today'
p5276
I5284
sS'barkeep'
p5277
I5285
sS'dismay'
p5278
I5286
sS'religi'
p5279
I5287
sS'wrong"'
p5280
I5288
sS'means"'
p5281
I5289
sS'judg'
p5282
I5290
sS'purpos'
p5283
I5291
sS'laughter'
p5284
I5292
sS'streak'
p5285
I5293
sS'explor'
p5286
I5294
sS'stream'
p5287
I5295
sS'"true"'
p5288
I5296
sS'critic'
p5289
I5297
sS'burbank'
p5290
I5298
sS'hydrogen'
p5291
I5299
sS'1'
p5292
I5301
sS'alway'
p5293
I5302
sS'anyon'
p5294
I5303
sS'fourth'
p5295
I5304
sS'$100'
p5296
I5305
sS'tipper'
p5297
I5306
sS'cocktail'
p5298
I5307
sS'"ah"'
p5299
I5308
sS'4th'
p5300
I5309
sS'eighth'
p5301
I5310
sS'awkward'
p5302
I2193
sS'liquid'
p5303
I5313
sS'joint'
p5304
I5314
sS'different"'
p5305
I5315
sS'inform'
p5306
I5316
sS'combin'
p5307
I5317
sS'paid"'
p5308
I5318
sS'2nd"'
p5309
I5319
sS'duke'
p5310
I5320
sS'midnight'
p5311
I5321
sS'128'
p5312
I2955
sS'hanki'
p5313
I5323
sS'dollars"'
p5314
I5324
sS'peepfreak'
p5315
I5325
sS"he'd"
p5316
I5326
sS'platform'
p5317
I5327
sS'corner"'
p5318
I5328
sS'underneath'
p5319
I5330
sS'conquer'
p5320
I5331
sS'term'
p5321
I5332
sS'name'
p5322
I5333
sS'realist'
p5323
I5334
sS'opera'
p5324
I5335
sS'clutch'
p5325
I5336
sS'hank"'
p5326
I5337
sS'soon"'
p5327
I5338
sS"mustn't"
p5328
I5339
sS'"i\'m"'
p5329
I5340
sS"weren't"
p5330
I5341
sS'individu'
p5331
I5342
sS'begun'
p5332
I5343
sS'dispos'
p5333
I5344
sS'profit'
p5334
I5345
sS'motherfucker"'
p5335
I5346
sS"shouldn't"
p5336
I5347
sS'"marshal'
p5337
I5348
sS'factori'
p5338
I5349
sS'gush'
p5339
I2966
sS'theori'
p5340
I5351
sS'flare'
p5341
I5352
sS'"honey'
p5342
I5353
sS'motion'
p5343
I5354
sS'turn'
p5344
I5355
sS'place'
p5345
I5356
sS'swing'
p5346
I5357
sS'charleston'
p5347
I5358
sS'turd'
p5348
I5359
sS'childhood'
p5349
I103
sS'cop"'
p5350
I108
sS'given'
p5351
I5362
sS'serenad'
p5352
I5363
sS'halfmoon'
p5353
I5364
sS'teenag'
p5354
I5365
sS'stuck'
p5355
I5366
sS'plastic'
p5356
I5367
sS'mouth\x97it'
p5357
I5368
sS'circl'
p5358
I5369
sS'white'
p5359
I5370
sS'hug'
p5360
I5371
sS'season'
p5361
I5372
sS'copi'
p5362
I5373
sS'huh'
p5363
I5374
sS'enclos'
p5364
I5375
sS'grunt'
p5365
I5376
sS'serv'
p5366
I5378
sS'wide'
p5367
I5379
sS'7foot'
p5368
I5380
sS'why"'
p5369
I5381
sS'endglendolin'
p5370
I5765
sS'posit'
p5371
I5382
sS'seri'
p5372
I5383
sS'chippy"'
p5373
I288
sS'churchmous'
p5374
I5386
sS'pro'
p5375
I307
sS'ani'
p5376
I5388
sS'ant'
p5377
I5389
sS'rent'
p5378
I5390
sS'techniqu'
p5379
I5391
sS'ideal'
p5380
I5392
sS'late"'
p5381
I5393
sS'surf'
p5382
I5394
sS'luckiest'
p5383
I5395
sS'sure'
p5384
I5396
sS'tornado'
p5385
I5397
sS'silvers"'
p5386
I5398
sS'entranc'
p5387
I6268
sS'photos"'
p5388
I5399
sS'seafood'
p5389
I5400
sS'later'
p5390
I416
sS'womenlydia'
p5391
I5402
sS'quantiti'
p5392
I320
sS'cortez'
p5393
I5404
sS'idea"'
p5394
I5405
sS'hungri'
p5395
I5406
sS'firecrack'
p5396
I5407
sS'perch'
p5397
I5408
sS'cheat'
p5398
I5409
sS'cheap'
p5399
I5410
sS'"last'
p5400
I5411
sS'mister'
p5401
I5412
sS'laxat'
p5402
I5413
sS'dull"'
p5403
I5536
sS'gulf'
p5404
I5414
sS'pant'
p5405
I943
sS'state'
p5406
I2978
sS'shimmer'
p5407
I5417
sS'gulp'
p5408
I5418
sS'wood'
p5409
I5419
sS'humans"'
p5410
I5420
sS'icebox'
p5411
I5421
sS'space"'
p5412
I5422
sS'scragg'
p5413
I5423
sS'jazz'
p5414
I5424
sS'"jesus'
p5415
I5425
sS'reveal'
p5416
I5426
sS'dramat'
p5417
I5427
sS'tent'
p5418
I2981
sS'"how'
p5419
I5429
sS'beethoven'
p5420
I5430
sS'picnic'
p5421
I5431
sS'pane'
p5422
I946
sS'selfhypnosi'
p5423
I5433
sS'1920'
p5424
I5434
sS'1926'
p5425
I5435
sS'stanley'
p5426
I5436
sS'detect'
p5427
I5437
sS'hiss'
p5428
I5438
sS'likeabl'
p5429
I5439
sS'guitar'
p5430
I5440
sS'brahm'
p5431
I5441
sS'comb'
p5432
I5442
sS'come'
p5433
I5443
sS'reaction'
p5434
I5444
sS'quiet'
p5435
I5445
sS'contract'
p5436
I5446
sS'way"'
p5437
I5447
sS'trim'
p5438
I5448
sS'"get'
p5439
I5449
sS'color'
p5440
I5450
sS'armchair'
p5441
I5451
sS'pot'
p5442
I5452
sS'inspir'
p5443
I5453
sS'period'
p5444
I5454
sS'pop'
p5445
I5455
sS'60'
p5446
I5456
sS'61'
p5447
I5457
sS'"great"'
p5448
I754
sS'"can\'t'
p5449
I757
sS'64'
p5450
I759
sS'65'
p5451
I5461
sS'66'
p5452
I5462
sS'67'
p5453
I5463
sS'68'
p5454
I5464
sS'69'
p5455
I5465
sS'turkey'
p5456
I5466
sS'coupl'
p5457
I5467
sS'bedsid'
p5458
I5468
sS'500'
p5459
I5469
sS'1215'
p5460
I5470
sS'padlock'
p5461
I5471
sS'standup'
p5462
I5472
sS'impati'
p5463
I5473
sS'spirit'
p5464
I5474
sS'pilot'
p5465
I5475
sS'case'
p5466
I5476
sS'shaft'
p5467
I5477
sS'myself'
p5468
I5478
sS'amend'
p5469
I5479
sS'mount'
p5470
I5480
sS'cash'
p5471
I5481
sS'arnold'
p5472
I5482
sS'life"'
p5473
I5483
sS'mound'
p5474
I5484
sS'person"'
p5475
I5485
sS'stuyvesant"'
p5476
I5486
sS'booth"'
p5477
I919
sS'helmet'
p5478
I5488
sS'$20'
p5479
I5489
sS'fender'
p5480
I5490
sS'bowl'
p5481
I5491
sS'check'
p5482
I5492
sS'mindi'
p5483
I2987
sS'eventu'
p5484
I5494
sS'week'
p5485
I5495
sS'couple"'
p5486
I5496
sS'fastjust'
p5487
I969
sS'applaud'
p5488
I5498
sS'driver'
p5489
I5499
sS'ness'
p5490
I5500
sS'director'
p5491
I983
sS'drivel'
p5492
I5502
sS'puke'
p5493
I4081
sS'mockeri'
p5494
I5503
sS'footprint'
p5495
I995
sS'applaus'
p5496
I5505
sS'133'
p5497
I6129
sS'handsom'
p5498
I5506
sS'ranch'
p5499
I5507
sS'tit'
p5500
I5508
sS'without'
p5501
I5509
sS'breasts"'
p5502
I5510
sS'model'
p5503
I5511
sS'"nice"'
p5504
I5512
sS'violenc'
p5505
I5513
sS'schedule"'
p5506
I5514
sS'when'
p5507
I5515
sS'actress'
p5508
I5516
sS'halfwat'
p5509
I1057
sS'unclear'
p5510
I6291
sS'kill'
p5511
I5519
sS'polish'
p5512
I5520
sS'mattress"'
p5513
I5521
sS'halfway'
p5514
I5522
sS'blow'
p5515
I5523
sS'dallas"'
p5516
I6293
sS'hint'
p5517
I5525
sS'rose'
p5518
I5526
sS'aboutth'
p5519
I5527
sS'except'
p5520
I5528
sS'"anyway'
p5521
I5529
sS'impound'
p5522
I5530
sS'pace"'
p5523
I5531
sS'address"'
p5524
I5532
sS'divorc'
p5525
I5533
sS'katherin'
p5526
I5534
sS'snore'
p5527
I1152
sS'bracelet'
p5528
I1158
sS'snort'
p5529
I5537
sS'prejud'
p5530
I1167
sS'kennedi'
p5531
I5539
sS'"haven\'t'
p5532
I1204
sS'freez'
p5533
I5541
sS'slice'
p5534
I5542
sS'mood'
p5535
I5543
sS'dudley'
p5536
I5544
sS'legal'
p5537
I5545
sS'moon'
p5538
I5546
sS'moor'
p5539
I5547
sS'buddha'
p5540
I5548
sS'unbeliev'
p5541
I5549
sS'freed'
p5542
I5550
sS'poem'
p5543
I2994
sS'basketballass'
p5544
I5552
sS'garbag'
p5545
I5553
sS'kleenex'
p5546
I5554
sS'calmer'
p5547
I5555
sS'tragedy"'
p5548
I5556
sS'on'
p5549
I5557
sS'ok'
p5550
I5558
sS'own"'
p5551
I5559
sS'oh'
p5552
I5560
sS'of'
p5553
I5561
sS'jeer'
p5554
I5562
sS'od'
p5555
I5563
sS'pussy\'"'
p5556
I5564
sS'shrimp'
p5557
I5565
sS'cudd'
p5558
I5566
sS'oz'
p5559
I1314
sS'stank'
p5560
I5568
sS'or'
p5561
I5569
sS'stop"'
p5562
I5570
sS'routin'
p5563
I5571
sS'gari'
p5564
I5572
sS'"poem'
p5565
I5573
sS'admixtur'
p5566
I5574
sS'burton'
p5567
I5575
sS'privateincom'
p5568
I5576
sS'730'
p5569
I6302
sS'there'
p5570
I5578
sS'strict'
p5571
I5579
sS'"shit"'
p5572
I1397
sS'valley'
p5573
I5581
sS'jug'
p5574
I1418
sS'baggage"'
p5575
I5583
sS'concess'
p5576
I5584
sS'cabinet'
p5577
I5585
sS'procedur'
p5578
I5586
sS'jut'
p5579
I5587
sS'lastnear'
p5580
I5588
sS'longer'
p5581
I5589
sS'"marvin"'
p5582
I5591
sS'grass'
p5583
I5592
sS'toilet'
p5584
I5593
sS'bobby"'
p5585
I5594
sS'frighten'
p5586
I5595
sS'words"'
p5587
I5596
sS'research"'
p5588
I5597
sS'6foot'
p5589
I5598
sS'idiot'
p5590
I5599
sS'paddl'
p5591
I5600
sS'downstairs"'
p5592
I5601
sS'legman'
p5593
I5602
sS'orient'
p5594
I5603
sS'rubber'
p5595
I5604
sS'5'
p5596
I5605
sS'call"'
p5597
I5606
sS'trash'
p5598
I5607
sS'brash'
p5599
I5608
sS'colon'
p5600
I5460
sS'symbol'
p5601
I5609
sS'headbob'
p5602
I5610
sS'rose"'
p5603
I5611
sS'wife'
p5604
I5612
sS'potenti'
p5605
I5613
sS'platter'
p5606
I5614
sS'all'
p5607
I5616
sS'lack'
p5608
I5617
sS'abil'
p5609
I5618
sS'dish'
p5610
I5619
sS'follow'
p5611
I5620
sS'thursday'
p5612
I5621
sS'program'
p5613
I5622
sS'lavori'
p5614
I5623
sS'woman'
p5615
I5624
sS'song'
p5616
I5625
sS'far'
p5617
I1707
sS'fat'
p5618
I5627
sS'fan'
p5619
I4489
sS'ticket'
p5620
I5629
sS'fag'
p5621
I5630
sS'list'
p5622
I5631
sS'pussywhip'
p5623
I5632
sS'supplies"'
p5624
I5633
sS'lisa'
p5625
I5634
sS'flick'
p5626
I5635
sS'ten'
p5627
I5636
sS'direction"'
p5628
I1777
sS'somewhere"'
p5629
I5638
sS'rate'
p5630
I5639
sS'pressur'
p5631
I5640
sS'"valerie"'
p5632
I5641
sS'what'
p5633
I5642
sS'sun'
p5634
I5643
sS'whimper'
p5635
I5644
sS'crust'
p5636
I5645
sS'overload'
p5637
I5646
sS'tenspe'
p5638
I1814
sS'crush'
p5639
I5648
sS'intersect'
p5640
I5649
sS'"fucking"'
p5641
I5650
sS'wham'
p5642
I5651
sS'blue"'
p5643
I5652
sS'themselv'
p5644
I5653
sS'mindy"'
p5645
I5654
sS'tragedi'
p5646
I5655
sS'"fiction'
p5647
I5656
sS'rat"'
p5648
I5657
sS'berkeley'
p5649
I5658
sS'goodby'
p5650
I5659
sS'concubin'
p5651
I5660
sS'when"'
p5652
I1858
sS'reddishbrown'
p5653
I5662
sS'chain'
p5654
I2386
sS'horse"'
p5655
I5663
sS'snug'
p5656
I5664
sS'know"'
p5657
I5665
sS'faint'
p5658
I5666
sS'rustic'
p5659
I5667
sS'shitr'
p5660
I5668
sS'garnish'
p5661
I5669
sS'minor'
p5662
I5670
sS'flat'
p5663
I5671
sS'flaw'
p5664
I5672
sS'2000"'
p5665
I5673
sS'inviting"'
p5666
I5674
sS'efram"'
p5667
I5675
sS'flit'
p5668
I5676
sS'stick'
p5669
I5677
sS'known'
p5670
I5678
sS'mellow'
p5671
I5679
sS'glad'
p5672
I5680
sS'eden'
p5673
I5682
sS'shit"'
p5674
I5683
sS'policemen'
p5675
I5684
sS'wrestler'
p5676
I5685
sS'v'
p5677
I5686
sS'katherine"'
p5678
I5687
sS'hid'
p5679
I5855
sS'"mind'
p5680
I5688
sS'aroundfrom'
p5681
I5689
sS'balls"'
p5682
I5690
sS'swung'
p5683
I5691
sS'openmouth'
p5684
I5692
sS'cours'
p5685
I5693
sS'court'
p5686
I5694
sS'goal'
p5687
I5695
sS'sicken'
p5688
I986
sS'rather'
p5689
I5697
sS'dorm"'
p5690
I5698
sS'mould'
p5691
I5699
sS'618'
p5692
I5700
sS'sandwich'
p5693
I5701
sS'penetr'
p5694
I5702
sS'funny"'
p5695
I5703
sS'chicago"'
p5696
I5704
sS'black"'
p5697
I5705
sS'fungus'
p5698
I5706
sS'always\'"'
p5699
I5707
sS'joint"'
p5700
I5708
sS'preoccupi'
p5701
I5709
sS'short'
p5702
I5710
sS'"booz'
p5703
I4297
sS'caus'
p5704
I5712
sS'shore'
p5705
I5713
sS'shade'
p5706
I5714
sS'music"'
p5707
I5715
sS'antibiot'
p5708
I6333
sS'quarters"'
p5709
I5717
sS'"in'
p5710
I5718
sS'slutshoes"'
p5711
I5719
sS"don't"
p5712
I5720
sS'"if'
p5713
I5721
sS'doorknob'
p5714
I5722
sS'would"'
p5715
I5723
sS'beers"'
p5716
I5724
sS'"it'
p5717
I5725
sS'"saynot'
p5718
I4763
sS'style'
p5719
I5727
sS'glide'
p5720
I5728
sS'inward'
p5721
I5729
sS'mattress'
p5722
I5730
sS'bout'
p5723
I5731
sS'sloppi'
p5724
I5732
sS'might'
p5725
I5733
sS'return'
p5726
I5734
sS'little"'
p5727
I5735
sS'hunter'
p5728
I5736
sS'wouldb'
p5729
I5737
sS'pingpong'
p5730
I5738
sS'don\'"'
p5731
I5739
sS'somebodi'
p5732
I5740
sS'bigger'
p5733
I5741
sS'filbert"'
p5734
I5742
sS'refresh'
p5735
I5743
sS'friendship'
p5736
I5744
sS'roebuck'
p5737
I5745
sS'brother'
p5738
I5746
sS'babett'
p5739
I3255
sS'butterbal'
p5740
I5748
sS'roof"'
p5741
I5749
sS'alcohol'
p5742
I5750
sS'loll'
p5743
I5751
sS'health'
p5744
I5752
sS'hill'
p5745
I5753
sS'"joanna'
p5746
I5754
sS'friday'
p5747
I5755
sS'guess'
p5748
I5160
sS'hepburn'
p5749
I5757
sS'weigh"'
p5750
I5758
sS'teach'
p5751
I5759
sS'guy'
p5752
I5760
sS'lag'
p5753
I5761
sS'blister'
p5754
I2436
sS'exjapanes'
p5755
I5763
sS'perhap'
p5756
I5764
sS'arlington'
p5757
I5590
sS'fallen'
p5758
I5766
sS'feed'
p5759
I5767
sS'sympathi'
p5760
I5768
sS'"relax'
p5761
I5769
sS'"then'
p5762
I6345
sS'feel'
p5763
I5771
sS'relaxed"'
p5764
I5772
sS'feet'
p5765
I5773
sS'sailor'
p5766
I5774
sS'pretenti'
p5767
I5775
sS'wench'
p5768
I5776
sS'blank'
p5769
I5777
sS'bland'
p5770
I5778
sS'fanci'
p5771
I5779
sS'bitch\'"'
p5772
I5780
sS'moan'
p5773
I5781
sS'"'
p5774
I5782
sS'183'
p5775
I4191
sS'swarm'
p5776
I5784
sS'stori'
p5777
I5785
sS'"$316'
p5778
I5786
sS'points"'
p5779
I5787
sS'didn\'t"'
p5780
I5788
sS'syrup'
p5781
I5789
sS'store'
p5782
I5790
sS'necklac'
p5783
I5791
sS'luckili'
p5784
I5792
sS'pump'
p5785
I3859
sS'hotel'
p5786
I5794
sS'"welcom'
p5787
I5795
sS'$6'
p5788
I5796
sS'$5'
p5789
I5797
sS'$2'
p5790
I5798
sS'shrunken'
p5791
I5799
sS'albeit'
p5792
I2577
sS'kind'
p5793
I5801
sS'whenev'
p5794
I5802
sS'exempt'
p5795
I5803
sS'remov'
p5796
I5804
sS'knive'
p5797
I5805
sS'riski'
p5798
I5806
sS'cuff'
p5799
I5807
sS'coast"'
p5800
I2604
sS'interview"'
p5801
I5809
sS'danc'
p5802
I5810
sS'cleaner'
p5803
I5811
sS'guestroom'
p5804
I5812
sS'huh"'
p5805
I5813
sS'marbl'
p5806
I5814
sS'expir'
p5807
I5815
sS'bad"'
p5808
I5816
sS'hair"'
p5809
I5817
sS'costs"'
p5810
I5818
sS'sherri'
p5811
I5819
sS'violat'
p5812
I5820
sS'moist'
p5813
I5821
sS'nighti'
p5814
I5822
sS'pianist'
p5815
I5823
sS'incisjv'
p5816
I5824
sS'neglige'
p5817
I5825
sS'reach'
p5818
I5826
sS'77'
p5819
I2277
sS'76'
p5820
I5828
sS'75'
p5821
I5829
sS'74'
p5822
I5830
sS'73'
p5823
I5831
sS'duart'
p5824
I2710
sS'71'
p5825
I5833
sS'70'
p5826
I5834
sS'nothing'
p5827
I5835
sS'79'
p5828
I5836
sS'78'
p5829
I2720
sS'bunghol'
p5830
I5838
sS'paintings"'
p5831
I5839
sS'1045'
p5832
I5840
sS'room\'"'
p5833
I5841
sS'hyena'
p5834
I5842
sS'night"'
p5835
I5843
sS'ridicul'
p5836
I5844
sS'asphalt'
p5837
I5845
sS'fond'
p5838
I5846
sS'mimeo'
p5839
I5847
sS'franklin"'
p5840
I5848
sS'"too'
p5841
I5849
sS'"guzzz'
p5842
I5850
sS'hip'
p5843
I5851
sS'his'
p5844
I5852
sS'hit'
p5845
I5853
sS'financ'
p5846
I5854
sS'"told'
p5847
I1116
sS'longest'
p5848
I5856
sS'1015'
p5849
I5857
sS'grandma"'
p5850
I5858
sS'twohead'
p5851
I5859
sS'him'
p5852
I5860
sS'starter"'
p5853
I5861
sS'vodka7'
p5854
I5862
sS'redbrown'
p5855
I5863
sS'"paints"'
p5856
I5864
sS'"give'
p5857
I5865
sS'vincent'
p5858
I5866
sS'relentless'
p5859
I5867
sS'wrote'
p5860
I5868
sS'art'
p5861
I5869
sS'bart'
p5862
I5870
sS'dump'
p5863
I5871
sS'city"'
p5864
I5872
sS'leaving"'
p5865
I5873
sS'barb'
p5866
I5874
sS'dumb'
p5867
I5875
sS'are'
p5868
I5876
sS'bark'
p5869
I5877
sS'arm'
p5870
I5878
sS'againth'
p5871
I5879
sS'various'
p5872
I5880
sS'"yes"'
p5873
I5881
sS'hot"'
p5874
I5882
sS'"that'
p5875
I5883
sS'korea'
p5876
I5884
sS'erni'
p5877
I5885
sS'sold'
p5878
I5886
sS'sole'
p5879
I5887
sS'outfit'
p5880
I5888
sS'sistersal'
p5881
I5889
sS'bar"'
p5882
I5890
sS'"potential"'
p5883
I5891
sS'days"'
p5884
I5892
sS'stinger"'
p5885
I1206
sS'union"'
p5886
I5894
sS'however"'
p5887
I5895
sS'motorcycl'
p5888
I5896
sS'carniv'
p5889
I5897
sS'sweet'
p5890
I5898
sS'wastebasket'
p5891
I5899
sS'handprint'
p5892
I3046
sS'residu'
p5893
I5901
sS'mistak'
p5894
I5902
sS'overlook'
p5895
I5903
sS'due'
p5896
I5904
sS'there"'
p5897
I5905
sS'dug'
p5898
I5906
sS'nicol'
p5899
I5907
sS'recluse"'
p5900
I5908
sS'po'
p5901
I5909
sS'pm'
p5902
I5910
sS'flight'
p5903
I5911
sS'dropout'
p5904
I5912
sS'togo'
p5905
I5913
sS'ozark'
p5906
I5914
sS'demand'
p5907
I5915
sS'reason"'
p5908
I5916
sS'perrier'
p5909
I5917
sS'lips"'
p5910
I5918
sS'frozen'
p5911
I5919
sS'parents"'
p5912
I5920
sS'abov'
p5913
I3172
sS'who"'
p5914
I5922
sS'demon'
p5915
I5923
sS'solvnag'
p5916
I5924
sS'rip'
p5917
I5925
sS'rim'
p5918
I5926
sS'frantic'
p5919
I5927
sS'rid'
p5920
I5928
sS'illinoi'
p5921
I5929
sS'anguish'
p5922
I5930
sS'shirt'
p5923
I5931
sS'windows"'
p5924
I5932
sS'away"'
p5925
I5933
sS'wellbehav'
p5926
I5934
sS'9'
p5927
I5935
sS'higher'
p5928
I3271
sS'cement'
p5929
I5937
sS'flown'
p5930
I5938
sS'wherev'
p5931
I3314
sS'"cut'
p5932
I5940
sS'lower'
p5933
I5941
sS'gameplay'
p5934
I5942
sS'people"'
p5935
I5943
sS'cheek'
p5936
I5944
sS'bouncer'
p5937
I5945
sS'daughter"'
p5938
I5946
sS'awhile"'
p5939
I5947
sS'cheer'
p5940
I5948
sS'chees'
p5941
I5949
sS'anybodi'
p5942
I1402
sS'edgi'
p5943
I5951
sS'mood"'
p5944
I5952
sS'facial'
p5945
I112
sS'pebbl'
p5946
I5954
sS'phonebook"'
p5947
I5955
sS'fairfax"'
p5948
I5956
sS'shape"'
p5949
I5957
sS'tigress'
p5950
I5958
sS'escapism"'
p5951
I5959
sS'"lydia'
p5952
I5960
sS'question"'
p5953
I5961
sS'awaken'
p5954
I5962
sS'savonfor'
p5955
I5963
sS'earthquak'
p5956
I5964
sS'table"'
p5957
I5965
sS'collect'
p5958
I5966
sS'vitalityyou'
p5959
I5967
sS'"address"'
p5960
I5968
sS'yorker'
p5961
I5969
sS'worker"'
p5962
I5970
sS'"jani'
p5963
I5971
sS'understood'
p5964
I5972
sS'"we'
p5965
I5973
sS'surpris'
p5966
I5974
sS'women"'
p5967
I5975
sS'prop'
p5968
I5236
sS'capot'
p5969
I3592
sS'prof'
p5970
I3596
sS'tinker'
p5971
I5979
sS'squeez'
p5972
I5980
sS'cautious'
p5973
I5981
sS'yawn'
p5974
I5982
sS'indigest'
p5975
I5983
sS'lifeless'
p5976
I5984
sS'"hepburn"'
p5977
I5985
sS'wanna'
p5978
I5986
sS'dwight'
p5979
I5987
sS'miracl'
p5980
I5988
sS"86'd"
p5981
I5989
sS'mommi'
p5982
I5990
sS'announc'
p5983
I5991
sS'stench'
p5984
I3743
sS'"chicago"'
p5985
I5993
sS'lone'
p5986
I3761
sS'swill'
p5987
I5144
sS'long'
p5988
I3765
sS'mongut'
p5989
I5996
sS'heartach'
p5990
I5997
sS'cloth'
p5991
I5998
sS'crank'
p5992
I5999
sS'upright'
p5993
I6000
sS'john"'
p5994
I6001
sS'junior'
p5995
I6002
sS'tomorrow"'
p5996
I2395
sS'consist'
p5997
I6003
sS'apricot'
p5998
I6004
sS"hasn't"
p5999
I6005
sS'peppermint'
p6000
I6006
sS'116'
p6001
I6387
sS'highlight'
p6002
I6008
sS'freak'
p6003
I6009
sS'tiniest'
p6004
I3883
sS'grimac'
p6005
I6011
sS'problem"'
p6006
I6012
sS'humorousin'
p6007
I6013
sS'"strumpet"'
p6008
I6014
sS'lemon'
p6009
I6015
sS'peach'
p6010
I6016
sS'"yeh"'
p6011
I6017
sS'nich'
p6012
I3933
sS'mock'
p6013
I6019
sS'nice'
p6014
I3952
sS'missil'
p6015
I6021
sS'insect'
p6016
I6022
sS'crybaby"'
p6017
I6023
sS'back"'
p6018
I6024
sS'pervert'
p6019
I6025
sS'edg'
p6020
I6026
sS'edi'
p6021
I6027
sS'filled"'
p6022
I6028
sS'sometimes"'
p6023
I6029
sS'unev'
p6024
I6030
sS'dresser'
p6025
I3062
sS'gang'
p6026
I6032
sS'bedroom"'
p6027
I6033
sS'deal"'
p6028
I6034
sS'"mindy"'
p6029
I6035
sS'gold'
p6030
I6036
sS'celib'
p6031
I6037
sS'celin'
p6032
I6038
sS'note"'
p6033
I6039
sS'uturn'
p6034
I6040
sS'cahuenga'
p6035
I6041
sS'judi'
p6036
I6042
sS'cupboard"'
p6037
I6043
sS'"it\'ll'
p6038
I4128
sS'half"'
p6039
I6105
sS'hilda"'
p6040
I6045
sS'"iris"'
p6041
I6046
sS'"extra'
p6042
I6047
sS'dealt'
p6043
I6048
sS'pleas'
p6044
I6049
sS'someday'
p6045
I6050
sS'sex"'
p6046
I6051
sS'smaller'
p6047
I4182
sS"you'd"
p6048
I6053
sS'"chinaski"'
p6049
I6054
sS'battl'
p6050
I6055
sS'"organ'
p6051
I6056
sS'fold'
p6052
I6057
sS'helicopt'
p6053
I6058
sS"you'r"
p6054
I4214
sS'plead'
p6055
I4217
sS'acid'
p6056
I6061
sS'folk'
p6057
I6062
sS'compar'
p6058
I6063
sS'$1000'
p6059
I6064
sS'vibrat'
p6060
I6065
sS'sexi'
p6061
I6066
sS'ambit'
p6062
I6067
sS'seaver'
p6063
I6068
sS'miser'
p6064
I6069
sS'larger'
p6065
I6070
sS'rattan'
p6066
I6071
sS'bare'
p6067
I6072
sS'knocktini'
p6068
I6073
sS'loneliness"'
p6069
I4345
sS'dolls"'
p6070
I6075
sS'confession'
p6071
I6076
sS'volk'
p6072
I6077
sS'secretion"'
p6073
I6078
sS'motor'
p6074
I6079
sS'duck'
p6075
I6080
sS'ape'
p6076
I6081
sS'use'
p6077
I4385
sS'hahahahaha'
p6078
I6083
sS'from'
p6079
I6084
sS'usa'
p6080
I6085
sS'few'
p6081
I6086
sS'sort'
p6082
I6087
sS'clever'
p6083
I6088
sS'porch'
p6084
I6089
sS'impress'
p6085
I6090
sS'red"'
p6086
I6091
sS'sculptor'
p6087
I6092
sS'women'
p6088
I6093
sS'ice"'
p6089
I6094
sS'us"'
p6090
I6095
sS'stroke'
p6091
I6096
sS'lumber'
p6092
I4453
sS'"where'
p6093
I6098
sS'arlen'
p6094
I6099
sS'tap'
p6095
I4479
sS'"ha"'
p6096
I6101
sS'tag'
p6097
I4492
sS'tab'
p6098
I6103
sS'tan'
p6099
I6104
sS'rape'
p6100
I4504
sS'sir'
p6101
I6106
sS'sip'
p6102
I6107
sS'sit'
p6103
I6108
sS'six'
p6104
I6109
sS'instead'
p6105
I6110
sS'panic'
p6106
I6111
sS'sin'
p6107
I6112
sS'sidewalka'
p6108
I6113
sS'sweat'
p6109
I6415
sS'attend'
p6110
I6115
sS'hazard'
p6111
I6116
sS'arbuckle"'
p6112
I6117
sS'wrist'
p6113
I6118
sS'attent'
p6114
I4553
sS'hahahaha'
p6115
I6120
sS'"suck'
p6116
I6121
sS'villag'
p6117
I6122
sS'light'
p6118
I6123
sS'carefullytrim'
p6119
I6124
sS'sidewalk"'
p6120
I6125
sS'wrinkl'
p6121
I4251
sS'won\'t"'
p6122
I6127
sS'pig"'
p6123
I3037
sS'tables"'
p6124
I332
sS'132'
p6125
I6130
sS'131'
p6126
I6131
sS'130'
p6127
I6132
sS'137'
p6128
I6133
sS'joanna'
p6129
I4633
sS'135'
p6130
I6135
sS'134'
p6131
I3731
sS'139'
p6132
I6137
sS'138'
p6133
I6138
sS'superior'
p6134
I6139
sS'world"'
p6135
I6140
sS'restrain'
p6136
I6141
sS'redhead'
p6137
I6142
sS'holiday'
p6138
I6143
sS'spot'
p6139
I6144
sS'crash'
p6140
I4685
sS'"bastard'
p6141
I6146
sS'flew'
p6142
I4694
sS'edit'
p6143
I6148
sS'"fine"'
p6144
I6149
sS'feast'
p6145
I6150
sS'trap'
p6146
I6151
sS'mediumlength'
p6147
I6152
sS'by"'
p6148
I6153
sS'arkansa'
p6149
I6154
sS'midthirti'
p6150
I6155
sS'88'
p6151
I6156
sS'89'
p6152
I6157
sS'82'
p6153
I6158
sS'our'
p6154
I4793
sS'80'
p6155
I6160
sS'81'
p6156
I6161
sS'86'
p6157
I6162
sS'87'
p6158
I6163
sS'84'
p6159
I6164
sS'out'
p6160
I4808
sS'semen'
p6161
I6166
sS'sentiment'
p6162
I6167
sS'valium"'
p6163
I6168
sS'glendolin'
p6164
I6169
sS'iceland'
p6165
I4373
sS"what'll"
p6166
I6170
sS'studio"'
p6167
I6171
sS'york'
p6168
I6172
sS'van'
p6169
I6426
sS'anyhow'
p6170
I6174
sS'tenant'
p6171
I6175
sS'bigass'
p6172
I6176
sS'nowher'
p6173
I789
sS'g'
p6174
I6178
sS'"whenev'
p6175
I6179
sS'"hell'
p6176
I6180
sS'birthday'
p6177
I6181
sS'eyesbluegreen'
p6178
I6182
sS'renni'
p6179
I6183
sS'echo'
p6180
I6184
sS'"uh'
p6181
I6185
sS'318'
p6182
I6186
sS'called"'
p6183
I6187
sS'straight'
p6184
I1114
sS"doesn't"
p6185
I6188
sS'patient"'
p6186
I6189
sS'droop'
p6187
I4960
sS'"clean'
p6188
I6191
sS'unknown'
p6189
I6192
sS'trembl'
p6190
I4969
sS'capac'
p6191
I6194
sS'pocketknif'
p6192
I6195
sS'313'
p6193
I3611
sS'expenditur'
p6194
I6197
sS'enough"'
p6195
I6198
sS'siam'
p6196
I6199
sS'311'
p6197
I6200
sS'boil'
p6198
I6201
sS'shell'
p6199
I6202
sS'juli'
p6200
I6203
sS'diminish'
p6201
I6204
sS'314'
p6202
I6205
sS'"stick'
p6203
I6206
sS'practic'
p6204
I5312
sS'"god'
p6205
I6207
sS'"man'
p6206
I6208
sS'bookcas'
p6207
I6209
sS'"got'
p6208
I6210
sS'aircondition'
p6209
I6211
sS'"may'
p6210
I6212
sS'clit'
p6211
I6213
sS'clip'
p6212
I6214
sS'splatter'
p6213
I5094
sS'oughta'
p6214
I6216
sS'"well"'
p6215
I6217
sS'pinbal'
p6216
I6218
sS'catholic'
p6217
I6219
sS'afraid'
p6218
I6220
sS'rout'
p6219
I6221
sS'"mother'
p6220
I6222
sS'especi'
p6221
I2152
sS'which'
p6222
I6224
sS'roug'
p6223
I6225
sS'"shut'
p6224
I1078
sS'who'
p6225
I6226
sS'whi'
p6226
I6227
sS'"vodka7'
p6227
I6228
sS'selfsuffici'
p6228
I6229
sS'class'
p6229
I6230
sS'clasp'
p6230
I6231
sS'pipe'
p6231
I6232
sS'deni'
p6232
I5212
sS'valencia"'
p6233
I5219
sS'one"'
p6234
I6235
sS'word"'
p6235
I6236
sS'stove'
p6236
I6237
sS'chicken'
p6237
I5251
sS'overflow'
p6238
I6239
sS'many"'
p6239
I6240
sS'locat'
p6240
I6242
sS'true"'
p6241
I6243
sS'piano'
p6242
I6244
sS'local'
p6243
I6245
sS'spun'
p6244
I6246
sS'sued'
p6245
I6247
sS'dope'
p6246
I6248
sS'depressed"'
p6247
I6249
sS'agree"'
p6248
I6250
sS'made'
p6249
I6434
sS'please"'
p6250
I6252
sS'spur'
p6251
I6253
sS'"fair'
p6252
I6254
sS'"158'
p6253
I6255
sS'listed"'
p6254
I6256
sS'goggl'
p6255
I6257
sS'view'
p6256
I6258
sS'buzzer'
p6257
I6259
sS'groids"'
p6258
I6260
sS'"between'
p6259
I6261
sS'knowledg'
p6260
I6262
sS'"poor'
p6261
I6263
sS'publisher"'
p6262
I6264
sS'nightgown'
p6263
I6438
sS'"selfdoubt'
p6264
I6266
sS'closer'
p6265
I6267
sS'zing'
p6266
I5615
sS'cole'
p6267
I6269
sS'panti'
p6268
I6270
sS'closet'
p6269
I6271
sS'"death'
p6270
I6272
sS'"think'
p6271
I6273
sS'junki'
p6272
I6274
sS'bought'
p6273
I6275
sS'joy'
p6274
I6276
sS'copul'
p6275
I6277
sS'job'
p6276
I6278
sS'entir'
p6277
I6279
sS'joe'
p6278
I6280
sS'spoil'
p6279
I6281
sS'jog'
p6280
I6282
sS'undershirt"'
p6281
I6283
sS'swift'
p6282
I6284
sS'addit'
p6283
I6285
sS'cookies"'
p6284
I6286
sS'close"'
p6285
I6287
sS'april'
p6286
I6288
sS'bront'
p6287
I6289
sS'hungovernot'
p6288
I6290
sS'dement'
p6289
I5518
sS'ike'
p6290
I6292
sS'worldli'
p6291
I5524
sS'wall'
p6292
I6294
sS'arriv'
p6293
I6295
sS'walk'
p6294
I6296
sS'$1020'
p6295
I6297
sS'"fellow'
p6296
I6298
sS'decent'
p6297
I6299
sS'"i\'v'
p6298
I6300
sS'compos'
p6299
I6301
sS'"just'
p6300
I5577
sS'$450"'
p6301
I6303
sS'besid'
p6302
I6304
sS'motherfuck'
p6303
I6305
sS'"i\'m'
p6304
I6306
sS'"typing"'
p6305
I6307
sS'"i\'d'
p6306
I6308
sS'mike'
p6307
I6309
sS'pill"'
p6308
I2123
sS'presenc'
p6309
I6310
sS'kisser'
p6310
I6311
sS'"right"'
p6311
I6312
sS'bathwat'
p6312
I6313
sS'overturn'
p6313
I6314
sS'present'
p6314
I3876
sS'crappi'
p6315
I6316
sS'boardwalk'
p6316
I6449
sS'chips"'
p6317
I6317
sS'will'
p6318
I6318
sS'"forget'
p6319
I6319
sS'fingertip'
p6320
I6320
sS'sanctifi'
p6321
I6321
sS'wild'
p6322
I6322
sS'observ'
p6323
I6323
sS'layer'
p6324
I6324
sS'axlesmi'
p6325
I6325
sS'thus'
p6326
I6326
sS'photographs"'
p6327
I6327
sS'motiv'
p6328
I6328
sS'lightweight'
p6329
I6329
sS'ave'
p6330
I6330
sS'takeoff"'
p6331
I6331
sS'whore'
p6332
I6332
sS'apart"'
p6333
I5716
sS'headlight'
p6334
I6334
sS'cross'
p6335
I6335
sS'midwint'
p6336
I6336
sS'member'
p6337
I6337
sS'inch'
p6338
I6338
sS'difficult'
p6339
I6339
sS'"they'
p6340
I6340
sS'slave'
p6341
I6341
sS'audience"'
p6342
I6342
sS'lobbi'
p6343
I1329
sS'beast'
p6344
I6344
sS'student'
p6345
I5770
sS'pedal'
p6346
I6346
sS'collat'
p6347
I6347
sS'gutter'
p6348
I6348
sS'liza"'
p6349
I6349
sS'get"'
p6350
I6350
sS'scissor'
p6351
I6351
sS'pyjama'
p6352
I6352
sS'english'
p6353
I6353
sS'privilege"'
p6354
I6354
sS'rocket'
p6355
I6355
sS'boot'
p6356
I6356
sS'lovein'
p6357
I6357
sS'heavili'
p6358
I6358
sS'simultan'
p6359
I6359
sS'rapid'
p6360
I6360
sS'"blood'
p6361
I6361
sS'bell'
p6362
I6362
sS'sky'
p6363
I6363
sS'discuss'
p6364
I6364
sS'other'
p6365
I6456
sS'287'
p6366
I6366
sS'rememb'
p6367
I6367
sS'came"'
p6368
I6368
sS'offer"'
p6369
I6369
sS'know'
p6370
I6370
sS'dressing"'
p6371
I5129
sS'press'
p6372
I6372
sS'doughnut'
p6373
I6373
sS'"but'
p6374
I6374
sS'"your'
p6375
I6375
sS'handpaint'
p6376
I6376
sS'incred'
p6377
I6377
sS'jar"'
p6378
I6378
sS'imbecil'
p6379
I6379
sS'loser'
p6380
I6380
sS'gut"'
p6381
I6381
sS'exceed'
p6382
I6382
sS'trashbin'
p6383
I6383
sS'115'
p6384
I6384
sS'114'
p6385
I6385
sS'117'
p6386
I6386
sS'poet"'
p6387
I6007
sS'holler'
p6388
I3450
sS'110'
p6389
I6389
sS'113'
p6390
I6390
sS'112'
p6391
I6391
sS'snaggl'
p6392
I6392
sS'119'
p6393
I6393
sS'118'
p6394
I6394
sS'sake"'
p6395
I6395
sS'lead'
p6396
I6396
sS'leak'
p6397
I6397
sS'lean'
p6398
I6398
sS'provoc'
p6399
I6399
sS'leap'
p6400
I6400
sS'leav'
p6401
I6401
sS'settl'
p6402
I6402
sS'leader'
p6403
I6403
sS'cleavag'
p6404
I6404
sS'obey'
p6405
I6405
sS'slur'
p6406
I6406
sS'slut'
p6407
I6407
sS'baldy"'
p6408
I6408
sS'167'
p6409
I6409
sS'slug'
p6410
I6410
sS'reward'
p6411
I6411
sS'rare'
p6412
I6412
sS'column'
p6413
I6413
sS'swear'
p6414
I6414
sS'5yearold'
p6415
I6114
sS'emperor'
p6416
I6416
sS'mine"'
p6417
I6417
sS'owl'
p6418
I6418
sS'own'
p6419
I6419
sS'"mommi'
p6420
I6420
sS'owe'
p6421
I6421
sS'loner'
p6422
I6422
sS'soulagain'
p6423
I6423
sS'cri'
p6424
I1060
sS'brush'
p6425
I6424
sS'postal'
p6426
I6425
sS'mad"'
p6427
I6173
sS'transfer'
p6428
I6427
sS'appl'
p6429
I6428
sS'mailer'
p6430
I6429
sS'wrestl'
p6431
I6430
sS'brassier'
p6432
I6431
sS'disliked"'
p6433
I6432
sS'tessie"'
p6434
I6433
sS'this"'
p6435
I6251
sS'waswhich'
p6436
I6435
sS'whether'
p6437
I6436
sS'injur'
p6438
I6437
sS'troubl'
p6439
I6265
sS'"canada'
p6440
I6439
sS'venetian'
p6441
I6440
sS'record'
p6442
I6441
sS'below'
p6443
I6442
sS'injun'
p6444
I6443
sS'cake'
p6445
I6444
sS'fulllength'
p6446
I6445
sS'sexpot'
p6447
I6446
sS'meaningless'
p6448
I6447
sS'desks"'
p6449
I6448
sS'fast"'
p6450
I5329
sS'"so'
p6451
I6450
sS'kind"'
p6452
I6451
sS'booz'
p6453
I6343
sS'costumes"'
p6454
I6453
sS'boop'
p6455
I6454
sS'hairi'
p6456
I5893
sS'book'
p6457
I6365
sS'sick'
p6458
I6457
sS'coffeet'
p6459
I6458
sS'bennie"'
p6460
I6459
sS'"$12000"'
p6461
I6460
sS'cliff'
p6462
I6461
sS'"human'
p6463
I6462
sS'negressveri'
p6464
I6463
sS'gameit'
p6465
I1921
s.